 ConEmu

 Timestamp is 625dcec8 (Mon Apr 18 22:49:12 2022)

 Preferred load address is 00400000

 Start         Length     Name                   Class
 0001:00000000 000000c0H .text$di                CODE
 0001:000000c0 0011edc4H .text$mn                CODE
 0001:0011ee84 0000af17H .text$x                 CODE
 0001:00129d9b 000000edH .text$yd                CODE
 0002:00000000 00000814H .idata$5                DATA
 0002:00000814 00000008H .00cfg                  DATA
 0002:0000081c 00000004H .CRT$XCA                DATA
 0002:00000820 00000004H .CRT$XCAA               DATA
 0002:00000824 00000028H .CRT$XCU                DATA
 0002:0000084c 00000004H .CRT$XCZ                DATA
 0002:00000850 00000004H .CRT$XIA                DATA
 0002:00000854 00000004H .CRT$XIAA               DATA
 0002:00000858 00000004H .CRT$XIAC               DATA
 0002:0000085c 00000014H .CRT$XIC                DATA
 0002:00000870 00000004H .CRT$XIZ                DATA
 0002:00000874 00000004H .CRT$XLA                DATA
 0002:00000878 00000004H .CRT$XLZ                DATA
 0002:0000087c 00000004H .CRT$XPA                DATA
 0002:00000880 00000008H .CRT$XPX                DATA
 0002:00000888 00000004H .CRT$XPXA               DATA
 0002:0000088c 00000004H .CRT$XPZ                DATA
 0002:00000890 00000004H .CRT$XTA                DATA
 0002:00000894 0000000cH .CRT$XTZ                DATA
 0002:00000898 00000000H .gfids$x                DATA
 0002:00000898 00000000H .gfids$y                DATA
 0002:000008a0 00063920H .rdata                  DATA
 0002:000641c0 00000000H .rdata$CastGuardVftablesA DATA
 0002:000641c0 00000000H .rdata$CastGuardVftablesC DATA
 0002:000641c0 00000018H .rdata$T                DATA
 0002:000641d8 00003458H .rdata$r                DATA
 0002:00067630 00000a48H .rdata$sxdata           DATA
 0002:00068078 000000d4H .rdata$voltmd           DATA
 0002:0006814c 000003f8H .rdata$zzzdbg           DATA
 0002:00068544 00000004H .rtc$IAA                DATA
 0002:00068548 00000004H .rtc$IZZ                DATA
 0002:0006854c 00000004H .rtc$TAA                DATA
 0002:00068550 00000004H .rtc$TZZ                DATA
 0002:00068554 00000004H .tls                    DATA
 0002:00068558 00000004H .tls$                   DATA
 0002:0006855c 00000004H .tls$ZZZ                DATA
 0002:00068560 00009e4cH .xdata$x                DATA
 0002:000723ac 00000000H .edata                  DATA
 0002:000723ac 00000104H .idata$2                DATA
 0002:000724b0 00000014H .idata$3                DATA
 0002:000724c4 00000814H .idata$4                DATA
 0002:00072cd8 00002406H .idata$6                DATA
 0003:00000000 00003310H .data                   DATA
 0003:00003310 00000658H .data$r                 DATA
 0003:00003968 000015c0H .data$rs                DATA
 0003:00004f28 0002e7b0H .bss                    DATA
 0004:00000000 000014c0H .rsrc$01                DATA
 0004:000014c0 000700a0H .rsrc$02                DATA

  Address         Publics by Value              Rva+Base       Lib:Object

 0000:00000000       ___guard_eh_cont_count     00000000     <absolute>
 0000:00000000       ___arm64x_redirection_metadata 00000000     <absolute>
 0000:00000000       ___arm64x_extra_rfe_table  00000000     <absolute>
 0000:00000000       ___hybrid_code_map         00000000     <absolute>
 0000:00000000       __except_list              00000000     <absolute>
 0000:00000000       ___guard_longjmp_table     00000000     <absolute>
 0000:00000000       ___x64_code_ranges_to_entry_points 00000000     <absolute>
 0000:00000000       ___arm64x_extra_rfe_table_size 00000000     <absolute>
 0000:00000000       ___guard_longjmp_count     00000000     <absolute>
 0000:00000000       ___guard_check_icall_a64n_fptr 00000000     <absolute>
 0000:00000000       ___arm64x_redirection_metadata_count 00000000     <absolute>
 0000:00000000       ___x64_code_ranges_to_entry_points_count 00000000     <absolute>
 0000:00000000       ___guard_iat_count         00000000     <absolute>
 0000:00000000       ___arm64x_native_entrypoint 00000000     <absolute>
 0000:00000000       ___guard_iat_table         00000000     <absolute>
 0000:00000000       ___hybrid_code_map_count   00000000     <absolute>
 0000:00000000       ___hybrid_auxiliary_iat    00000000     <absolute>
 0000:00000000       ___dynamic_value_reloc_table 00000000     <absolute>
 0000:00000000       ___guard_fids_count        00000000     <absolute>
 0000:00000000       ___guard_eh_cont_table     00000000     <absolute>
 0000:00000000       ___AbsoluteZero            00000000     <absolute>
 0000:00000000       ___enclave_config          00000000     <absolute>
 0000:00000000       ___guard_fids_table        00000000     <absolute>
 0000:00000000       ___hybrid_auxiliary_iat_copy 00000000     <absolute>
 0000:0000002c       __tls_array                0000002c     <absolute>
 0000:00000100       ___guard_flags             00000100     <absolute>
 0000:00000292       ___safe_se_handler_count   00000292     <absolute>
 0000:00000000       ___ImageBase               00400000     <linker-defined>
 0001:000000c0       ??$GetProcAddress@$$A6GHPAXK0W4_MINIDUMP_TYPE@@PAU_MINIDUMP_EXCEPTION_INFORMATION@@PAU_MINIDUMP_USER_STREAM_INFORMATION@@PAU_MINIDUMP_CALLBACK_INFORMATION@@@Z@MModule@@QBE_NQBDAAP6GHPAXK1W4_MINIDUMP_TYPE@@PAU_MINIDUMP_EXCEPTION_INFORMATION@@PAU_MINIDUMP_USER_STREAM_INFORMATION@@PAU_MINIDUMP_CALLBACK_INFORMATION@@@Z@Z 004010c0 f i ConEmuApp.obj
 0001:000000c0       ??$GetProcAddress@$$A6GJPAUHKEY__@@PA_WPAK22222222PAU_FILETIME@@@Z@MModule@@QBE_NQBDAAP6GJPAUHKEY__@@PA_WPAK33333333PAU_FILETIME@@@Z@Z 004010c0 f i DefaultTerm.obj
 0001:000000c0       ??$GetProcAddress@$$A6GJPAUHMONITOR__@@W4MonitorDpiType@@PAI2@Z@MModule@@QBE_NQBDAAP6GJPAUHMONITOR__@@W4MonitorDpiType@@PAI3@Z@Z 004010c0 f i DpiAware.obj
 0001:000000c0       ??$GetProcAddress@$$A6GHXZ@MModule@@QBE_NQBDAAP6GHXZ@Z 004010c0 f i AboutDlg.obj
 0001:000000c0       ??$GetProcAddress@$$A6GJPAUHKEY__@@PB_WPAK2PAE2@Z@MModule@@QBE_NQBDAAP6GJPAUHKEY__@@PB_WPAK3PAE3@Z@Z 004010c0 f i DefaultTerm.obj
 0001:000000c0       ??$GetProcAddress@$$A6GJPBU_TASKDIALOGCONFIG@@PAH11@Z@MModule@@QBE_NQBDAAP6GJPBU_TASKDIALOGCONFIG@@PAH22@Z@Z 004010c0 f i ConfirmDlg.obj
 0001:000000c0       ??$GetProcAddress@$$A6GHPAXPAH@Z@MModule@@QBE_NQBDAAP6GHPAXPAH@Z@Z 004010c0 f i common-kernel32:MProcessBits.obj
 0001:000000c0       ??$GetProcAddress@$$A6GJPAUHKEY__@@PB_WKPA_WKKPAU_SECURITY_ATTRIBUTES@@PAPAU1@PAK@Z@MModule@@QBE_NQBDAAP6GJPAUHKEY__@@PB_WKPA_WKKPAU_SECURITY_ATTRIBUTES@@PAPAU1@PAK@Z@Z 004010c0 f i DefaultTerm.obj
 0001:000000c0       ??$GetProcAddress@$$A6GHPAXPAU_OVERLAPPED@@@Z@MModule@@QBE_NQBDAAP6GHPAXPAU_OVERLAPPED@@@Z@Z 004010c0 f i RealConsole.obj
 0001:000000c0       ??$GetProcAddress@$$A6GHPAU_OSVERSIONINFOEXW@@K_K@Z@MModule@@QBE_NQBDAAP6GHPAU_OSVERSIONINFOEXW@@K_K@Z@Z 004010c0 f i common-kernel32:WObjects.obj
 0001:000000c0       ??$GetProcAddress@$$A6GJW4ProcessDpiAwareness@@@Z@MModule@@QBE_NQBDAAP6GJW4ProcessDpiAwareness@@@Z@Z 004010c0 f i DpiAware.obj
 0001:000000c0       ??$GetProcAddress@$$A6GHPAX@Z@MModule@@QBE_NQBDAAP6GHPAX@Z@Z 004010c0 f i RealConsole.obj
 0001:000000c0       ??$GetProcAddress@$$A6GKPB_WPAEPAK@Z@MModule@@QBE_NQBDAAP6GKPB_WPAEPAK@Z@Z 004010c0 f i TaskScheduler.obj
 0001:000000c0       ??$GetProcAddress@$$A6GJPAH@Z@MModule@@QBE_NQBDAAP6GJPAH@Z@Z 004010c0 f i AboutDlg.obj
 0001:000000c0       ??$GetProcAddress@$$A6GJPAUHKEY__@@PB_WKKPBEK@Z@MModule@@QBE_NQBDAAP6GJPAUHKEY__@@PB_WKKPBEK@Z@Z 004010c0 f i DefaultTerm.obj
 0001:000000c0       ??$GetProcAddress@$$A6GHKPAK@Z@MModule@@QBE_NQBDAAP6GHKPAK@Z@Z 004010c0 f i common-user32:WSession.obj
 0001:000000c0       ??$GetProcAddress@$$A6GJPAUHKEY__@@@Z@MModule@@QBE_NQBDAAP6GJPAUHKEY__@@@Z@Z 004010c0 f i DefaultTerm.obj
 0001:000000c0       ??$GetProcAddress@$$A6GKPB_WKK@Z@MModule@@QBE_NQBDAAP6GKPB_WKK@Z@Z 004010c0 f i TaskScheduler.obj
 0001:000000c0       ??$GetProcAddress@$$A6GHPAUCE_CONSOLE_HISTORY_INFO@@@Z@MModule@@QBE_NQBDAAP6GHPAUCE_CONSOLE_HISTORY_INFO@@@Z@Z 004010c0 f i ConEmuApp.obj
 0001:000000c0       ??$GetProcAddress@$$A6GKXZ@MModule@@QBE_NQBDAAP6GKXZ@Z 004010c0 f i common-user32:WSession.obj
 0001:000000c0       ??$GetProcAddress@$$A6GJPAUHWND__@@HPAXKPA_W@Z@MModule@@QBE_NQBDAAP6GJPAUHWND__@@HPAXKPA_W@Z@Z 004010c0 f i common-kernel32:MFileLog.obj
 0001:000000fc       ??$SafeDelete@VCImgButtons@@@@YAXAAPAVCImgButtons@@@Z 004010fc f i AboutDlg.obj
 0001:0000012d       ??$swprintf_c@$0BE@@@YAHAAY0BE@_WPB_WZZ 0040112d f i AboutDlg.obj
 0001:00000143       ??$swprintf_c@$0BI@@@YAHAAY0BI@_WPB_WZZ 00401143 f i AboutDlg.obj
 0001:00000159       ??$swprintf_c@$0CA@@@YAHAAY0CA@_WPB_WZZ 00401159 f i AboutDlg.obj
 0001:0000016f       ??$swprintf_c@$0EBA@@@YAHAAY0EBA@_WPB_WZZ 0040116f f i AboutDlg.obj
 0001:00000188       ??$swprintf_c@$0IA@@@YAHAAY0IA@_WPB_WZZ 00401188 f i AboutDlg.obj
 0001:000001a1       ??$ultow_s@$0CA@@@YAPB_WIAAY0CA@_WH@Z 004011a1 f i AboutDlg.obj
 0001:000001c9       ??$wcscat_c@$0IA@@@YAHAAY0IA@_WPB_W@Z 004011c9 f i AboutDlg.obj
 0001:000001de       ?InitCommCtrls@ConEmuAbout@@YAXXZ 004011de f   AboutDlg.obj
 0001:0000020d       ?LoadWindowsBuild@LoadStartupEnvEx@@KA?AUCEStr@@ABU_OSVERSIONINFOEXW@@@Z 0040120d f i AboutDlg.obj
 0001:000004de       ?LogStartEnvInt@ConEmuAbout@@YAXPB_WJ_N1@Z 004014de f   AboutDlg.obj
 0001:0000056e       ?OnInfo_About@ConEmuAbout@@YAXPB_W@Z 0040156e f   AboutDlg.obj
 0001:000006cb       ?OnInfo_Donate@ConEmuAbout@@YAXXZ 004016cb f   AboutDlg.obj
 0001:000006ea       ?OnInfo_DonateLink@ConEmuAbout@@YAXXZ 004016ea f   AboutDlg.obj
 0001:0000071f       ?OnInfo_DownloadPage@ConEmuAbout@@YAXXZ 0040171f f   AboutDlg.obj
 0001:00000755       ?OnInfo_FirstStartPage@ConEmuAbout@@YAXXZ 00401755 f   AboutDlg.obj
 0001:0000078b       ?OnInfo_Help@ConEmuAbout@@YAXXZ 0040178b f   AboutDlg.obj
 0001:00000815       ?OnInfo_HomePage@ConEmuAbout@@YAXXZ 00401815 f   AboutDlg.obj
 0001:0000084b       ?OnInfo_OnlineWiki@ConEmuAbout@@YAXPB_W@Z 0040184b f   AboutDlg.obj
 0001:000008c3       ?OnInfo_ReportBug@ConEmuAbout@@YAXXZ 004018c3 f   AboutDlg.obj
 0001:000008f9       ?OnInfo_ReportCrash@ConEmuAbout@@YAXPB_W@Z 004018f9 f   AboutDlg.obj
 0001:00000981       ?OnInfo_ThrowTrapException@ConEmuAbout@@YAX_N@Z 00401981 f   AboutDlg.obj
 0001:00000a13       ?OnInfo_WhatsNew@ConEmuAbout@@YAX_N@Z 00401a13 f   AboutDlg.obj
 0001:00000acb       ?ReloadSysInfo@ConEmuAbout@@YAXXZ 00401acb f   AboutDlg.obj
 0001:00000b19       ?StringCchCatW@@YGJPA_WIPB_W@Z 00401b19 f i AboutDlg.obj
 0001:00000b64       ?StringCchCopyW@@YGJPA_WIPB_W@Z 00401b64 f i AboutDlg.obj
 0001:00000b93       ?StringCchVPrintfW@@YGJPA_WIPB_WPAD@Z 00401b93 f i AboutDlg.obj
 0001:00000c92       ?TabSelected@ConEmuAbout@@YAXPAUHWND__@@H@Z 00401c92 f   AboutDlg.obj
 0001:00000d33       ?ToString@LoadStartupEnvEx@@SAXPAUCEStartupEnv@@P6AXPB_WJ_N2@ZJ@Z 00401d33 f i AboutDlg.obj
 0001:00001bf1       ?aboutProc@ConEmuAbout@@YGHPAUHWND__@@IIJ@Z 00402bf1 f   AboutDlg.obj
 0001:000021f8       ?searchProc@ConEmuAbout@@YAXPAUHWND__@@0_N@Z 004031f8 f   AboutDlg.obj
 0001:000024b6       ___local_stdio_printf_options 004034b6 f i AboutDlg.obj
 0001:000024bc       __vsnwprintf_l             004034bc f i AboutDlg.obj
 0001:000024ee       ??$swprintf_c@$0FA@@@YAHAAY0FA@_WPB_WZZ 004034ee f i AltNumpad.obj
 0001:00002504       ??$swprintf_c@$0HI@@@YAHAAY0HI@_WPB_WZZ 00403504 f i AltNumpad.obj
 0001:0000251a       ??0CAltNumpad@@QAE@PAVCConEmuMain@@@Z 0040351a f   AltNumpad.obj
 0001:00002548       ?PrintRecentStack@CTabBarClass@@QAEXXZ 00403548 f   TabBar.obj
 0001:00002548       ??1CAltNumpad@@QAE@XZ      00403548 f   AltNumpad.obj
 0001:00002548       ?_Doraise@exception@stdext@@MBEXXZ 00403548 f   common-kernel32:CEStr.obj
 0001:00002548       ??1DpiValue@@QAE@XZ        00403548 f   DpiAware.obj
 0001:00002548       ?PostCreateThreadFinished@CDefTermBase@@MAEXXZ 00403548 f   DefaultTerm.obj
 0001:00002548       ?PostCreateThreadFinished@CDefaultTerminal@@MAEXXZ 00403548 f   DefaultTerm.obj
 0001:00002548       ?OnTaskbarCreated@CDragDropData@@QAEXXZ 00403548 f   DragDropData.obj
 0001:00002548       ?PreCreateThread@CDefTermBase@@MAEXXZ 00403548 f   DefaultTerm.obj
 0001:00002548       ?SyncWindowToConsole@CVConGroup@@SAXXZ 00403548 f   VConGroup.obj
 0001:00002548       ??1HandleMonitor@@QAE@XZ   00403548 f   GdiObjects.obj
 0001:00002548       __initialize_denormal_control 00403548 f   LIBCMT:denormal_control.obj
 0001:00002548       ?destroy@stl_critical_section_win7@details@Concurrency@@UAEXXZ 00403548 f   libcpmt:mutex.obj
 0001:00002548       ?RunDebugTests@@YAXXZ      00403548 f   UnitTests.obj
 0001:00002548       ??1CPushInfo@@QAE@XZ       00403548 f   PushInfo.obj
 0001:00002548       @_guard_check_icall_nop@4  00403548 f   LIBCMT:guard_support.obj
 0001:00002548       ?ResetOnStart@CVirtualConsole@@QAEXXZ 00403548 f   VirtualConsole.obj
 0001:00002548       ?OnTerminate@GlobalHotkeys@@QBEXXZ 00403548 f   GlobalHotkeys.obj
 0001:00002548       ??1CRConFiles@@QAE@XZ      00403548 f   RConFiles.obj
 0001:00002548       ?ResetCache@CRConFiles@@QAEXXZ 00403548 f   RConFiles.obj
 0001:00002548       __initialize_invalid_parameter_handler 00403548 f   LIBCMT:invalid_parameter_handler.obj
 0001:00002548       ?_Destroy@?$_Ref_count_obj2@VGlobalHotkeys@@@std@@EAEXXZ 00403548 f   ConEmu.obj
 0001:0000254b       ?ClearAltNumber@CAltNumpad@@IAEX_N@Z 0040354b f   AltNumpad.obj
 0001:000025cf       ?DumpAltNumber@CAltNumpad@@IAE?AW4AltCharAction@@XZ 004035cf f   AltNumpad.obj
 0001:000026c5       ?DumpChars@CAltNumpad@@IBEXPA_W@Z 004036c5 f   AltNumpad.obj
 0001:0000274e       ?DumpStatus@CAltNumpad@@IAEXXZ 0040374e f   AltNumpad.obj
 0001:00002863       ?GetChars@CAltNumpad@@IAEHAAY02_W@Z 00403863 f   AltNumpad.obj
 0001:000028ee       ?OnKeyboard@CAltNumpad@@QAE_NPAUHWND__@@IIJ@Z 004038ee f   AltNumpad.obj
 0001:00002cb1       ?StartCapture@CAltNumpad@@QAEXII_N@Z 00403cb1 f   AltNumpad.obj
 0001:00002dac       ?isAltNumpad@CAltNumpad@@IAE_NXZ 00403dac f   AltNumpad.obj
 0001:00002dfd       ?isUseAltGrayPlus@CAltNumpad@@IAE_NXZ 00403dfd f   AltNumpad.obj
 0001:00002e60       ??$SafeDelete@VCDpiForDialog@@@@YAXAAPAVCDpiForDialog@@@Z 00403e60 f i Attach.obj
 0001:00002e94       ??$SafeDelete@VCSetPgBase@@@@YAXAAPAVCSetPgBase@@@Z 00403e94 f i OptionsClass.obj
 0001:00002e94       ??$SafeDelete@VCBackground@@@@YAXAAPAVCBackground@@@Z 00403e94 f i VirtualConsole.obj
 0001:00002e94       ??$SafeDelete@VCTabBarClass@@@@YAXAAPAVCTabBarClass@@@Z 00403e94 f i ConEmu.obj
 0001:00002e94       ??$SafeDelete@VCVConGuard@@@@YAXAAPAVCVConGuard@@@Z 00403e94 f i VConGroup.obj
 0001:00002e94       ??$SafeDelete@VCFormatCopy@@@@YAXAAPAVCFormatCopy@@@Z 00403e94 f i RealBuffer.obj
 0001:00002e94       ??$SafeDelete@VMFileLog@@@@YAXAAPAVMFileLog@@@Z 00403e94 f i RealConsole.obj
 0001:00002e94       ??$SafeDelete@VCStatus@@@@YAXAAPAVCStatus@@@Z 00403e94 f i ConEmu.obj
 0001:00002e94       ??$SafeDelete@VCDynDialog@@@@YAXAAPAVCDynDialog@@@Z 00403e94 f i Attach.obj
 0001:00002e94       ??$SafeDelete@VCSettings@@@@YAXAAPAVCSettings@@@Z 00403e94 f i ConEmuApp.obj
 0001:00002e94       ??$SafeDelete@VCToolTip@@@@YAXAAPAVCToolTip@@@Z 00403e94 f i ConEmu.obj
 0001:00002e94       ??$SafeDelete@VCTabPanelBase@@@@YAXAAPAVCTabPanelBase@@@Z 00403e94 f i TabBar.obj
 0001:00002e94       ??$SafeDelete@VCTaskSchedulerBase@@@@YAXAAPAVCTaskSchedulerBase@@@Z 00403e94 f i TaskScheduler.obj
 0001:00002e94       ??$SafeDelete@VCRConPalette@@@@YAXAAPAVCRConPalette@@@Z 00403e94 f i RealConsole.obj
 0001:00002eb8       ??$_Emplace_reallocate@ABUHighlightRect@CVirtualConsole@@@?$vector@UHighlightRect@CVirtualConsole@@V?$MArrayAllocator@UHighlightRect@CVirtualConsole@@@@@std@@QAEPAUHighlightRect@CVirtualConsole@@QAU23@ABU23@@Z 00403eb8 f i VirtualConsole.obj
 0001:00002eb8       ??$_Emplace_reallocate@ABUAttachParm@@@?$vector@UAttachParm@@V?$MArrayAllocator@UAttachParm@@@@@std@@QAEPAUAttachParm@@QAU2@ABU2@@Z 00403eb8 f i Attach.obj
 0001:00002f61       ??$_Uninitialized_move@PAUHighlightRect@CVirtualConsole@@V?$MArrayAllocator@UHighlightRect@CVirtualConsole@@@@@std@@YAPAUHighlightRect@CVirtualConsole@@QAU12@0PAU12@AAV?$MArrayAllocator@UHighlightRect@CVirtualConsole@@@@@Z 00403f61 f i VirtualConsole.obj
 0001:00002f61       ??$_Uninitialized_move@PAUAttachParm@@V?$MArrayAllocator@UAttachParm@@@@@std@@YAPAUAttachParm@@QAU1@0PAU1@AAV?$MArrayAllocator@UAttachParm@@@@@Z 00403f61 f i Attach.obj
 0001:00002f8b       ??$swprintf_c@$0BAE@@@YAHAAY0BAE@_WPB_WZZ 00403f8b f i Attach.obj
 0001:00002fa4       ??$swprintf_c@$0CAD@@@YAHAAY0CAD@_WPB_WZZ 00403fa4 f i Attach.obj
 0001:00002fbd       ??$swprintf_c@$0DAM@@@YAHAAY0DAM@_WPB_WZZ 00403fbd f i Attach.obj
 0001:00002fd6       ??$swprintf_c@$0EAA@@@YAHAAY0EAA@_WPB_WZZ 00403fd6 f i Attach.obj
 0001:00002fef       ??$wcscat_c@$0BEE@@@YAHAAY0BEE@_WPB_W@Z 00403fef f i Attach.obj
 0001:00003004       ??$wcscpy_c@$0BAE@@@YAHAAY0BAE@_WPB_W@Z 00404004 f i Attach.obj
 0001:00003019       ??$wcscpy_c@$0EA@@@YAHAAY0EA@_WPB_W@Z 00404019 f i Attach.obj
 0001:0000302b       ??$wcscpy_c@$0PP@@@YAHAAY0PP@_WPB_W@Z 0040402b f i Attach.obj
 0001:00003040       ??0CAttachDlg@@QAE@XZ      00404040 f   Attach.obj
 0001:00003071       ??0CProcessData@@QAE@XZ    00404071 f i Attach.obj
 0001:000030d0       ??0bad_alloc@std@@QAE@ABV01@@Z 004040d0 f i Attach.obj
 0001:000030eb       ??0bad_alloc@std@@QAE@XZ   004040eb f i Attach.obj
 0001:00003103       ??0exception@std@@QAE@ABV01@@Z 00404103 f i Attach.obj
 0001:0000312f       ??1CAttachDlg@@QAE@XZ      0040412f f   Attach.obj
 0001:00003168       ??1CProcessData@@QAE@XZ    00404168 f i Attach.obj
 0001:000031c9       ??1exception@std@@UAE@XZ   004041c9 f i Attach.obj
 0001:000031c9       ??1bad_cast@std@@UAE@XZ    004041c9 f i libvcruntime:rtti.obj
 0001:000031c9       ??1out_of_range@std@@UAE@XZ 004041c9 f i libcpmt:xthrow.obj
 0001:000031c9       ??1parse_error@rapidxml@@UAE@XZ 004041c9 f i SettingsStorage.obj
 0001:000031c9       ??1length_error@std@@UAE@XZ 004041c9 f i libcpmt:xthrow.obj
 0001:000031c9       ??1bad_function_call@std@@UAE@XZ 004041c9 f i libcpmt:xthrow.obj
 0001:000031c9       ??1bad_array_new_length@std@@UAE@XZ 004041c9 f i ConEmu.obj
 0001:000031c9       ??1bad_alloc@std@@UAE@XZ   004041c9 f i Attach.obj
 0001:000031c9       ??1__non_rtti_object@std@@UAE@XZ 004041c9 f i libvcruntime:rtti.obj
 0001:000031c9       ??1system_error@std@@UAE@XZ 004041c9 f i libcpmt:thread0.obj
 0001:000031c9       ??1bad_exception@std@@UAE@XZ 004041c9 f i libvcruntime:frame.obj
 0001:000031c9       ??1logic_error@std@@UAE@XZ 004041c9 f i ConEmu.obj
 0001:000031da       ??_Glogic_error@std@@UAEPAXI@Z 004041da f i ConEmu.obj
 0001:000031da       ??_Ebad_cast@std@@UAEPAXI@Z 004041da f i libvcruntime:rtti.obj
 0001:000031da       ??_Ebad_array_new_length@std@@UAEPAXI@Z 004041da f i ConEmu.obj
 0001:000031da       ??_Gruntime_error@std@@UAEPAXI@Z 004041da f i libcpmt:xthrow.obj
 0001:000031da       ??_Gbad_exception@std@@UAEPAXI@Z 004041da f i libvcruntime:frame.obj
 0001:000031da       ??_E__non_rtti_object@std@@UAEPAXI@Z 004041da f i libvcruntime:rtti.obj
 0001:000031da       ??_Gbad_function_call@std@@UAEPAXI@Z 004041da f i libcpmt:xthrow.obj
 0001:000031da       ??_Gbad_typeid@std@@UAEPAXI@Z 004041da f i libvcruntime:rtti.obj
 0001:000031da       ??_G__non_rtti_object@std@@UAEPAXI@Z 004041da f i libvcruntime:rtti.obj
 0001:000031da       ??_Ebad_exception@std@@UAEPAXI@Z 004041da f i libvcruntime:frame.obj
 0001:000031da       ??_Gout_of_range@std@@UAEPAXI@Z 004041da f i libcpmt:xthrow.obj
 0001:000031da       ??_Ebad_typeid@std@@UAEPAXI@Z 004041da f i libvcruntime:rtti.obj
 0001:000031da       ??_Elength_error@std@@UAEPAXI@Z 004041da f i libcpmt:xthrow.obj
 0001:000031da       ??_Ebad_alloc@std@@UAEPAXI@Z 004041da f i Attach.obj
 0001:000031da       ??_Gbad_alloc@std@@UAEPAXI@Z 004041da f i Attach.obj
 0001:000031da       ??_Gbad_array_new_length@std@@UAEPAXI@Z 004041da f i ConEmu.obj
 0001:000031da       ??_Eruntime_error@std@@UAEPAXI@Z 004041da f i libcpmt:xthrow.obj
 0001:000031da       ??_Gbad_cast@std@@UAEPAXI@Z 004041da f i libvcruntime:rtti.obj
 0001:000031da       ??_Eexception@std@@UAEPAXI@Z 004041da f i Attach.obj
 0001:000031da       ??_Eout_of_range@std@@UAEPAXI@Z 004041da f i libcpmt:xthrow.obj
 0001:000031da       ??_Ebad_function_call@std@@UAEPAXI@Z 004041da f i libcpmt:xthrow.obj
 0001:000031da       ??_Elogic_error@std@@UAEPAXI@Z 004041da f i ConEmu.obj
 0001:000031da       ??_Glength_error@std@@UAEPAXI@Z 004041da f i libcpmt:xthrow.obj
 0001:000031da       ??_Gexception@std@@UAEPAXI@Z 004041da f i Attach.obj
 0001:00003207       ?AttachDlg@CAttachDlg@@QAEXXZ 00404207 f   Attach.obj
 0001:0000329b       ?AttachDlgEnumWin@CAttachDlg@@SGHPAUHWND__@@J@Z 0040429b f   Attach.obj
 0001:0000348f       ?AttachDlgProc@CAttachDlg@@SGHPAUHWND__@@IIJ@Z 0040448f f   Attach.obj
 0001:00003ed9       ?AttachFromMacro@CAttachDlg@@SA?AW4AttachMacroRet@1@K_N@Z 00404ed9 f   Attach.obj
 0001:00004172       ?CanAttachWindow@CAttachDlg@@KA_NPAUHWND__@@KPAVCProcessData@@AAUAttachWndInfo@1@@Z 00405172 f   Attach.obj
 0001:00004580       ?Close@CAttachDlg@@QAEXXZ  00405580 f   Attach.obj
 0001:000045e0       ?FindProcessName@CProcessData@@IAE_NKPA_WK@Z 004055e0 f i Attach.obj
 0001:000046a2       ?GetHWND@CAttachDlg@@QAEPAUHWND__@@XZ 004056a2 f   Attach.obj
 0001:000046ac       ?GetInternalProcessData@CProcessData@@IAEHPAXPAUModuleData@1@AAPAUPROCESS_PARAMETERS@1@AAPAD_N@Z 004056ac f i Attach.obj
 0001:000047e6       ?GetOpenProcessData@CProcessData@@IAEXPAXPA_WK1K1K@Z 004057e6 f i Attach.obj
 0001:000049ae       ?GetProcessName@CProcessData@@QAE_NKPA_WK0KPAH@Z 004059ae f i Attach.obj
 0001:00004ba1       ?LoadPerfData@CProcessData@@IAE_NXZ 00405ba1 f i Attach.obj
 0001:00004db5       ?OnStartAttach@CAttachDlg@@IAE_NXZ 00405db5 f   Attach.obj
 0001:0000516a       ?StartAttach@CAttachDlg@@KA_NPAUHWND__@@KKW4AttachProcessType@@HH@Z 0040616a f   Attach.obj
 0001:000057c6       ?StartAttachThread@CAttachDlg@@SGKPAV?$MArray@UAttachParm@@@@@Z 004067c6 f   Attach.obj
 0001:00005838       ?_Calculate_growth@?$vector@UAttachParm@@V?$MArrayAllocator@UAttachParm@@@@@std@@ABEII@Z 00406838 f i Attach.obj
 0001:00005838       ?_Calculate_growth@?$vector@UProcessInfo@CDefTermBase@@V?$MArrayAllocator@UProcessInfo@CDefTermBase@@@@@std@@ABEII@Z 00406838 f i ConEmu.obj
 0001:00005838       ?_Calculate_growth@?$vector@UHighlightRect@CVirtualConsole@@V?$MArrayAllocator@UHighlightRect@CVirtualConsole@@@@@std@@ABEII@Z 00406838 f i VirtualConsole.obj
 0001:00005869       ?_Change_array@?$vector@UProcessInfo@CDefTermBase@@V?$MArrayAllocator@UProcessInfo@CDefTermBase@@@@@std@@AAEXQAUProcessInfo@CDefTermBase@@II@Z 00406869 f i ConEmu.obj
 0001:00005869       ?_Change_array@?$vector@UHighlightRect@CVirtualConsole@@V?$MArrayAllocator@UHighlightRect@CVirtualConsole@@@@@std@@AAEXQAUHighlightRect@CVirtualConsole@@II@Z 00406869 f i VirtualConsole.obj
 0001:00005869       ?_Change_array@?$vector@UAttachParm@@V?$MArrayAllocator@UAttachParm@@@@@std@@AAEXQAUAttachParm@@II@Z 00406869 f i Attach.obj
 0001:00005898       ?_Tidy@?$vector@HV?$MArrayAllocator@H@@@std@@AAEXXZ 00406898 f i CmdHistory.obj
 0001:00005898       ?_Tidy@?$vector@DV?$MArrayAllocator@D@@@std@@AAEXXZ 00406898 f i SettingsStorage.obj
 0001:00005898       ?_Tidy@?$vector@USshAgent@CConEmuMain@@V?$MArrayAllocator@USshAgent@CConEmuMain@@@@@std@@AAEXXZ 00406898 f i ConEmu.obj
 0001:00005898       ?_Tidy@?$vector@PAUtag_CEDragSource@CDragDropData@@V?$MArrayAllocator@PAUtag_CEDragSource@CDragDropData@@@@@std@@AAEXXZ 00406898 f i DragDropData.obj
 0001:00005898       ?_Tidy@?$vector@URunQueueItem@CRunQueue@@V?$MArrayAllocator@URunQueueItem@CRunQueue@@@@@std@@AAEXXZ 00406898 f i RunQueue.obj
 0001:00005898       ?_Tidy@?$vector@PAVCBackgroundInfo@@V?$MArrayAllocator@PAVCBackgroundInfo@@@@@std@@AAEXXZ 00406898 f i Background.obj
 0001:00005898       ?_Tidy@?$vector@UAttachParm@@V?$MArrayAllocator@UAttachParm@@@@@std@@AAEXXZ 00406898 f i Attach.obj
 0001:00005898       ?_Tidy@?$vector@PAVCVConGuard@@V?$MArrayAllocator@PAVCVConGuard@@@@@std@@AAEXXZ 00406898 f i Macro.obj
 0001:00005898       ?_Tidy@?$vector@UDragData@CDataObject@@V?$MArrayAllocator@UDragData@CDataObject@@@@@std@@AAEXXZ 00406898 f i BaseDragDrops.obj
 0001:00005898       ?_Tidy@?$vector@PAVCVConGroup@@V?$MArrayAllocator@PAVCVConGroup@@@@@std@@AAEXXZ 00406898 f i VConGroup.obj
 0001:00005898       ?_Tidy@?$vector@UGuiMacroArg@@V?$MArrayAllocator@UGuiMacroArg@@@@@std@@AAEXXZ 00406898 f i MacroImpl.obj
 0001:00005898       ?_Tidy@?$vector@UDlgItem@CDpiForDialog@@V?$MArrayAllocator@UDlgItem@CDpiForDialog@@@@@std@@AAEXXZ 00406898 f i DpiAware.obj
 0001:00005898       ?_Tidy@?$vector@UConProcess@@V?$MArrayAllocator@UConProcess@@@@@std@@AAEXXZ 00406898 f i RealConsole.obj
 0001:00005898       ?_Tidy@?$vector@URegFont@@V?$MArrayAllocator@URegFont@@@@@std@@AAEXXZ 00406898 f i FontMgr.obj
 0001:00005898       ?_Tidy@?$vector@Utxt@CFormatCopy@@V?$MArrayAllocator@Utxt@CFormatCopy@@@@@std@@AAEXXZ 00406898 f i HtmlCopy.obj
 0001:00005898       ?_Tidy@?$vector@U_ThInfo@CDragDrop@@V?$MArrayAllocator@U_ThInfo@CDragDrop@@@@@std@@AAEXXZ 00406898 f i DragDrop.obj
 0001:00005898       ?_Tidy@?$vector@UtagPROCESSENTRY32W@@V?$MArrayAllocator@UtagPROCESSENTRY32W@@@@@std@@AAEXXZ 00406898 f i RealConsole.obj
 0001:00005898       ?_Tidy@?$vector@UProcessInfo@CDefTermBase@@V?$MArrayAllocator@UProcessInfo@CDefTermBase@@@@@std@@AAEXXZ 00406898 f i DefaultTerm.obj
 0001:00005898       ?_Tidy@?$vector@UFontHeightInfo@@V?$MArrayAllocator@UFontHeightInfo@@@@@std@@AAEXXZ 00406898 f i FontMgr.obj
 0001:00005898       ?_Tidy@?$vector@UTabIconCache@CIconList@@V?$MArrayAllocator@UTabIconCache@CIconList@@@@@std@@AAEXXZ 00406898 f i IconList.obj
 0001:00005898       ?_Tidy@?$vector@PAUHWND__@@V?$MArrayAllocator@PAUHWND__@@@@@std@@AAEXXZ 00406898 f i ConEmu.obj
 0001:00005898       ?_Tidy@?$vector@PAUCommand@CProcessEnvCmd@@V?$MArrayAllocator@PAUCommand@CProcessEnvCmd@@@@@std@@AAEXXZ 00406898 f i common-user32:ProcessSetEnv.obj
 0001:00005898       ?_Tidy@?$vector@PAXV?$MArrayAllocator@PAX@@@std@@AAEXXZ 00406898 f i TaskBar.obj
 0001:00005898       ?_Tidy@?$vector@ULngRcItem@CLngRc@@V?$MArrayAllocator@ULngRcItem@CLngRc@@@@@std@@AAEXXZ 00406898 f i LngRc.obj
 0001:00005898       ?_Tidy@?$vector@PAVCFont@@V?$MArrayAllocator@PAVCFont@@@@@std@@AAEXXZ 00406898 f i FontMgr.obj
 0001:00005898       ?_Tidy@?$vector@PB_WV?$MArrayAllocator@PB_W@@@std@@AAEXXZ 00406898 f i ConEmu.obj
 0001:00005898       ?_Tidy@?$vector@PA_WV?$MArrayAllocator@PA_W@@@std@@AAEXXZ 00406898 f i CmdHistory.obj
 0001:00005898       ?_Tidy@?$vector@PAVCTabID@@V?$MArrayAllocator@PAVCTabID@@@@@std@@AAEXXZ 00406898 f i TabBar.obj
 0001:00005898       ?_Tidy@?$vector@U_FindAllMonitorsItem@@V?$MArrayAllocator@U_FindAllMonitorsItem@@@@@std@@AAEXXZ 00406898 f i common-user32:Monitors.obj
 0001:00005898       ?_Tidy@?$vector@ULngDefinition@CLngRc@@V?$MArrayAllocator@ULngDefinition@CLngRc@@@@@std@@AAEXXZ 00406898 f i LngRc.obj
 0001:00005898       ?_Tidy@?$vector@PAVCustomFont@@V?$MArrayAllocator@PAVCustomFont@@@@@std@@AAEXXZ 00406898 f i CustomFonts.obj
 0001:00005898       ?_Tidy@?$vector@UConEmuHotKey@@V?$MArrayAllocator@UConEmuHotKey@@@@@std@@AAEXXZ 00406898 f i ConEmuApp.obj
 0001:00005898       ?_Tidy@?$vector@UBtnInfo@@V?$MArrayAllocator@UBtnInfo@@@@@std@@AAEXXZ 00406898 f i ImgButton.obj
 0001:00005898       ?_Tidy@?$vector@UFoundFile@FastConfig@@V?$MArrayAllocator@UFoundFile@FastConfig@@@@@std@@AAEXXZ 00406898 f i OptionsFast.obj
 0001:00005898       ?_Tidy@?$vector@UVarDef@CVarDefs@FastConfig@@V?$MArrayAllocator@UVarDef@CVarDefs@FastConfig@@@@@std@@AAEXXZ 00406898 f i OptionsFast.obj
 0001:00005898       ?_Tidy@?$vector@UItemInfo@CDynDialog@@V?$MArrayAllocator@UItemInfo@CDynDialog@@@@@std@@AAEXXZ 00406898 f i DynDialog.obj
 0001:00005898       ?_Tidy@?$vector@UHighlightRect@CVirtualConsole@@V?$MArrayAllocator@UHighlightRect@CVirtualConsole@@@@@std@@AAEXXZ 00406898 f i VirtualConsole.obj
 0001:00005898       ?_Tidy@?$vector@UThreadHandle@CDefTermBase@@V?$MArrayAllocator@UThreadHandle@CDefTermBase@@@@@std@@AAEXXZ 00406898 f i DefaultTerm.obj
 0001:00005898       ?_Tidy@?$vector@PAUSwitch@@V?$MArrayAllocator@PAUSwitch@@@@@std@@AAEXXZ 00406898 f i SetPgIntegr.obj
 0001:000058e7       ?_Xlength@?$vector@UAppInfo@AppFoundList@FastConfig@@V?$MArrayAllocator@UAppInfo@AppFoundList@FastConfig@@@@@std@@CAXXZ 004068e7 f i OptionsFast.obj
 0001:000058e7       ?_Xlength@?$vector@ULngDefinition@CLngRc@@V?$MArrayAllocator@ULngDefinition@CLngRc@@@@@std@@CAXXZ 004068e7 f i LngRc.obj
 0001:000058e7       ?_Xlength@?$vector@HV?$MArrayAllocator@H@@@std@@CAXXZ 004068e7 f i CmdHistory.obj
 0001:000058e7       ?_Xlength@?$vector@PAVCVConGuard@@V?$MArrayAllocator@PAVCVConGuard@@@@@std@@CAXXZ 004068e7 f i VConGroup.obj
 0001:000058e7       ?_Xlength@?$vector@UItemInfo@CDynDialog@@V?$MArrayAllocator@UItemInfo@CDynDialog@@@@@std@@CAXXZ 004068e7 f i DynDialog.obj
 0001:000058e7       ?_Xlength@?$vector@PB_WV?$MArrayAllocator@PB_W@@@std@@CAXXZ 004068e7 f i ConEmu.obj
 0001:000058e7       ?_Xlength@?$vector@PAVCBackgroundInfo@@V?$MArrayAllocator@PAVCBackgroundInfo@@@@@std@@CAXXZ 004068e7 f i Background.obj
 0001:000058e7       ?_Xlength@?$vector@UFontHeightInfo@@V?$MArrayAllocator@UFontHeightInfo@@@@@std@@CAXXZ 004068e7 f i FontMgr.obj
 0001:000058e7       ?_Xlength@?$vector@KV?$allocator@K@std@@@std@@CAXXZ 004068e7 f i RealConsole.obj
 0001:000058e7       ?_Xlength@?$vector@UConProcess@@V?$MArrayAllocator@UConProcess@@@@@std@@CAXXZ 004068e7 f i RealConsole.obj
 0001:000058e7       ?_Xlength@?$vector@U?$pair@HUCEStr@@@std@@V?$MArrayAllocator@U?$pair@HUCEStr@@@std@@@@@std@@CAXXZ 004068e7 f i common-kernel32:CEStr.obj
 0001:000058e7       ?_Xlength@?$vector@UThreadHandle@CDefTermBase@@V?$MArrayAllocator@UThreadHandle@CDefTermBase@@@@@std@@CAXXZ 004068e7 f i ConEmu.obj
 0001:000058e7       ?_Xlength@?$vector@UtagPROCESSENTRY32W@@V?$MArrayAllocator@UtagPROCESSENTRY32W@@@@@std@@CAXXZ 004068e7 f i RealConsole.obj
 0001:000058e7       ?_Xlength@?$vector@PAVCTabID@@V?$MArrayAllocator@PAVCTabID@@@@@std@@CAXXZ 004068e7 f i TabBar.obj
 0001:000058e7       ?_Xlength@?$vector@UCmdTaskPopupItem@CConEmuMenu@@V?$MArrayAllocator@UCmdTaskPopupItem@CConEmuMenu@@@@@std@@CAXXZ 004068e7 f i Menu.obj
 0001:000058e7       ?_Xlength@?$vector@UCEStr@@V?$allocator@UCEStr@@@std@@@std@@CAXXZ 004068e7 f i FontMgr.obj
 0001:000058e7       ?_Xlength@?$vector@UMonitorInfoCache@CConEmuSize@@V?$MArrayAllocator@UMonitorInfoCache@CConEmuSize@@@@@std@@CAXXZ 004068e7 f i ConEmuSize.obj
 0001:000058e7       ?_Xlength@?$vector@UAttachParm@@V?$MArrayAllocator@UAttachParm@@@@@std@@CAXXZ 004068e7 f i Attach.obj
 0001:000058e7       ?_Xlength@?$vector@U_FindAllMonitorsItem@@V?$MArrayAllocator@U_FindAllMonitorsItem@@@@@std@@CAXXZ 004068e7 f i common-user32:Monitors.obj
 0001:000058e7       ?_Xlength@?$vector@UDragData@CDataObject@@V?$MArrayAllocator@UDragData@CDataObject@@@@@std@@CAXXZ 004068e7 f i BaseDragDrops.obj
 0001:000058e7       ?_Xlength@?$vector@UFoundFile@FastConfig@@V?$MArrayAllocator@UFoundFile@FastConfig@@@@@std@@CAXXZ 004068e7 f i OptionsFast.obj
 0001:000058e7       ?_Xlength@?$vector@PAUSwitch@@V?$MArrayAllocator@PAUSwitch@@@@@std@@CAXXZ 004068e7 f i SetPgIntegr.obj
 0001:000058e7       ?_Xlength@?$vector@UConEmuHotKey@@V?$MArrayAllocator@UConEmuHotKey@@@@@std@@CAXXZ 004068e7 f i HotkeyList.obj
 0001:000058e7       ?_Xlength@?$vector@PAVCFont@@V?$MArrayAllocator@PAVCFont@@@@@std@@CAXXZ 004068e7 f i FontMgr.obj
 0001:000058e7       ?_Xlength@?$vector@UDlgItem@CDpiForDialog@@V?$MArrayAllocator@UDlgItem@CDpiForDialog@@@@@std@@CAXXZ 004068e7 f i DpiAware.obj
 0001:000058e7       ?_Xlength@?$vector@URegFont@@V?$MArrayAllocator@URegFont@@@@@std@@CAXXZ 004068e7 f i FontMgr.obj
 0001:000058e7       ?_Xlength@?$vector@DV?$MArrayAllocator@D@@@std@@CAXXZ 004068e7 f i SettingsStorage.obj
 0001:000058e7       ?_Xlength@?$vector@UBtnInfo@@V?$MArrayAllocator@UBtnInfo@@@@@std@@CAXXZ 004068e7 f i ImgButton.obj
 0001:000058e7       ?_Xlength@?$vector@UProcessInfo@CDefTermBase@@V?$MArrayAllocator@UProcessInfo@CDefTermBase@@@@@std@@CAXXZ 004068e7 f i ConEmu.obj
 0001:000058e7       ?_Xlength@?$vector@PAPAUHMENU__@@V?$allocator@PAPAUHMENU__@@@std@@@std@@CAXXZ 004068e7 f i Menu.obj
 0001:000058e7       ?_Xlength@?$vector@URunQueueItem@CRunQueue@@V?$MArrayAllocator@URunQueueItem@CRunQueue@@@@@std@@CAXXZ 004068e7 f i RunQueue.obj
 0001:000058e7       ?_Xlength@?$vector@UGuiMacroArg@@V?$MArrayAllocator@UGuiMacroArg@@@@@std@@CAXXZ 004068e7 f i MacroImpl.obj
 0001:000058e7       ?_Xlength@?$vector@PAXV?$MArrayAllocator@PAX@@@std@@CAXXZ 004068e7 f i TaskBar.obj
 0001:000058e7       ?_Xlength@?$vector@PAUCommand@CProcessEnvCmd@@V?$MArrayAllocator@PAUCommand@CProcessEnvCmd@@@@@std@@CAXXZ 004068e7 f i common-user32:ProcessSetEnv.obj
 0001:000058e7       ?_Xlength@?$vector@ULngRcItem@CLngRc@@V?$MArrayAllocator@ULngRcItem@CLngRc@@@@@std@@CAXXZ 004068e7 f i LngRc.obj
 0001:000058e7       ?_Xlength@?$vector@UCEStr@@V?$MArrayAllocator@UCEStr@@@@@std@@CAXXZ 004068e7 f i MacroImpl.obj
 0001:000058e7       ?_Xlength@?$vector@USshAgent@CConEmuMain@@V?$MArrayAllocator@USshAgent@CConEmuMain@@@@@std@@CAXXZ 004068e7 f i ConEmu.obj
 0001:000058e7       ?_Xlength@?$vector@UHighlightRect@CVirtualConsole@@V?$MArrayAllocator@UHighlightRect@CVirtualConsole@@@@@std@@CAXXZ 004068e7 f i VirtualConsole.obj
 0001:000058e7       ?_Xlength@?$vector@Utxt@CFormatCopy@@V?$MArrayAllocator@Utxt@CFormatCopy@@@@@std@@CAXXZ 004068e7 f i HtmlCopy.obj
 0001:000058e7       ?_Xlength@?$vector@UTabIconCache@CIconList@@V?$MArrayAllocator@UTabIconCache@CIconList@@@@@std@@CAXXZ 004068e7 f i IconList.obj
 0001:000058e7       ?_Xlength@?$vector@PAVCVConGroup@@V?$MArrayAllocator@PAVCVConGroup@@@@@std@@CAXXZ 004068e7 f i VConGroup.obj
 0001:000058e7       ?_Xlength@?$vector@PA_WV?$MArrayAllocator@PA_W@@@std@@CAXXZ 004068e7 f i CmdHistory.obj
 0001:000058e7       ?_Xlength@?$vector@PAUHWND__@@V?$MArrayAllocator@PAUHWND__@@@@@std@@CAXXZ 004068e7 f i ConEmu.obj
 0001:000058e7       ?_Xlength@?$vector@PAVCustomFont@@V?$MArrayAllocator@PAVCustomFont@@@@@std@@CAXXZ 004068e7 f i CustomFonts.obj
 0001:000058e7       ?_Xlength@?$vector@U_ThInfo@CDragDrop@@V?$MArrayAllocator@U_ThInfo@CDragDrop@@@@@std@@CAXXZ 004068e7 f i DragDrop.obj
 0001:000058e7       ?_Xlength@?$vector@UVarDef@CVarDefs@FastConfig@@V?$MArrayAllocator@UVarDef@CVarDefs@FastConfig@@@@@std@@CAXXZ 004068e7 f i OptionsFast.obj
 0001:000058f2       ?allocate@?$MArrayAllocator@UAttachParm@@@@QAEPAUAttachParm@@I@Z 004068f2 f i Attach.obj
 0001:000058f2       ?allocate@?$MArrayAllocator@UProcessInfo@CDefTermBase@@@@QAEPAUProcessInfo@CDefTermBase@@I@Z 004068f2 f i ConEmu.obj
 0001:000058f2       ?allocate@?$MArrayAllocator@UHighlightRect@CVirtualConsole@@@@QAEPAUHighlightRect@CVirtualConsole@@I@Z 004068f2 f i VirtualConsole.obj
 0001:00005922       ?fNtQueryInformationProcess@CProcessData@@KGJPAXW4_PROCESSINFOCLASS@1@0KPAK@Z 00406922 f i Attach.obj
 0001:0000592a       ?getModuleFileNameEx@CProcessData@@IAEKPAXPAUHINSTANCE__@@PA_WK@Z 0040692a f i Attach.obj
 0001:00005998       ?getcounter@CProcessData@@KAHPA_W@Z 00406998 f i Attach.obj
 0001:000059db       ?queryFullProcessImageName@CProcessData@@IAE_NPAXKPA_WK@Z 004069db f i Attach.obj
 0001:00005a14       ?what@exception@std@@UBEPBDXZ 00406a14 f i Attach.obj
 0001:00005a22       ??$SafeDelete@VMSection@@@@YAXAAPAVMSection@@@Z 00406a22 f i Background.obj
 0001:00005a56       ??$_Emplace_reallocate@PB_W@?$vector@PB_WV?$MArrayAllocator@PB_W@@@std@@QAEPAPB_WQAPB_W$$QAPB_W@Z 00406a56 f i ConEmu.obj
 0001:00005a56       ??$_Emplace_reallocate@ABQA_W@?$vector@PA_WV?$MArrayAllocator@PA_W@@@std@@QAEPAPA_WQAPA_WABQA_W@Z 00406a56 f i CmdHistory.obj
 0001:00005a56       ??$_Emplace_reallocate@PA_W@?$vector@PA_WV?$MArrayAllocator@PA_W@@@std@@QAEPAPA_WQAPA_W$$QAPA_W@Z 00406a56 f i ConEmuCtrl.obj
 0001:00005a56       ??$_Emplace_reallocate@ABQAVCVConGroup@@@?$vector@PAVCVConGroup@@V?$MArrayAllocator@PAVCVConGroup@@@@@std@@QAEPAPAVCVConGroup@@QAPAV2@ABQAV2@@Z 00406a56 f i VConGroup.obj
 0001:00005a56       ??$_Emplace_reallocate@ABQAX@?$vector@PAXV?$MArrayAllocator@PAX@@@std@@QAEPAPAXQAPAXABQAX@Z 00406a56 f i TaskBar.obj
 0001:00005a56       ??$_Emplace_reallocate@ABQB_W@?$vector@PB_WV?$MArrayAllocator@PB_W@@@std@@QAEPAPB_WQAPB_WABQB_W@Z 00406a56 f i LngRc.obj
 0001:00005a56       ??$_Emplace_reallocate@ABQAVCVConGuard@@@?$vector@PAVCVConGuard@@V?$MArrayAllocator@PAVCVConGuard@@@@@std@@QAEPAPAVCVConGuard@@QAPAV2@ABQAV2@@Z 00406a56 f i VConGroup.obj
 0001:00005a56       ??$_Emplace_reallocate@ABQAUHWND__@@@?$vector@PAUHWND__@@V?$MArrayAllocator@PAUHWND__@@@@@std@@QAEPAPAUHWND__@@QAPAU2@ABQAU2@@Z 00406a56 f i ConEmu.obj
 0001:00005a56       ??$_Emplace_reallocate@ABURunQueueItem@CRunQueue@@@?$vector@URunQueueItem@CRunQueue@@V?$MArrayAllocator@URunQueueItem@CRunQueue@@@@@std@@QAEPAURunQueueItem@CRunQueue@@QAU23@ABU23@@Z 00406a56 f i RunQueue.obj
 0001:00005a56       ??$_Emplace_reallocate@ABH@?$vector@HV?$MArrayAllocator@H@@@std@@QAEPAHQAHABH@Z 00406a56 f i CmdHistory.obj
 0001:00005a56       ??$_Emplace_reallocate@ABQAVCFont@@@?$vector@PAVCFont@@V?$MArrayAllocator@PAVCFont@@@@@std@@QAEPAPAVCFont@@QAPAV2@ABQAV2@@Z 00406a56 f i FontMgr.obj
 0001:00005a56       ??$_Emplace_reallocate@PAVCTabID@@@?$vector@PAVCTabID@@V?$MArrayAllocator@PAVCTabID@@@@@std@@QAEPAPAVCTabID@@QAPAV2@$$QAPAV2@@Z 00406a56 f i TabBar.obj
 0001:00005a56       ??$_Emplace_reallocate@ABQAVCustomFont@@@?$vector@PAVCustomFont@@V?$MArrayAllocator@PAVCustomFont@@@@@std@@QAEPAPAVCustomFont@@QAPAV2@ABQAV2@@Z 00406a56 f i CustomFonts.obj
 0001:00005a56       ??$_Emplace_reallocate@ABQAVCBackgroundInfo@@@?$vector@PAVCBackgroundInfo@@V?$MArrayAllocator@PAVCBackgroundInfo@@@@@std@@QAEPAPAVCBackgroundInfo@@QAPAV2@ABQAV2@@Z 00406a56 f i Background.obj
 0001:00005a56       ??$_Emplace_reallocate@ABQAUSwitch@@@?$vector@PAUSwitch@@V?$MArrayAllocator@PAUSwitch@@@@@std@@QAEPAPAUSwitch@@QAPAU2@ABQAU2@@Z 00406a56 f i SetPgIntegr.obj
 0001:00005af3       ??$emplace_back@ABQAVCFont@@@?$vector@PAVCFont@@V?$MArrayAllocator@PAVCFont@@@@@std@@QAE?A_TABQAVCFont@@@Z 00406af3 f i FontMgr.obj
 0001:00005af3       ??$emplace_back@ABQB_W@?$vector@PB_WV?$MArrayAllocator@PB_W@@@std@@QAE?A_TABQB_W@Z 00406af3 f i LngRc.obj
 0001:00005af3       ??$emplace_back@PAVCTabID@@@?$vector@PAVCTabID@@V?$MArrayAllocator@PAVCTabID@@@@@std@@QAE?A_T$$QAPAVCTabID@@@Z 00406af3 f i TabBar.obj
 0001:00005af3       ??$emplace_back@ABQAX@?$vector@PAXV?$MArrayAllocator@PAX@@@std@@QAE?A_TABQAX@Z 00406af3 f i TaskBar.obj
 0001:00005af3       ??$emplace_back@ABURunQueueItem@CRunQueue@@@?$vector@URunQueueItem@CRunQueue@@V?$MArrayAllocator@URunQueueItem@CRunQueue@@@@@std@@QAE?A_TABURunQueueItem@CRunQueue@@@Z 00406af3 f i RunQueue.obj
 0001:00005af3       ??$emplace_back@ABQAUSwitch@@@?$vector@PAUSwitch@@V?$MArrayAllocator@PAUSwitch@@@@@std@@QAE?A_TABQAUSwitch@@@Z 00406af3 f i SetPgIntegr.obj
 0001:00005af3       ??$emplace_back@PA_W@?$vector@PA_WV?$MArrayAllocator@PA_W@@@std@@QAE?A_T$$QAPA_W@Z 00406af3 f i OptionsFast.obj
 0001:00005af3       ??$emplace_back@ABQA_W@?$vector@PA_WV?$MArrayAllocator@PA_W@@@std@@QAE?A_TABQA_W@Z 00406af3 f i CmdHistory.obj
 0001:00005af3       ??$emplace_back@ABQAVCBackgroundInfo@@@?$vector@PAVCBackgroundInfo@@V?$MArrayAllocator@PAVCBackgroundInfo@@@@@std@@QAE?A_TABQAVCBackgroundInfo@@@Z 00406af3 f i Background.obj
 0001:00005af3       ??$emplace_back@ABQAVCustomFont@@@?$vector@PAVCustomFont@@V?$MArrayAllocator@PAVCustomFont@@@@@std@@QAE?A_TABQAVCustomFont@@@Z 00406af3 f i CustomFonts.obj
 0001:00005af3       ??$emplace_back@ABQAUHWND__@@@?$vector@PAUHWND__@@V?$MArrayAllocator@PAUHWND__@@@@@std@@QAE?A_TABQAUHWND__@@@Z 00406af3 f i ConEmu.obj
 0001:00005af3       ??$emplace_back@ABQAVCVConGuard@@@?$vector@PAVCVConGuard@@V?$MArrayAllocator@PAVCVConGuard@@@@@std@@QAE?A_TABQAVCVConGuard@@@Z 00406af3 f i VConGroup.obj
 0001:00005af3       ??$emplace_back@PB_W@?$vector@PB_WV?$MArrayAllocator@PB_W@@@std@@QAE?A_T$$QAPB_W@Z 00406af3 f i LngRc.obj
 0001:00005b18       ??$swprintf_c@$0CAI@@@YAHAAY0CAI@_WPB_WZZ 00406b18 f i Background.obj
 0001:00005b31       ??0CBackground@@QAE@XZ     00406b31 f   Background.obj
 0001:00005b7d       ??0CBackgroundInfo@@IAE@PB_W@Z 00406b7d f   Background.obj
 0001:00005bf7       ??1CBackground@@UAE@XZ     00406bf7 f   Background.obj
 0001:00005ca4       ??1CBackgroundInfo@@MAE@XZ 00406ca4 f   Background.obj
 0001:00005d3a       ??1CVConRelease@@UAE@XZ    00406d3a f i VirtualConsole.obj
 0001:00005d3a       ??1CRefRelease@@MAE@XZ     00406d3a f i Background.obj
 0001:00005d41       ??_GCBackground@@UAEPAXI@Z 00406d41 f i Background.obj
 0001:00005d41       ??_ECBackground@@UAEPAXI@Z 00406d41 f i Background.obj
 0001:00005d63       ??_ECBackgroundInfo@@MAEPAXI@Z 00406d63 f i Background.obj
 0001:00005d63       ??_GCBackgroundInfo@@MAEPAXI@Z 00406d63 f i Background.obj
 0001:00005d88       ??_ECRefRelease@@MAEPAXI@Z 00406d88 f i Background.obj
 0001:00005d88       ??_GCRefRelease@@MAEPAXI@Z 00406d88 f i Background.obj
 0001:00005dab       ?BgImage@CBackgroundInfo@@QAEPB_WXZ 00406dab f   Background.obj
 0001:00005db8       ?CreateBackgroundObject@CBackgroundInfo@@SAPAV1@PB_W_N@Z 00406db8 f   Background.obj
 0001:00005ecc       ?CreateField@CBackground@@QAE_NHH@Z 00406ecc f   Background.obj
 0001:00005fd8       ?Destroy@CBackground@@AAEXXZ 00406fd8 f   Background.obj
 0001:0000601f       ?FillBackground@CBackground@@QAE_NPBUtagBITMAPFILEHEADER@@JJJJW4BackgroundOp@@_N@Z 0040701f f   Background.obj
 0001:00006522       ?FinalRelease@CBackgroundInfo@@UAEXXZ 00407522 f   Background.obj
 0001:00006522       ?FinalRelease@CFont@@MAEXXZ 00407522 f   Font.obj
 0001:00006522       ?FinalRelease@CRConData@@MAEXXZ 00407522 f   RConData.obj
 0001:00006522       ?FinalRelease@CTabID@@MAEXXZ 00407522 f   TabID.obj
 0001:00006522       ?FinalRelease@CVConGroup@@MAEXXZ 00407522 f   VConGroup.obj
 0001:0000652e       ?GetBgImgData@CBackgroundInfo@@QAEPBUtagBITMAPFILEHEADER@@XZ 0040752e f   Background.obj
 0001:0000653c       ?HasPluginBackgroundImage@CBackground@@QAE_NPAJ0@Z 0040753c f   Background.obj
 0001:0000658a       ?IsBackgroundValid@CBackground@@SAIPBUCESERVER_REQ_SETBACKGROUND@@PA_N@Z 0040758a f   Background.obj
 0001:00006606       ?LoadBackgroundFile@CBackgroundInfo@@QAE_N_N@Z 00407606 f   Background.obj
 0001:0000677b       ?NeedBackgroundUpdate@CBackground@@QAEXXZ 0040777b f   Background.obj
 0001:00006784       ?PollBackgroundFile@CBackgroundInfo@@QAE_NXZ 00407784 f   Background.obj
 0001:00006853       ?PrepareBackground@CBackground@@QAE_NPAVCVirtualConsole@@AAPAUHDC__@@AAU_COORD@@@Z 00407853 f   Background.obj
 0001:00006c5a       ?PutPluginBackgroundImage@CBackground@@AAE_NJJJJ@Z 00407c5a f   Background.obj
 0001:00006e88       ?Release@CRefRelease@@QAEHXZ 00407e88 f i Background.obj
 0001:00006ebc       ?SetPluginBackgroundImageData@CBackground@@QAEHPAUCESERVER_REQ_SETBACKGROUND@@AA_N@Z 00407ebc f   Background.obj
 0001:00007071       ?_Calculate_growth@?$vector@PAUHWND__@@V?$MArrayAllocator@PAUHWND__@@@@@std@@ABEII@Z 00408071 f i ConEmu.obj
 0001:00007071       ?_Calculate_growth@?$vector@PB_WV?$MArrayAllocator@PB_W@@@std@@ABEII@Z 00408071 f i ConEmu.obj
 0001:00007071       ?_Calculate_growth@?$vector@KV?$allocator@K@std@@@std@@ABEII@Z 00408071 f i RealConsole.obj
 0001:00007071       ?_Calculate_growth@?$vector@PAVCVConGroup@@V?$MArrayAllocator@PAVCVConGroup@@@@@std@@ABEII@Z 00408071 f i VConGroup.obj
 0001:00007071       ?_Calculate_growth@?$vector@PA_WV?$MArrayAllocator@PA_W@@@std@@ABEII@Z 00408071 f i CmdHistory.obj
 0001:00007071       ?_Calculate_growth@?$vector@PAVCBackgroundInfo@@V?$MArrayAllocator@PAVCBackgroundInfo@@@@@std@@ABEII@Z 00408071 f i Background.obj
 0001:00007071       ?_Calculate_growth@?$vector@PAUSwitch@@V?$MArrayAllocator@PAUSwitch@@@@@std@@ABEII@Z 00408071 f i SetPgIntegr.obj
 0001:00007071       ?_Calculate_growth@?$vector@PAVCustomFont@@V?$MArrayAllocator@PAVCustomFont@@@@@std@@ABEII@Z 00408071 f i CustomFonts.obj
 0001:00007071       ?_Calculate_growth@?$vector@PAVCTabID@@V?$MArrayAllocator@PAVCTabID@@@@@std@@ABEII@Z 00408071 f i TabBar.obj
 0001:00007071       ?_Calculate_growth@?$vector@PAVCVConGuard@@V?$MArrayAllocator@PAVCVConGuard@@@@@std@@ABEII@Z 00408071 f i VConGroup.obj
 0001:00007071       ?_Calculate_growth@?$vector@URunQueueItem@CRunQueue@@V?$MArrayAllocator@URunQueueItem@CRunQueue@@@@@std@@ABEII@Z 00408071 f i RunQueue.obj
 0001:00007071       ?_Calculate_growth@?$vector@PAXV?$MArrayAllocator@PAX@@@std@@ABEII@Z 00408071 f i TaskBar.obj
 0001:00007071       ?_Calculate_growth@?$vector@PAVCFont@@V?$MArrayAllocator@PAVCFont@@@@@std@@ABEII@Z 00408071 f i FontMgr.obj
 0001:00007071       ?_Calculate_growth@?$vector@PAUCommand@CProcessEnvCmd@@V?$MArrayAllocator@PAUCommand@CProcessEnvCmd@@@@@std@@ABEII@Z 00408071 f i common-user32:ProcessSetEnv.obj
 0001:00007071       ?_Calculate_growth@?$vector@HV?$MArrayAllocator@H@@@std@@ABEII@Z 00408071 f i CmdHistory.obj
 0001:0000709d       ?_Change_array@?$vector@URunQueueItem@CRunQueue@@V?$MArrayAllocator@URunQueueItem@CRunQueue@@@@@std@@AAEXQAURunQueueItem@CRunQueue@@II@Z 0040809d f i RunQueue.obj
 0001:0000709d       ?_Change_array@?$vector@PAUCommand@CProcessEnvCmd@@V?$MArrayAllocator@PAUCommand@CProcessEnvCmd@@@@@std@@AAEXQAPAUCommand@CProcessEnvCmd@@II@Z 0040809d f i common-user32:ProcessSetEnv.obj
 0001:0000709d       ?_Change_array@?$vector@PAVCVConGroup@@V?$MArrayAllocator@PAVCVConGroup@@@@@std@@AAEXQAPAVCVConGroup@@II@Z 0040809d f i VConGroup.obj
 0001:0000709d       ?_Change_array@?$vector@PAVCustomFont@@V?$MArrayAllocator@PAVCustomFont@@@@@std@@AAEXQAPAVCustomFont@@II@Z 0040809d f i CustomFonts.obj
 0001:0000709d       ?_Change_array@?$vector@PA_WV?$MArrayAllocator@PA_W@@@std@@AAEXQAPA_WII@Z 0040809d f i CmdHistory.obj
 0001:0000709d       ?_Change_array@?$vector@PAVCFont@@V?$MArrayAllocator@PAVCFont@@@@@std@@AAEXQAPAVCFont@@II@Z 0040809d f i FontMgr.obj
 0001:0000709d       ?_Change_array@?$vector@PAXV?$MArrayAllocator@PAX@@@std@@AAEXQAPAXII@Z 0040809d f i TaskBar.obj
 0001:0000709d       ?_Change_array@?$vector@PAUHWND__@@V?$MArrayAllocator@PAUHWND__@@@@@std@@AAEXQAPAUHWND__@@II@Z 0040809d f i ConEmu.obj
 0001:0000709d       ?_Change_array@?$vector@PAVCTabID@@V?$MArrayAllocator@PAVCTabID@@@@@std@@AAEXQAPAVCTabID@@II@Z 0040809d f i TabBar.obj
 0001:0000709d       ?_Change_array@?$vector@PB_WV?$MArrayAllocator@PB_W@@@std@@AAEXQAPB_WII@Z 0040809d f i ConEmu.obj
 0001:0000709d       ?_Change_array@?$vector@HV?$MArrayAllocator@H@@@std@@AAEXQAHII@Z 0040809d f i CmdHistory.obj
 0001:0000709d       ?_Change_array@?$vector@PAVCBackgroundInfo@@V?$MArrayAllocator@PAVCBackgroundInfo@@@@@std@@AAEXQAPAVCBackgroundInfo@@II@Z 0040809d f i Background.obj
 0001:0000709d       ?_Change_array@?$vector@PAUSwitch@@V?$MArrayAllocator@PAUSwitch@@@@@std@@AAEXQAPAUSwitch@@II@Z 0040809d f i SetPgIntegr.obj
 0001:0000709d       ?_Change_array@?$vector@PAVCVConGuard@@V?$MArrayAllocator@PAVCVConGuard@@@@@std@@AAEXQAPAVCVConGuard@@II@Z 0040809d f i VConGroup.obj
 0001:000070cc       ?allocate@?$MArrayAllocator@PAVCVConGroup@@@@QAEPAPAVCVConGroup@@I@Z 004080cc f i VConGroup.obj
 0001:000070cc       ?allocate@?$MArrayAllocator@PB_W@@QAEPAPB_WI@Z 004080cc f i ConEmu.obj
 0001:000070cc       ?allocate@?$MArrayAllocator@PAVCVConGuard@@@@QAEPAPAVCVConGuard@@I@Z 004080cc f i VConGroup.obj
 0001:000070cc       ?allocate@?$MArrayAllocator@PAVCBackgroundInfo@@@@QAEPAPAVCBackgroundInfo@@I@Z 004080cc f i Background.obj
 0001:000070cc       ?allocate@?$MArrayAllocator@PAVCTabID@@@@QAEPAPAVCTabID@@I@Z 004080cc f i TabBar.obj
 0001:000070cc       ?allocate@?$MArrayAllocator@PAUCommand@CProcessEnvCmd@@@@QAEPAPAUCommand@CProcessEnvCmd@@I@Z 004080cc f i common-user32:ProcessSetEnv.obj
 0001:000070cc       ?allocate@?$MArrayAllocator@PAUHWND__@@@@QAEPAPAUHWND__@@I@Z 004080cc f i ConEmu.obj
 0001:000070cc       ?allocate@?$MArrayAllocator@PAVCFont@@@@QAEPAPAVCFont@@I@Z 004080cc f i FontMgr.obj
 0001:000070cc       ?allocate@?$MArrayAllocator@PAUSwitch@@@@QAEPAPAUSwitch@@I@Z 004080cc f i SetPgIntegr.obj
 0001:000070cc       ?allocate@?$MArrayAllocator@PAX@@QAEPAPAXI@Z 004080cc f i TaskBar.obj
 0001:000070cc       ?allocate@?$MArrayAllocator@H@@QAEPAHI@Z 004080cc f i CmdHistory.obj
 0001:000070cc       ?allocate@?$MArrayAllocator@PAVCustomFont@@@@QAEPAPAVCustomFont@@I@Z 004080cc f i CustomFonts.obj
 0001:000070cc       ?allocate@?$MArrayAllocator@URunQueueItem@CRunQueue@@@@QAEPAURunQueueItem@CRunQueue@@I@Z 004080cc f i RunQueue.obj
 0001:000070cc       ?allocate@?$MArrayAllocator@PA_W@@QAEPAPA_WI@Z 004080cc f i CmdHistory.obj
 0001:000070fe       ?erase@?$MArray@PAVCVConGuard@@@@QAEXHH@Z 004080fe f i VConGroup.obj
 0001:000070fe       ?erase@?$MArray@PA_W@@QAEXHH@Z 004080fe f i CmdHistory.obj
 0001:000070fe       ?erase@?$MArray@PAVCTabID@@@@QAEXHH@Z 004080fe f i TabBar.obj
 0001:000070fe       ?erase@?$MArray@PAVCBackgroundInfo@@@@QAEXHH@Z 004080fe f i Background.obj
 0001:000070fe       ?erase@?$MArray@PAUtag_CEDragSource@CDragDropData@@@@QAEXHH@Z 004080fe f i DragDropData.obj
 0001:000070fe       ?erase@?$MArray@PAX@@QAEXHH@Z 004080fe f i TaskBar.obj
 0001:000070fe       ?erase@?$MArray@PAVCFont@@@@QAEXHH@Z 004080fe f i FontMgr.obj
 0001:00007144       ?erase@?$vector@PAVCTabID@@V?$MArrayAllocator@PAVCTabID@@@@@std@@QAE?AV?$_Vector_iterator@V?$_Vector_val@U?$_Simple_types@PAVCTabID@@@std@@@std@@@2@V?$_Vector_const_iterator@V?$_Vector_val@U?$_Simple_types@PAVCTabID@@@std@@@std@@@2@0@Z 00408144 f i TabBar.obj
 0001:00007144       ?erase@?$vector@URegFont@@V?$MArrayAllocator@URegFont@@@@@std@@QAE?AV?$_Vector_iterator@V?$_Vector_val@U?$_Simple_types@URegFont@@@std@@@std@@@2@V?$_Vector_const_iterator@V?$_Vector_val@U?$_Simple_types@URegFont@@@std@@@std@@@2@0@Z 00408144 f i FontMgr.obj
 0001:00007144       ?erase@?$vector@PA_WV?$MArrayAllocator@PA_W@@@std@@QAE?AV?$_Vector_iterator@V?$_Vector_val@U?$_Simple_types@PA_W@std@@@std@@@2@V?$_Vector_const_iterator@V?$_Vector_val@U?$_Simple_types@PA_W@std@@@std@@@2@0@Z 00408144 f i CmdHistory.obj
 0001:00007144       ?erase@?$vector@PAVCVConGuard@@V?$MArrayAllocator@PAVCVConGuard@@@@@std@@QAE?AV?$_Vector_iterator@V?$_Vector_val@U?$_Simple_types@PAVCVConGuard@@@std@@@std@@@2@V?$_Vector_const_iterator@V?$_Vector_val@U?$_Simple_types@PAVCVConGuard@@@std@@@std@@@2@0@Z 00408144 f i VConGroup.obj
 0001:00007144       ?erase@?$vector@U_ThInfo@CDragDrop@@V?$MArrayAllocator@U_ThInfo@CDragDrop@@@@@std@@QAE?AV?$_Vector_iterator@V?$_Vector_val@U?$_Simple_types@U_ThInfo@CDragDrop@@@std@@@std@@@2@V?$_Vector_const_iterator@V?$_Vector_val@U?$_Simple_types@U_ThInfo@CDragDrop@@@std@@@std@@@2@0@Z 00408144 f i DragDrop.obj
 0001:00007144       ?erase@?$vector@UConProcess@@V?$MArrayAllocator@UConProcess@@@@@std@@QAE?AV?$_Vector_iterator@V?$_Vector_val@U?$_Simple_types@UConProcess@@@std@@@std@@@2@V?$_Vector_const_iterator@V?$_Vector_val@U?$_Simple_types@UConProcess@@@std@@@std@@@2@0@Z 00408144 f i RealConsole.obj
 0001:00007144       ?erase@?$vector@PAXV?$MArrayAllocator@PAX@@@std@@QAE?AV?$_Vector_iterator@V?$_Vector_val@U?$_Simple_types@PAX@std@@@std@@@2@V?$_Vector_const_iterator@V?$_Vector_val@U?$_Simple_types@PAX@std@@@std@@@2@0@Z 00408144 f i TaskBar.obj
 0001:00007144       ?erase@?$vector@PAVCFont@@V?$MArrayAllocator@PAVCFont@@@@@std@@QAE?AV?$_Vector_iterator@V?$_Vector_val@U?$_Simple_types@PAVCFont@@@std@@@std@@@2@V?$_Vector_const_iterator@V?$_Vector_val@U?$_Simple_types@PAVCFont@@@std@@@std@@@2@0@Z 00408144 f i FontMgr.obj
 0001:00007144       ?erase@?$vector@PAVCBackgroundInfo@@V?$MArrayAllocator@PAVCBackgroundInfo@@@@@std@@QAE?AV?$_Vector_iterator@V?$_Vector_val@U?$_Simple_types@PAVCBackgroundInfo@@@std@@@std@@@2@V?$_Vector_const_iterator@V?$_Vector_val@U?$_Simple_types@PAVCBackgroundInfo@@@std@@@std@@@2@0@Z 00408144 f i Background.obj
 0001:00007144       ?erase@?$vector@PAUtag_CEDragSource@CDragDropData@@V?$MArrayAllocator@PAUtag_CEDragSource@CDragDropData@@@@@std@@QAE?AV?$_Vector_iterator@V?$_Vector_val@U?$_Simple_types@PAUtag_CEDragSource@CDragDropData@@@std@@@std@@@2@V?$_Vector_const_iterator@V?$_Vector_val@U?$_Simple_types@PAUtag_CEDragSource@CDragDropData@@@std@@@std@@@2@0@Z 00408144 f i DragDropData.obj
 0001:00007144       ?erase@?$vector@UProcessInfo@CDefTermBase@@V?$MArrayAllocator@UProcessInfo@CDefTermBase@@@@@std@@QAE?AV?$_Vector_iterator@V?$_Vector_val@U?$_Simple_types@UProcessInfo@CDefTermBase@@@std@@@std@@@2@V?$_Vector_const_iterator@V?$_Vector_val@U?$_Simple_types@UProcessInfo@CDefTermBase@@@std@@@std@@@2@0@Z 00408144 f i ConEmu.obj
 0001:00007144       ?erase@?$vector@UThreadHandle@CDefTermBase@@V?$MArrayAllocator@UThreadHandle@CDefTermBase@@@@@std@@QAE?AV?$_Vector_iterator@V?$_Vector_val@U?$_Simple_types@UThreadHandle@CDefTermBase@@@std@@@std@@@2@V?$_Vector_const_iterator@V?$_Vector_val@U?$_Simple_types@UThreadHandle@CDefTermBase@@@std@@@std@@@2@0@Z 00408144 f i DefaultTerm.obj
 0001:00007144       ?erase@?$vector@UTabIconCache@CIconList@@V?$MArrayAllocator@UTabIconCache@CIconList@@@@@std@@QAE?AV?$_Vector_iterator@V?$_Vector_val@U?$_Simple_types@UTabIconCache@CIconList@@@std@@@std@@@2@V?$_Vector_const_iterator@V?$_Vector_val@U?$_Simple_types@UTabIconCache@CIconList@@@std@@@std@@@2@0@Z 00408144 f i IconList.obj
 0001:00007179       ??$_Emplace_reallocate@ABUItemInfo@CDynDialog@@@?$vector@UItemInfo@CDynDialog@@V?$MArrayAllocator@UItemInfo@CDynDialog@@@@@std@@QAEPAUItemInfo@CDynDialog@@QAU23@ABU23@@Z 00408179 f i DynDialog.obj
 0001:00007179       ??$_Emplace_reallocate@ABUDragData@CDataObject@@@?$vector@UDragData@CDataObject@@V?$MArrayAllocator@UDragData@CDataObject@@@@@std@@QAEPAUDragData@CDataObject@@QAU23@ABU23@@Z 00408179 f i BaseDragDrops.obj
 0001:00007222       ??$_Uninitialized_move@PAUItemInfo@CDynDialog@@V?$MArrayAllocator@UItemInfo@CDynDialog@@@@@std@@YAPAUItemInfo@CDynDialog@@QAU12@0PAU12@AAV?$MArrayAllocator@UItemInfo@CDynDialog@@@@@Z 00408222 f i DynDialog.obj
 0001:00007222       ??$_Uninitialized_move@PAUDragData@CDataObject@@V?$MArrayAllocator@UDragData@CDataObject@@@@@std@@YAPAUDragData@CDataObject@@QAU12@0PAU12@AAV?$MArrayAllocator@UDragData@CDataObject@@@@@Z 00408222 f i BaseDragDrops.obj
 0001:0000724c       ??$emplace_back@ABUItemInfo@CDynDialog@@@?$vector@UItemInfo@CDynDialog@@V?$MArrayAllocator@UItemInfo@CDynDialog@@@@@std@@QAE?A_TABUItemInfo@CDynDialog@@@Z 0040824c f i DynDialog.obj
 0001:0000724c       ??$emplace_back@ABUDragData@CDataObject@@@?$vector@UDragData@CDataObject@@V?$MArrayAllocator@UDragData@CDataObject@@@@@std@@QAE?A_TABUDragData@CDataObject@@@Z 0040824c f i BaseDragDrops.obj
 0001:0000727a       ??0CBaseDropTarget@@QAE@XZ 0040827a f   BaseDragDrops.obj
 0001:0000728a       ??0CDataObject@@QAE@PAUtagFORMATETC@@PAUtagSTGMEDIUM@@H@Z 0040828a f   BaseDragDrops.obj
 0001:00007329       ??0CDropSource@@QAE@PAVCDragDropData@@@Z 00408329 f   BaseDragDrops.obj
 0001:00007350       ??0CEnumFormatEtc@@QAE@PAUtagFORMATETC@@H@Z 00408350 f   BaseDragDrops.obj
 0001:000073ad       ??1?$MArray@U_ThInfo@CDragDrop@@@@QAE@XZ 004083ad f i DragDrop.obj
 0001:000073ad       ??1_FindAllMonitors@@QAE@XZ 004083ad f i common-user32:Monitors.obj
 0001:000073ad       ??1?$MArray@ULngDefinition@CLngRc@@@@QAE@XZ 004083ad f i LngRc.obj
 0001:000073ad       ??1?$MArray@UtagPROCESSENTRY32W@@@@QAE@XZ 004083ad f i RealConsole.obj
 0001:000073ad       ??1?$MArray@PAUSwitch@@@@QAE@XZ 004083ad f i SetPgIntegr.obj
 0001:000073ad       ??1?$MArray@PA_W@@QAE@XZ   004083ad f i ConEmuCtrl.obj
 0001:000073ad       ??1?$MArray@UTabIconCache@CIconList@@@@QAE@XZ 004083ad f i IconList.obj
 0001:000073ad       ??1?$MArray@PAVCVConGroup@@@@QAE@XZ 004083ad f i VConGroup.obj
 0001:000073ad       ??1?$MArray@URunQueueItem@CRunQueue@@@@QAE@XZ 004083ad f i RunQueue.obj
 0001:000073ad       ??1?$MArray@PB_W@@QAE@XZ   004083ad f i ConEmu.obj
 0001:000073ad       ??1?$MArray@URegFont@@@@QAE@XZ 004083ad f i FontMgr.obj
 0001:000073ad       ??1?$MArray@UConProcess@@@@QAE@XZ 004083ad f i RealConsole.obj
 0001:000073ad       ??1?$MArray@H@@QAE@XZ      004083ad f i CmdHistory.obj
 0001:000073ad       ??1?$MArray@UGuiMacroArg@@@@QAE@XZ 004083ad f i MacroImpl.obj
 0001:000073ad       ??1?$MArray@UThreadHandle@CDefTermBase@@@@QAE@XZ 004083ad f i DefaultTerm.obj
 0001:000073ad       ??1?$MArray@PAVCTabID@@@@QAE@XZ 004083ad f i TabBar.obj
 0001:000073ad       ??1?$MArray@D@@QAE@XZ      004083ad f i SettingsStorage.obj
 0001:000073ad       ??1?$MArray@ULngRcItem@CLngRc@@@@QAE@XZ 004083ad f i LngRc.obj
 0001:000073ad       ??1?$MArray@UFontHeightInfo@@@@QAE@XZ 004083ad f i FontMgr.obj
 0001:000073ad       ??1?$MArray@UVarDef@CVarDefs@FastConfig@@@@QAE@XZ 004083ad f i OptionsFast.obj
 0001:000073ad       ??1?$MArray@PAVCVConGuard@@@@QAE@XZ 004083ad f i Macro.obj
 0001:000073ad       ??1?$MArray@PAUHWND__@@@@QAE@XZ 004083ad f i ConEmu.obj
 0001:000073ad       ??1?$MArray@PAVCFont@@@@QAE@XZ 004083ad f i FontMgr.obj
 0001:000073ad       ??1?$MArray@UDragData@CDataObject@@@@QAE@XZ 004083ad f i BaseDragDrops.obj
 0001:000073ad       ??1?$MArray@USshAgent@CConEmuMain@@@@QAE@XZ 004083ad f i ConEmu.obj
 0001:000073ad       ??1?$MArray@UProcessInfo@CDefTermBase@@@@QAE@XZ 004083ad f i DefaultTerm.obj
 0001:000073b2       ??1CBaseDropTarget@@UAE@XZ 004083b2 f   BaseDragDrops.obj
 0001:000073b9       ??1CDataObject@@UAE@XZ     004083b9 f   BaseDragDrops.obj
 0001:00007431       ??1CEnumFormatEtc@@UAE@XZ  00408431 f   BaseDragDrops.obj
 0001:000074ad       ??_GCBaseDropTarget@@UAEPAXI@Z 004084ad f i BaseDragDrops.obj
 0001:000074ad       ??_ECBaseDropTarget@@UAEPAXI@Z 004084ad f i BaseDragDrops.obj
 0001:000074d0       ??_ECDataObject@@UAEPAXI@Z 004084d0 f i BaseDragDrops.obj
 0001:000074d0       ??_GCDataObject@@UAEPAXI@Z 004084d0 f i BaseDragDrops.obj
 0001:000074f2       ??_GCDropSource@@UAEPAXI@Z 004084f2 f i BaseDragDrops.obj
 0001:000074f2       ??_ECDropSource@@UAEPAXI@Z 004084f2 f i BaseDragDrops.obj
 0001:00007515       ??_GCEnumFormatEtc@@UAEPAXI@Z 00408515 f i BaseDragDrops.obj
 0001:00007515       ??_ECEnumFormatEtc@@UAEPAXI@Z 00408515 f i BaseDragDrops.obj
 0001:00007537       ?AddRef@CBaseDropTarget@@UAGKXZ 00408537 f   BaseDragDrops.obj
 0001:00007537       ?AddRef@CDataObject@@UAGKXZ 00408537 f   BaseDragDrops.obj
 0001:00007537       ?AddRef@CEnumFormatEtc@@UAGKXZ 00408537 f   BaseDragDrops.obj
 0001:0000754b       ?AddRef@CDropSource@@UAGKXZ 0040854b f   BaseDragDrops.obj
 0001:0000755f       ?Clone@CEnumFormatEtc@@UAGJPAPAUIEnumFORMATETC@@@Z 0040855f f   BaseDragDrops.obj
 0001:0000758b       ?CreateDataObject@@YAJPAUtagFORMATETC@@PAUtagSTGMEDIUM@@IPAPAVCDataObject@@@Z 0040858b f   BaseDragDrops.obj
 0001:000075df       ?CreateDropSource@@YAJPAPAUIDropSource@@PAVCDragDropData@@@Z 004085df f   BaseDragDrops.obj
 0001:00007621       ?CreateEnumFormatEtc@@YAJIPAUtagFORMATETC@@PAPAUIEnumFORMATETC@@@Z 00408621 f   BaseDragDrops.obj
 0001:0000767e       ?DAdvise@CDataObject@@UAGJPAUtagFORMATETC@@KPAUIAdviseSink@@PAK@Z 0040867e f   BaseDragDrops.obj
 0001:00007686       ?DUnadvise@CDataObject@@UAGJK@Z 00408686 f   BaseDragDrops.obj
 0001:00007686       ?EnumDAdvise@CDataObject@@UAGJPAPAUIEnumSTATDATA@@@Z 00408686 f   BaseDragDrops.obj
 0001:000076c7       ?DragEnter@CBaseDropTarget@@UAGJPAUIDataObject@@KU_POINTL@@PAK@Z 004086c7 f   BaseDragDrops.obj
 0001:000076c7       ?Drop@CBaseDropTarget@@UAGJPAUIDataObject@@KU_POINTL@@PAK@Z 004086c7 f   BaseDragDrops.obj
 0001:000076cc       ?ChCp@CStartEnvTitle@@UAEXPB_W@Z 004086cc f i common-user32:ProcessSetEnv.obj
 0001:000076cc       ?OnPostLocalize@CSetPgBase@@UAEXPAUHWND__@@@Z 004086cc f i SetPgANSI.obj
 0001:000076cc       ?OnUseGlass@CConEmuMain@@MAEX_N@Z 004086cc f i ConEmu.obj
 0001:000076cc       ?ExecuteProcessFinished@CConEmuMain@@IAEX_N@Z 004086cc f i ConEmu.obj
 0001:000076cc       ?OnUseTheming@CConEmuMain@@MAEX_N@Z 004086cc f i ConEmu.obj
 0001:000076cc       ?OnUseDwm@CConEmuMain@@MAEX_N@Z 004086cc f i ConEmu.obj
 0001:000076cc       ?DeleteKey@SettingsINI@@UAEXPB_W@Z 004086cc f i SettingsStorage.obj
 0001:000076cc       ?DragFeedBack@CBaseDropTarget@@UAEXK@Z 004086cc f i BaseDragDrops.obj
 0001:000076cf       ?_Get_deleter@_Ref_count_base@std@@UBEPAXABVtype_info@@@Z 004086cf f   ConEmu.obj
 0001:000076cf       ?DragLeave@CBaseDropTarget@@UAGJXZ 004086cf f   BaseDragDrops.obj
 0001:000076d4       ?DragOver@CBaseDropTarget@@UAGJKU_POINTL@@PAK@Z 004086d4 f   BaseDragDrops.obj
 0001:000076d9       ?DupMem@@YAPAXPAX@Z        004086d9 f   BaseDragDrops.obj
 0001:00007723       ?EnumFormatEtc@CDataObject@@UAGJKPAPAUIEnumFORMATETC@@@Z 00408723 f   BaseDragDrops.obj
 0001:000077ae       ?GetCanonicalFormatEtc@CDataObject@@UAGJPAUtagFORMATETC@@0@Z 004087ae f   BaseDragDrops.obj
 0001:000077c1       ?GetData@CDataObject@@UAGJPAUtagFORMATETC@@PAUtagSTGMEDIUM@@@Z 004087c1 f   BaseDragDrops.obj
 0001:00007873       ?GetDataHere@CDataObject@@UAGJPAUtagFORMATETC@@PAUtagSTGMEDIUM@@@Z 00408873 f   BaseDragDrops.obj
 0001:0000787b       ?GiveFeedback@CDropSource@@UAGJK@Z 0040887b f   BaseDragDrops.obj
 0001:00007919       ?LookupFormatEtc@CDataObject@@AAEHPAUtagFORMATETC@@@Z 00408919 f   BaseDragDrops.obj
 0001:0000796f       ?Next@CEnumFormatEtc@@UAGJKPAUtagFORMATETC@@PAK@Z 0040896f f   BaseDragDrops.obj
 0001:000079d2       ?QueryContinueDrag@CDropSource@@UAGJHK@Z 004089d2 f   BaseDragDrops.obj
 0001:00007a3b       ?QueryGetData@CDataObject@@UAGJPAUtagFORMATETC@@@Z 00408a3b f   BaseDragDrops.obj
 0001:00007a5c       ?QueryInterface@CBaseDropTarget@@UAGJABU_GUID@@PAPAX@Z 00408a5c f   BaseDragDrops.obj
 0001:00007ab1       ?QueryInterface@CDataObject@@UAGJABU_GUID@@PAPAX@Z 00408ab1 f   BaseDragDrops.obj
 0001:00007b06       ?QueryInterface@CDropSource@@UAGJABU_GUID@@PAPAX@Z 00408b06 f   BaseDragDrops.obj
 0001:00007b5b       ?QueryInterface@CEnumFormatEtc@@UAGJABU_GUID@@PAPAX@Z 00408b5b f   BaseDragDrops.obj
 0001:00007bb0       ?Release@CBaseDropTarget@@UAGKXZ 00408bb0 f   BaseDragDrops.obj
 0001:00007bb0       ?Release@CEnumFormatEtc@@UAGKXZ 00408bb0 f   BaseDragDrops.obj
 0001:00007bd9       ?Release@CDataObject@@UAGKXZ 00408bd9 f   BaseDragDrops.obj
 0001:00007c02       ?Release@CDropSource@@UAGKXZ 00408c02 f   BaseDragDrops.obj
 0001:00007c2b       ?Reset@CEnumFormatEtc@@UAGJXZ 00408c2b f   BaseDragDrops.obj
 0001:00007c3b       ?SetData@CDataObject@@UAGJPAUtagFORMATETC@@PAUtagSTGMEDIUM@@H@Z 00408c3b f   BaseDragDrops.obj
 0001:00007d0e       ?SetDataInt@CDataObject@@QAEJPB_WPBXK@Z 00408d0e f   BaseDragDrops.obj
 0001:00007d7f       ?Skip@CEnumFormatEtc@@UAGJK@Z 00408d7f f   BaseDragDrops.obj
 0001:00007d99       ?_Calculate_growth@?$vector@UItemInfo@CDynDialog@@V?$MArrayAllocator@UItemInfo@CDynDialog@@@@@std@@ABEII@Z 00408d99 f i DynDialog.obj
 0001:00007d99       ?_Calculate_growth@?$vector@UDragData@CDataObject@@V?$MArrayAllocator@UDragData@CDataObject@@@@@std@@ABEII@Z 00408d99 f i BaseDragDrops.obj
 0001:00007dca       ?_Change_array@?$vector@UItemInfo@CDynDialog@@V?$MArrayAllocator@UItemInfo@CDynDialog@@@@@std@@AAEXQAUItemInfo@CDynDialog@@II@Z 00408dca f i DynDialog.obj
 0001:00007dca       ?_Change_array@?$vector@UDragData@CDataObject@@V?$MArrayAllocator@UDragData@CDataObject@@@@@std@@AAEXQAUDragData@CDataObject@@II@Z 00408dca f i BaseDragDrops.obj
 0001:00007df9       ?_Reallocate_exactly@?$vector@UDragData@CDataObject@@V?$MArrayAllocator@UDragData@CDataObject@@@@@std@@AAEXI@Z 00408df9 f i BaseDragDrops.obj
 0001:00007e3c       ?allocate@?$MArrayAllocator@UDragData@CDataObject@@@@QAEPAUDragData@CDataObject@@I@Z 00408e3c f i BaseDragDrops.obj
 0001:00007e3c       ?allocate@?$MArrayAllocator@UItemInfo@CDynDialog@@@@QAEPAUItemInfo@CDynDialog@@I@Z 00408e3c f i DynDialog.obj
 0001:00007e6c       ?reserve@?$vector@UDragData@CDataObject@@V?$MArrayAllocator@UDragData@CDataObject@@@@@std@@QAEXI@Z 00408e6c f i BaseDragDrops.obj
 0001:00007e9a       ??$_Uninitialized_fill_n@V?$MArrayAllocator@PAUCommand@CProcessEnvCmd@@@@@std@@YAPAPAUCommand@CProcessEnvCmd@@PAPAU12@IABQAU12@AAV?$MArrayAllocator@PAUCommand@CProcessEnvCmd@@@@@Z 00408e9a f i common-user32:ProcessSetEnv.obj
 0001:00007e9a       ??$_Uninitialized_fill_n@V?$MArrayAllocator@PAVCTabID@@@@@std@@YAPAPAVCTabID@@PAPAV1@IABQAV1@AAV?$MArrayAllocator@PAVCTabID@@@@@Z 00408e9a f i TabBar.obj
 0001:00007e9a       ??$_Uninitialized_fill_n@V?$MArrayAllocator@PA_W@@@std@@YAPAPA_WPAPA_WIABQA_WAAV?$MArrayAllocator@PA_W@@@Z 00408e9a f i CmdHistory.obj
 0001:00007ee4       ??$fill@PAPAUCommand@CProcessEnvCmd@@PAU12@@std@@YAXQAPAUCommand@CProcessEnvCmd@@0ABQAU12@@Z 00408ee4 f i common-user32:ProcessSetEnv.obj
 0001:00007ee4       ??$fill@PAPAVCTabID@@PAV1@@std@@YAXQAPAVCTabID@@0ABQAV1@@Z 00408ee4 f i TabBar.obj
 0001:00007ee4       ??$fill@PAPA_WPA_W@std@@YAXQAPA_W0ABQA_W@Z 00408ee4 f i CmdHistory.obj
 0001:00007f69       ??0CommandHistory@@QAE@H@Z 00408f69 f   CmdHistory.obj
 0001:00007f8f       ??1CommandHistory@@QAE@XZ  00408f8f f   CmdHistory.obj
 0001:00007fd3       ?Add@CommandHistory@@QAEXPB_W_N@Z 00408fd3 f   CmdHistory.obj
 0001:000080e2       ?Compare@CommandHistory@@QAEHHPB_W@Z 004090e2 f   CmdHistory.obj
 0001:0000811e       ?CreateMSZ@CommandHistory@@QAEIAAPA_W@Z 0040911e f   CmdHistory.obj
 0001:0000824b       ?FreeItems@CommandHistory@@QAEXXZ 0040924b f   CmdHistory.obj
 0001:000082b3       ?Get@CommandHistory@@QAEPB_WH@Z 004092b3 f   CmdHistory.obj
 0001:000082e4       ?ParseMSZ@CommandHistory@@QAEXPB_W@Z 004092e4 f   CmdHistory.obj
 0001:0000833a       ?_Reallocate_exactly@?$vector@HV?$MArrayAllocator@H@@@std@@AAEXI@Z 0040933a f i CmdHistory.obj
 0001:0000833a       ?_Reallocate_exactly@?$vector@PAXV?$MArrayAllocator@PAX@@@std@@AAEXI@Z 0040933a f i TaskBar.obj
 0001:00008378       ?_Swap_val@?$_Vector_val@U?$_Simple_types@PA_W@std@@@std@@QAEXAAV12@@Z 00409378 f i CmdHistory.obj
 0001:00008378       ?_Swap_val@?$_Vector_val@U?$_Simple_types@UtagPROCESSENTRY32W@@@std@@@std@@QAEXAAV12@@Z 00409378 f i RealConsole.obj
 0001:000083a8       ?insert@?$MArray@PAUCommand@CProcessEnvCmd@@@@QAEHHABQAUCommand@CProcessEnvCmd@@H@Z 004093a8 f i common-user32:ProcessSetEnv.obj
 0001:000083a8       ?insert@?$MArray@PAVCTabID@@@@QAEHHABQAVCTabID@@H@Z 004093a8 f i TabBar.obj
 0001:000083a8       ?insert@?$MArray@PA_W@@QAEHHABQA_WH@Z 004093a8 f i CmdHistory.obj
 0001:000083f8       ?insert@?$vector@PA_WV?$MArrayAllocator@PA_W@@@std@@QAE?AV?$_Vector_iterator@V?$_Vector_val@U?$_Simple_types@PA_W@std@@@std@@@2@V?$_Vector_const_iterator@V?$_Vector_val@U?$_Simple_types@PA_W@std@@@std@@@2@IABQA_W@Z 004093f8 f i CmdHistory.obj
 0001:000083f8       ?insert@?$vector@PAVCTabID@@V?$MArrayAllocator@PAVCTabID@@@@@std@@QAE?AV?$_Vector_iterator@V?$_Vector_val@U?$_Simple_types@PAVCTabID@@@std@@@std@@@2@V?$_Vector_const_iterator@V?$_Vector_val@U?$_Simple_types@PAVCTabID@@@std@@@std@@@2@IABQAVCTabID@@@Z 004093f8 f i TabBar.obj
 0001:000083f8       ?insert@?$vector@PAUCommand@CProcessEnvCmd@@V?$MArrayAllocator@PAUCommand@CProcessEnvCmd@@@@@std@@QAE?AV?$_Vector_iterator@V?$_Vector_val@U?$_Simple_types@PAUCommand@CProcessEnvCmd@@@std@@@std@@@2@V?$_Vector_const_iterator@V?$_Vector_val@U?$_Simple_types@PAUCommand@CProcessEnvCmd@@@std@@@std@@@2@IABQAUCommand@CProcessEnvCmd@@@Z 004093f8 f i common-user32:ProcessSetEnv.obj
 0001:000085be       ?reserve@?$vector@PAXV?$MArrayAllocator@PAX@@@std@@QAEXI@Z 004095be f i TaskBar.obj
 0001:000085be       ?reserve@?$vector@HV?$MArrayAllocator@H@@@std@@QAEXI@Z 004095be f i CmdHistory.obj
 0001:000085e7       ??$_abs@N@@YA?BNABN@Z      004095e7 f i ColorFix.obj
 0001:0000860e       ??0ColorFix@@QAE@K@Z       0040960e f   ColorFix.obj
 0001:00008625       ??0ColorFix@@QAE@XZ        00409625 f   ColorFix.obj
 0001:00008637       ??0dE00@@QAE@UColorFix@@0NNN@Z 00409637 f i ColorFix.obj
 0001:0000892e       ?DeltaE@ColorFix@@QAENU1@@Z 0040992e f   ColorFix.obj
 0001:00008990       ?DeltaE@ColorSpace@@YANUColorFix@@0@Z 00409990 f   ColorFix.obj
 0001:00008a13       ?PerceivableColor@ColorFix@@QAE_NKAAU1@PAN1@Z 00409a13 f   ColorFix.obj
 0001:00008b5d       ?ToLab@ColorFix@@QAEXXZ    00409b5d f   ColorFix.obj
 0001:00008ba9       ?ToRGB@ColorFix@@QAEXXZ    00409ba9 f   ColorFix.obj
 0001:00008bc9       ?_gethPrimeFn@dE00@@QAENNN@Z 00409bc9 f i ColorFix.obj
 0001:00008c28       ?getDeltaE@dE00@@QAENXZ    00409c28 f i ColorFix.obj
 0001:00008e26       ?getDeltahPrime@dE00@@QAENXZ 00409e26 f i ColorFix.obj
 0001:00008ece       ?getHBarPrime@dE00@@QAENXZ 00409ece f i ColorFix.obj
 0001:00008f51       ?getRsubT@dE00@@QAENXZ     00409f51 f i ColorFix.obj
 0001:00009010       ?getT@dE00@@QAENXZ         0040a010 f i ColorFix.obj
 0001:000090fc       ?lab2rgb@ColorSpace@@YAXNNNAAK@Z 0040a0fc f   ColorFix.obj
 0001:00009196       ?lab2rgb@ColorSpace@@YAXNNNAAN00@Z 0040a196 f   ColorFix.obj
 0001:00009457       ?min_max@ColorSpace@@YAEN@Z 0040a457 f   ColorFix.obj
 0001:00009480       ?rgb2lab@ColorSpace@@YAXNNNAAN00@Z 0040a480 f   ColorFix.obj
 0001:0000970a       ??$?0$$V@?$_Ref_count_obj2@USystemEnvironment@@@std@@QAE@XZ 0040a70a f i ConEmu.obj
 0001:0000972a       ??$?0AAY0L@$$CB_WAAY0BAF@_WK@?$_Ref_count_obj2@VMFileLogEx@@@std@@QAE@AAY0L@$$CB_WAAY0BAF@_W$$QAK@Z 0040a72a f i ConEmu.obj
 0001:00009759       ??$?0PA_W$0A@@?$basic_string@_WU?$char_traits@_W@std@@V?$allocator@_W@2@@std@@QAE@PA_W0ABV?$allocator@_W@1@@Z 0040a759 f i ConEmu.obj
 0001:0000978a       ??$?H_WU?$char_traits@_W@std@@V?$allocator@_W@1@@std@@YA?AV?$basic_string@_WU?$char_traits@_W@std@@V?$allocator@_W@2@@0@QB_WABV10@@Z 0040a78a f i ConEmu.obj
 0001:000097df       ??$?M_JU?$ratio@$00$0DLJKMKAA@@std@@_JU?$ratio@$00$00@1@@chrono@std@@YA_NABV?$duration@_JU?$ratio@$00$0DLJKMKAA@@std@@@01@ABV?$duration@_JU?$ratio@$00$00@std@@@01@@Z 0040a7df f i ConEmu.obj
 0001:0000980f       ??$GetPageObj@VCSetPgInfo@@@CSettings@@QAE_NAAPAVCSetPgInfo@@@Z 0040a80f f i ConEmu.obj
 0001:0000983e       ??$SafeDelete@UCEFindDlg@@@@YAXAAPAUCEFindDlg@@@Z 0040a83e f i ConEmu.obj
 0001:00009861       ??$SafeDelete@UHandleMonitor@@@@YAXAAPAUHandleMonitor@@@Z 0040a861 f i ConEmu.obj
 0001:00009892       ??$SafeDelete@UMSectionLockSimple@@@@YAXAAPAUMSectionLockSimple@@@Z 0040a892 f i ConEmu.obj
 0001:000098c3       ??$SafeDelete@UMSectionSimple@@@@YAXAAPAUMSectionSimple@@@Z 0040a8c3 f i ConEmu.obj
 0001:000098f4       ??$SafeDelete@VCAltNumpad@@@@YAXAAPAVCAltNumpad@@@Z 0040a8f4 f i ConEmu.obj
 0001:00009925       ??$SafeDelete@VCAttachDlg@@@@YAXAAPAVCAttachDlg@@@Z 0040a925 f i ConEmu.obj
 0001:00009956       ??$SafeDelete@VCConEmuInside@@@@YAXAAPAVCConEmuInside@@@Z 0040a956 f i ConEmu.obj
 0001:0000998a       ??$SafeDelete@VCConEmuMenu@@@@YAXAAPAVCConEmuMenu@@@Z 0040a98a f i ConEmu.obj
 0001:000099bb       ??$SafeDelete@VCDefaultTerminal@@@@YAXAAPAVCDefaultTerminal@@@Z 0040a9bb f i ConEmu.obj
 0001:000099ef       ??$SafeDelete@VCDragDrop@@@@YAXAAPAVCDragDrop@@@Z 0040a9ef f i ConEmu.obj
 0001:00009a14       ??$SafeDelete@VCPushInfo@@@@YAXAAPAVCPushInfo@@@Z 0040aa14 f i ConEmu.obj
 0001:00009a14       ??$SafeDelete@VCRConFiles@@@@YAXAAPAVCRConFiles@@@Z 0040aa14 f i RealConsole.obj
 0001:00009a45       ??$SafeDelete@VCRecreateDlg@@@@YAXAAPAVCRecreateDlg@@@Z 0040aa45 f i ConEmu.obj
 0001:00009a79       ??$SafeDelete@VCRunQueue@@@@YAXAAPAVCRunQueue@@@Z 0040aa79 f i ConEmu.obj
 0001:00009aaa       ??$_Allocate@$07U_Default_allocate_traits@std@@$0A@@std@@YAPAXI@Z 0040aaaa f i ConEmu.obj
 0001:00009ad0       ??$_Allocate_manually_vector_aligned@U_Default_allocate_traits@std@@@std@@YAPAXI@Z 0040aad0 f i ConEmu.obj
 0001:00009afe       ??$_Construct_in_place@USystemEnvironment@@$$V@std@@YAXAAUSystemEnvironment@@@Z 0040aafe f i ConEmu.obj
 0001:00009b23       ??$_Copy_construct_from@USystemEnvironment@@@?$_Ptr_base@USystemEnvironment@@@std@@IAEXABV?$shared_ptr@USystemEnvironment@@@1@@Z 0040ab23 f i ConEmu.obj
 0001:00009b23       ??$_Copy_construct_from@VMFileLogEx@@@?$_Ptr_base@VMFileLogEx@@@std@@IAEXABV?$shared_ptr@VMFileLogEx@@@1@@Z 0040ab23 f i ConEmu.obj
 0001:00009b42       ??$_Deallocate@$07$0A@@std@@YAXPAXI@Z 0040ab42 f i ConEmu.obj
 0001:00009b6e       ??$_Emplace_reallocate@ABUProcessInfo@CDefTermBase@@@?$vector@UProcessInfo@CDefTermBase@@V?$MArrayAllocator@UProcessInfo@CDefTermBase@@@@@std@@QAEPAUProcessInfo@CDefTermBase@@QAU23@ABU23@@Z 0040ab6e f i ConEmu.obj
 0001:00009c17       ??$_Emplace_reallocate@ABULngDefinition@CLngRc@@@?$vector@ULngDefinition@CLngRc@@V?$MArrayAllocator@ULngDefinition@CLngRc@@@@@std@@QAEPAULngDefinition@CLngRc@@QAU23@ABU23@@Z 0040ac17 f i LngRc.obj
 0001:00009c17       ??$_Emplace_reallocate@ABUSshAgent@CConEmuMain@@@?$vector@USshAgent@CConEmuMain@@V?$MArrayAllocator@USshAgent@CConEmuMain@@@@@std@@QAEPAUSshAgent@CConEmuMain@@QAU23@ABU23@@Z 0040ac17 f i ConEmu.obj
 0001:00009c17       ??$_Emplace_reallocate@ABUTabIconCache@CIconList@@@?$vector@UTabIconCache@CIconList@@V?$MArrayAllocator@UTabIconCache@CIconList@@@@@std@@QAEPAUTabIconCache@CIconList@@QAU23@ABU23@@Z 0040ac17 f i IconList.obj
 0001:00009c17       ??$_Emplace_reallocate@ABUThreadHandle@CDefTermBase@@@?$vector@UThreadHandle@CDefTermBase@@V?$MArrayAllocator@UThreadHandle@CDefTermBase@@@@@std@@QAEPAUThreadHandle@CDefTermBase@@QAU23@ABU23@@Z 0040ac17 f i ConEmu.obj
 0001:00009cbe       ??$_Find_last@V?$basic_string@_WU?$char_traits@_W@std@@V?$allocator@_W@2@@std@@@?$_Hash@V?$_Umap_traits@V?$basic_string@_WU?$char_traits@_W@std@@V?$allocator@_W@2@@std@@UVariableData@SystemEnvironment@@V?$_Uhash_compare@V?$basic_string@_WU?$char_traits@_W@std@@V?$allocator@_W@2@@std@@U?$hash@V?$basic_string@_WU?$char_traits@_W@std@@V?$allocator@_W@2@@std@@@2@U?$equal_to@V?$basic_string@_WU?$char_traits@_W@std@@V?$allocator@_W@2@@std@@@2@@2@V?$allocator@U?$pair@$$CBV?$basic_string@_WU?$char_traits@_W@std@@V?$allocator@_W@2@@std@@UVariableData@SystemEnvironment@@@std@@@2@$0A@@std@@@std@@IBE?AU?$_Hash_find_last_result@PAU?$_List_node@U?$pair@$$CBV?$basic_string@_WU?$char_traits@_W@std@@V?$allocator@_W@2@@std@@UVariableData@SystemEnvironment@@@std@@PAX@std@@@1@ABV?$basic_string@_WU?$char_traits@_W@std@@V?$allocator@_W@2@@1@I@Z 0040acbe f i ConEmu.obj
 0001:00009d17       ??$_Free_non_head@V?$allocator@U?$_List_node@U?$pair@$$CBV?$basic_string@_WU?$char_traits@_W@std@@V?$allocator@_W@2@@std@@UVariableData@SystemEnvironment@@@std@@PAX@std@@@std@@@?$_List_node@U?$pair@$$CBV?$basic_string@_WU?$char_traits@_W@std@@V?$allocator@_W@2@@std@@UVariableData@SystemEnvironment@@@std@@PAX@std@@SAXAAV?$allocator@U?$_List_node@U?$pair@$$CBV?$basic_string@_WU?$char_traits@_W@std@@V?$allocator@_W@2@@std@@UVariableData@SystemEnvironment@@@std@@PAX@std@@@1@PAU01@@Z 0040ad17 f i ConEmu.obj
 0001:00009d40       ??$_Freenode@V?$allocator@U?$_List_node@U?$pair@$$CBV?$basic_string@_WU?$char_traits@_W@std@@V?$allocator@_W@2@@std@@UVariableData@SystemEnvironment@@@std@@PAX@std@@@std@@@?$_List_node@U?$pair@$$CBV?$basic_string@_WU?$char_traits@_W@std@@V?$allocator@_W@2@@std@@UVariableData@SystemEnvironment@@@std@@PAX@std@@SAXAAV?$allocator@U?$_List_node@U?$pair@$$CBV?$basic_string@_WU?$char_traits@_W@std@@V?$allocator@_W@2@@std@@UVariableData@SystemEnvironment@@@std@@PAX@std@@@1@PAU01@@Z 0040ad40 f i ConEmu.obj
 0001:00009d5c       ??$_Reallocate_for@V<lambda_03628ca18370b1f44a99b655e704819b>@@PB_W@?$basic_string@_WU?$char_traits@_W@std@@V?$allocator@_W@2@@std@@AAEAAV01@IV<lambda_03628ca18370b1f44a99b655e704819b>@@PB_W@Z 0040ad5c f i ConEmu.obj
 0001:00009ddb       ??$_Reallocate_grow_by@V<lambda_09fe38f6114539daa867a3e4d6874f49>@@IPB_WI@?$basic_string@_WU?$char_traits@_W@std@@V?$allocator@_W@2@@std@@AAEAAV01@IV<lambda_09fe38f6114539daa867a3e4d6874f49>@@IPB_WI@Z 0040addb f i ConEmu.obj
 0001:00009e72       ??$_Reallocate_grow_by@V<lambda_2fb699096920f2dc628cb0826b07831d>@@PB_WI@?$basic_string@_WU?$char_traits@_W@std@@V?$allocator@_W@2@@std@@AAEAAV01@IV<lambda_2fb699096920f2dc628cb0826b07831d>@@PB_WI@Z 0040ae72 f i ConEmu.obj
 0001:00009f06       ??$_Reallocate_grow_by@V<lambda_4755c59c3a9e60a5b049353a7584df55>@@$$V@?$basic_string@_WU?$char_traits@_W@std@@V?$allocator@_W@2@@std@@AAEAAV01@IV<lambda_4755c59c3a9e60a5b049353a7584df55>@@@Z 0040af06 f i ConEmu.obj
 0001:00009f9d       ??$_Traits_equal@U?$char_traits@_W@std@@@std@@YA_NQB_WI0I@Z 0040af9d f i ConEmu.obj
 0001:00009fc3       ??$_UIntegral_to_buff@_WI@std@@YAPA_WPA_WI@Z 0040afc3 f i ConEmu.obj
 0001:00009ff2       ??$_UIntegral_to_string@_WI@std@@YA?AV?$basic_string@_WU?$char_traits@_W@std@@V?$allocator@_W@2@@0@I@Z 0040aff2 f i ConEmu.obj
 0001:0000a037       ??$_Uninitialized_move@PAUProcessInfo@CDefTermBase@@V?$MArrayAllocator@UProcessInfo@CDefTermBase@@@@@std@@YAPAUProcessInfo@CDefTermBase@@QAU12@0PAU12@AAV?$MArrayAllocator@UProcessInfo@CDefTermBase@@@@@Z 0040b037 f i ConEmu.obj
 0001:0000a05f       ??$_Uninitialized_move@PAUThreadHandle@CDefTermBase@@V?$MArrayAllocator@UThreadHandle@CDefTermBase@@@@@std@@YAPAUThreadHandle@CDefTermBase@@QAU12@0PAU12@AAV?$MArrayAllocator@UThreadHandle@CDefTermBase@@@@@Z 0040b05f f i ConEmu.obj
 0001:0000a05f       ??$_Uninitialized_move@PAUSshAgent@CConEmuMain@@V?$MArrayAllocator@USshAgent@CConEmuMain@@@@@std@@YAPAUSshAgent@CConEmuMain@@QAU12@0PAU12@AAV?$MArrayAllocator@USshAgent@CConEmuMain@@@@@Z 0040b05f f i ConEmu.obj
 0001:0000a05f       ??$_Uninitialized_move@PAULngDefinition@CLngRc@@V?$MArrayAllocator@ULngDefinition@CLngRc@@@@@std@@YAPAULngDefinition@CLngRc@@QAU12@0PAU12@AAV?$MArrayAllocator@ULngDefinition@CLngRc@@@@@Z 0040b05f f i LngRc.obj
 0001:0000a05f       ??$_Uninitialized_move@PAUTabIconCache@CIconList@@V?$MArrayAllocator@UTabIconCache@CIconList@@@@@std@@YAPAUTabIconCache@CIconList@@QAU12@0PAU12@AAV?$MArrayAllocator@UTabIconCache@CIconList@@@@@Z 0040b05f f i IconList.obj
 0001:0000a089       ??$count@X@?$_Hash@V?$_Umap_traits@V?$basic_string@_WU?$char_traits@_W@std@@V?$allocator@_W@2@@std@@UVariableData@SystemEnvironment@@V?$_Uhash_compare@V?$basic_string@_WU?$char_traits@_W@std@@V?$allocator@_W@2@@std@@U?$hash@V?$basic_string@_WU?$char_traits@_W@std@@V?$allocator@_W@2@@std@@@2@U?$equal_to@V?$basic_string@_WU?$char_traits@_W@std@@V?$allocator@_W@2@@std@@@2@@2@V?$allocator@U?$pair@$$CBV?$basic_string@_WU?$char_traits@_W@std@@V?$allocator@_W@2@@std@@UVariableData@SystemEnvironment@@@std@@@2@$0A@@std@@@std@@QBEIABV?$basic_string@_WU?$char_traits@_W@std@@V?$allocator@_W@2@@1@@Z 0040b089 f i ConEmu.obj
 0001:0000a0b7       ??$emplace_back@ABUProcessInfo@CDefTermBase@@@?$vector@UProcessInfo@CDefTermBase@@V?$MArrayAllocator@UProcessInfo@CDefTermBase@@@@@std@@QAE?A_TABUProcessInfo@CDefTermBase@@@Z 0040b0b7 f i ConEmu.obj
 0001:0000a0e5       ??$emplace_back@ABUSshAgent@CConEmuMain@@@?$vector@USshAgent@CConEmuMain@@V?$MArrayAllocator@USshAgent@CConEmuMain@@@@@std@@QAE?A_TABUSshAgent@CConEmuMain@@@Z 0040b0e5 f i ConEmu.obj
 0001:0000a0e5       ??$emplace_back@ABULngDefinition@CLngRc@@@?$vector@ULngDefinition@CLngRc@@V?$MArrayAllocator@ULngDefinition@CLngRc@@@@@std@@QAE?A_TABULngDefinition@CLngRc@@@Z 0040b0e5 f i LngRc.obj
 0001:0000a0e5       ??$emplace_back@ABUTabIconCache@CIconList@@@?$vector@UTabIconCache@CIconList@@V?$MArrayAllocator@UTabIconCache@CIconList@@@@@std@@QAE?A_TABUTabIconCache@CIconList@@@Z 0040b0e5 f i IconList.obj
 0001:0000a0e5       ??$emplace_back@ABUThreadHandle@CDefTermBase@@@?$vector@UThreadHandle@CDefTermBase@@V?$MArrayAllocator@UThreadHandle@CDefTermBase@@@@@std@@QAE?A_TABUThreadHandle@CDefTermBase@@@Z 0040b0e5 f i ConEmu.obj
 0001:0000a10f       ??$fill@PAV?$_List_unchecked_iterator@V?$_List_val@U?$_List_simple_types@U?$pair@$$CBV?$basic_string@_WU?$char_traits@_W@std@@V?$allocator@_W@2@@std@@UVariableData@SystemEnvironment@@@std@@@std@@@std@@@std@@V12@@std@@YAXQAV?$_List_unchecked_iterator@V?$_List_val@U?$_List_simple_types@U?$pair@$$CBV?$basic_string@_WU?$char_traits@_W@std@@V?$allocator@_W@2@@std@@UVariableData@SystemEnvironment@@@std@@@std@@@std@@@0@0ABV10@@Z 0040b10f f i ConEmu.obj
 0001:0000a10f       ??$fill@PAV?$_List_unchecked_iterator@V?$_List_val@U?$_List_simple_types@U?$pair@$$CBKI@std@@@std@@@std@@@std@@V12@@std@@YAXQAV?$_List_unchecked_iterator@V?$_List_val@U?$_List_simple_types@U?$pair@$$CBKI@std@@@std@@@std@@@0@0ABV10@@Z 0040b10f f i RealConsole.obj
 0001:0000a10f       ??$fill@PAV?$_List_unchecked_const_iterator@V?$_List_val@U?$_List_simple_types@K@std@@@std@@U_Iterator_base0@2@@std@@V12@@std@@YAXQAV?$_List_unchecked_const_iterator@V?$_List_val@U?$_List_simple_types@K@std@@@std@@U_Iterator_base0@2@@0@0ABV10@@Z 0040b10f f i RealConsole.obj
 0001:0000a10f       ??$fill@PAV?$_List_unchecked_iterator@V?$_List_val@U?$_List_simple_types@U?$pair@$$CBHG@std@@@std@@@std@@@std@@V12@@std@@YAXQAV?$_List_unchecked_iterator@V?$_List_val@U?$_List_simple_types@U?$pair@$$CBHG@std@@@std@@@std@@@0@0ABV10@@Z 0040b10f f i Font.obj
 0001:0000a16b       ??$find@X@?$_Hash@V?$_Umap_traits@V?$basic_string@_WU?$char_traits@_W@std@@V?$allocator@_W@2@@std@@UVariableData@SystemEnvironment@@V?$_Uhash_compare@V?$basic_string@_WU?$char_traits@_W@std@@V?$allocator@_W@2@@std@@U?$hash@V?$basic_string@_WU?$char_traits@_W@std@@V?$allocator@_W@2@@std@@@2@U?$equal_to@V?$basic_string@_WU?$char_traits@_W@std@@V?$allocator@_W@2@@std@@@2@@2@V?$allocator@U?$pair@$$CBV?$basic_string@_WU?$char_traits@_W@std@@V?$allocator@_W@2@@std@@UVariableData@SystemEnvironment@@@std@@@2@$0A@@std@@@std@@QBE?AV?$_List_const_iterator@V?$_List_val@U?$_List_simple_types@U?$pair@$$CBV?$basic_string@_WU?$char_traits@_W@std@@V?$allocator@_W@2@@std@@UVariableData@SystemEnvironment@@@std@@@std@@@std@@@1@ABV?$basic_string@_WU?$char_traits@_W@std@@V?$allocator@_W@2@@1@@Z 0040b16b f i ConEmu.obj
 0001:0000a19e       ??$make_shared@USystemEnvironment@@$$V@std@@YA?AV?$shared_ptr@USystemEnvironment@@@0@XZ 0040b19e f i ConEmu.obj
 0001:0000a1db       ??$make_shared@VGlobalHotkeys@@$$V@std@@YA?AV?$shared_ptr@VGlobalHotkeys@@@0@XZ 0040b1db f i ConEmu.obj
 0001:0000a233       ??$make_shared@VMFileLogEx@@AAY0L@$$CB_WAAY0BAF@_WK@std@@YA?AV?$shared_ptr@VMFileLogEx@@@0@AAY0L@$$CB_WAAY0BAF@_W$$QAK@Z 0040b233 f i ConEmu.obj
 0001:0000a279       ??$sprintf_c@$0GE@@@YAHAAY0GE@DPBDZZ 0040b279 f i ConEmu.obj
 0001:0000a28f       ??$sprintf_c@$0IA@@@YAHAAY0IA@DPBDZZ 0040b28f f i ConEmu.obj
 0001:0000a2a8       ??$swprintf_c@$09@@YAHAAY09_WPB_WZZ 0040b2a8 f i ConEmu.obj
 0001:0000a2be       ??$swprintf_c@$0BA@@@YAHAAY0BA@_WPB_WZZ 0040b2be f i ConEmu.obj
 0001:0000a2d4       ??$swprintf_c@$0BFE@@@YAHAAY0BFE@_WPB_WZZ 0040b2d4 f i ConEmu.obj
 0001:0000a2ed       ??$swprintf_c@$0CAA@@@YAHAAY0CAA@_WPB_WZZ 0040b2ed f i ConEmu.obj
 0001:0000a306       ??$swprintf_c@$0EA@@@YAHAAY0EA@_WPB_WZZ 0040b306 f i ConEmu.obj
 0001:0000a31c       ??$swprintf_c@$0GE@@@YAHAAY0GE@_WPB_WZZ 0040b31c f i ConEmu.obj
 0001:0000a332       ??$swprintf_c@$0IM@@@YAHAAY0IM@_WPB_WZZ 0040b332 f i ConEmu.obj
 0001:0000a34b       ??$swprintf_c@$0KA@@@YAHAAY0KA@_WPB_WZZ 0040b34b f i ConEmu.obj
 0001:0000a364       ??$swprintf_c@$0MI@@@YAHAAY0MI@_WPB_WZZ 0040b364 f i ConEmu.obj
 0001:0000a37d       ??$swprintf_c@$0PP@@@YAHAAY0PP@_WPB_WZZ 0040b37d f i ConEmu.obj
 0001:0000a396       ??$ultow_s@$0BE@@@YAPB_WIAAY0BE@_WH@Z 0040b396 f i ConEmu.obj
 0001:0000a3be       ??$uninitialized_fill@PAV?$_List_unchecked_iterator@V?$_List_val@U?$_List_simple_types@U?$pair@$$CBHG@std@@@std@@@std@@@std@@V12@@std@@YAXQAV?$_List_unchecked_iterator@V?$_List_val@U?$_List_simple_types@U?$pair@$$CBHG@std@@@std@@@std@@@0@0ABV10@@Z 0040b3be f i Font.obj
 0001:0000a3be       ??$uninitialized_fill@PAV?$_List_unchecked_iterator@V?$_List_val@U?$_List_simple_types@U?$pair@$$CBV?$basic_string@_WU?$char_traits@_W@std@@V?$allocator@_W@2@@std@@UVariableData@SystemEnvironment@@@std@@@std@@@std@@@std@@V12@@std@@YAXQAV?$_List_unchecked_iterator@V?$_List_val@U?$_List_simple_types@U?$pair@$$CBV?$basic_string@_WU?$char_traits@_W@std@@V?$allocator@_W@2@@std@@UVariableData@SystemEnvironment@@@std@@@std@@@std@@@0@0ABV10@@Z 0040b3be f i ConEmu.obj
 0001:0000a3be       ??$uninitialized_fill@PAV?$_List_unchecked_const_iterator@V?$_List_val@U?$_List_simple_types@K@std@@@std@@U_Iterator_base0@2@@std@@V12@@std@@YAXQAV?$_List_unchecked_const_iterator@V?$_List_val@U?$_List_simple_types@K@std@@@std@@U_Iterator_base0@2@@0@0ABV10@@Z 0040b3be f i RealConsole.obj
 0001:0000a3be       ??$uninitialized_fill@PAV?$_List_unchecked_iterator@V?$_List_val@U?$_List_simple_types@U?$pair@$$CBKI@std@@@std@@@std@@@std@@V12@@std@@YAXQAV?$_List_unchecked_iterator@V?$_List_val@U?$_List_simple_types@U?$pair@$$CBKI@std@@@std@@@std@@@0@0ABV10@@Z 0040b3be f i RealConsole.obj
 0001:0000a3da       ??$wcscat_c@$0BAE@@@YAHAAY0BAE@_WPB_W@Z 0040b3da f i ConEmu.obj
 0001:0000a3ef       ??$wcscat_c@$0BAF@@@YAHAAY0BAF@_WPB_W@Z 0040b3ef f i ConEmu.obj
 0001:0000a404       ??$wcscpy_c@$0BAF@@@YAHAAY0BAF@_WPB_W@Z 0040b404 f i ConEmu.obj
 0001:0000a419       ??$wcscpy_c@$0BBA@@@YAHAAY0BBA@_WPB_W@Z 0040b419 f i ConEmu.obj
 0001:0000a42e       ??$wcscpy_c@$0BCE@@@YAHAAY0BCE@_WPB_W@Z 0040b42e f i ConEmu.obj
 0001:0000a443       ??0?$MFileMapping@UConEmuGuiMapping@@@@QAE@XZ 0040b443 f i ConEmu.obj
 0001:0000a4a0       ??0?$_Hash@V?$_Umap_traits@V?$basic_string@_WU?$char_traits@_W@std@@V?$allocator@_W@2@@std@@UVariableData@SystemEnvironment@@V?$_Uhash_compare@V?$basic_string@_WU?$char_traits@_W@std@@V?$allocator@_W@2@@std@@U?$hash@V?$basic_string@_WU?$char_traits@_W@std@@V?$allocator@_W@2@@std@@@2@U?$equal_to@V?$basic_string@_WU?$char_traits@_W@std@@V?$allocator@_W@2@@std@@@2@@2@V?$allocator@U?$pair@$$CBV?$basic_string@_WU?$char_traits@_W@std@@V?$allocator@_W@2@@std@@UVariableData@SystemEnvironment@@@std@@@2@$0A@@std@@@std@@IAE@ABV?$_Uhash_compare@V?$basic_string@_WU?$char_traits@_W@std@@V?$allocator@_W@2@@std@@U?$hash@V?$basic_string@_WU?$char_traits@_W@std@@V?$allocator@_W@2@@std@@@2@U?$equal_to@V?$basic_string@_WU?$char_traits@_W@std@@V?$allocator@_W@2@@std@@@2@@1@ABV?$allocator@U?$pair@$$CBV?$basic_string@_WU?$char_traits@_W@std@@V?$allocator@_W@2@@std@@UVariableData@SystemEnvironment@@@std@@@1@@Z 0040b4a0 f i ConEmu.obj
 0001:0000a4ff       ??0?$basic_string@_WU?$char_traits@_W@std@@V?$allocator@_W@2@@std@@QAE@$$QAV01@@Z 0040b4ff f i ConEmu.obj
 0001:0000a535       ??0?$basic_string@_WU?$char_traits@_W@std@@V?$allocator@_W@2@@std@@QAE@U_String_constructor_concat_tag@1@ABV01@QB_WI2I@Z 0040b535 f i ConEmu.obj
 0001:0000a5ba       ??0?$list@U?$pair@$$CBV?$basic_string@_WU?$char_traits@_W@std@@V?$allocator@_W@2@@std@@UVariableData@SystemEnvironment@@@std@@V?$allocator@U?$pair@$$CBV?$basic_string@_WU?$char_traits@_W@std@@V?$allocator@_W@2@@std@@UVariableData@SystemEnvironment@@@std@@@2@@std@@QAE@ABV?$allocator@U?$pair@$$CBV?$basic_string@_WU?$char_traits@_W@std@@V?$allocator@_W@2@@std@@UVariableData@SystemEnvironment@@@std@@@1@@Z 0040b5ba f i ConEmu.obj
 0001:0000a5db       ??0CConEmuMain@@QAE@XZ     0040b5db f   ConEmu.obj
 0001:0000b6cf       ??0CallMainThreadArg@@QAE@J_N$$QAV?$function@$$A6AJJ@Z@std@@@Z 0040c6cf f i ConEmu.obj
 0001:0000b717       ??0MWow64Disable@@QAE@XZ   0040c717 f i ConEmu.obj
 0001:0000b75c       ??0bad_array_new_length@std@@QAE@ABV01@@Z 0040c75c f i ConEmu.obj
 0001:0000b777       ??0bad_array_new_length@std@@QAE@XZ 0040c777 f i ConEmu.obj
 0001:0000b78f       ??0exception@std@@QAE@QBD@Z 0040c78f f i ConEmu.obj
 0001:0000b7c4       ??0logic_error@std@@QAE@ABV01@@Z 0040c7c4 f i ConEmu.obj
 0001:0000b7df       ??0logic_error@std@@QAE@PBD@Z 0040c7df f i ConEmu.obj
 0001:0000b7fe       ??1?$MFileMapping@UCESERVER_CONSAVE_MAPHDR@@@@QAE@XZ 0040c7fe f i RealConsole.obj
 0001:0000b7fe       ??1?$MFileMapping@$$CBUCEFAR_INFO_MAPPING@@@@QAE@XZ 0040c7fe f i RealConsole.obj
 0001:0000b7fe       ??1?$MFileMapping@UCESERVER_CONSAVE_MAP@@@@QAE@XZ 0040c7fe f i RealConsole.obj
 0001:0000b7fe       ??1?$MFileMapping@Utag_DetectedDialog@@@@QAE@XZ 0040c7fe f i VirtualConsole.obj
 0001:0000b7fe       ??1?$MFileMapping@UCESERVER_CONSOLE_MAPPING_HDR@@@@QAE@XZ 0040c7fe f i RealConsole.obj
 0001:0000b7fe       ??1?$MFileMapping@UConEmuGuiMapping@@@@QAE@XZ 0040c7fe f i ConEmu.obj
 0001:0000b7fe       ??1?$MFileMapping@UPanelViewSetMapping@@@@QAE@XZ 0040c7fe f i OptionsClass.obj
 0001:0000b7fe       ??1?$MFileMapping@UCESERVER_CONSOLE_APP_MAPPING@@@@QAE@XZ 0040c7fe f i RealConsole.obj
 0001:0000b808       ??1?$MMap@IPBD$0A@@@QAE@XZ 0040c808 f i ConEmu.obj
 0001:0000b808       ??1?$MMap@KH$0A@@@QAE@XZ   0040c808 f i RealConsole.obj
 0001:0000b808       ??1?$MMap@PAVCVConGroup@@PAVCVirtualConsole@@$0A@@@QAE@XZ 0040c808 f i TabBar.obj
 0001:0000b850       ??1?$_Hash_vec@V?$allocator@V?$_List_unchecked_const_iterator@V?$_List_val@U?$_List_simple_types@K@std@@@std@@U_Iterator_base0@2@@std@@@std@@@std@@QAE@XZ 0040c850 f i RealConsole.obj
 0001:0000b850       ??1?$_Hash_vec@V?$allocator@V?$_List_unchecked_iterator@V?$_List_val@U?$_List_simple_types@U?$pair@$$CBKI@std@@@std@@@std@@@std@@@std@@@std@@QAE@XZ 0040c850 f i RealConsole.obj
 0001:0000b850       ??1?$_Hash_vec@V?$allocator@V?$_List_unchecked_iterator@V?$_List_val@U?$_List_simple_types@U?$pair@$$CBHG@std@@@std@@@std@@@std@@@std@@@std@@QAE@XZ 0040c850 f i Font.obj
 0001:0000b850       ??1?$_Hash_vec@V?$allocator@V?$_List_unchecked_iterator@V?$_List_val@U?$_List_simple_types@U?$pair@$$CBV?$basic_string@_WU?$char_traits@_W@std@@V?$allocator@_W@2@@std@@UVariableData@SystemEnvironment@@@std@@@std@@@std@@@std@@@std@@@std@@QAE@XZ 0040c850 f i ConEmu.obj
 0001:0000b855       ??1?$basic_string@_WU?$char_traits@_W@std@@V?$allocator@_W@2@@std@@QAE@XZ 0040c855 f i ConEmu.obj
 0001:0000b85a       ??1?$function@$$A6A_NPAVCVirtualConsole@@J@Z@std@@QAE@XZ 0040c85a f i VConGroup.obj
 0001:0000b85a       ??1?$function@$$A6AXPAX@Z@std@@QAE@XZ 0040c85a f i TempFile.obj
 0001:0000b85a       ??1?$function@$$A6A_NPB_WAAUCEStr@@@Z@std@@QAE@XZ 0040c85a f i Match.obj
 0001:0000b85a       ??1?$function@$$A6AJJ@Z@std@@QAE@XZ 0040c85a f i ConEmu.obj
 0001:0000b85a       ??1?$function@$$A6A_NABUCEStr@@ABU_WIN32_FIND_DATAW@@PAX@Z@std@@QAE@XZ 0040c85a f i OptionsFast.obj
 0001:0000b85f       ??1?$list@U?$pair@$$CBV?$basic_string@_WU?$char_traits@_W@std@@V?$allocator@_W@2@@std@@UVariableData@SystemEnvironment@@@std@@V?$allocator@U?$pair@$$CBV?$basic_string@_WU?$char_traits@_W@std@@V?$allocator@_W@2@@std@@UVariableData@SystemEnvironment@@@std@@@2@@std@@QAE@XZ 0040c85f f i ConEmu.obj
 0001:0000b864       ??1?$lock_guard@Vmutex@std@@@std@@QAE@XZ 0040c864 f i ConEmu.obj
 0001:0000b86d       ??1?$pair@$$CBV?$basic_string@_WU?$char_traits@_W@std@@V?$allocator@_W@2@@std@@UVariableData@SystemEnvironment@@@std@@QAE@XZ 0040c86d f i ConEmu.obj
 0001:0000b888       ??1?$shared_ptr@VGlobalHotkeys@@@std@@QAE@XZ 0040c888 f i ConEmu.obj
 0001:0000b888       ??1?$shared_ptr@USystemEnvironment@@@std@@QAE@XZ 0040c888 f i ConEmu.obj
 0001:0000b888       ??1?$shared_ptr@VMFileLogEx@@@std@@QAE@XZ 0040c888 f i ConEmu.obj
 0001:0000b894       ??1?$unique_ptr@$$BY0A@EU?$default_delete@$$BY0A@E@std@@@std@@QAE@XZ 0040c894 f i ConEmu.obj
 0001:0000b8a2       ??1CConEmuMain@@UAE@XZ     0040c8a2 f   ConEmu.obj
 0001:0000bbc4       ??1CEStrConcat@@QAE@XZ     0040cbc4 f i ConEmu.obj
 0001:0000bbc9       ??1MRgn@@QAE@XZ            0040cbc9 f i ConEmu.obj
 0001:0000bbc9       ??1MHandle@@QAE@XZ         0040cbc9 f i TempFile.obj
 0001:0000bbda       ??1MWow64Disable@@QAE@XZ   0040cbda f i ConEmu.obj
 0001:0000bc13       ??1mutex@std@@QAE@XZ       0040cc13 f i ConEmu.obj
 0001:0000bc1b       ??4?$shared_ptr@VGlobalHotkeys@@@std@@QAEAAV01@$$QAV01@@Z 0040cc1b f i ConEmu.obj
 0001:0000bc1b       ??4?$shared_ptr@USystemEnvironment@@@std@@QAEAAV01@$$QAV01@@Z 0040cc1b f i ConEmu.obj
 0001:0000bc1b       ??4?$shared_ptr@VMFileLogEx@@@std@@QAEAAV01@$$QAV01@@Z 0040cc1b f i ConEmu.obj
 0001:0000bc4a       ??4?$shared_ptr@USystemEnvironment@@@std@@QAEAAV01@ABV01@@Z 0040cc4a f i ConEmu.obj
 0001:0000bc83       ??R<lambda_09fe38f6114539daa867a3e4d6874f49>@@QBE@QA_WQB_WII1I@Z 0040cc83 f i ConEmu.obj
 0001:0000bcdc       ??R<lambda_2fb699096920f2dc628cb0826b07831d>@@QBE@QA_WQB_WI1I@Z 0040ccdc f i ConEmu.obj
 0001:0000bd44       ??R?$_Func_class@XPAUHRGN__@@@std@@QBEXPAUHRGN__@@@Z 0040cd44 f i ConEmu.obj
 0001:0000bd44       ??R?$_Func_class@XPAX@std@@QBEXPAX@Z 0040cd44 f i TempFile.obj
 0001:0000bd44       ??R?$_Func_class@JJ@std@@QBEJJ@Z 0040cd44 f i ConEmu.obj
 0001:0000bd44       ??R?$_Func_class@XPAUHBRUSH__@@@std@@QBEXPAUHBRUSH__@@@Z 0040cd44 f i FrameHolder.obj
 0001:0000bd61       ??R?$hash@V?$basic_string@_WU?$char_traits@_W@std@@V?$allocator@_W@2@@std@@@std@@QBEIABV?$basic_string@_WU?$char_traits@_W@std@@V?$allocator@_W@2@@1@@Z 0040cd61 f i ConEmu.obj
 0001:0000bd89       ??_ECConEmuMain@@WBBA@AEPAXI@Z 0040cd89 f i ConEmu.obj
 0001:0000bd94       ??_ECConEmuMain@@WBEA@AEPAXI@Z 0040cd94 f i ConEmu.obj
 0001:0000bd9f       ??_ECConEmuMain@@WBHM@AEPAXI@Z 0040cd9f f i ConEmu.obj
 0001:0000bdaa       ??_ECConEmuMain@@WDLI@AEPAXI@Z 0040cdaa f i ConEmu.obj
 0001:0000bdb5       ??_ECConEmuMain@@WJM@AEPAXI@Z 0040cdb5 f i ConEmu.obj
 0001:0000bdc0       ??_ECConEmuMain@@WMM@AEPAXI@Z 0040cdc0 f i ConEmu.obj
 0001:0000bdcb       ??_E?$_Ref_count_obj2@USystemEnvironment@@@std@@UAEPAXI@Z 0040cdcb f i ConEmu.obj
 0001:0000bdcb       ??_G?$_Ref_count_obj2@USystemEnvironment@@@std@@UAEPAXI@Z 0040cdcb f i ConEmu.obj
 0001:0000bdee       ??_E?$_Ref_count_obj2@VGlobalHotkeys@@@std@@UAEPAXI@Z 0040cdee f i ConEmu.obj
 0001:0000bdee       ??_G?$_Ref_count_obj2@VGlobalHotkeys@@@std@@UAEPAXI@Z 0040cdee f i ConEmu.obj
 0001:0000be11       ??_E?$_Ref_count_obj2@VMFileLogEx@@@std@@UAEPAXI@Z 0040ce11 f i ConEmu.obj
 0001:0000be11       ??_G?$_Ref_count_obj2@VMFileLogEx@@@std@@UAEPAXI@Z 0040ce11 f i ConEmu.obj
 0001:0000be34       ??_ECConEmuMain@@UAEPAXI@Z 0040ce34 f i ConEmu.obj
 0001:0000be34       ??_GCConEmuMain@@UAEPAXI@Z 0040ce34 f i ConEmu.obj
 0001:0000be59       ??_GCDefaultTerminal@@UAEPAXI@Z 0040ce59 f i ConEmu.obj
 0001:0000be59       ??_ECDefaultTerminal@@UAEPAXI@Z 0040ce59 f i ConEmu.obj
 0001:0000be7e       ??_GRConStartArgsEx@@UAEPAXI@Z 0040ce7e f i ConEmu.obj
 0001:0000be7e       ??_ERConStartArgsEx@@UAEPAXI@Z 0040ce7e f i ConEmu.obj
 0001:0000bea3       ??_GSystemEnvironment@@QAEPAXI@Z 0040cea3 f i ConEmu.obj
 0001:0000bed0       ?Activate@CConEmuMain@@QAEHPAVCVirtualConsole@@@Z 0040ced0 f   ConEmu.obj
 0001:0000bf32       ?ActiveConNum@CConEmuMain@@QAEHXZ 0040cf32 f   ConEmu.obj
 0001:0000bf37       ?AddPostGuiRConMacro@CConEmuMain@@QAEXPB_W@Z 0040cf37 f   ConEmu.obj
 0001:0000bf4f       ?AllocateBlock@?$MMap@IPBD$0A@@@IAEPAUMapItems@1@XZ 0040cf4f f i ConEmu.obj
 0001:0000bf4f       ?AllocateBlock@?$MMap@KH$0A@@@IAEPAUMapItems@1@XZ 0040cf4f f i RealConsole.obj
 0001:0000bf4f       ?AllocateBlock@?$MMap@PAUHWND__@@PAVCVirtualConsole@@$0A@@@IAEPAUMapItems@1@XZ 0040cf4f f i ConEmuApp.obj
 0001:0000bf4f       ?AllocateBlock@?$MMap@PAVCVConGroup@@PAVCVirtualConsole@@$0A@@@IAEPAUMapItems@1@XZ 0040cf4f f i TabBar.obj
 0001:0000bf4f       ?AllocateBlock@?$MMap@PAUHWND__@@PAVCDynDialog@@$0A@@@IAEPAUMapItems@1@XZ 0040cf4f f i DynDialog.obj
 0001:0000bf4f       ?AllocateBlock@?$MMap@PAUHWND__@@PAVCFindPanel@@$0A@@@IAEPAUMapItems@1@XZ 0040cf4f f i FindPanel.obj
 0001:0000bf4f       ?AllocateBlock@?$MMap@PAUHWND__@@P6GJPAU1@IIJ@Z$0A@@@IAEPAUMapItems@1@XZ 0040cf4f f i SetDlgColors.obj
 0001:0000bf4f       ?AllocateBlock@?$MMap@HPAV?$MArray@UDlgItem@CDpiForDialog@@@@$0A@@@IAEPAUMapItems@1@XZ 0040cf4f f i DpiAware.obj
 0001:0000bf7a       ?AppendExtraArgs@CConEmuMain@@QAEXPB_W0@Z 0040cf7a f   ConEmu.obj
 0001:0000bfe5       ?AppendHKL@CConEmuMain@@IAEXPA_WIPAPAUHKL__@@H@Z 0040cfe5 f   ConEmu.obj
 0001:0000c058       ?AppendRegisteredLayouts@CConEmuMain@@IAEXPA_WI@Z 0040d058 f   ConEmu.obj
 0001:0000c0e1       ?AskChangeAlternative@CConEmuMain@@QAEXXZ 0040d0e1 f   ConEmu.obj
 0001:0000c167       ?AskChangeBufferHeight@CConEmuMain@@QAEXXZ 0040d167 f   ConEmu.obj
 0001:0000c22b       ?AttachToDialog@CConEmuMain@@QAEXXZ 0040d22b f   ConEmu.obj
 0001:0000c275       ?CallMainThread@CConEmuMain@@QAEJ_N$$QAV?$function@$$A6AJJ@Z@std@@J@Z 0040d275 f   ConEmu.obj
 0001:0000c32d       ?CanSetChildFocus@CConEmuMain@@QAE_NXZ 0040d32d f   ConEmu.obj
 0001:0000c339       ?CanUseInjects@CConEmuMain@@QBE_NXZ 0040d339 f   ConEmu.obj
 0001:0000c344       ?ChangeWorkDir@CConEmuMain@@QAE_NPB_W@Z 0040d344 f   ConEmu.obj
 0001:0000c37f       ?CheckActiveLayoutName@CConEmuMain@@IAEXXZ 0040d37f f   ConEmu.obj
 0001:0000c51e       ?CheckAllowAutoChildFocus@CConEmuMain@@QAEXK@Z 0040d51e f   ConEmu.obj
 0001:0000c5be       ?CheckBaseDir@CConEmuMain@@ABE_NXZ 0040d5be f   ConEmu.obj
 0001:0000c643       ?CheckDosBoxExists@CConEmuMain@@QAE_NXZ 0040d643 f   ConEmu.obj
 0001:0000c6c8       ?CheckFocus@CConEmuMain@@QAEXPB_W@Z 0040d6c8 f   ConEmu.obj
 0001:0000c988       ?CheckForeground@CDefTermBase@@QAE_NPAUHWND__@@K_N1@Z 0040d988 f i ConEmu.obj
 0001:0000ce2b       ?CheckNeedRepaint@CConEmuMain@@QAEXXZ 0040de2b f   ConEmu.obj
 0001:0000ce9c       ?CheckNeedUpdateTitle@CConEmuMain@@QAEXPB_W@Z 0040de9c f   ConEmu.obj
 0001:0000cef1       ?CheckPanelDrag@CConEmuMain@@QAE?AW4DragPanelBorder@@U_COORD@@@Z 0040def1 f   ConEmu.obj
 0001:0000d134       ?CheckRequiredFiles@CConEmuMain@@QAE_NXZ 0040e134 f   ConEmu.obj
 0001:0000d6fe       ?CheckShellWindow@CDefTermBase@@IAE_NXZ 0040e6fe f i ConEmu.obj
 0001:0000d851       ?CheckUpdates@CConEmuMain@@QAE_NW4UpdateCallMode@@@Z 0040e851 f   ConEmu.obj
 0001:0000d8b1       ?ClearProcessed@CDefTermBase@@IAEX_N@Z 0040e8b1 f i ConEmu.obj
 0001:0000d9a9       ?Close@?$MHandleBase@PAUHRGN__@@@@QAEXXZ 0040e9a9 f i ConEmu.obj
 0001:0000d9a9       ?Close@?$MHandleBase@PAX@@QAEXXZ 0040e9a9 f i TempFile.obj
 0001:0000d9a9       ?Close@?$MHandleBase@PAUHBRUSH__@@@@QAEXXZ 0040e9a9 f i FrameHolder.obj
 0001:0000da09       ?CloseConfirmFlags@CConEmuMain@@QAEEXZ 0040ea09 f   ConEmu.obj
 0001:0000da21       ?CloseMap@?$MFileMapping@Utag_DetectedDialog@@@@QAEXXZ 0040ea21 f i VirtualConsole.obj
 0001:0000da21       ?CloseMap@?$MFileMapping@UCESERVER_CONSAVE_MAPHDR@@@@QAEXXZ 0040ea21 f i RealConsole.obj
 0001:0000da21       ?CloseMap@?$MFileMapping@UAnnotationHeader@@@@QAEXXZ 0040ea21 f i RealConsole.obj
 0001:0000da21       ?CloseMap@?$MFileMapping@UConEmuGuiMapping@@@@QAEXXZ 0040ea21 f i ConEmu.obj
 0001:0000da21       ?CloseMap@?$MFileMapping@UCONEMU_INSIDE_MAPPING@@@@QAEXXZ 0040ea21 f i Inside.obj
 0001:0000da21       ?CloseMap@?$MFileMapping@UCESERVER_CONSOLE_APP_MAPPING@@@@QAEXXZ 0040ea21 f i RealConsole.obj
 0001:0000da21       ?CloseMap@?$MFileMapping@UCONEMU_INSIDE_DEFTERM_MAPPING@@@@QAEXXZ 0040ea21 f i DefaultTerm.obj
 0001:0000da21       ?CloseMap@?$MFileMapping@UCESERVER_CONSAVE_MAP@@@@QAEXXZ 0040ea21 f i RealConsole.obj
 0001:0000da21       ?CloseMap@?$MFileMapping@$$CBUCEFAR_INFO_MAPPING@@@@QAEXXZ 0040ea21 f i RealConsole.obj
 0001:0000da21       ?CloseMap@?$MFileMapping@UCESERVER_CONSOLE_MAPPING_HDR@@@@QAEXXZ 0040ea21 f i RealConsole.obj
 0001:0000da21       ?CloseMap@?$MFileMapping@UPanelViewSetMapping@@@@QAEXXZ 0040ea21 f i OptionsClass.obj
 0001:0000da72       ?ClosePtr@?$MFileMapping@UCESERVER_CONSAVE_MAPHDR@@@@QAEXXZ 0040ea72 f i RealConsole.obj
 0001:0000da72       ?ClosePtr@?$MFileMapping@Utag_DetectedDialog@@@@QAEXXZ 0040ea72 f i VirtualConsole.obj
 0001:0000da72       ?ClosePtr@?$MFileMapping@UPanelViewSetMapping@@@@QAEXXZ 0040ea72 f i OptionsClass.obj
 0001:0000da72       ?ClosePtr@?$MFileMapping@UCESERVER_CONSOLE_MAPPING_HDR@@@@QAEXXZ 0040ea72 f i RealConsole.obj
 0001:0000da72       ?ClosePtr@?$MFileMapping@UCONEMU_INSIDE_MAPPING@@@@QAEXXZ 0040ea72 f i Inside.obj
 0001:0000da72       ?ClosePtr@?$MFileMapping@$$CBUCEFAR_INFO_MAPPING@@@@QAEXXZ 0040ea72 f i RealConsole.obj
 0001:0000da72       ?ClosePtr@?$MFileMapping@UCESERVER_CONSAVE_MAP@@@@QAEXXZ 0040ea72 f i RealConsole.obj
 0001:0000da72       ?ClosePtr@?$MFileMapping@UCESERVER_CONSOLE_APP_MAPPING@@@@QAEXXZ 0040ea72 f i RealConsole.obj
 0001:0000da72       ?ClosePtr@?$MFileMapping@UCONEMU_INSIDE_DEFTERM_MAPPING@@@@QAEXXZ 0040ea72 f i DefaultTerm.obj
 0001:0000da72       ?ClosePtr@?$MFileMapping@UConEmuGuiMapping@@@@QAEXXZ 0040ea72 f i ConEmu.obj
 0001:0000da72       ?ClosePtr@?$MFileMapping@UAnnotationHeader@@@@QAEXXZ 0040ea72 f i RealConsole.obj
 0001:0000da8a       ?ConActivate@CConEmuMain@@QAE_NH@Z 0040ea8a f   ConEmu.obj
 0001:0000da9a       ?ConActivateByName@CConEmuMain@@QAE_NPB_W@Z 0040ea9a f   ConEmu.obj
 0001:0000daaa       ?ConActivateNext@CConEmuMain@@QAE_N_N@Z 0040eaaa f   ConEmu.obj
 0001:0000daba       ?ConEmuCExeFull@CConEmuMain@@QAEPB_WPB_W@Z 0040eaba f   ConEmu.obj
 0001:0000de7a       ?ConEmuIni@CConEmuMain@@QAEPA_WXZ 0040ee7a f   ConEmu.obj
 0001:0000df52       ?ConEmuXml@CConEmuMain@@QAEPA_WPA_N@Z 0040ef52 f   ConEmu.obj
 0001:0000dfff       ?CreateCon@CConEmuMain@@QAEPAVCVirtualConsole@@AAURConStartArgsEx@@_N1@Z 0040efff f   ConEmu.obj
 0001:0000e024       ?CreateConGroup@CConEmuMain@@QAEPAVCVirtualConsole@@PB_WPBURConStartArgsEx@@@Z 0040f024 f   ConEmu.obj
 0001:0000e4bf       ?CreateGhostVCon@CConEmuMain@@QAEXPAVCVirtualConsole@@@Z 0040f4bf f   ConEmu.obj
 0001:0000e4dd       ?CreateGuiAttachMapping@CConEmuMain@@QAEXK@Z 0040f4dd f   ConEmu.obj
 0001:0000e529       ?CreateLog@CConEmuMain@@QAE_NXZ 0040f529 f   ConEmu.obj
 0001:0000e65a       ?CreateMainWindow@CConEmuMain@@QAEHXZ 0040f65a f   ConEmu.obj
 0001:0000ecba       ?CreateStartupConsoles@CConEmuMain@@IAE_NXZ 0040fcba f   ConEmu.obj
 0001:0000f092       ?CreateWnd@CConEmuMain@@QAE_NAAURConStartArgsEx@@@Z 00410092 f   ConEmu.obj
 0001:0000f315       ?CreateWorkWindow@CConEmuMain@@QAEHXZ 00410315 f   ConEmu.obj
 0001:0000f3c4       ?CtrlWinAltSpace@CConEmuMain@@QAEXXZ 004103c4 f   ConEmu.obj
 0001:0000f416       ?DebugStep@CConEmuMain@@QAEXPB_WH@Z 00410416 f   ConEmu.obj
 0001:0000f4b7       ?DeinitOnDestroy@CConEmuMain@@AAEXPAUHWND__@@_N@Z 004104b7 f   ConEmu.obj
 0001:0000f640       ?DeleteVConMainThread@CConEmuMain@@QAEXPAVCVirtualConsole@@@Z 00410640 f   ConEmu.obj
 0001:0000f65e       ?Destroy@CConEmuMain@@QAEX_N@Z 0041065e f   ConEmu.obj
 0001:0000f712       ?DestroyAllChildWindows@CConEmuMain@@AAEXXZ 00410712 f   ConEmu.obj
 0001:0000f789       ?Disable@MWow64Disable@@QAEXXZ 00410789 f i ConEmu.obj
 0001:0000f7a3       ?DoFlashWindow@CConEmuMain@@QAEXPAUCESERVER_REQ_FLASHWINFO@@_N@Z 004107a3 f   ConEmu.obj
 0001:0000f82a       ?EnterAltNumpadMode@CConEmuMain@@QAEXI@Z 0041082a f   ConEmu.obj
 0001:0000f870       ?EnumKeysValues@?$MMap@IPBD$0A@@@QAE_NP6A_NABIABQBDJ@ZJ@Z 00410870 f i ConEmu.obj
 0001:0000f8f2       ?EnumWindowsOverQuake@CConEmuMain@@KGHPAUHWND__@@J@Z 004108f2 f   ConEmu.obj
 0001:0000f9fb       ?ExecPostGuiMacro@CConEmuMain@@QAEXXZ 004109fb f   ConEmu.obj
 0001:0000faf3       ?ExecuteProcessPrepare@CConEmuMain@@IAE_NXZ 00410af3 f   ConEmu.obj
 0001:0000faf3       ?isLogging@CDefTermBase@@UAE_NXZ 00410af3 f   DefaultTerm.obj
 0001:0000fbb3       ?FillConEmuMainFont@CConEmuMain@@AAEXPAUConEmuMainFont@@@Z 00410bb3 f   ConEmu.obj
 0001:0000fc65       ?FindBlockItem@?$MMap@PAUHWND__@@PAVCFindPanel@@$0A@@@IAE_NABQAUHWND__@@AAPAUMapItems@1@AAPAUMapItem@1@@Z 00410c65 f i FindPanel.obj
 0001:0000fc65       ?FindBlockItem@?$MMap@KH$0A@@@IAE_NABKAAPAUMapItems@1@AAPAUMapItem@1@@Z 00410c65 f i RealConsole.obj
 0001:0000fc65       ?FindBlockItem@?$MMap@PAUHWND__@@PAVCDynDialog@@$0A@@@IAE_NABQAUHWND__@@AAPAUMapItems@1@AAPAUMapItem@1@@Z 00410c65 f i DynDialog.obj
 0001:0000fc65       ?FindBlockItem@?$MMap@IPBD$0A@@@IAE_NABIAAPAUMapItems@1@AAPAUMapItem@1@@Z 00410c65 f i ConEmu.obj
 0001:0000fc65       ?FindBlockItem@?$MMap@HPAV?$MArray@UDlgItem@CDpiForDialog@@@@$0A@@@IAE_NABHAAPAUMapItems@1@AAPAUMapItem@1@@Z 00410c65 f i DpiAware.obj
 0001:0000fc65       ?FindBlockItem@?$MMap@PAUHWND__@@PAVCVirtualConsole@@$0A@@@IAE_NABQAUHWND__@@AAPAUMapItems@1@AAPAUMapItem@1@@Z 00410c65 f i VConChild.obj
 0001:0000fc65       ?FindBlockItem@?$MMap@PAVCVConGroup@@PAVCVirtualConsole@@$0A@@@IAE_NABQAVCVConGroup@@AAPAUMapItems@1@AAPAUMapItem@1@@Z 00410c65 f i TabBar.obj
 0001:0000fc65       ?FindBlockItem@?$MMap@PAUHWND__@@P6GJPAU1@IIJ@Z$0A@@@IAE_NABQAUHWND__@@AAPAUMapItems@1@AAPAUMapItem@1@@Z 00410c65 f i SetDlgColors.obj
 0001:0000fcc0       ?FindConEmuXml@CConEmuMain@@QAEPB_WAAUCEStr@@@Z 00410cc0 f   ConEmu.obj
 0001:0000fed3       ?FixWindowStyle@CConEmuMain@@QAEKKW4ConEmuWindowMode@@@Z 00410ed3 f   ConEmu.obj
 0001:0000ff99       ?ForceSelectionModifierPressed@CConEmuMain@@QAEXK@Z 00410f99 f   ConEmu.obj
 0001:0000ffb3       ?ForceShowTabs@CConEmuMain@@QAEXH@Z 00410fb3 f   ConEmu.obj
 0001:00010014       ?Get@?$MMap@PAUHWND__@@PAVCFindPanel@@$0A@@@QAE_NABQAUHWND__@@PAPAVCFindPanel@@_N@Z 00411014 f i FindPanel.obj
 0001:00010014       ?Get@?$MMap@KH$0A@@@QAE_NABKPAH_N@Z 00411014 f i RealConsole.obj
 0001:00010014       ?Get@?$MMap@PAUHWND__@@P6GJPAU1@IIJ@Z$0A@@@QAE_NABQAUHWND__@@PAP6GJPAU2@IIJ@Z_N@Z 00411014 f i SetDlgColors.obj
 0001:00010014       ?Get@?$MMap@PAUHWND__@@PAVCDynDialog@@$0A@@@QAE_NABQAUHWND__@@PAPAVCDynDialog@@_N@Z 00411014 f i DynDialog.obj
 0001:00010014       ?Get@?$MMap@PAUHWND__@@PAVCVirtualConsole@@$0A@@@QAE_NABQAUHWND__@@PAPAVCVirtualConsole@@_N@Z 00411014 f i VConChild.obj
 0001:00010014       ?Get@?$MMap@HPAV?$MArray@UDlgItem@CDpiForDialog@@@@$0A@@@QAE_NABHPAPAV?$MArray@UDlgItem@CDpiForDialog@@@@_N@Z 00411014 f i DpiAware.obj
 0001:00010014       ?Get@?$MMap@IPBD$0A@@@QAE_NABIPAPBD_N@Z 00411014 f i ConEmu.obj
 0001:0001006d       ?GetActiveKeyboardLayout@CConEmuMain@@QAEKXZ 0041106d f   ConEmu.obj
 0001:0001007a       ?GetActiveVCon@CConEmuMain@@QAEHPAVCVConGuard@@PAH@Z 0041107a f   ConEmu.obj
 0001:0001008e       ?GetComSpecCopy@CConEmuMain@@QAEXAAUConEmuComspec@@@Z 0041108e f   ConEmu.obj
 0001:000100a9       ?GetConCount@CConEmuMain@@QAEHXZ 004110a9 f   ConEmu.obj
 0001:000100b2       ?GetCurrentVConIcon@CConEmuMain@@QAEPAUHICON__@@XZ 004110b2 f   ConEmu.obj
 0001:00010116       ?GetDefaultTabLabel@CConEmuMain@@QBEPB_WXZ 00411116 f   ConEmu.obj
 0001:0001011c       ?GetDefaultTitle@CConEmuMain@@QBEPB_WXZ 0041111c f   ConEmu.obj
 0001:00010123       ?GetEnvironmentVariables@CConEmuMain@@QBE?AV?$shared_ptr@USystemEnvironment@@@std@@XZ 00411123 f   ConEmu.obj
 0001:00010168       ?GetFarPID@CConEmuMain@@QAEK_N@Z 00411168 f   ConEmu.obj
 0001:00010178       ?GetGlobalHotkeys@CConEmuMain@@QBEAAVGlobalHotkeys@@XZ 00411178 f   ConEmu.obj
 0001:000101a6       ?GetGuiInfo@CConEmuMain@@QBEABUConEmuGuiMapping@@XZ 004111a6 f   ConEmu.obj
 0001:000101ad       ?GetGuiInfo@CConEmuMain@@QBEXAAUConEmuGuiMapping@@@Z 004111ad f   ConEmu.obj
 0001:000101cb       ?GetLastTitle@CConEmuMain@@QAEPB_W_N@Z 004111cb f   ConEmu.obj
 0001:000101f5       ?GetLogger@CConEmuMain@@QBE?AV?$shared_ptr@VMFileLogEx@@@std@@XZ 004111f5 f   ConEmu.obj
 0001:00010219       ?GetRegisteredMessage@CConEmuMain@@QAEIPBDPB_W@Z 00411219 f   ConEmu.obj
 0001:0001025a       ?GetRootHWND@CConEmuMain@@QAEPAUHWND__@@XZ 0041125a f   ConEmu.obj
 0001:00010278       ?GetStartupStage@CConEmuMain@@QBE?AW4StartupStage@1@XZ 00411278 f   ConEmu.obj
 0001:0001027f       ?GetWindowStyle@CConEmuMain@@QAEKXZ 0041127f f   ConEmu.obj
 0001:0001029b       ?GetWindowStyleEx@CConEmuMain@@QAEKXZ 0041129b f   ConEmu.obj
 0001:000102de       ?InCreateWindow@CConEmuMain@@QAE_NXZ 004112de f   ConEmu.obj
 0001:000102e9       ?InQuakeAnimation@CConEmuMain@@QAE_NXZ 004112e9 f   ConEmu.obj
 0001:000102f4       ?Init@?$MMap@PAUHWND__@@PAVCDynDialog@@$0A@@@QAE_NI_N@Z 004112f4 f i DynDialog.obj
 0001:000102f4       ?Init@?$MMap@PAUHWND__@@PAVCVirtualConsole@@$0A@@@QAE_NI_N@Z 004112f4 f i ConEmuApp.obj
 0001:000102f4       ?Init@?$MMap@IPBD$0A@@@QAE_NI_N@Z 004112f4 f i ConEmu.obj
 0001:000102f4       ?Init@?$MMap@PAVCVConGroup@@PAVCVirtualConsole@@$0A@@@QAE_NI_N@Z 004112f4 f i TabBar.obj
 0001:0001032c       ?Init@CConEmuMain@@QAEHXZ  0041132c f   ConEmu.obj
 0001:000103d6       ?InitComSpecStr@CConEmuMain@@QAEXAAUConEmuComspec@@@Z 004113d6 f   ConEmu.obj
 0001:0001040f       ?InitInactiveDC@CConEmuMain@@QAEXPAVCVirtualConsole@@@Z 0041140f f   ConEmu.obj
 0001:0001042d       ?InitName@?$MFileMapping@UCONEMU_INSIDE_DEFTERM_MAPPING@@@@QAEPB_WPB_WKK@Z 0041142d f i DefaultTerm.obj
 0001:0001042d       ?InitName@?$MFileMapping@UCESERVER_CONSOLE_APP_MAPPING@@@@QAEPB_WPB_WKK@Z 0041142d f i RealConsole.obj
 0001:0001042d       ?InitName@?$MFileMapping@$$CBUCEFAR_INFO_MAPPING@@@@QAEPB_WPB_WKK@Z 0041142d f i RealConsole.obj
 0001:0001042d       ?InitName@?$MFileMapping@UCESERVER_CONSAVE_MAP@@@@QAEPB_WPB_WKK@Z 0041142d f i RealConsole.obj
 0001:0001042d       ?InitName@?$MFileMapping@UCESERVER_CONSOLE_MAPPING_HDR@@@@QAEPB_WPB_WKK@Z 0041142d f i RealConsole.obj
 0001:0001042d       ?InitName@?$MFileMapping@UAnnotationHeader@@@@QAEPB_WPB_WKK@Z 0041142d f i RealConsole.obj
 0001:0001042d       ?InitName@?$MFileMapping@UCESERVER_CONSAVE_MAPHDR@@@@QAEPB_WPB_WKK@Z 0041142d f i RealConsole.obj
 0001:0001042d       ?InitName@?$MFileMapping@UConEmuGuiMapping@@@@QAEPB_WPB_WKK@Z 0041142d f i ConEmu.obj
 0001:0001042d       ?InitName@?$MFileMapping@Utag_DetectedDialog@@@@QAEPB_WPB_WKK@Z 0041142d f i VirtualConsole.obj
 0001:0001042d       ?InitName@?$MFileMapping@UCONEMU_INSIDE_MAPPING@@@@QAEPB_WPB_WKK@Z 0041142d f i Inside.obj
 0001:0001042d       ?InitName@?$MFileMapping@UPanelViewSetMapping@@@@QAEPB_WPB_WKK@Z 0041142d f i OptionsClass.obj
 0001:0001045e       ?InternalOpenCreate@?$MFileMapping@UCESERVER_CONSOLE_MAPPING_HDR@@@@IAEPAUCESERVER_CONSOLE_MAPPING_HDR@@_N0H@Z 0041145e f i RealConsole.obj
 0001:0001045e       ?InternalOpenCreate@?$MFileMapping@UConEmuGuiMapping@@@@IAEPAUConEmuGuiMapping@@_N0H@Z 0041145e f i ConEmu.obj
 0001:0001045e       ?InternalOpenCreate@?$MFileMapping@UCONEMU_INSIDE_MAPPING@@@@IAEPAUCONEMU_INSIDE_MAPPING@@_N0H@Z 0041145e f i Inside.obj
 0001:0001045e       ?InternalOpenCreate@?$MFileMapping@UCESERVER_CONSOLE_APP_MAPPING@@@@IAEPAUCESERVER_CONSOLE_APP_MAPPING@@_N0H@Z 0041145e f i RealConsole.obj
 0001:0001045e       ?InternalOpenCreate@?$MFileMapping@$$CBUCEFAR_INFO_MAPPING@@@@IAEPBUCEFAR_INFO_MAPPING@@_N0H@Z 0041145e f i RealConsole.obj
 0001:0001045e       ?InternalOpenCreate@?$MFileMapping@Utag_DetectedDialog@@@@IAEPAUtag_DetectedDialog@@_N0H@Z 0041145e f i VirtualConsole.obj
 0001:0001045e       ?InternalOpenCreate@?$MFileMapping@UCONEMU_INSIDE_DEFTERM_MAPPING@@@@IAEPAUCONEMU_INSIDE_DEFTERM_MAPPING@@_N0H@Z 0041145e f i DefaultTerm.obj
 0001:0001045e       ?InternalOpenCreate@?$MFileMapping@UAnnotationHeader@@@@IAEPAUAnnotationHeader@@_N0H@Z 0041145e f i RealConsole.obj
 0001:0001045e       ?InternalOpenCreate@?$MFileMapping@UCESERVER_CONSAVE_MAP@@@@IAEPAUCESERVER_CONSAVE_MAP@@_N0H@Z 0041145e f i RealConsole.obj
 0001:0001045e       ?InternalOpenCreate@?$MFileMapping@UCESERVER_CONSAVE_MAPHDR@@@@IAEPAUCESERVER_CONSAVE_MAPHDR@@_N0H@Z 0041145e f i RealConsole.obj
 0001:0001045e       ?InternalOpenCreate@?$MFileMapping@UPanelViewSetMapping@@@@IAEPAUPanelViewSetMapping@@_N0H@Z 0041145e f i OptionsClass.obj
 0001:00010640       ?Invalidate@CConEmuMain@@QAEXPAUtagRECT@@H@Z 00411640 f   ConEmu.obj
 0001:00010659       ?InvalidateAll@CConEmuMain@@QAEXXZ 00411659 f   ConEmu.obj
 0001:00010686       ?InvalidateFrame@CConEmuMain@@QAEXXZ 00411686 f   ConEmu.obj
 0001:0001072a       ?InvalidateGaps@CConEmuMain@@QAEXXZ 0041172a f   ConEmu.obj
 0001:00010740       ?IsActiveConAdmin@CConEmuMain@@QAE_NXZ 00411740 f   ConEmu.obj
 0001:00010794       ?IsAllowSaveSettingsOnExit@CConEmuMain@@QAE_NXZ 00411794 f   ConEmu.obj
 0001:000107bc       ?IsAppMonitored@CDefTermBase@@QAE_NPAUHWND__@@K_NPAUtagPROCESSENTRY32W@@PAUCEStr@@@Z 004117bc f i ConEmu.obj
 0001:00010a18       ?IsAppNameMonitored@CDefTermBase@@QBE_NPB_W@Z 00411a18 f i ConEmu.obj
 0001:00010a61       ?IsChildFocusAllowed@CConEmuMain@@QAE_NPAUHWND__@@@Z 00411a61 f   ConEmu.obj
 0001:00010aeb       ?IsConsoleBatchOrTask@CConEmuMain@@SA_WPB_W@Z 00411aeb f   ConEmu.obj
 0001:00010b6e       ?IsExplorerWindowClass@CDefTermBase@@SA_NPB_W@Z 00411b6e f i ConEmu.obj
 0001:00010ba3       ?IsFastSetupDisabled@CConEmuMain@@QAE_NXZ 00411ba3 f   ConEmu.obj
 0001:00010bc0       ?IsQuakeVisible@CConEmuMain@@QAEIXZ 00411bc0 f   ConEmu.obj
 0001:00010d1b       ?IsResetBasicSettings@CConEmuMain@@QAE_NXZ 00411d1b f   ConEmu.obj
 0001:00010d27       ?IsShellTrayWindowClass@CDefTermBase@@SA_NPB_W@Z 00411d27 f i ConEmu.obj
 0001:00010d4a       ?IsWindowResponsive@CDefTermBase@@SA_NPAUHWND__@@@Z 00411d4a f i ConEmu.obj
 0001:00010d70       ?LoadConsoleBatch@CConEmuMain@@QAE?AUCEStr@@PB_WPAURConStartArgsEx@@@Z 00411d70 f   ConEmu.obj
 0001:00010e84       ?LoadConsoleBatch_Drops@CConEmuMain@@AAE?AUCEStr@@PB_W@Z 00411e84 f   ConEmu.obj
 0001:0001149c       ?LoadConsoleBatch_File@CConEmuMain@@AAE?AUCEStr@@PB_W@Z 0041249c f   ConEmu.obj
 0001:000115f2       ?LoadConsoleBatch_Task@CConEmuMain@@AAE?AUCEStr@@PB_WPAURConStartArgsEx@@@Z 004125f2 f   ConEmu.obj
 0001:00011b2e       ?LoadIcons@CConEmuMain@@QAEXXZ 00412b2e f   ConEmu.obj
 0001:00011e31       ?LockConhostStart@CConEmuMain@@QAE_NXZ 00412e31 f   ConEmu.obj
 0001:00011e78       ?Log@ConEmuMsgLogger@@YAXABUtagMSG@@W4Source@1@@Z 00412e78 f i ConEmu.obj
 0001:00011ed5       ?Log@SessionInfo@CConEmuMain@@QAEXIJ@Z 00412ed5 f   ConEmu.obj
 0001:00011f17       ?LogFocusInfo@@YAXPB_WH@Z  00412f17 f   ConEmu.obj
 0001:00011fc0       ?LogMessage@CConEmuMain@@QAE_NPAUHWND__@@IIJ@Z 00412fc0 f   ConEmu.obj
 0001:000123af       ?LogPos@ConEmuMsgLogger@@YAXABUtagMSG@@W4Source@1@@Z 004133af f   ConEmu.obj
 0001:00012505       ?LogString@CConEmuMain@@QAE_NPBD_N1@Z 00413505 f   ConEmu.obj
 0001:00012532       ?LogString@CConEmuMain@@QAE_NPB_W_N1@Z 00413532 f   ConEmu.obj
 0001:0001255d       ?LogWindowPos@CConEmuMain@@QAE_NPB_WPAUtagRECT@@@Z 0041355d f   ConEmu.obj
 0001:000126f2       ?MainWndProc@CConEmuMain@@SGJPAUHWND__@@IIJ@Z 004136f2 f   ConEmu.obj
 0001:000127c5       ?MakeConEmuStartArgs@CConEmuMain@@QBEPB_WAAUCEStr@@PB_W@Z 004137c5 f   ConEmu.obj
 0001:000129a2       ?MemoryDumpActiveProcess@CConEmuMain@@QAE_N_N@Z 004139a2 f   ConEmu.obj
 0001:00012a3c       ?MoveActiveTab@CConEmuMain@@QAEXPAVCVirtualConsole@@_N@Z 00413a3c f   ConEmu.obj
 0001:00012a50       ?OnActivateByMouse@CConEmuMain@@QAEJPAUHWND__@@IIJ@Z 00413a50 f   ConEmu.obj
 0001:00012d13       ?OnActivateSplitChanged@CConEmuMain@@QAEXXZ 00413d13 f   ConEmu.obj
 0001:00012d87       ?OnActiveConWndStore@CConEmuMain@@QAEXPAUHWND__@@@Z 00413d87 f   ConEmu.obj
 0001:00012dda       ?OnAllGhostClosed@CConEmuMain@@QAEXXZ 00413dda f   ConEmu.obj
 0001:00012e49       ?OnAllVConClosed@CConEmuMain@@QAEXXZ 00413e49 f   ConEmu.obj
 0001:00012f0f       ?OnAlwaysShowScrollbar@CConEmuMain@@QAEX_N@Z 00413f0f f   ConEmu.obj
 0001:00012f1f       ?OnBufferHeight@CConEmuMain@@QAEXXZ 00413f1f f   ConEmu.obj
 0001:00012fe0       ?OnCreate@CConEmuMain@@QAEJPAUHWND__@@PAUtagCREATESTRUCTW@@@Z 00413fe0 f   ConEmu.obj
 0001:0001310e       ?OnCreateFinished@CConEmuMain@@QAEXXZ 0041410e f   ConEmu.obj
 0001:00013237       ?OnDefaultTermChanged@CConEmuMain@@QAEXXZ 00414237 f   ConEmu.obj
 0001:0001325f       ?OnDestroy@CConEmuMain@@QAEJPAUHWND__@@@Z 0041425f f   ConEmu.obj
 0001:00013301       ?OnFlashWindow@CConEmuMain@@QAEJIJ@Z 00414301 f   ConEmu.obj
 0001:0001332d       ?OnFocus@CConEmuMain@@QAEJPAUHWND__@@IIJPB_W_N@Z 0041432d f   ConEmu.obj
 0001:00013fec       ?OnGhostCreated@CConEmuMain@@QAEXPAVCVirtualConsole@@PAUHWND__@@@Z 00414fec f   ConEmu.obj
 0001:0001406f       ?OnGlobalSettingsChanged@CConEmuMain@@QAEXXZ 0041506f f   ConEmu.obj
 0001:0001408a       ?OnHookedListChanged@CDefTermBase@@QAEXXZ 0041508a f i ConEmu.obj
 0001:000140e8       ?OnKeyboard@CConEmuMain@@QAEJPAUHWND__@@IIJ@Z 004150e8 f   ConEmu.obj
 0001:0001491b       ?OnKeyboardHook@CConEmuMain@@QAEJK@Z 0041591b f   ConEmu.obj
 0001:000149a8       ?OnKeyboardIme@CConEmuMain@@QAEJPAUHWND__@@IIJ@Z 004159a8 f   ConEmu.obj
 0001:00014bab       ?OnLangChange@CConEmuMain@@QAEJIIJ@Z 00415bab f   ConEmu.obj
 0001:00014d6f       ?OnLangChangeConsole@CConEmuMain@@QAEJPAVCVirtualConsole@@K@Z 00415d6f f   ConEmu.obj
 0001:00015372       ?OnMainCreateFinished@CConEmuMain@@IAEXXZ 00416372 f   ConEmu.obj
 0001:00015579       ?OnMouse@CConEmuMain@@QAEJPAUHWND__@@IIJ@Z 00416579 f   ConEmu.obj
 0001:0001653a       ?OnMouse_LBtnDblClk@CConEmuMain@@QAEJPAVCVirtualConsole@@PAUHWND__@@AAIIJUtagPOINT@@U_COORD@@@Z 0041753a f   ConEmu.obj
 0001:0001666e       ?OnMouse_LBtnDown@CConEmuMain@@QAEJPAVCVirtualConsole@@PAUHWND__@@IIJUtagPOINT@@U_COORD@@@Z 0041766e f   ConEmu.obj
 0001:00016890       ?OnMouse_LBtnUp@CConEmuMain@@QAEJPAVCVirtualConsole@@PAUHWND__@@IIJUtagPOINT@@U_COORD@@@Z 00417890 f   ConEmu.obj
 0001:00016920       ?OnMouse_Move@CConEmuMain@@QAEJPAVCVirtualConsole@@PAUHWND__@@IIJUtagPOINT@@U_COORD@@@Z 00417920 f   ConEmu.obj
 0001:00016d30       ?OnMouse_NCBtnDblClk@CConEmuMain@@QAEHPAUHWND__@@AAIIJ@Z 00417d30 f   ConEmu.obj
 0001:00016d7b       ?OnMouse_RBtnDblClk@CConEmuMain@@QAEJPAVCVirtualConsole@@PAUHWND__@@AAIIJUtagPOINT@@U_COORD@@@Z 00417d7b f   ConEmu.obj
 0001:00016da2       ?OnMouse_RBtnDown@CConEmuMain@@QAEJPAVCVirtualConsole@@PAUHWND__@@IIJUtagPOINT@@U_COORD@@@Z 00417da2 f   ConEmu.obj
 0001:00016fe0       ?OnMouse_RBtnUp@CConEmuMain@@QAEJPAVCVirtualConsole@@PAUHWND__@@IIJUtagPOINT@@U_COORD@@@Z 00417fe0 f   ConEmu.obj
 0001:00017634       ?OnOurDialogClosed@CConEmuMain@@QAEXXZ 00418634 f   ConEmu.obj
 0001:0001763c       ?OnOurDialogOpened@CConEmuMain@@QAEXXZ 0041863c f   ConEmu.obj
 0001:00017644       ?OnPanelViewSettingsChanged@CConEmuMain@@QAEXH@Z 00418644 f   ConEmu.obj
 0001:00017716       ?OnQueryEndSession@CConEmuMain@@QAEJPAUHWND__@@IIJ@Z 00418716 f   ConEmu.obj
 0001:000177a4       ?OnRConStartedSuccess@CConEmuMain@@QAEXPAVCRealConsole@@@Z 004187a4 f   ConEmu.obj
 0001:000177bf       ?OnScClose@CConEmuMain@@QAE_NXZ 004187bf f   ConEmu.obj
 0001:000177f0       ?OnSessionChanged@CConEmuMain@@QAEJPAUHWND__@@IIJ@Z 004187f0 f   ConEmu.obj
 0001:000179c0       ?OnSetCursor@CConEmuMain@@QAEJIJ@Z 004189c0 f   ConEmu.obj
 0001:00017e2c       ?OnShellHook@CConEmuMain@@QAEJIJ@Z 00418e2c f   ConEmu.obj
 0001:00017f3e       ?OnSwitchGuiFocus@CConEmuMain@@QAEXW4SwitchGuiFocusOp@@@Z 00418f3e f   ConEmu.obj
 0001:00018027       ?OnTabbarActivated@CConEmuMain@@QAEX_N0@Z 00419027 f   ConEmu.obj
 0001:00018230       ?OnTaskbarButtonCreated@CConEmuMain@@QAEXXZ 00419230 f   ConEmu.obj
 0001:000182ab       ?OnTaskbarCreated@CConEmuMain@@QAEXXZ 004192ab f   ConEmu.obj
 0001:000182f6       ?OnTaskbarSettingsChanged@CConEmuMain@@QAEXXZ 004192f6 f   ConEmu.obj
 0001:000183a2       ?OnTimer@CConEmuMain@@QAEJIJ@Z 004193a2 f   ConEmu.obj
 0001:00018496       ?OnTimer_ActivateSplit@CConEmuMain@@QAEXXZ 00419496 f   ConEmu.obj
 0001:000186ae       ?OnTimer_AdmShield@CConEmuMain@@QAEXXZ 004196ae f   ConEmu.obj
 0001:00018715       ?OnTimer_Background@CConEmuMain@@QAEXXZ 00419715 f   ConEmu.obj
 0001:0001873d       ?OnTimer_ConRedraw@CConEmuMain@@QAEXPAVCVirtualConsole@@@Z 0041973d f   ConEmu.obj
 0001:00018766       ?OnTimer_FrameAppearDisappear@CConEmuMain@@QAEXI@Z 00419766 f   ConEmu.obj
 0001:000187a3       ?OnTimer_Main@CConEmuMain@@QAEXPAVCVirtualConsole@@@Z 004197a3 f   ConEmu.obj
 0001:00018cd5       ?OnTimer_QuakeFocus@CConEmuMain@@QAEXXZ 00419cd5 f   ConEmu.obj
 0001:00018d71       ?OnTransparent@CConEmuMain@@QAEXXZ 00419d71 f   ConEmu.obj
 0001:00018d9f       ?OnTransparent@CConEmuMain@@QAEX_N0@Z 00419d9f f   ConEmu.obj
 0001:00018ead       ?OnTransparentSeparate@CConEmuMain@@QAEX_N@Z 00419ead f   ConEmu.obj
 0001:00018eea       ?OnUpdateScrollInfo@CConEmuMain@@QAEJH@Z 00419eea f   ConEmu.obj
 0001:00018f16       ?OnVConCreated@CConEmuMain@@QAEXPAVCVirtualConsole@@PBURConStartArgsEx@@@Z 00419f16 f   ConEmu.obj
 0001:00018f6d       ?ParseScriptLineOptions@CConEmuMain@@QAEPB_WPB_WPA_NPAURConStartArgsEx@@@Z 00419f6d f   ConEmu.obj
 0001:000192eb       ?PatchMouseEvent@CConEmuMain@@IAE_NIAAUtagPOINT@@0IAA_N@Z 0041a2eb f   ConEmu.obj
 0001:000195c3       ?PostChangeCurPalette@CConEmuMain@@QAEXPB_W_N1@Z 0041a5c3 f   ConEmu.obj
 0001:00019606       ?PostCheckThread@CDefTermBase@@KGKPAX@Z 0041a606 f i ConEmu.obj
 0001:00019643       ?PostCreate@CConEmuMain@@QAEX_N@Z 0041a643 f   ConEmu.obj
 0001:00019a5e       ?PostCreateCon@CConEmuMain@@QAEXABURConStartArgsEx@@@Z 0041aa5e f   ConEmu.obj
 0001:00019ae9       ?PostCreateView@CConEmuMain@@QAEPAUHWND__@@PAVCConEmuChild@@@Z 0041aae9 f   ConEmu.obj
 0001:00019b23       ?PostDisplayRConError@CConEmuMain@@QAEXPAVCRealConsole@@PA_W@Z 0041ab23 f   ConEmu.obj
 0001:00019b54       ?PostDragCopy@CConEmuMain@@QAEX_N0@Z 0041ab54 f   ConEmu.obj
 0001:00019bc0       ?PostFontSetSize@CConEmuMain@@QAEXHH@Z 0041abc0 f   ConEmu.obj
 0001:00019bdf       ?PostMacro@CConEmuMain@@QAEXPB_W@Z 0041abdf f   ConEmu.obj
 0001:00019c35       ?PostMacroFontSetName@CConEmuMain@@QAEXPA_WGGH@Z 0041ac35 f   ConEmu.obj
 0001:00019cc0       ?PostScClose@CConEmuMain@@QAEXXZ 0041acc0 f   ConEmu.obj
 0001:00019cd7       ?PreWndProc@CConEmuMain@@QAEXI@Z 0041acd7 f   ConEmu.obj
 0001:00019ce1       ?RecheckForegroundWindow@CConEmuMain@@IAE_NPB_WPAPAUHWND__@@PAU2@@Z 0041ace1 f   ConEmu.obj
 0001:0001a01e       ?RecreateAction@CConEmuMain@@QAE_NW4RecreateActionParm@@HW4RConBoolArg@@@Z 0041b01e f   ConEmu.obj
 0001:0001a3de       ?RecreateDlg@CConEmuMain@@QAEHPAURConStartArgsEx@@_N@Z 0041b3de f   ConEmu.obj
 0001:0001a46f       ?RefreshWindowStyles@CConEmuMain@@QAEXXZ 0041b46f f   ConEmu.obj
 0001:0001a784       ?RegisterMessage@CConEmuMain@@AAEIPBDPB_W@Z 0041b784 f   ConEmu.obj
 0001:0001a7c8       ?RegisterMessages@CConEmuMain@@AAEXXZ 0041b7c8 f   ConEmu.obj
 0001:0001aada       ?RegisterSshAgent@CConEmuMain@@QAEXK@Z 0041bada f   ConEmu.obj
 0001:0001abab       ?Release@?$CRefGuard@VCRConData@@@@UAEXXZ 0041bbab f i RealBuffer.obj
 0001:0001abab       ?Release@?$CRefGuard@VCVConGroup@@@@UAEXXZ 0041bbab f i VConGroup.obj
 0001:0001abab       ?Release@?$CRefGuard@VCConHostSearch@CRealConsole@@@@UAEXXZ 0041bbab f i RealConsole.obj
 0001:0001abab       ?Release@?$CRefGuard@VCVirtualConsole@@@@UAEXXZ 0041bbab f i ConEmu.obj
 0001:0001abc0       ?Release@?$MMap@PAUHWND__@@PAVCVirtualConsole@@$0A@@@QAEXXZ 0041bbc0 f i ConEmuApp.obj
 0001:0001abc0       ?Release@?$MMap@IPBD$0A@@@QAEXXZ 0041bbc0 f i ConEmu.obj
 0001:0001abc0       ?Release@?$MMap@HPAV?$MArray@UDlgItem@CDpiForDialog@@@@$0A@@@QAEXXZ 0041bbc0 f i DpiAware.obj
 0001:0001abc0       ?Release@?$MMap@PAVCVConGroup@@PAVCVirtualConsole@@$0A@@@QAEXXZ 0041bbc0 f i TabBar.obj
 0001:0001abc0       ?Release@?$MMap@KH$0A@@@QAEXXZ 0041bbc0 f i RealConsole.obj
 0001:0001abc0       ?Release@?$MMap@PAUHWND__@@P6GJPAU1@IIJ@Z$0A@@@QAEXXZ 0041bbc0 f i SetDlgColors.obj
 0001:0001abc0       ?Release@?$MMap@PAUHWND__@@PAVCFindPanel@@$0A@@@QAEXXZ 0041bbc0 f i FindPanel.obj
 0001:0001abc0       ?Release@?$MMap@PAUHWND__@@PAVCDynDialog@@$0A@@@QAEXXZ 0041bbc0 f i DynDialog.obj
 0001:0001abe1       ?ReleaseConhostDelay@CConEmuMain@@QAEXXZ 0041bbe1 f   ConEmu.obj
 0001:0001abe9       ?ReloadEnvironmentVariables@CConEmuMain@@QAEXXZ 0041bbe9 f   ConEmu.obj
 0001:0001b129       ?ReloadWheelScroll@MouseState@CConEmuMain@@QAEXXZ 0041c129 f i ConEmu.obj
 0001:0001b16e       ?ReportOldCmdVersion@CConEmuMain@@QAEXKKHKPAXK@Z 0041c16e f   ConEmu.obj
 0001:0001b51d       ?RequestPostUpdateTabs@CConEmuMain@@QAEXXZ 0041c51d f   ConEmu.obj
 0001:0001b54a       ?Restore@MWow64Disable@@QAEXXZ 0041c54a f i ConEmu.obj
 0001:0001b561       ?RightClickingPaint@CConEmuMain@@QAEXPAUHDC__@@PAVCVirtualConsole@@@Z 0041c561 f   ConEmu.obj
 0001:0001b8cd       ?RightClickingProc@CConEmuMain@@KGJPAUHWND__@@IIJ@Z 0041c8cd f   ConEmu.obj
 0001:0001b93c       ?RunSingleInstance@CConEmuMain@@QAEHPAUHWND__@@PB_W@Z 0041c93c f   ConEmu.obj
 0001:0001becd       ?SessionChanged@SessionInfo@CConEmuMain@@QAEXIJ@Z 0041cecd f   ConEmu.obj
 0001:0001bee7       ?Set@?$MMap@KH$0A@@@QAE_NABKABH@Z 0041cee7 f i RealConsole.obj
 0001:0001bee7       ?Set@?$MMap@PAUHWND__@@PAVCVirtualConsole@@$0A@@@QAE_NABQAUHWND__@@ABQAVCVirtualConsole@@@Z 0041cee7 f i VConChild.obj
 0001:0001bee7       ?Set@?$MMap@PAUHWND__@@PAVCFindPanel@@$0A@@@QAE_NABQAUHWND__@@ABQAVCFindPanel@@@Z 0041cee7 f i FindPanel.obj
 0001:0001bee7       ?Set@?$MMap@PAVCVConGroup@@PAVCVirtualConsole@@$0A@@@QAE_NABQAVCVConGroup@@ABQAVCVirtualConsole@@@Z 0041cee7 f i TabBar.obj
 0001:0001bee7       ?Set@?$MMap@HPAV?$MArray@UDlgItem@CDpiForDialog@@@@$0A@@@QAE_NABHABQAV?$MArray@UDlgItem@CDpiForDialog@@@@@Z 0041cee7 f i DpiAware.obj
 0001:0001bee7       ?Set@?$MMap@PAUHWND__@@P6GJPAU1@IIJ@Z$0A@@@QAE_NABQAUHWND__@@ABQ6GJPAU2@IIJ@Z@Z 0041cee7 f i SetDlgColors.obj
 0001:0001bee7       ?Set@?$MMap@IPBD$0A@@@QAE_NABIABQBD@Z 0041cee7 f i ConEmu.obj
 0001:0001bee7       ?Set@?$MMap@PAUHWND__@@PAVCDynDialog@@$0A@@@QAE_NABQAUHWND__@@ABQAVCDynDialog@@@Z 0041cee7 f i DynDialog.obj
 0001:0001bff3       ?Set@CESize@@QAE_N_NW4CESizeStyle@@H@Z 0041cff3 f i ConEmu.obj
 0001:0001c064       ?SetAppID@CConEmuMain@@QAEXPB_W@Z 0041d064 f   ConEmu.obj
 0001:0001c2a9       ?SetConfigFile@CConEmuMain@@QAE_NPB_W_N1@Z 0041d2a9 f   ConEmu.obj
 0001:0001c50d       ?SetDragCursor@CConEmuMain@@QAEXPAUHICON__@@@Z 0041d50d f   ConEmu.obj
 0001:0001c533       ?SetForceUseRegistry@CConEmuMain@@QAEXXZ 0041d533 f   ConEmu.obj
 0001:0001c53b       ?SetFrom@?$MFileMapping@UPanelViewSetMapping@@@@QAE_NPBUPanelViewSetMapping@@H@Z 0041d53b f i ConEmu.obj
 0001:0001c53b       ?SetFrom@?$MFileMapping@UConEmuGuiMapping@@@@QAE_NPBUConEmuGuiMapping@@H@Z 0041d53b f i ConEmu.obj
 0001:0001c666       ?SetKillTimer@CConEmuMain@@QAEI_NII@Z 0041d666 f   ConEmu.obj
 0001:0001c698       ?SetParent@CConEmuMain@@QAE_NPAUHWND__@@@Z 0041d698 f   ConEmu.obj
 0001:0001c6e7       ?SetPostGuiMacro@CConEmuMain@@QAEXPB_W@Z 0041d6e7 f   ConEmu.obj
 0001:0001c6ff       ?SetScClosePending@CConEmuMain@@QAEX_N@Z 0041d6ff f   ConEmu.obj
 0001:0001c70f       ?SetSessionNotification@SessionInfo@CConEmuMain@@QAEX_N@Z 0041d70f f   ConEmu.obj
 0001:0001c7df       ?SetSkipMouseEvent@CConEmuMain@@QAEXIII@Z 0041d7df f   ConEmu.obj
 0001:0001c801       ?SetSkipOnFocus@CConEmuMain@@QAE_N_N@Z 0041d801 f   ConEmu.obj
 0001:0001c817       ?SetTaskbarIcon@CConEmuMain@@QAEXPAUHICON__@@@Z 0041d817 f   ConEmu.obj
 0001:0001c8c7       ?SetTitle@CConEmuMain@@QAEXPAUHWND__@@PB_W_N@Z 0041d8c7 f   ConEmu.obj
 0001:0001ca26       ?SetTitleTemplate@CConEmuMain@@QAEXPB_W@Z 0041da26 f   ConEmu.obj
 0001:0001ca4d       ?SetTransparent@CConEmuMain@@QAE_NPAUHWND__@@I_NK1@Z 0041da4d f   ConEmu.obj
 0001:0001cd2a       ?SetWindowIcon@CConEmuMain@@QAEXPB_W@Z 0041dd2a f   ConEmu.obj
 0001:0001ce13       ?SetWindowStyle@CConEmuMain@@QAEXK@Z 0041de13 f   ConEmu.obj
 0001:0001ce2b       ?SetWindowStyle@CConEmuMain@@QAEXPAUHWND__@@K@Z 0041de2b f   ConEmu.obj
 0001:0001ce40       ?SetWindowStyleEx@CConEmuMain@@QAEXK@Z 0041de40 f   ConEmu.obj
 0001:0001ce55       ?SetWindowStyleEx@CConEmuMain@@QAEXPAUHWND__@@K@Z 0041de55 f   ConEmu.obj
 0001:0001ced8       ?StartDebugActiveProcess@CConEmuMain@@QAE_NXZ 0041ded8 f   ConEmu.obj
 0001:0001cf67       ?StartDebugLogConsole@CConEmuMain@@QAE_NXZ 0041df67 f   ConEmu.obj
 0001:0001d09c       ?StartDefTermHooker@CDefTermBase@@AAEHKAAPAXAAKPB_W1@Z 0041e09c f i ConEmu.obj
 0001:0001d49f       ?StartRightClickingPaint@CConEmuMain@@IAEXXZ 0041e49f f   ConEmu.obj
 0001:0001d4dc       ?StopRightClickingPaint@CConEmuMain@@IAEXXZ 0041e4dc f   ConEmu.obj
 0001:0001d526       ?StoreLayoutName@CConEmuMain@@IAEXHKPAUHKL__@@@Z 0041e526 f   ConEmu.obj
 0001:0001d628       ?StoreProcessed@CDefTermBase@@IAEXABUProcessInfo@1@@Z 0041e628 f i ConEmu.obj
 0001:0001d6a5       ?StoreWorkDir@CConEmuMain@@QAEXPB_W@Z 0041e6a5 f   ConEmu.obj
 0001:0001d888       ?StringCchVPrintfA@@YGJPADIPBD0@Z 0041e888 f i ConEmu.obj
 0001:0001d8db       ?SwitchKeyboardLayout@CConEmuMain@@QAEXK@Z 0041e8db f   ConEmu.obj
 0001:0001da71       ?SyncExecMacro@CConEmuMain@@QAEJIJ@Z 0041ea71 f   ConEmu.obj
 0001:0001da90       ?SyncNtvdm@CConEmuMain@@QAEXXZ 0041ea90 f   ConEmu.obj
 0001:0001daa0       ?TerminateSshAgents@CConEmuMain@@IAEXXZ 0041eaa0 f   ConEmu.obj
 0001:0001dbe9       ?TrackMouse@CConEmuMain@@QAEHXZ 0041ebe9 f   ConEmu.obj
 0001:0001dc35       ?UnlockConhostStart@CConEmuMain@@QAEXXZ 0041ec35 f   ConEmu.obj
 0001:0001dc4f       ?Update@CConEmuMain@@QAEX_N@Z 0041ec4f f   ConEmu.obj
 0001:0001dc5f       ?UpdateCaretPos@CConEmuMain@@QAEXAAVCVirtualConsole@@ABUtagRECT@@@Z 0041ec5f f   ConEmu.obj
 0001:0001dcbf       ?UpdateCursorInfo@CConEmuMain@@QAEXPBUConsoleInfoArg@@@Z 0041ecbf f   ConEmu.obj
 0001:0001dd37       ?UpdateGuiInfoMapping@CConEmuMain@@AAEXXZ 0041ed37 f   ConEmu.obj
 0001:0001e218       ?UpdateGuiInfoMappingActive@CConEmuMain@@AAEX_N0@Z 0041f218 f   ConEmu.obj
 0001:0001e35c       ?UpdateImeComposition@CConEmuMain@@IAEXXZ 0041f35c f   ConEmu.obj
 0001:0001e4c7       ?UpdateProcessDisplay@CConEmuMain@@QAEX_N@Z 0041f4c7 f   ConEmu.obj
 0001:0001e795       ?UpdateProgress@CConEmuMain@@QAEXXZ 0041f795 f   ConEmu.obj
 0001:0001eb88       ?UpdateSizes@CConEmuMain@@QAEXXZ 0041fb88 f   ConEmu.obj
 0001:0001ecd1       ?UpdateTitle@CConEmuMain@@QAEXXZ 0041fcd1 f   ConEmu.obj
 0001:0001eddf       ?UpdateWindowChild@CConEmuMain@@QAEXPAVCVirtualConsole@@@Z 0041fddf f   ConEmu.obj
 0001:0001edef       ?WinEventProc@CConEmuMain@@KGXPAUHWINEVENTHOOK__@@KPAUHWND__@@JJKK@Z 0041fdef f   ConEmu.obj
 0001:0001ee28       ?WndProc@CConEmuMain@@QAEJPAUHWND__@@IIJ@Z 0041fe28 f   ConEmu.obj
 0001:000202bf       ?WorkDir@CConEmuMain@@QAEPB_WPB_W@Z 004212bf f   ConEmu.obj
 0001:000202eb       ?WorkWndProc@CConEmuMain@@SGJPAUHWND__@@IIJ@Z 004212eb f   ConEmu.obj
 0001:0002046c       ?_Adjust_manually_vector_aligned@std@@YAXAAPAXAAI@Z 0042146c f i ConEmu.obj
 0001:00020490       ?_Assign_grow@?$_Hash_vec@V?$allocator@V?$_List_unchecked_iterator@V?$_List_val@U?$_List_simple_types@U?$pair@$$CBKI@std@@@std@@@std@@@std@@@std@@@std@@QAEXIV?$_List_unchecked_iterator@V?$_List_val@U?$_List_simple_types@U?$pair@$$CBKI@std@@@std@@@std@@@2@@Z 00421490 f i RealConsole.obj
 0001:00020490       ?_Assign_grow@?$_Hash_vec@V?$allocator@V?$_List_unchecked_iterator@V?$_List_val@U?$_List_simple_types@U?$pair@$$CBV?$basic_string@_WU?$char_traits@_W@std@@V?$allocator@_W@2@@std@@UVariableData@SystemEnvironment@@@std@@@std@@@std@@@std@@@std@@@std@@QAEXIV?$_List_unchecked_iterator@V?$_List_val@U?$_List_simple_types@U?$pair@$$CBV?$basic_string@_WU?$char_traits@_W@std@@V?$allocator@_W@2@@std@@UVariableData@SystemEnvironment@@@std@@@std@@@std@@@2@@Z 00421490 f i ConEmu.obj
 0001:00020490       ?_Assign_grow@?$_Hash_vec@V?$allocator@V?$_List_unchecked_iterator@V?$_List_val@U?$_List_simple_types@U?$pair@$$CBHG@std@@@std@@@std@@@std@@@std@@@std@@QAEXIV?$_List_unchecked_iterator@V?$_List_val@U?$_List_simple_types@U?$pair@$$CBHG@std@@@std@@@std@@@2@@Z 00421490 f i Font.obj
 0001:00020490       ?_Assign_grow@?$_Hash_vec@V?$allocator@V?$_List_unchecked_const_iterator@V?$_List_val@U?$_List_simple_types@K@std@@@std@@U_Iterator_base0@2@@std@@@std@@@std@@QAEXIV?$_List_unchecked_const_iterator@V?$_List_val@U?$_List_simple_types@K@std@@@std@@U_Iterator_base0@2@@2@@Z 00421490 f i RealConsole.obj
 0001:000204f8       ?_Become_small@?$basic_string@_WU?$char_traits@_W@std@@V?$allocator@_W@2@@std@@AAEXXZ 004214f8 f i ConEmu.obj
 0001:0002052e       ?_Calculate_growth@?$basic_string@_WU?$char_traits@_W@std@@V?$allocator@_W@2@@std@@CAIIII@Z 0042152e f i ConEmu.obj
 0001:0002055f       ?_Calculate_growth@?$vector@USshAgent@CConEmuMain@@V?$MArrayAllocator@USshAgent@CConEmuMain@@@@@std@@ABEII@Z 0042155f f i ConEmu.obj
 0001:0002055f       ?_Calculate_growth@?$vector@U?$pair@HUCEStr@@@std@@V?$MArrayAllocator@U?$pair@HUCEStr@@@std@@@@@std@@ABEII@Z 0042155f f i common-kernel32:CEStr.obj
 0001:0002055f       ?_Calculate_growth@?$vector@ULngDefinition@CLngRc@@V?$MArrayAllocator@ULngDefinition@CLngRc@@@@@std@@ABEII@Z 0042155f f i LngRc.obj
 0001:0002055f       ?_Calculate_growth@?$vector@UThreadHandle@CDefTermBase@@V?$MArrayAllocator@UThreadHandle@CDefTermBase@@@@@std@@ABEII@Z 0042155f f i ConEmu.obj
 0001:0002055f       ?_Calculate_growth@?$vector@UTabIconCache@CIconList@@V?$MArrayAllocator@UTabIconCache@CIconList@@@@@std@@ABEII@Z 0042155f f i IconList.obj
 0001:00020590       ?_Change_array@?$vector@UTabIconCache@CIconList@@V?$MArrayAllocator@UTabIconCache@CIconList@@@@@std@@AAEXQAUTabIconCache@CIconList@@II@Z 00421590 f i IconList.obj
 0001:00020590       ?_Change_array@?$vector@UThreadHandle@CDefTermBase@@V?$MArrayAllocator@UThreadHandle@CDefTermBase@@@@@std@@AAEXQAUThreadHandle@CDefTermBase@@II@Z 00421590 f i ConEmu.obj
 0001:00020590       ?_Change_array@?$vector@USshAgent@CConEmuMain@@V?$MArrayAllocator@USshAgent@CConEmuMain@@@@@std@@AAEXQAUSshAgent@CConEmuMain@@II@Z 00421590 f i ConEmu.obj
 0001:00020590       ?_Change_array@?$vector@ULngDefinition@CLngRc@@V?$MArrayAllocator@ULngDefinition@CLngRc@@@@@std@@AAEXQAULngDefinition@CLngRc@@II@Z 00421590 f i LngRc.obj
 0001:000205bf       ?_Check_C_return@std@@YAHH@Z 004215bf f i ConEmu.obj
 0001:000205d5       ?_Copy@?$_Func_impl_no_alloc@P6AJJ@ZJJ@std@@EBEPAV?$_Func_base@JJ@2@PAX@Z 004215d5 f i ConEmu.obj
 0001:000205d5       ?_Move@?$_Func_impl_no_alloc@P6AJJ@ZJJ@std@@EAEPAV?$_Func_base@JJ@2@PAX@Z 004215d5 f i ConEmu.obj
 0001:000205eb       ?_Copy@?$_Func_impl_no_alloc@P6A_NPAVCVirtualConsole@@J@Z_NPAV1@J@std@@EBEPAV?$_Func_base@_NPAVCVirtualConsole@@J@2@PAX@Z 004215eb f i ConEmu.obj
 0001:000205eb       ?_Move@?$_Func_impl_no_alloc@P6A_NPAVCVirtualConsole@@J@Z_NPAV1@J@std@@EAEPAV?$_Func_base@_NPAVCVirtualConsole@@J@2@PAX@Z 004215eb f i ConEmu.obj
 0001:00020601       ?_Decref@_Ref_count_base@std@@QAEXXZ 00421601 f i ConEmu.obj
 0001:00020629       ?_Delete_this@?$_Func_impl_no_alloc@V<lambda_9e7323793ed24b1a5fadb4d27ba29021>@@_NABUtagPROCESSENTRY32W@@@std@@EAEX_N@Z 00421629 f i common-kernel32:MProcess.obj
 0001:00020629       ?_Delete_this@?$_Func_impl_no_alloc@P6AXPAX@ZXPAX@std@@EAEX_N@Z 00421629 f i TempFile.obj
 0001:00020629       ?_Delete_this@?$_Func_impl_no_alloc@P6GHPAX@ZXPAX@std@@EAEX_N@Z 00421629 f i common-kernel32:WObjects.obj
 0001:00020629       ?_Delete_this@?$_Func_impl_no_alloc@P6A_NABUCEStr@@ABU_WIN32_FIND_DATAW@@PAX@Z_NABU1@ABU2@PAX@std@@EAEX_N@Z 00421629 f i OptionsFast.obj
 0001:00020629       ?_Delete_this@?$_Func_impl_no_alloc@P6AXPAUHRGN__@@@ZXPAU1@@std@@EAEX_N@Z 00421629 f i SizeInfo.obj
 0001:00020629       ?_Delete_this@?$_Func_impl_no_alloc@V<lambda_1ba424e6bd24ebf20b17ff7d6f5c5f98>@@_NABUtagPROCESSENTRY32W@@@std@@EAEX_N@Z 00421629 f i common-kernel32:MProcess.obj
 0001:00020629       ?_Delete_this@?$_Func_impl_no_alloc@P6A_NPAVCVirtualConsole@@J@Z_NPAV1@J@std@@EAEX_N@Z 00421629 f i ConEmu.obj
 0001:00020629       ?_Delete_this@?$_Func_impl_no_alloc@P6AJJ@ZJJ@std@@EAEX_N@Z 00421629 f i ConEmu.obj
 0001:00020640       ?_Delete_this@?$_Ref_count_obj2@USystemEnvironment@@@std@@EAEXXZ 00421640 f i ConEmu.obj
 0001:00020640       ?_Delete_this@?$_Ref_count_obj2@VGlobalHotkeys@@@std@@EAEXXZ 00421640 f i ConEmu.obj
 0001:00020640       ?_Delete_this@?$_Ref_count_obj2@VMFileLogEx@@@std@@EAEXXZ 00421640 f i ConEmu.obj
 0001:0002064c       ?_Destroy@?$_Ref_count_obj2@USystemEnvironment@@@std@@EAEXXZ 0042164c f i ConEmu.obj
 0001:00020657       ?_Destroy@?$_Ref_count_obj2@VMFileLogEx@@@std@@EAEXXZ 00421657 f i ConEmu.obj
 0001:00020661       ?_Do_call@?$_Func_impl_no_alloc@P6AXPAUHRGN__@@@ZXPAU1@@std@@EAEX$$QAPAUHRGN__@@@Z 00421661 f i SizeInfo.obj
 0001:00020661       ?_Do_call@?$_Func_impl_no_alloc@P6AXPAX@ZXPAX@std@@EAEX$$QAPAX@Z 00421661 f i TempFile.obj
 0001:00020661       ?_Do_call@?$_Func_impl_no_alloc@P6AJJ@ZJJ@std@@EAEJ$$QAJ@Z 00421661 f i ConEmu.obj
 0001:00020671       ?_Do_call@?$_Func_impl_no_alloc@P6A_NPAVCVirtualConsole@@J@Z_NPAV1@J@std@@EAE_N$$QAPAVCVirtualConsole@@$$QAJ@Z 00421671 f i ConEmu.obj
 0001:00020687       ?_Equal@?$basic_string@_WU?$char_traits@_W@std@@V?$allocator@_W@2@@std@@QBE_NABV12@@Z 00421687 f i ConEmu.obj
 0001:000206b7       ?_Fnv1a_append_bytes@std@@YAIIQBEI@Z 004216b7 f i ConEmu.obj
 0001:000206df       ?_Get@?$_Func_impl_no_alloc@V<lambda_1ba424e6bd24ebf20b17ff7d6f5c5f98>@@_NABUtagPROCESSENTRY32W@@@std@@EBEPBXXZ 004216df f i common-kernel32:MProcess.obj
 0001:000206df       ?_Get@?$_Func_impl_no_alloc@P6AXPAUHRGN__@@@ZXPAU1@@std@@EBEPBXXZ 004216df f i SizeInfo.obj
 0001:000206df       ?Ptr@TabName@@QBEPB_WXZ    004216df f i TabID.obj
 0001:000206df       ?_Get@?$_Func_impl_no_alloc@P6A_NABUCEStr@@ABU_WIN32_FIND_DATAW@@PAX@Z_NABU1@ABU2@PAX@std@@EBEPBXXZ 004216df f i OptionsFast.obj
 0001:000206df       ?_Get@?$_Func_impl_no_alloc@P6GHPAX@ZXPAX@std@@EBEPBXXZ 004216df f i common-kernel32:WObjects.obj
 0001:000206df       ?_Get@?$_Func_impl_no_alloc@V<lambda_9e7323793ed24b1a5fadb4d27ba29021>@@_NABUtagPROCESSENTRY32W@@@std@@EBEPBXXZ 004216df f i common-kernel32:MProcess.obj
 0001:000206df       ?_Get@?$_Func_impl_no_alloc@P6AXPAX@ZXPAX@std@@EBEPBXXZ 004216df f i TempFile.obj
 0001:000206df       ?_Get@?$_Func_impl_no_alloc@P6A_NPAVCVirtualConsole@@J@Z_NPAV1@J@std@@EBEPBXXZ 004216df f i ConEmu.obj
 0001:000206df       ?_Get@?$_Func_impl_no_alloc@P6AJJ@ZJJ@std@@EBEPBXXZ 004216df f i ConEmu.obj
 0001:000206df       ?GetParentInfo@CConEmuInside@@QBEABUInsideParentInfo@1@XZ 004216df f i Inside.obj
 0001:000206e3       ?_Reset_move@?$_Func_class@XPAUHBRUSH__@@@std@@IAEX$$QAV12@@Z 004216e3 f i FrameHolder.obj
 0001:000206e3       ?_Reset_move@?$_Func_class@JJ@std@@IAEX$$QAV12@@Z 004216e3 f i ConEmu.obj
 0001:000206e3       ?_Reset_move@?$_Func_class@XPAX@std@@IAEX$$QAV12@@Z 004216e3 f i TempFile.obj
 0001:000206e3       ?_Reset_move@?$_Func_class@_NPB_WAAUCEStr@@@std@@IAEX$$QAV12@@Z 004216e3 f i Match.obj
 0001:000206e3       ?_Reset_move@?$_Func_class@XPAUHRGN__@@@std@@IAEX$$QAV12@@Z 004216e3 f i SizeInfo.obj
 0001:00020717       ?_Target_type@?$_Func_impl_no_alloc@P6AJJ@ZJJ@std@@EBEABVtype_info@@XZ 00421717 f i ConEmu.obj
 0001:0002071d       ?_Target_type@?$_Func_impl_no_alloc@P6A_NPAVCVirtualConsole@@J@Z_NPAV1@J@std@@EBEABVtype_info@@XZ 0042171d f i ConEmu.obj
 0001:00020723       ?_Throw_bad_array_new_length@std@@YAXXZ 00421723 f i ConEmu.obj
 0001:00020740       ?_Tidy@?$_Func_class@_NPAVCVirtualConsole@@J@std@@IAEXXZ 00421740 f i VConGroup.obj
 0001:00020740       ?_Tidy@?$_Func_class@_NABUCEStr@@ABU_WIN32_FIND_DATAW@@PAX@std@@IAEXXZ 00421740 f i OptionsFast.obj
 0001:00020740       ?_Tidy@?$_Func_class@XPAX@std@@IAEXXZ 00421740 f i TempFile.obj
 0001:00020740       ?_Tidy@?$_Func_class@_NABUtagPROCESSENTRY32W@@@std@@IAEXXZ 00421740 f i common-kernel32:MProcess.obj
 0001:00020740       ?_Tidy@?$_Func_class@XPAUHBRUSH__@@@std@@IAEXXZ 00421740 f i FrameHolder.obj
 0001:00020740       ?_Tidy@?$_Func_class@JJ@std@@IAEXXZ 00421740 f i ConEmu.obj
 0001:00020740       ?_Tidy@?$_Func_class@_NPB_WAAUCEStr@@@std@@IAEXXZ 00421740 f i Match.obj
 0001:00020740       ?_Tidy@?$_Func_class@XPAUHRGN__@@@std@@IAEXXZ 00421740 f i ConEmu.obj
 0001:0002075e       ?_Tidy@?$_Hash_vec@V?$allocator@V?$_List_unchecked_const_iterator@V?$_List_val@U?$_List_simple_types@K@std@@@std@@U_Iterator_base0@2@@std@@@std@@@std@@QAEXXZ 0042175e f i RealConsole.obj
 0001:0002075e       ?_Tidy@?$_Hash_vec@V?$allocator@V?$_List_unchecked_iterator@V?$_List_val@U?$_List_simple_types@U?$pair@$$CBV?$basic_string@_WU?$char_traits@_W@std@@V?$allocator@_W@2@@std@@UVariableData@SystemEnvironment@@@std@@@std@@@std@@@std@@@std@@@std@@QAEXXZ 0042175e f i ConEmu.obj
 0001:0002075e       ?_Tidy@?$_Hash_vec@V?$allocator@V?$_List_unchecked_iterator@V?$_List_val@U?$_List_simple_types@U?$pair@$$CBHG@std@@@std@@@std@@@std@@@std@@@std@@QAEXXZ 0042175e f i Font.obj
 0001:0002075e       ?_Tidy@?$_Hash_vec@V?$allocator@V?$_List_unchecked_iterator@V?$_List_val@U?$_List_simple_types@U?$pair@$$CBKI@std@@@std@@@std@@@std@@@std@@@std@@QAEXXZ 0042175e f i RealConsole.obj
 0001:0002077f       ?_Tidy@?$list@U?$pair@$$CBV?$basic_string@_WU?$char_traits@_W@std@@V?$allocator@_W@2@@std@@UVariableData@SystemEnvironment@@@std@@V?$allocator@U?$pair@$$CBV?$basic_string@_WU?$char_traits@_W@std@@V?$allocator@_W@2@@std@@UVariableData@SystemEnvironment@@@std@@@2@@std@@AAEXXZ 0042177f f i ConEmu.obj
 0001:00020798       ?_Tidy@?$vector@U?$pair@HUCEStr@@@std@@V?$MArrayAllocator@U?$pair@HUCEStr@@@std@@@@@std@@AAEXXZ 00421798 f i ConEmu.obj
 0001:00020805       ?_Tidy_deallocate@?$basic_string@_WU?$char_traits@_W@std@@V?$allocator@_W@2@@std@@AAEXXZ 00421805 f i ConEmu.obj
 0001:00020833       ?_Xlen_string@std@@YAXXZ   00421833 f i ConEmu.obj
 0001:0002083e       ?_Xran@?$_String_val@U?$_Simple_types@_W@std@@@std@@SAXXZ 0042183e f i ConEmu.obj
 0001:00020849       ?allocate@?$MArrayAllocator@ULngDefinition@CLngRc@@@@QAEPAULngDefinition@CLngRc@@I@Z 00421849 f i LngRc.obj
 0001:00020849       ?allocate@?$MArrayAllocator@UThreadHandle@CDefTermBase@@@@QAEPAUThreadHandle@CDefTermBase@@I@Z 00421849 f i ConEmu.obj
 0001:00020849       ?allocate@?$MArrayAllocator@UTabIconCache@CIconList@@@@QAEPAUTabIconCache@CIconList@@I@Z 00421849 f i IconList.obj
 0001:00020849       ?allocate@?$MArrayAllocator@USshAgent@CConEmuMain@@@@QAEPAUSshAgent@CConEmuMain@@I@Z 00421849 f i ConEmu.obj
 0001:00020879       ?allocate@?$allocator@V?$_List_unchecked_iterator@V?$_List_val@U?$_List_simple_types@U?$pair@$$CBV?$basic_string@_WU?$char_traits@_W@std@@V?$allocator@_W@2@@std@@UVariableData@SystemEnvironment@@@std@@@std@@@std@@@std@@@std@@QAEPAV?$_List_unchecked_iterator@V?$_List_val@U?$_List_simple_types@U?$pair@$$CBV?$basic_string@_WU?$char_traits@_W@std@@V?$allocator@_W@2@@std@@UVariableData@SystemEnvironment@@@std@@@std@@@std@@@2@I@Z 00421879 f i ConEmu.obj
 0001:00020879       ?allocate@?$allocator@PAPAUHMENU__@@@std@@QAEPAPAPAUHMENU__@@I@Z 00421879 f i Menu.obj
 0001:00020879       ?allocate@?$allocator@V?$_List_unchecked_iterator@V?$_List_val@U?$_List_simple_types@U?$pair@$$CBHG@std@@@std@@@std@@@std@@@std@@QAEPAV?$_List_unchecked_iterator@V?$_List_val@U?$_List_simple_types@U?$pair@$$CBHG@std@@@std@@@std@@@2@I@Z 00421879 f i Font.obj
 0001:00020879       ?allocate@?$allocator@V?$_List_unchecked_const_iterator@V?$_List_val@U?$_List_simple_types@K@std@@@std@@U_Iterator_base0@2@@std@@@std@@QAEPAV?$_List_unchecked_const_iterator@V?$_List_val@U?$_List_simple_types@K@std@@@std@@U_Iterator_base0@2@@2@I@Z 00421879 f i RealConsole.obj
 0001:00020879       ?allocate@?$allocator@K@std@@QAEPAKI@Z 00421879 f i RealConsole.obj
 0001:00020879       ?allocate@?$allocator@V?$_List_unchecked_iterator@V?$_List_val@U?$_List_simple_types@U?$pair@$$CBKI@std@@@std@@@std@@@std@@@std@@QAEPAV?$_List_unchecked_iterator@V?$_List_val@U?$_List_simple_types@U?$pair@$$CBKI@std@@@std@@@std@@@2@I@Z 00421879 f i RealConsole.obj
 0001:0002089a       ?allocate@?$allocator@_W@std@@QAEPA_WI@Z 0042189a f i ConEmu.obj
 0001:000208ba       ?append@?$basic_string@_WU?$char_traits@_W@std@@V?$allocator@_W@2@@std@@QAEAAV12@ABV12@@Z 004218ba f i ConEmu.obj
 0001:000208d7       ?append@?$basic_string@_WU?$char_traits@_W@std@@V?$allocator@_W@2@@std@@QAEAAV12@QB_W@Z 004218d7 f i ConEmu.obj
 0001:000208fe       ?append@?$basic_string@_WU?$char_traits@_W@std@@V?$allocator@_W@2@@std@@QAEAAV12@QB_WI@Z 004218fe f i ConEmu.obj
 0001:0002095c       ?assign@?$basic_string@_WU?$char_traits@_W@std@@V?$allocator@_W@2@@std@@QAEAAV12@QB_W@Z 0042195c f i ConEmu.obj
 0001:00020983       ?assign@?$basic_string@_WU?$char_traits@_W@std@@V?$allocator@_W@2@@std@@QAEAAV12@QB_WI@Z 00421983 f i ConEmu.obj
 0001:000209d1       ?erase@?$MArray@UProcessInfo@CDefTermBase@@@@QAEXHH@Z 004219d1 f i ConEmu.obj
 0001:00020a1c       ?insert@?$basic_string@_WU?$char_traits@_W@std@@V?$allocator@_W@2@@std@@QAEAAV12@IQB_W@Z 00421a1c f i ConEmu.obj
 0001:00020a46       ?insert@?$basic_string@_WU?$char_traits@_W@std@@V?$allocator@_W@2@@std@@QAEAAV12@IQB_WI@Z 00421a46 f i ConEmu.obj
 0001:00020b21       ?isCloseConfirmed@CConEmuMain@@QAE_NXZ 00421b21 f   ConEmu.obj
 0001:00020b44       ?isDestroyOnClose@CConEmuMain@@QAE_N_N@Z 00421b44 f   ConEmu.obj
 0001:00020c4f       ?isDialogMessage@CConEmuMain@@QAEHAAUtagMSG@@@Z 00421c4f f   ConEmu.obj
 0001:00020ce1       ?isDragging@CConEmuMain@@QAE_NXZ 00421ce1 f   ConEmu.obj
 0001:00020d0c       ?isFirstInstance@CConEmuMain@@QAE_N_N@Z 00421d0c f   ConEmu.obj
 0001:00020e75       ?isInImeComposition@CConEmuMain@@QAE_NXZ 00421e75 f   ConEmu.obj
 0001:00020e7c       ?isInputGrouped@CConEmuMain@@QBE_NXZ 00421e7c f   ConEmu.obj
 0001:00020e83       ?isInside@CConEmuMain@@QAE_NXZ 00421e83 f   ConEmu.obj
 0001:00020e9f       ?isInsideInvalid@CConEmuMain@@QAE_NXZ 00421e9f f   ConEmu.obj
 0001:00020ed8       ?isMSysStartup@CConEmuMain@@QAE_NXZ 00421ed8 f   ConEmu.obj
 0001:00020ee4       ?isMeForeground@CConEmuMain@@QAE_N_N0PAPAUHWND__@@@Z 00421ee4 f   ConEmu.obj
 0001:00020f30       ?isMenuActive@CConEmuMain@@QAE_NXZ 00421f30 f   ConEmu.obj
 0001:00020f41       ?isMingwMode@CConEmuMain@@QAE_NXZ 00421f41 f   ConEmu.obj
 0001:00020f4a       ?isMouseOverFrame@CConEmuMain@@QAE_N_N@Z 00421f4a f   ConEmu.obj
 0001:0002108f       ?isNtvdm@CConEmuMain@@QAE_NH@Z 0042208f f   ConEmu.obj
 0001:0002109f       ?isOurConsoleWindow@CConEmuMain@@QAE_NPAUHWND__@@@Z 0042209f f   ConEmu.obj
 0001:000210af       ?isPictureView@CConEmuMain@@QAE_NXZ 004220af f   ConEmu.obj
 0001:000210b4       ?isProcessCreated@CConEmuMain@@QAE_NXZ 004220b4 f   ConEmu.obj
 0001:000210bb       ?isRightClickingPaint@CConEmuMain@@QAE_NXZ 004220bb f   ConEmu.obj
 0001:000210c2       ?isSelectionModifierPressed@CConEmuMain@@QAEK_N@Z 004220c2 f   ConEmu.obj
 0001:00021192       ?isSkipNcMessage@CConEmuMain@@QAE_NABUtagMSG@@@Z 00422192 f   ConEmu.obj
 0001:00021219       ?isTabsShown@CConEmuMain@@QBE_NXZ 00422219 f   ConEmu.obj
 0001:00021240       ?isUpdateAllowed@CConEmuMain@@QAE_NXZ 00422240 f   ConEmu.obj
 0001:0002124b       ?isVConExists@CConEmuMain@@QAE_NH@Z 0042224b f   ConEmu.obj
 0001:0002125b       ?isVConValid@CConEmuMain@@QAEHPAVCVirtualConsole@@@Z 0042225b f   ConEmu.obj
 0001:00021274       ?isValid@CConEmuMain@@QAE_NPAVCRealConsole@@@Z 00422274 f   ConEmu.obj
 0001:00021284       ?isValid@CConEmuMain@@QAE_NPAVCVirtualConsole@@@Z 00422284 f   ConEmu.obj
 0001:00021294       ?now@steady_clock@chrono@std@@SA?AV?$time_point@Usteady_clock@chrono@std@@V?$duration@_JU?$ratio@$00$0DLJKMKAA@@std@@@23@@23@XZ 00422294 f i ConEmu.obj
 0001:00021313       ?reserve@?$basic_string@_WU?$char_traits@_W@std@@V?$allocator@_W@2@@std@@QAEXI@Z 00422313 f i ConEmu.obj
 0001:00021355       ?reset@?$shared_ptr@VMFileLogEx@@@std@@QAEXXZ 00422355 f i ConEmu.obj
 0001:0002136b       ?setFocus@CConEmuMain@@QAEXXZ 0042236b f   ConEmu.obj
 0001:00021429       __vsnprintf_l              00422429 f i ConEmu.obj
 0001:000214a7       _wmemcmp                   004224a7 f i ConEmu.obj
 0001:000214e4       ??$SafeDelete@VCConEmuMain@@@@YAXAAPAVCConEmuMain@@@Z 004224e4 f i ConEmuApp.obj
 0001:00021509       ??$SafeDelete@VCConEmuUpdate@@@@YAXAAPAVCConEmuUpdate@@@Z 00422509 f i ConEmuApp.obj
 0001:0002153d       ??$SafeDelete@VCFontMgr@@@@YAXAAPAVCFontMgr@@@Z 0042253d f i ConEmuApp.obj
 0001:00021571       ??$SafeDelete@VCLngRc@@@@YAXAAPAVCLngRc@@@Z 00422571 f i ConEmuApp.obj
 0001:000215a2       ??$SafeDelete@VConEmuHotKeyList@@@@YAXAAPAVConEmuHotKeyList@@@Z 004225a2 f i ConEmuApp.obj
 0001:000215d3       ??$swprintf_c@$0BAA@@@YAHAAY0BAA@_WPB_WZZ 004225d3 f i ConEmuApp.obj
 0001:000215ec       ??$ultow_s@$0BA@@@YAPB_WIAAY0BA@_WH@Z 004225ec f i ConEmuApp.obj
 0001:00021614       ??$wcscat_c@$0EAA@@@YAHAAY0EAA@_WPB_W@Z 00422614 f i ConEmuApp.obj
 0001:00021629       ?AppWndProc@@YGJPAUHWND__@@IIJ@Z 00422629 f   ConEmuApp.obj
 0001:000216ce       ?AssertBox@@YAXPB_W0IPAU_EXCEPTION_POINTERS@@@Z 004226ce f   ConEmuApp.obj
 0001:00021c26       ?CenterInParent@@YA?AUtagRECT@@U1@PAUHWND__@@@Z 00422c26 f   ConEmuApp.obj
 0001:00021d1b       ?CheckCreateAppWindow@@YAHXZ 00422d1b f   ConEmuApp.obj
 0001:00021ebc       ?CheckForDebugArgs@@YAHPB_W@Z 00422ebc f   ConEmuApp.obj
 0001:00022042       ?CheckZoneIdentifiers@@YAH_N@Z 00423042 f   ConEmuApp.obj
 0001:0002237f       ?Create@LoadStartupEnvEx@@SAPAUCEStartupEnv@@XZ 0042337f f i ConEmuApp.obj
 0001:000225d3       ?CreateDumpForReport@@YAKPAU_EXCEPTION_POINTERS@@AAUConEmuDumpInfo@@@Z 004235d3 f i ConEmuApp.obj
 0001:00022a71       ?CreateDumpOnException@@YGJPAU_EXCEPTION_POINTERS@@@Z 00423a71 f   ConEmuApp.obj
 0001:00022bb4       ?CreateNullIcon@@YAPAUHICON__@@XZ 00423bb4 f   ConEmuApp.obj
 0001:00022ccc       ?DumpCurrentProcess@@YA_NAAUConEmuDumpInfo@@@Z 00423ccc f   ConEmuApp.obj
 0001:00022d62       ?FindProcessWindow@@YAPAUHWND__@@K@Z 00423d62 f   ConEmuApp.obj
 0001:00022dc3       ?FindTopExplorerWindow@@YAPAUHWND__@@XZ 00423dc3 f   ConEmuApp.obj
 0001:00022e3c       ?GetColorRef@@YA_NPB_WPAK@Z 00423e3c f   ConEmuApp.obj
 0001:00023072       ?GetDlgItemSigned@@YA_NPAUHWND__@@GAAHHH@Z 00424072 f   ConEmuApp.obj
 0001:000230bf       ?GetDlgItemTextPtr@@YA?AUCEStr@@PAUHWND__@@G@Z 004240bf f   ConEmuApp.obj
 0001:00023100       ?Load@LoadStartupEnv@@KA_NIAAPAUCEStartupEnv@@AAPAE@Z 00424100 f i ConEmuApp.obj
 0001:0002363e       ?LoadAutoruns@LoadStartupEnvEx@@KA?AUCEStr@@XZ 0042463e f i ConEmuApp.obj
 0001:0002390b       ?LoadFonts@LoadStartupEnvEx@@KA?AUCEStr@@XZ 0042490b f i ConEmuApp.obj
 0001:00023b63       ?LoadStartupEnv_FillMonitors@LoadStartupEnvEx@@KGHPAUHMONITOR__@@PAUHDC__@@PAUtagRECT@@J@Z 00424b63 f i ConEmuApp.obj
 0001:00023c8a       ?LogString@@YA_NPB_W_N1@Z  00424c8a f   ConEmuApp.obj
 0001:00023ca3       ?MessageLoop@@YAXXZ        00424ca3 f   ConEmuApp.obj
 0001:00023ce9       ?MoveWindowRect@@YAHPAUHWND__@@ABUtagRECT@@H@Z 00424ce9 f   ConEmuApp.obj
 0001:00023d59       ?MsgBox@@YAHPB_WI0PAUHWND__@@_N@Z 00424d59 f   ConEmuApp.obj
 0001:00023e64       ?MyGetDlgItemText@@YAIPAUHWND__@@GAAUCEStr@@@Z 00424e64 f   ConEmuApp.obj
 0001:00023ee4       ?PatchMsgBoxIcon@@YAXPAUHWND__@@IIJ@Z 00424ee4 f   ConEmuApp.obj
 0001:00023fa0       ?ProcessCmdArg@@YAHPB_W_N1AAUCEStr@@AA_N@Z 00424fa0 f   ConEmuApp.obj
 0001:0002414d       ?ProcessMessage@@YA_NAAUtagMSG@@@Z 0042514d f   ConEmuApp.obj
 0001:00024281       ?PtMouseDblClickTest@@YA_NABUtagMSG@@U1@@Z 00425281 f   ConEmuApp.obj
 0001:0002437e       ?RaiseTestException@@YAXXZ 0042537e f   ConEmuApp.obj
 0001:00024384       ?ResetEnvironmentVariables@@YAXXZ 00425384 f   ConEmuApp.obj
 0001:0002439f       ?SelectFile@@YA?AUCEStr@@PB_W00PAUHWND__@@0KPAVCRealConsole@@@Z 0042539f f   ConEmuApp.obj
 0001:000245e5       ?SelectFolder@@YA?AUCEStr@@PB_W0PAUHWND__@@KPAVCRealConsole@@@Z 004255e5 f   ConEmuApp.obj
 0001:00024802       ?ShutdownGuiStep@@YAXPB_WHHHH@Z 00425802 f   ConEmuApp.obj
 0001:000248a0       ?SkipOneShowWindow@@YAXXZ  004258a0 f   ConEmuApp.obj
 0001:00024ae5       ?SkipShowWindowProc@@YGJPAUHWND__@@IIJ@Z 00425ae5 f   ConEmuApp.obj
 0001:00024b6e       ?UpdateAppUserModelID@@YAJXZ 00425b6e f   ConEmuApp.obj
 0001:00024ea0       ?UpdateWin7TaskList@@YA_N_N0@Z 00425ea0 f   ConEmuApp.obj
 0001:00025556       ?WarnCreateWindowFail@@YAXPB_WPAUHWND__@@K@Z 00426556 f   ConEmuApp.obj
 0001:00025702       ?_CreateSeparatorLink@@YAJPAPAUIShellLinkW@@@Z 00426702 f   ConEmuApp.obj
 0001:00025ed1       ?getFocusedExplorerWindowPath@@YA?AUCEStr@@XZ 00426ed1 f   ConEmuApp.obj
 0001:000261ca       ?getForegroundWindow@@YAPAUHWND__@@XZ 004271ca f   ConEmuApp.obj
 0001:00026208       ?isCharAltFont@@YA_NH@Z    00427208 f   ConEmuApp.obj
 0001:0002621b       _WinMain@16                0042721b f   ConEmuApp.obj
 0001:0002715c       ??0CConEmuCtrl@@QAE@XZ     0042815c f   ConEmuCtrl.obj
 0001:00027195       ??1CConEmuCtrl@@UAE@XZ     00428195 f   ConEmuCtrl.obj
 0001:0002719c       ??_GCConEmuCtrl@@UAEPAXI@Z 0042819c f i ConEmuCtrl.obj
 0001:0002719c       ??_ECConEmuCtrl@@UAEPAXI@Z 0042819c f i ConEmuCtrl.obj
 0001:000271bf       ?ChooseTabFromMenu@CConEmuCtrl@@SAXHUtagPOINT@@K@Z 004281bf f   ConEmuCtrl.obj
 0001:000272c2       ?ChordFromVk@CConEmuCtrl@@QAE?AUConEmuChord@@K@Z 004282c2 f   ConEmuCtrl.obj
 0001:00027352       ?DoEndFindText@CConEmuCtrl@@SAXPAVCRealConsole@@@Z 00428352 f   ConEmuCtrl.obj
 0001:000273a2       ?DoFindText@CConEmuCtrl@@SAXHPAVCRealConsole@@@Z 004283a2 f   ConEmuCtrl.obj
 0001:000273f5       ?FixSingleModifier@CConEmuCtrl@@QAEXKPAVCRealConsole@@@Z 004283f5 f   ConEmuCtrl.obj
 0001:0002744a       ?GetControlKeyState@CConEmuCtrl@@QAEKJ@Z 0042844a f   ConEmuCtrl.obj
 0001:0002745f       ?GetOpenedPanels@CConEmuCtrl@@SAIAAPA_WAAH1@Z 0042845f f   ConEmuCtrl.obj
 0001:00027625       ?GetOpenedTabs@CConEmuCtrl@@SAIAAPAUTabInfo@CESERVER_REQ_GETALLTABS@@@Z 00428625 f   ConEmuCtrl.obj
 0001:00027873       ?MakeScreenshot@CConEmuCtrl@@SAX_N@Z 00428873 f   ConEmuCtrl.obj
 0001:00027a0c       ?ProcessHotKey@CConEmuCtrl@@QAEPBUConEmuHotKey@@ABUConEmuChord@@_NPB_WPAVCRealConsole@@@Z 00428a0c f   ConEmuCtrl.obj
 0001:00027b85       ?ProcessHotKeyMsg@CConEmuCtrl@@QAE_NIIJPB_WPAVCRealConsole@@@Z 00428b85 f   ConEmuCtrl.obj
 0001:00027ed9       ?SkipOneAppsRelease@CConEmuCtrl@@QAEX_N@Z 00428ed9 f   ConEmuCtrl.obj
 0001:00027f3d       ?SkipOneAppsReleaseHook@CConEmuCtrl@@CGJHIJ@Z 00428f3d f   ConEmuCtrl.obj
 0001:00027f82       ?StatusCommand@CConEmuCtrl@@SAXW4ConEmuStatusCommand@@HPB_WPAVCRealConsole@@@Z 00428f82 f   ConEmuCtrl.obj
 0001:0002808c       ?TabCommand@CConEmuCtrl@@SAXW4ConEmuTabCommand@@@Z 0042908c f   ConEmuCtrl.obj
 0001:00028151       ?UpdateControlKeyState@CConEmuCtrl@@QAEXXZ 00429151 f   ConEmuCtrl.obj
 0001:0002825f       ?key_AlternativeBuffer@CConEmuCtrl@@SG_NABUConEmuChord@@_NPBUConEmuHotKey@@PAVCRealConsole@@@Z 0042925f f   ConEmuCtrl.obj
 0001:00028279       ?key_AlwaysOnTop@CConEmuCtrl@@SG_NABUConEmuChord@@_NPBUConEmuHotKey@@PAVCRealConsole@@@Z 00429279 f   ConEmuCtrl.obj
 0001:000282af       ?key_BufferScroll@CConEmuCtrl@@SG_N_NEPAVCRealConsole@@@Z 004292af f   ConEmuCtrl.obj
 0001:00028324       ?key_BufferScrollDown@CConEmuCtrl@@SG_NABUConEmuChord@@_NPBUConEmuHotKey@@PAVCRealConsole@@@Z 00429324 f   ConEmuCtrl.obj
 0001:00028342       ?key_BufferScrollPgDn@CConEmuCtrl@@SG_NABUConEmuChord@@_NPBUConEmuHotKey@@PAVCRealConsole@@@Z 00429342 f   ConEmuCtrl.obj
 0001:00028360       ?key_BufferScrollPgUp@CConEmuCtrl@@SG_NABUConEmuChord@@_NPBUConEmuHotKey@@PAVCRealConsole@@@Z 00429360 f   ConEmuCtrl.obj
 0001:0002837e       ?key_BufferScrollUp@CConEmuCtrl@@SG_NABUConEmuChord@@_NPBUConEmuHotKey@@PAVCRealConsole@@@Z 0042937e f   ConEmuCtrl.obj
 0001:0002839c       ?key_CTSVkBlockStart@CConEmuCtrl@@SG_NABUConEmuChord@@_NPBUConEmuHotKey@@PAVCRealConsole@@@Z 0042939c f   ConEmuCtrl.obj
 0001:000283c4       ?key_CTSVkTextStart@CConEmuCtrl@@SG_NABUConEmuChord@@_NPBUConEmuHotKey@@PAVCRealConsole@@@Z 004293c4 f   ConEmuCtrl.obj
 0001:000283ed       ?key_ChildSystemMenu@CConEmuCtrl@@SG_NABUConEmuChord@@_NPBUConEmuHotKey@@PAVCRealConsole@@@Z 004293ed f   ConEmuCtrl.obj
 0001:00028441       ?key_ConsoleNum@CConEmuCtrl@@SG_NABUConEmuChord@@_NPBUConEmuHotKey@@PAVCRealConsole@@@Z 00429441 f   ConEmuCtrl.obj
 0001:000284f5       ?key_CtrlTab@CConEmuCtrl@@SG_NABUConEmuChord@@_NPBUConEmuHotKey@@PAVCRealConsole@@@Z 004294f5 f   ConEmuCtrl.obj
 0001:000284f5       ?key_CtrlShiftTab@CConEmuCtrl@@SG_NABUConEmuChord@@_NPBUConEmuHotKey@@PAVCRealConsole@@@Z 004294f5 f   ConEmuCtrl.obj
 0001:00028558       ?key_CtrlTab_Next@CConEmuCtrl@@SG_NABUConEmuChord@@_NPBUConEmuHotKey@@PAVCRealConsole@@@Z 00429558 f   ConEmuCtrl.obj
 0001:00028558       ?key_CtrlTab_Prev@CConEmuCtrl@@SG_NABUConEmuChord@@_NPBUConEmuHotKey@@PAVCRealConsole@@@Z 00429558 f   ConEmuCtrl.obj
 0001:000285b1       ?key_DeleteWordToLeft@CConEmuCtrl@@SG_NABUConEmuChord@@_NPBUConEmuHotKey@@PAVCRealConsole@@@Z 004295b1 f   ConEmuCtrl.obj
 0001:000285e9       ?key_DuplicateRoot@CConEmuCtrl@@SG_NABUConEmuChord@@_NPBUConEmuHotKey@@PAVCRealConsole@@@Z 004295e9 f   ConEmuCtrl.obj
 0001:0002860f       ?key_EditMenu@CConEmuCtrl@@SG_NABUConEmuChord@@_NPBUConEmuHotKey@@PAVCRealConsole@@@Z 0042960f f   ConEmuCtrl.obj
 0001:000286c5       ?key_FindTextDlg@CConEmuCtrl@@SG_NABUConEmuChord@@_NPBUConEmuHotKey@@PAVCRealConsole@@@Z 004296c5 f   ConEmuCtrl.obj
 0001:00028709       ?key_ForcedFullScreen@CConEmuCtrl@@SG_NABUConEmuChord@@_NPBUConEmuHotKey@@PAVCRealConsole@@@Z 00429709 f   ConEmuCtrl.obj
 0001:0002872b       ?key_GlobalRestore@CConEmuCtrl@@SG_NABUConEmuChord@@_NPBUConEmuHotKey@@PAVCRealConsole@@@Z 0042972b f   ConEmuCtrl.obj
 0001:0002874d       ?key_GuiMacro@CConEmuCtrl@@SG_NABUConEmuChord@@_NPBUConEmuHotKey@@PAVCRealConsole@@@Z 0042974d f   ConEmuCtrl.obj
 0001:000287c2       ?key_InsideSetFocusParent@CConEmuCtrl@@SG_NABUConEmuChord@@_NPBUConEmuHotKey@@PAVCRealConsole@@@Z 004297c2 f   ConEmuCtrl.obj
 0001:000287eb       ?key_MinimizeByEsc@CConEmuCtrl@@SG_NABUConEmuChord@@_NPBUConEmuHotKey@@PAVCRealConsole@@@Z 004297eb f   ConEmuCtrl.obj
 0001:00028853       ?key_MinimizeRestore@CConEmuCtrl@@SG_NABUConEmuChord@@_NPBUConEmuHotKey@@PAVCRealConsole@@@Z 00429853 f   ConEmuCtrl.obj
 0001:00028875       ?key_MoveTabLeft@CConEmuCtrl@@SG_NABUConEmuChord@@_NPBUConEmuHotKey@@PAVCRealConsole@@@Z 00429875 f   ConEmuCtrl.obj
 0001:000288a2       ?key_MoveTabRight@CConEmuCtrl@@SG_NABUConEmuChord@@_NPBUConEmuHotKey@@PAVCRealConsole@@@Z 004298a2 f   ConEmuCtrl.obj
 0001:000288cf       ?key_MultiBuffer@CConEmuCtrl@@SG_NABUConEmuChord@@_NPBUConEmuHotKey@@PAVCRealConsole@@@Z 004298cf f   ConEmuCtrl.obj
 0001:000288e9       ?key_MultiCmd@CConEmuCtrl@@SG_NABUConEmuChord@@_NPBUConEmuHotKey@@PAVCRealConsole@@@Z 004298e9 f   ConEmuCtrl.obj
 0001:0002896b       ?key_MultiNewAttach@CConEmuCtrl@@SG_NABUConEmuChord@@_NPBUConEmuHotKey@@PAVCRealConsole@@@Z 0042996b f   ConEmuCtrl.obj
 0001:0002899a       ?key_MultiNewPopupMenu2@CConEmuCtrl@@SG_NABUConEmuChord@@_NPBUConEmuHotKey@@PAVCRealConsole@@@Z 0042999a f   ConEmuCtrl.obj
 0001:000289c0       ?key_MultiNewPopupMenu@CConEmuCtrl@@SG_NABUConEmuChord@@_NPBUConEmuHotKey@@PAVCRealConsole@@@Z 004299c0 f   ConEmuCtrl.obj
 0001:000289e5       ?key_MultiNext@CConEmuCtrl@@SG_NABUConEmuChord@@_NPBUConEmuHotKey@@PAVCRealConsole@@@Z 004299e5 f   ConEmuCtrl.obj
 0001:00028a01       ?key_MultiPrev@CConEmuCtrl@@SG_NABUConEmuChord@@_NPBUConEmuHotKey@@PAVCRealConsole@@@Z 00429a01 f   ConEmuCtrl.obj
 0001:00028a1d       ?key_MultiRecreate@CConEmuCtrl@@SG_NABUConEmuChord@@_NPBUConEmuHotKey@@PAVCRealConsole@@@Z 00429a1d f   ConEmuCtrl.obj
 0001:00028a3d       ?key_PasteFirstLine@CConEmuCtrl@@SG_NABUConEmuChord@@_NPBUConEmuHotKey@@PAVCRealConsole@@@Z 00429a3d f   ConEmuCtrl.obj
 0001:00028ad8       ?key_PasteText@CConEmuCtrl@@SG_NABUConEmuChord@@_NPBUConEmuHotKey@@PAVCRealConsole@@@Z 00429ad8 f   ConEmuCtrl.obj
 0001:00028b73       ?key_RenameTab@CConEmuCtrl@@SG_NABUConEmuChord@@_NPBUConEmuHotKey@@PAVCRealConsole@@@Z 00429b73 f   ConEmuCtrl.obj
 0001:00028b8e       ?key_ResetTerminal@CConEmuCtrl@@SG_NABUConEmuChord@@_NPBUConEmuHotKey@@PAVCRealConsole@@@Z 00429b8e f   ConEmuCtrl.obj
 0001:00028ca8       ?key_RunTask@CConEmuCtrl@@SG_NABUConEmuChord@@_NPBUConEmuHotKey@@PAVCRealConsole@@@Z 00429ca8 f   ConEmuCtrl.obj
 0001:00028d53       ?key_Screenshot@CConEmuCtrl@@SG_NABUConEmuChord@@_NPBUConEmuHotKey@@PAVCRealConsole@@@Z 00429d53 f   ConEmuCtrl.obj
 0001:00028d6a       ?key_ScreenshotFull@CConEmuCtrl@@SG_NABUConEmuChord@@_NPBUConEmuHotKey@@PAVCRealConsole@@@Z 00429d6a f   ConEmuCtrl.obj
 0001:00028d81       ?key_ShowCaption@CConEmuCtrl@@SG_NABUConEmuChord@@_NPBUConEmuHotKey@@PAVCRealConsole@@@Z 00429d81 f   ConEmuCtrl.obj
 0001:00028df4       ?key_ShowRealConsole@CConEmuCtrl@@SG_NABUConEmuChord@@_NPBUConEmuHotKey@@PAVCRealConsole@@@Z 00429df4 f   ConEmuCtrl.obj
 0001:00028e13       ?key_ShowStatusBar@CConEmuCtrl@@SG_NABUConEmuChord@@_NPBUConEmuHotKey@@PAVCRealConsole@@@Z 00429e13 f   ConEmuCtrl.obj
 0001:00028e30       ?key_ShowTabBar@CConEmuCtrl@@SG_NABUConEmuChord@@_NPBUConEmuHotKey@@PAVCRealConsole@@@Z 00429e30 f   ConEmuCtrl.obj
 0001:00028e47       ?key_ShowTabsList@CConEmuCtrl@@SG_NABUConEmuChord@@_NPBUConEmuHotKey@@PAVCRealConsole@@@Z 00429e47 f   ConEmuCtrl.obj
 0001:00028ef3       ?key_SystemMenu@CConEmuCtrl@@SG_NABUConEmuChord@@_NPBUConEmuHotKey@@PAVCRealConsole@@@Z 00429ef3 f   ConEmuCtrl.obj
 0001:00028f5f       ?key_TabMenu@CConEmuCtrl@@SG_NABUConEmuChord@@_NPBUConEmuHotKey@@PAVCRealConsole@@@Z 00429f5f f   ConEmuCtrl.obj
 0001:00029017       ?key_WinDragStart@CConEmuCtrl@@SG_NABUConEmuChord@@_NPBUConEmuHotKey@@PAVCRealConsole@@@Z 0042a017 f   ConEmuCtrl.obj
 0001:0002901c       ?key_WinHeightDec@CConEmuCtrl@@SG_NABUConEmuChord@@_NPBUConEmuHotKey@@PAVCRealConsole@@@Z 0042a01c f   ConEmuCtrl.obj
 0001:00029034       ?key_WinHeightInc@CConEmuCtrl@@SG_NABUConEmuChord@@_NPBUConEmuHotKey@@PAVCRealConsole@@@Z 0042a034 f   ConEmuCtrl.obj
 0001:0002904c       ?key_WinSize@CConEmuCtrl@@SG_NE@Z 0042a04c f   ConEmuCtrl.obj
 0001:0002918f       ?key_WinWidthDec@CConEmuCtrl@@SG_NABUConEmuChord@@_NPBUConEmuHotKey@@PAVCRealConsole@@@Z 0042a18f f   ConEmuCtrl.obj
 0001:000291a7       ?key_WinWidthInc@CConEmuCtrl@@SG_NABUConEmuChord@@_NPBUConEmuHotKey@@PAVCRealConsole@@@Z 0042a1a7 f   ConEmuCtrl.obj
 0001:000291bf       ??0CConEmuPipe@@QAE@KK@Z   0042a1bf f   ConEmuPipe.obj
 0001:00029213       ??1CConEmuPipe@@QAE@XZ     0042a213 f   ConEmuPipe.obj
 0001:0002924c       ?Close@CConEmuPipe@@QAEXXZ 0042a24c f   ConEmuPipe.obj
 0001:0002929e       ?Execute@CConEmuPipe@@QAEHHPBXI@Z 0042a29e f   ConEmuPipe.obj
 0001:000295c0       ?GetPtr@CConEmuPipe@@QAEPAEPAK@Z 0042a5c0 f   ConEmuPipe.obj
 0001:000295f7       ?Init@CConEmuPipe@@QAEHPB_WH@Z 0042a5f7 f   ConEmuPipe.obj
 0001:0002968e       ?Read@CConEmuPipe@@QAEHPAXKPAK@Z 0042a68e f   ConEmuPipe.obj
 0001:0002970b       ??$_Destroy_range@V?$MArrayAllocator@UMonitorInfoCache@CConEmuSize@@@@@std@@YAXPAUMonitorInfoCache@CConEmuSize@@QAU12@AAV?$MArrayAllocator@UMonitorInfoCache@CConEmuSize@@@@@Z 0042a70b f i ConEmuSize.obj
 0001:0002972b       ??$_Emplace_reallocate@ABUMonitorInfoCache@CConEmuSize@@@?$vector@UMonitorInfoCache@CConEmuSize@@V?$MArrayAllocator@UMonitorInfoCache@CConEmuSize@@@@@std@@QAEPAUMonitorInfoCache@CConEmuSize@@QAU23@ABU23@@Z 0042a72b f i ConEmuSize.obj
 0001:000297e0       ??$_Uninitialized_move@PAUMonitorInfoCache@CConEmuSize@@V?$MArrayAllocator@UMonitorInfoCache@CConEmuSize@@@@@std@@YAPAUMonitorInfoCache@CConEmuSize@@QAU12@0PAU12@AAV?$MArrayAllocator@UMonitorInfoCache@CConEmuSize@@@@@Z 0042a7e0 f i ConEmuSize.obj
 0001:0002981c       ??$emplace_back@ABUMonitorInfoCache@CConEmuSize@@@?$vector@UMonitorInfoCache@CConEmuSize@@V?$MArrayAllocator@UMonitorInfoCache@CConEmuSize@@@@@std@@QAE?A_TABUMonitorInfoCache@CConEmuSize@@@Z 0042a81c f i ConEmuSize.obj
 0001:0002984d       ??$swprintf_c@$0BBI@@@YAHAAY0BBI@_WPB_WZZ 0042a84d f i ConEmuSize.obj
 0001:00029866       ??$swprintf_c@$0CI@@@YAHAAY0CI@_WPB_WZZ 0042a866 f i ConEmuSize.obj
 0001:0002987c       ??$swprintf_c@$0NM@@@YAHAAY0NM@_WPB_WZZ 0042a87c f i ConEmuSize.obj
 0001:00029895       ??0CConEmuSize@@QAE@XZ     0042a895 f   ConEmuSize.obj
 0001:00029a3f       ??1?$MArray@UMonitorInfoCache@CConEmuSize@@@@QAE@XZ 0042aa3f f i ConEmuSize.obj
 0001:00029a44       ??1CConEmuSize@@UAE@XZ     0042aa44 f   ConEmuSize.obj
 0001:00029a6b       ??1MonitorInfoCache@CConEmuSize@@QAE@XZ 0042aa6b f i ConEmuSize.obj
 0001:00029a73       ??1NestedCallCounter@@QAE@XZ 0042aa73 f i ConEmuSize.obj
 0001:00029a7c       ??1ThickFrameDisabler@CConEmuSize@@QAE@XZ 0042aa7c f   ConEmuSize.obj
 0001:00029af4       ??_GCConEmuSize@@UAEPAXI@Z 0042aaf4 f i ConEmuSize.obj
 0001:00029af4       ??_ECConEmuSize@@UAEPAXI@Z 0042aaf4 f i ConEmuSize.obj
 0001:00029b19       ??_GMonitorInfoCache@CConEmuSize@@QAEPAXI@Z 0042ab19 f i ConEmuSize.obj
 0001:00029b41       ?AddMargins@CConEmuSize@@SAXAAUtagRECT@@ABU2@W4RectOperations@@@Z 0042ab41 f   ConEmuSize.obj
 0001:00029c23       ?AnimateWindow@CConEmuSize@@IAEHKK@Z 0042ac23 f   ConEmuSize.obj
 0001:00029d51       ?AutoSizeFont@CConEmuSize@@QAEXUtagRECT@@W4ConEmuRect@@@Z 0042ad51 f   ConEmuSize.obj
 0001:00029e8f       ?BeginSizing@CConEmuSize@@QAEXXZ 0042ae8f f   ConEmuSize.obj
 0001:00029ed7       ?CalcMargins@CConEmuSize@@QAE?AUtagRECT@@KW4ConEmuWindowMode@@@Z 0042aed7 f   ConEmuSize.obj
 0001:0002a04e       ?CalcMargins_FrameCaption@CConEmuSize@@IBE?AUtagRECT@@KW4ConEmuWindowMode@@@Z 0042b04e f   ConEmuSize.obj
 0001:0002a2a0       ?CalcMargins_InvisibleFrame@CConEmuSize@@IBE?AUtagRECT@@XZ 0042b2a0 f   ConEmuSize.obj
 0001:0002a304       ?CalcMargins_Padding@CConEmuSize@@KA?AUtagRECT@@XZ 0042b304 f   ConEmuSize.obj
 0001:0002a338       ?CalcMargins_Scrolling@CConEmuSize@@KA?AUtagRECT@@XZ 0042b338 f   ConEmuSize.obj
 0001:0002a368       ?CalcMargins_StatusBar@CConEmuSize@@KA?AUtagRECT@@XZ 0042b368 f   ConEmuSize.obj
 0001:0002a395       ?CalcMargins_TabBar@CConEmuSize@@IBE?AUtagRECT@@K@Z 0042b395 f   ConEmuSize.obj
 0001:0002a446       ?CalcMargins_VisibleFrame@CConEmuSize@@IBE?AUtagRECT@@PAU2@@Z 0042b446 f   ConEmuSize.obj
 0001:0002a548       ?CalcMargins_Win10Frame@CConEmuSize@@IBE?AUtagRECT@@XZ 0042b548 f   ConEmuSize.obj
 0001:0002a5b0       ?CalcRect@CConEmuSize@@QAE?AUtagRECT@@W4ConEmuRect@@ABU2@0PAVCVirtualConsole@@W4ConEmuMargins@@@Z 0042b5b0 f   ConEmuSize.obj
 0001:0002ab50       ?CalcRect@CConEmuSize@@QAE?AUtagRECT@@W4ConEmuRect@@PAVCVirtualConsole@@@Z 0042bb50 f   ConEmuSize.obj
 0001:0002ad43       ?CascadedPosFix@CConEmuSize@@QAEXXZ 0042bd43 f   ConEmuSize.obj
 0001:0002afc9       ?ChangeTileMode@CConEmuSize@@QAE_NW4ConEmuWindowCommand@@@Z 0042bfc9 f   ConEmuSize.obj
 0001:0002b3f9       ?CheckDpiOnMoving@CConEmuSize@@IAE_NPAUtagWINDOWPOS@@@Z 0042c3f9 f   ConEmuSize.obj
 0001:0002b56e       ?CheckQuakeRect@CConEmuSize@@IAE_NPAUtagRECT@@@Z 0042c56e f   ConEmuSize.obj
 0001:0002b75a       ?CheckTopMostState@CConEmuSize@@QAEXXZ 0042c75a f   ConEmuSize.obj
 0001:0002b875       ?CreateWindowRgn@CConEmuSize@@QAEPAUHRGN__@@XZ 0042c875 f   ConEmuSize.obj
 0001:0002bc35       ?CreateWindowRgn@CConEmuSize@@QAEPAUHRGN__@@_NHHHH@Z 0042cc35 f   ConEmuSize.obj
 0001:0002bf11       ?Disable@ThickFrameDisabler@CConEmuSize@@QAEXXZ 0042cf11 f   ConEmuSize.obj
 0001:0002bf25       ?DisableThickFrame@CConEmuSize@@QAEX_N@Z 0042cf25 f   ConEmuSize.obj
 0001:0002bf5a       ?DoAlwaysOnTopSwitch@CConEmuSize@@QAEXXZ 0042cf5a f   ConEmuSize.obj
 0001:0002c002       ?DoBringHere@CConEmuSize@@QAEXXZ 0042d002 f   ConEmuSize.obj
 0001:0002c0d4       ?DoDesktopModeSwitch@CConEmuSize@@QAEXXZ 0042d0d4 f   ConEmuSize.obj
 0001:0002c18d       ?DoForcedFullScreen@CConEmuSize@@QAEX_N@Z 0042d18d f   ConEmuSize.obj
 0001:0002c324       ?DoFullScreen@CConEmuSize@@QAEXXZ 0042d324 f   ConEmuSize.obj
 0001:0002c390       ?DoMaximizeRestore@CConEmuSize@@QAEXXZ 0042d390 f   ConEmuSize.obj
 0001:0002c3c8       ?DoMinimizeRestore@CConEmuSize@@QAEXW4SingleInstanceShowHideType@@@Z 0042d3c8 f   ConEmuSize.obj
 0001:0002d010       ?Enable@ThickFrameDisabler@CConEmuSize@@QAEXXZ 0042e010 f   ConEmuSize.obj
 0001:0002d024       ?EndSizing@CConEmuSize@@QAEXI@Z 0042e024 f   ConEmuSize.obj
 0001:0002d13f       ?EvalNewNormalPos@CConEmuSize@@IAEXABUMonitorInfo@@0UtagRECT@@AAU3@@Z 0042e13f f   ConEmuSize.obj
 0001:0002d396       ?EvalTileMode@CConEmuSize@@QAE?AW4ConEmuWindowCommand@@ABUtagRECT@@PAUtagMONITORINFO@@@Z 0042e396 f   ConEmuSize.obj
 0001:0002d57f       ?EvalVConCreateSize@CConEmuSize@@QAEXPAVCVirtualConsole@@AAI1@Z 0042e57f f   ConEmuSize.obj
 0001:0002d5eb       ?FindInitialMonitor@CConEmuSize@@AAEPAUHMONITOR__@@PAUtagMONITORINFO@@@Z 0042e5eb f   ConEmuSize.obj
 0001:0002d6dc       ?FindNextSiblingApp@CConEmuSize@@QAEPAUHWND__@@_N@Z 0042e6dc f   ConEmuSize.obj
 0001:0002d79c       ?FixPosByStartupMonitor@CConEmuSize@@IAE_NQAUHMONITOR__@@@Z 0042e79c f   ConEmuSize.obj
 0001:0002dada       ?FixWindowRect@CConEmuSize@@IAE_NAAUtagRECT@@K_N@Z 0042eada f   ConEmuSize.obj
 0001:0002dfce       ?FormatTileMode@CConEmuSize@@SAPB_WW4ConEmuWindowCommand@@PA_WI@Z 0042efce f   ConEmuSize.obj
 0001:0002e02d       ?GetDefaultRect@CConEmuSize@@QAE?AUtagRECT@@XZ 0042f02d f   ConEmuSize.obj
 0001:0002e2b7       ?GetDefaultSize@CConEmuSize@@QAE?AUtagSIZE@@_NPBTCESize@@1PAUHMONITOR__@@@Z 0042f2b7 f   ConEmuSize.obj
 0001:0002e852       ?GetIdealRect@CConEmuSize@@QAE?AUtagRECT@@XZ 0042f852 f   ConEmuSize.obj
 0001:0002e928       ?GetInitialDpi@CConEmuSize@@QAE?AUDpiValue@@XZ 0042f928 f   ConEmuSize.obj
 0001:0002e976       ?GetNearestMonitor@CConEmuSize@@QAE?AUMonitorInfo@@PBUtagRECT@@@Z 0042f976 f   ConEmuSize.obj
 0001:0002ead2       ?GetSelfFrameWidth@CConEmuSize@@QBEIXZ 0042fad2 f   ConEmuSize.obj
 0001:0002eb8e       ?GetTileMode@CConEmuSize@@QAE?AW4ConEmuWindowCommand@@_NPAUtagMONITORINFO@@@Z 0042fb8e f   ConEmuSize.obj
 0001:0002ecd5       ?GetTileRect@CConEmuSize@@QBE?AUtagRECT@@W4ConEmuWindowCommand@@ABUtagMONITORINFO@@@Z 0042fcd5 f   ConEmuSize.obj
 0001:0002ee4a       ?GetWindowMode@CConEmuSize@@QBE?AW4ConEmuWindowMode@@XZ 0042fe4a f   ConEmuSize.obj
 0001:0002ee66       ?InMinimizing@CConEmuSize@@QAE_NPAUtagWINDOWPOS@@@Z 0042fe66 f   ConEmuSize.obj
 0001:0002eed0       ?IsSizeFree@CConEmuSize@@QBE_NW4ConEmuWindowMode@@@Z 0042fed0 f   ConEmuSize.obj
 0001:0002ef27       ?IsSizePosFree@CConEmuSize@@QBE_NW4ConEmuWindowMode@@@Z 0042ff27 f   ConEmuSize.obj
 0001:0002ef69       ?IsWindowModeChanging@CConEmuSize@@QBE_NXZ 0042ff69 f   ConEmuSize.obj
 0001:0002ef88       ?JumpNextMonitor@CConEmuSize@@QAE_NPAUHWND__@@PAUHMONITOR__@@_NUtagRECT@@PAU4@@Z 0042ff88 f   ConEmuSize.obj
 0001:0002f45a       ?JumpNextMonitor@CConEmuSize@@QAE_N_N@Z 0043045a f   ConEmuSize.obj
 0001:0002f5ae       ?LogMinimizeRestoreSkip@CConEmuSize@@QAEXPB_WKKK@Z 004305ae f   ConEmuSize.obj
 0001:0002f5f8       ?LogTileModeChange@CConEmuSize@@IAEXPB_WW4ConEmuWindowCommand@@_NABUtagRECT@@PAU3@PAUHMONITOR__@@@Z 004305f8 f   ConEmuSize.obj
 0001:0002f7a3       ?NearestMonitorInfo@CConEmuSize@@QBE?AUMonitorInfoCache@1@ABUtagRECT@@@Z 004307a3 f   ConEmuSize.obj
 0001:0002f7c8       ?NearestMonitorInfo@CConEmuSize@@QBE?AUMonitorInfoCache@1@PAUHMONITOR__@@@Z 004307c8 f   ConEmuSize.obj
 0001:0002f88c       ?OnConsoleResize@CConEmuSize@@QAEXXZ 0043088c f   ConEmuSize.obj
 0001:0002fa04       ?OnDisplayChanged@CConEmuSize@@QAEJIII@Z 00430a04 f   ConEmuSize.obj
 0001:0002fa5f       ?OnDpiChanged@CConEmuSize@@QAEJIIPAUtagRECT@@_NW4DpiChangeSource@@@Z 00430a5f f   ConEmuSize.obj
 0001:0002febf       ?OnDpiChangedCall@CConEmuSize@@KAJJ@Z 00430ebf f   ConEmuSize.obj
 0001:0002fee8       ?OnGetMinMaxInfo@CConEmuSize@@QAEJPAUtagMINMAXINFO@@@Z 00430ee8 f   ConEmuSize.obj
 0001:00030376       ?OnMoving@CConEmuSize@@QAEJPAUtagRECT@@_N@Z 00431376 f   ConEmuSize.obj
 0001:0003085c       ?OnSize@CConEmuSize@@QAEJ_NI@Z 0043185c f   ConEmuSize.obj
 0001:00030a02       ?OnSizePanels@CConEmuSize@@QAEXU_COORD@@@Z 00431a02 f   ConEmuSize.obj
 0001:00030db5       ?OnSizing@CConEmuSize@@QAEJIJ@Z 00431db5 f   ConEmuSize.obj
 0001:00031081       ?OnWindowPosChanged@CConEmuSize@@QAEJPAUHWND__@@IIJ@Z 00432081 f   ConEmuSize.obj
 0001:000314f3       ?OnWindowPosChanging@CConEmuSize@@QAEJPAUHWND__@@IIJ@Z 004324f3 f   ConEmuSize.obj
 0001:00031ac7       ?ProcessMinRestoreHotkey@CConEmuSize@@QAEXHK@Z 00432ac7 f   ConEmuSize.obj
 0001:00031b0d       ?ReSize@CConEmuSize@@QAEX_N@Z 00432b0d f   ConEmuSize.obj
 0001:00031c56       ?RealPosFromVisual@CConEmuSize@@IAE?AUtagPOINT@@HH@Z 00432c56 f   ConEmuSize.obj
 0001:00031c88       ?RecreateControls@CConEmuSize@@QAEX_N00PAUtagRECT@@@Z 00432c88 f   ConEmuSize.obj
 0001:00031d3a       ?ReloadMonitorInfo@CConEmuSize@@QAEXXZ 00432d3a f   ConEmuSize.obj
 0001:0003269a       ?Restore@QuakePrevSize@CConEmuSize@@QAE?AW4ConEmuWindowMode@@AATCESize@@0AAJ1AAEAAUtagRECT@@AA_N@Z 0043369a f   ConEmuSize.obj
 0001:000326ea       ?Save@QuakePrevSize@CConEmuSize@@QAEXABTCESize@@0ABJ1ABEABW4ConEmuWindowMode@@ABUtagRECT@@AB_N@Z 004336ea f   ConEmuSize.obj
 0001:00032743       ?SetFromString@CESize@@QAE_N_NPB_W@Z 00433743 f i ConEmuSize.obj
 0001:000327a9       ?SetIgnoreQuakeActivation@CConEmuSize@@QAEX_N@Z 004337a9 f   ConEmuSize.obj
 0001:000327d1       ?SetNormalWindowSize@CConEmuSize@@IAE?AUtagRECT@@XZ 004337d1 f   ConEmuSize.obj
 0001:0003286c       ?SetQuakeMode@CConEmuSize@@QAE_NEW4ConEmuWindowMode@@_N@Z 0043386c f   ConEmuSize.obj
 0001:00032a96       ?SetRequestedMonitor@CConEmuSize@@QAEXPAUHMONITOR__@@@Z 00433a96 f   ConEmuSize.obj
 0001:00032c4c       ?SetTileMode@CConEmuSize@@IAEXW4ConEmuWindowCommand@@@Z 00433c4c f   ConEmuSize.obj
 0001:00032cd3       ?SetWindowMode@CConEmuSize@@QAE_NW4ConEmuWindowMode@@_N1@Z 00433cd3 f   ConEmuSize.obj
 0001:00033a4e       ?SetWindowPosSize@CConEmuSize@@QAE_NPB_W000@Z 00434a4e f   ConEmuSize.obj
 0001:00033d38       ?SetWindowPosSizeParam@CConEmuSize@@QAEX_WPB_W@Z 00434d38 f   ConEmuSize.obj
 0001:00033e26       ?ShowMainWindow@CConEmuSize@@QAE_NH_N@Z 00434e26 f   ConEmuSize.obj
 0001:0003406e       ?SizeWindow@CConEmuSize@@QAE_NTCESize@@0@Z 0043506e f   ConEmuSize.obj
 0001:0003414b       ?StartForceShowFrame@CConEmuSize@@QAEXXZ 0043514b f   ConEmuSize.obj
 0001:0003419a       ?StopForceShowFrame@CConEmuSize@@QAEXXZ 0043519a f   ConEmuSize.obj
 0001:000341e5       ?StoreNormalRect@CConEmuSize@@IAEXPBUtagRECT@@@Z 004351e5 f   ConEmuSize.obj
 0001:0003475d       ?StorePreMinimizeMonitor@CConEmuSize@@QAEXXZ 0043575d f   ConEmuSize.obj
 0001:00034781       ?UpdateInsideRect@CConEmuSize@@QAEXUtagRECT@@@Z 00435781 f   ConEmuSize.obj
 0001:000347a5       ?UpdateWindowRgn@CConEmuSize@@QAEXXZ 004357a5 f   ConEmuSize.obj
 0001:000348fb       ?VisualPosFromReal@CConEmuSize@@IAE?AUtagPOINT@@HH@Z 004358fb f   ConEmuSize.obj
 0001:0003492d       ?_Calculate_growth@?$vector@UMonitorInfoCache@CConEmuSize@@V?$MArrayAllocator@UMonitorInfoCache@CConEmuSize@@@@@std@@ABEII@Z 0043592d f i ConEmuSize.obj
 0001:0003492d       ?_Calculate_growth@?$vector@UConEmuHotKey@@V?$MArrayAllocator@UConEmuHotKey@@@@@std@@ABEII@Z 0043592d f i HotkeyList.obj
 0001:00034960       ?_Change_array@?$vector@UMonitorInfoCache@CConEmuSize@@V?$MArrayAllocator@UMonitorInfoCache@CConEmuSize@@@@@std@@AAEXQAUMonitorInfoCache@CConEmuSize@@II@Z 00435960 f i ConEmuSize.obj
 0001:000349d8       ?_Tidy@?$vector@UMonitorInfoCache@CConEmuSize@@V?$MArrayAllocator@UMonitorInfoCache@CConEmuSize@@@@@std@@AAEXXZ 004359d8 f i ConEmuSize.obj
 0001:00034a3a       ?allocate@?$MArrayAllocator@UMonitorInfoCache@CConEmuSize@@@@QAEPAUMonitorInfoCache@CConEmuSize@@I@Z 00435a3a f i ConEmuSize.obj
 0001:00034a3a       ?allocate@?$MArrayAllocator@UConEmuHotKey@@@@QAEPAUConEmuHotKey@@I@Z 00435a3a f i HotkeyList.obj
 0001:00034a6d       ?clear@?$vector@UMonitorInfoCache@CConEmuSize@@V?$MArrayAllocator@UMonitorInfoCache@CConEmuSize@@@@@std@@QAEXXZ 00435a6d f i ConEmuSize.obj
 0001:00034a85       ?isCaptionHidden@CConEmuSize@@QBE_NW4ConEmuWindowMode@@@Z 00435a85 f   ConEmuSize.obj
 0001:00034ad9       ?isFullScreen@CConEmuSize@@QAE_NXZ 00435ad9 f   ConEmuSize.obj
 0001:00034afd       ?isIconic@CConEmuSize@@QAE_N_N@Z 00435afd f   ConEmuSize.obj
 0001:00034bb8       ?isSelfFrame@CConEmuSize@@QBE_NW4ConEmuWindowMode@@@Z 00435bb8 f   ConEmuSize.obj
 0001:00034c52       ?isSizing@CConEmuSize@@QAE_NI@Z 00435c52 f   ConEmuSize.obj
 0001:00034c91       ?isWin10InvisibleFrame@CConEmuSize@@QBE_NW4ConEmuWindowMode@@@Z 00435c91 f   ConEmuSize.obj
 0001:00034cb9       ?isWindowNormal@CConEmuSize@@QAE_NXZ 00435cb9 f   ConEmuSize.obj
 0001:00034ced       ?isZoomed@CConEmuSize@@QAE_NXZ 00435ced f   ConEmuSize.obj
 0001:00034d11       ?setWindowPos@CConEmuSize@@QAE_NPAUHWND__@@HHHHI@Z 00435d11 f   ConEmuSize.obj
 0001:00034e6d       ??$swprintf_c@$0BCE@@@YAHAAY0BCE@_WPB_WZZ 00435e6d f i ConEmuStart.obj
 0001:00034e86       ??$wcscat_add@$0CAI@@@YAHHAAY0CAI@_WPB_W@Z 00435e86 f i ConEmuStart.obj
 0001:00034eb2       ??$wcscpy_add@$0CAI@@@YAHHAAY0CAI@_WPB_W@Z 00435eb2 f i ConEmuStart.obj
 0001:00034ede       ??$wcscpy_add@$0CAI@@@YAHPA_WAAY0CAI@_WPB_W@Z 00435ede f i ConEmuStart.obj
 0001:00034f0b       ??0CConEmuStart@@QAE@PAVCConEmuMain@@@Z 00435f0b f   ConEmuStart.obj
 0001:00034fad       ??0StartOptions@CConEmuStart@@QAE@XZ 00435fad f i ConEmuStart.obj
 0001:00035266       ??1CConEmuStart@@UAE@XZ    00436266 f   ConEmuStart.obj
 0001:00035291       ??1CESwitch@@QAE@XZ        00436291 f   ConEmuStart.obj
 0001:000352ca       ??1StartOptions@CConEmuStart@@QAE@XZ 004362ca f i ConEmuStart.obj
 0001:000355b2       ??BCESwitch@@QAE_NXZ       004365b2 f   ConEmuStart.obj
 0001:000355b7       ??_ECConEmuStart@@UAEPAXI@Z 004365b7 f i ConEmuStart.obj
 0001:000355b7       ??_GCConEmuStart@@UAEPAXI@Z 004365b7 f i ConEmuStart.obj
 0001:000355dc       ?Clear@CESwitch@@QAEXXZ    004365dc f   ConEmuStart.obj
 0001:000355fc       ?FindBashLocation@CConEmuStart@@QAE_NAAUCEStr@@@Z 004365fc f   ConEmuStart.obj
 0001:000356ee       ?GetBool@CESwitch@@QAE_NXZ 004366ee f   ConEmuStart.obj
 0001:000356ff       ?GetCfgParm@CConEmuStart@@IAE_NAAPB_WAAUCESwitch@@H_N@Z 004366ff f   ConEmuStart.obj
 0001:00035865       ?GetCmd@CConEmuStart@@QAEPB_WPA_N_N@Z 00436865 f   ConEmuStart.obj
 0001:00035b84       ?GetCurCmd@CConEmuStart@@QAEPB_WPA_N@Z 00436b84 f   ConEmuStart.obj
 0001:00035bbc       ?GetDefaultCmd@CConEmuStart@@QAEPB_WXZ 00436bbc f   ConEmuStart.obj
 0001:00035bc0       ?GetDefaultTask@CConEmuStart@@QAEPB_WXZ 00436bc0 f   ConEmuStart.obj
 0001:00035c10       ?GetInt@CESwitch@@QAEHXZ   00436c10 f   ConEmuStart.obj
 0001:00035c22       ?GetStr@CESwitch@@QAEPB_WXZ 00436c22 f   ConEmuStart.obj
 0001:00035c49       ?ParseCommandLine@CConEmuStart@@QAE_NPB_WAAH@Z 00436c49 f   ConEmuStart.obj
 0001:00037e45       ?ProcessConEmuArgsVar@CConEmuStart@@IAEXXZ 00438e45 f   ConEmuStart.obj
 0001:00037eca       ?ResetCmdArg@CConEmuStart@@QAEXXZ 00438eca f   ConEmuStart.obj
 0001:00037edd       ?ResetConman@CConEmuStart@@QAEXXZ 00438edd f   ConEmuStart.obj
 0001:00037f2c       ?SetBool@CESwitch@@QAEX_N@Z 00438f2c f   ConEmuStart.obj
 0001:00037f46       ?SetCurCmd@CConEmuStart@@QAEXPB_W_N@Z 00438f46 f   ConEmuStart.obj
 0001:00037f6a       ?SetDefaultCmd@CConEmuStart@@QAEXPB_W@Z 00438f6a f   ConEmuStart.obj
 0001:00038013       ?SetInt@CESwitch@@QAEXH@Z  00439013 f   ConEmuStart.obj
 0001:0003802e       ?SetInt@CESwitch@@QAEXPB_WH@Z 0043902e f   ConEmuStart.obj
 0001:00038058       ?SetStr@CESwitch@@QAEXPB_WW4CESwitchType@@@Z 00439058 f   ConEmuStart.obj
 0001:000380d0       ??$wcscpy_c@$0IA@@@YAHAAY0IA@_WPB_W@Z 004390d0 f i ConfirmDlg.obj
 0001:000380e5       ?ConfirmCloseConsoles@@YAHABUConfirmCloseParam@@@Z 004390e5 f   ConfirmDlg.obj
 0001:00038921       ?ConfirmDialog@@YAHPB_W000IPAUHWND__@@000000@Z 00439921 f   ConfirmDlg.obj
 0001:00039048       ?TaskDialog@@YAJPAU_TASKDIALOGCONFIG@@PAH1PA_N@Z 0043a048 f   ConfirmDlg.obj
 0001:00039185       ??0CAdjustProcessToken@@QAE@XZ 0043a185 f i CreateProcess.obj
 0001:000391c3       ??1CAdjustProcessToken@@QAE@XZ 0043a1c3 f i CreateProcess.obj
 0001:00039210       ?CreateProcessDemoted@@YAHPA_WPAU_SECURITY_ATTRIBUTES@@1HKPAXPB_WPAU_STARTUPINFOW@@PAU_PROCESS_INFORMATION@@PAK@Z 0043a210 f   CreateProcess.obj
 0001:000393e4       ?CreateProcessInteractive@@YAHKPB_WPA_WPAU_SECURITY_ATTRIBUTES@@2HKPAX0PAU_STARTUPINFOW@@PAU_PROCESS_INFORMATION@@PAK@Z 0043a3e4 f   CreateProcess.obj
 0001:000397d8       ?CreateProcessRestricted@@YAHPB_WPA_WPAU_SECURITY_ATTRIBUTES@@2HKPAX0PAU_STARTUPINFOW@@PAU_PROCESS_INFORMATION@@PAK@Z 0043a7d8 f   CreateProcess.obj
 0001:000398d4       ?CreateProcessSystem@@YAHKPA_WPAU_SECURITY_ATTRIBUTES@@1HKPAXPB_WPAU_STARTUPINFOW@@PAU_PROCESS_INFORMATION@@PAK@Z 0043a8d4 f   CreateProcess.obj
 0001:00039904       ?Enable@CAdjustProcessToken@@QAAHHZZ 0043a904 f i CreateProcess.obj
 0001:00039947       ?Enable@CAdjustProcessToken@@QAEHPAPB_WH@Z 0043a947 f i CreateProcess.obj
 0001:00039a26       ?Release@CAdjustProcessToken@@QAEXXZ 0043aa26 f i CreateProcess.obj
 0001:00039a7c       ??0BDFFont@@AAE@XZ         0043aa7c f i CustomFonts.obj
 0001:00039aab       ??0CEDC@@QAE@PAUHDC__@@@Z  0043aaab f   CustomFonts.obj
 0001:00039b08       ??1BDFFont@@UAE@XZ         0043ab08 f i CustomFonts.obj
 0001:00039b46       ??1CachedSolidBrush@@QAE@XZ 0043ab46 f   CustomFonts.obj
 0001:00039b56       ??1CustomFontFamily@@QAE@XZ 0043ab56 f   CustomFonts.obj
 0001:00039b70       ??_GBDFFont@@UAEPAXI@Z     0043ab70 f i CustomFonts.obj
 0001:00039b70       ??_EBDFFont@@UAEPAXI@Z     0043ab70 f i CustomFonts.obj
 0001:00039b92       ??_GCustomFont@@UAEPAXI@Z  0043ab92 f i CustomFonts.obj
 0001:00039b92       ??_ECustomFont@@UAEPAXI@Z  0043ab92 f i CustomFonts.obj
 0001:00039bb5       ?AddFont@CustomFontFamily@@QAEXPAVCustomFont@@@Z 0043abb5 f   CustomFonts.obj
 0001:00039c11       ?BDF_GetFamilyName@@YAHPB_WAAY0CA@_W@Z 0043ac11 f   CustomFonts.obj
 0001:00039c3f       ?BDF_Load@@YAPAVCustomFont@@PB_W@Z 0043ac3f f   CustomFonts.obj
 0001:00039c48       ?Create@CEDC@@QAE_NII@Z    0043ac48 f   CustomFonts.obj
 0001:00039e16       ?CreateBitmap@BDFFont@@AAEXXZ 0043ae16 f i CustomFonts.obj
 0001:00039eff       ?Delete@CEDC@@QAEXXZ       0043aeff f   CustomFonts.obj
 0001:00039f59       ?Get@CachedSolidBrush@@QAEPAUHBRUSH__@@K@Z 0043af59 f   CustomFonts.obj
 0001:00039f81       ?GetBoundingBox@BDFFont@@UAEXPAJ0@Z 0043af81 f i CustomFonts.obj
 0001:00039f98       ?GetFamilyName@BDFFont@@SA_NPB_WAAY0CA@_W@Z 0043af98 f i CustomFonts.obj
 0001:0003a0ce       ?GetFont@CustomFontFamily@@QAEPAVCustomFont@@HHHH@Z 0043b0ce f   CustomFonts.obj
 0001:0003a1c3       ?GetSize@BDFFont@@UAEHXZ   0043b1c3 f i CustomFonts.obj
 0001:0003a1da       ?HasBorders@BDFFont@@UAEHXZ 0043b1da f i CustomFonts.obj
 0001:0003a1df       ?HasUnicode@BDFFont@@UAEHXZ 0043b1df f i CustomFonts.obj
 0001:0003a1e4       ?IsBold@BDFFont@@UAEHXZ    0043b1e4 f i CustomFonts.obj
 0001:0003a1e9       __get_startup_thread_locale_mode 0043b1e9 f i LIBCMT:thread_locale.obj
 0001:0003a1e9       __matherr                  0043b1e9 f i LIBCMT:matherr.obj
 0001:0003a1e9       ?IsUnderline@BDFFont@@UAEHXZ 0043b1e9 f i CustomFonts.obj
 0001:0003a1e9       ___scrt_initialize_winrt   0043b1e9 f i LIBCMT:utility_desktop.obj
 0001:0003a1e9       ___scrt_stub_for_initialize_mta 0043b1e9 f i LIBCMT:utility_desktop.obj
 0001:0003a1e9       ?GetPageType@CSetPgGeneral@@UAE?AW4TabHwndIndex@@XZ 0043b1e9 f i SetPgGeneral.obj
 0001:0003a1e9       ?IsItalic@BDFFont@@UAEHXZ  0043b1e9 f i CustomFonts.obj
 0001:0003a1e9       __get_startup_new_mode     0043b1e9 f i LIBCMT:new_mode.obj
 0001:0003a1e9       __get_startup_commit_mode  0043b1e9 f i LIBCMT:commit_mode.obj
 0001:0003a1e9       ___scrt_exe_initialize_mta 0043b1e9 f i LIBCMT:utility_desktop.obj
 0001:0003a1ec       ?IsMonospace@BDFFont@@UAEHXZ 0043b1ec f i CustomFonts.obj
 0001:0003a1ec       ?GetPageType@CSetPgFonts@@UAE?AW4TabHwndIndex@@XZ 0043b1ec f i SetPgFonts.obj
 0001:0003a1ec       __get_startup_argv_mode    0043b1ec f i LIBCMT:argv_mode.obj
 0001:0003a1f0       ?Load@BDFFont@@SAPAV1@PB_W@Z 0043b1f0 f i CustomFonts.obj
 0001:0003a603       ?LoadBuffer@BDFFont@@SAPADPB_WAAPAD1@Z 0043b603 f i CustomFonts.obj
 0001:0003a6b8       ?NextLine@BDFFont@@SAIAAPAD0@Z 0043b6b8 f i CustomFonts.obj
 0001:0003a6e2       ?NextWord@BDFFont@@SAIAAPAD0D@Z 0043b6e2 f i CustomFonts.obj
 0001:0003a72c       ?Reset@CEDC@@AAEXXZ        0043b72c f   CustomFonts.obj
 0001:0003a758       ?SelectFont@CEDC@@QAEXPAVCFont@@@Z 0043b758 f   CustomFonts.obj
 0001:0003a7e6       ?SetBkColor@CEDC@@QAEXK@Z  0043b7e6 f   CustomFonts.obj
 0001:0003a823       ?SetBkMode@CEDC@@QAEXH@Z   0043b823 f   CustomFonts.obj
 0001:0003a860       ?SetTextColor@CEDC@@QAEXK@Z 0043b860 f   CustomFonts.obj
 0001:0003a89d       ?TextDraw@BDFFont@@UAEXPAKIKKPB_WI@Z 0043b89d f i CustomFonts.obj
 0001:0003a9c8       ?TextDraw@BDFFont@@UAEXPAUHDC__@@HHPB_WI@Z 0043b9c8 f i CustomFonts.obj
 0001:0003aa2e       ?TextDraw@CEDC@@QAE_NHHIPBUtagRECT@@PB_WIPBH@Z 0043ba2e f   CustomFonts.obj
 0001:0003abdf       ?TextDrawOem@CEDC@@QAE_NHHIPBUtagRECT@@PBDIPBH@Z 0043bbdf f   CustomFonts.obj
 0001:0003ac8f       ?TextExtentPoint@CEDC@@QAE_NPB_WHPAUtagSIZE@@@Z 0043bc8f f   CustomFonts.obj
 0001:0003ad3a       ??0?$MFileMapping@UCONEMU_INSIDE_DEFTERM_MAPPING@@@@QAE@XZ 0043bd3a f i DefaultTerm.obj
 0001:0003ad97       ??0CDefTermBase@@QAE@_N@Z  0043bd97 f i DefaultTerm.obj
 0001:0003ae9d       ??0CDefaultTerminal@@QAE@XZ 0043be9d f   DefaultTerm.obj
 0001:0003aec8       ??0CEDefTermOpt@@QAE@XZ    0043bec8 f i DefaultTerm.obj
 0001:0003af0d       ??1CDefTermBase@@UAE@XZ    0043bf0d f i DefaultTerm.obj
 0001:0003af2f       ??1CDefaultTerminal@@UAE@XZ 0043bf2f f   DefaultTerm.obj
 0001:0003af89       ??1CEDefTermOpt@@QAE@XZ    0043bf89 f i DefaultTerm.obj
 0001:0003b01a       ??_GCDefTermBase@@UAEPAXI@Z 0043c01a f i DefaultTerm.obj
 0001:0003b01a       ??_ECDefTermBase@@UAEPAXI@Z 0043c01a f i DefaultTerm.obj
 0001:0003b03f       ?ApplyAndSave@CDefaultTerminal@@QAEX_N0@Z 0043c03f f   DefaultTerm.obj
 0001:0003b065       ?AutoClearThreads@CDefTermBase@@MAEXXZ 0043c065 f i DefaultTerm.obj
 0001:0003b06d       ?AutoClearThreads@CDefaultTerminal@@MAEXXZ 0043c06d f   DefaultTerm.obj
 0001:0003b084       ?CheckRegisterOsStartup@CDefaultTerminal@@QAEXXZ 0043c084 f   DefaultTerm.obj
 0001:0003b1f7       ?ClearThreads@CDefTermBase@@IAEX_N@Z 0043c1f7 f i DefaultTerm.obj
 0001:0003b2b1       ?Echo@CStartEnvTitle@@UAEXPB_W0@Z 0043c2b1 f i common-user32:ProcessSetEnv.obj
 0001:0003b2b1       ?Type@CStartEnvTitle@@UAEXPB_W0@Z 0043c2b1 f i common-user32:ProcessSetEnv.obj
 0001:0003b2b1       ?Set@CStartEnvTitle@@UAEXPB_W0@Z 0043c2b1 f i common-user32:ProcessSetEnv.obj
 0001:0003b2b1       ?LogHookingStatus@CDefTermBase@@UAEXKPB_W@Z 0043c2b1 f i DefaultTerm.obj
 0001:0003b2b1       ?ConhostLocker@CDefTermBase@@MAEX_NAA_N@Z 0043c2b1 f i DefaultTerm.obj
 0001:0003b2b1       ?Alias@CStartEnvTitle@@UAEXPB_W0@Z 0043c2b1 f i common-user32:ProcessSetEnv.obj
 0001:0003b2b4       ?ConhostLocker@CDefaultTerminal@@MAEX_NAA_N@Z 0043c2b4 f   DefaultTerm.obj
 0001:0003b2e6       ?DisplayLastError@CDefaultTerminal@@MAEHPB_WKK0PAUHWND__@@@Z 0043c2e6 f   DefaultTerm.obj
 0001:0003b304       ?GetInterface@CDefaultTerminal@@MAEPAVCDefTermBase@@XZ 0043c304 f   DefaultTerm.obj
 0001:0003b307       ?Initialize@CDefTermBase@@IAEX_N00@Z 0043c307 f i DefaultTerm.obj
 0001:0003b4b9       ?IsAppAllowed@CDefTermBase@@MAE_NPAUHWND__@@K@Z 0043c4b9 f i DefaultTerm.obj
 0001:0003b4be       ?IsAppAllowed@CDefaultTerminal@@MAE_NPAUHWND__@@K@Z 0043c4be f   DefaultTerm.obj
 0001:0003b4e5       ?IsRegisteredOsStartup@CDefaultTerminal@@SA_NPAUCEStr@@PA_N@Z 0043c4e5 f   DefaultTerm.obj
 0001:0003b587       ?LogHookingStatus@CDefaultTerminal@@UAEXKPB_W@Z 0043c587 f   DefaultTerm.obj
 0001:0003b5f8       ?Load@SettingsINI@@UAE_NPB_WPAPA_W@Z 0043c5f8 f i SettingsStorage.obj
 0001:0003b5f8       ?SelectNextItem@CSetPgBase@@UAE_N_N0@Z 0043c5f8 f i SetPgANSI.obj
 0001:0003b5f8       ?NotifyHookingStatus@CDefTermBase@@MAE_NKPB_W@Z 0043c5f8 f i DefaultTerm.obj
 0001:0003b5fd       ?NotifyHookingStatus@CDefaultTerminal@@MAE_NKPB_W@Z 0043c5fd f   DefaultTerm.obj
 0001:0003b6b6       ?OnTaskbarCreated@CDefaultTerminal@@QAEXXZ 0043c6b6 f   DefaultTerm.obj
 0001:0003b6ce       ?PostCreatedThread@CDefTermBase@@KGKPAX@Z 0043c6ce f i DefaultTerm.obj
 0001:0003b6fa       ?PreCreateThread@CDefaultTerminal@@MAEXXZ 0043c6fa f   DefaultTerm.obj
 0001:0003b70e       ?ReloadSettings@CDefaultTerminal@@MAEXXZ 0043c70e f   DefaultTerm.obj
 0001:0003b802       ?Serialize@CEDefTermOpt@@QAE_NW4SerializeMode@1@@Z 0043c802 f i DefaultTerm.obj
 0001:0003bd56       ?SetFrom@?$MFileMapping@UCONEMU_INSIDE_MAPPING@@@@QAE_NPBUCONEMU_INSIDE_MAPPING@@H@Z 0043cd56 f i Inside.obj
 0001:0003bd56       ?SetFrom@?$MFileMapping@UCONEMU_INSIDE_DEFTERM_MAPPING@@@@QAE_NPBUCONEMU_INSIDE_DEFTERM_MAPPING@@H@Z 0043cd56 f i DefaultTerm.obj
 0001:0003be7d       ?ShowTrayIconError@CDefaultTerminal@@MAEXPB_W@Z 0043ce7d f   DefaultTerm.obj
 0001:0003be93       ?StartGuiDefTerm@CDefaultTerminal@@QAEX_N0@Z 0043ce93 f   DefaultTerm.obj
 0001:0003bed0       ?StopHookers@CDefTermBase@@MAEXXZ 0043ced0 f i DefaultTerm.obj
 0001:0003bf07       ?UpdateDefTermMapping@CDefaultTerminal@@QAEXXZ 0043cf07 f   DefaultTerm.obj
 0001:0003c084       ?erase@?$MArray@UThreadHandle@CDefTermBase@@@@QAEXHH@Z 0043d084 f i DefaultTerm.obj
 0001:0003c084       ?erase@?$MArray@UTabIconCache@CIconList@@@@QAEXHH@Z 0043d084 f i IconList.obj
 0001:0003c0cf       ?isDefaultTerminalAllowed@CDefaultTerminal@@UAE_N_N@Z 0043d0cf f   DefaultTerm.obj
 0001:0003c0f3       ?isLogging@CDefaultTerminal@@UAE_NXZ 0043d0f3 f   DefaultTerm.obj
 0001:0003c106       ?GetNumber@CDlgItemHelper@@SAHPAUHWND__@@GHH@Z 0043d106 f   DlgItemHelper.obj
 0001:0003c1bf       ?GetString@CDlgItemHelper@@SAHPAUHWND__@@GPAPA_WPB_W_N@Z 0043d1bf f   DlgItemHelper.obj
 0001:0003c325       ?InvalidateCtrl@CDlgItemHelper@@SAXPAUHWND__@@H@Z 0043d325 f   DlgItemHelper.obj
 0001:0003c338       ?OpenHyperlink@CDlgItemHelper@@SA_NAAUCEStr@@PAUHWND__@@@Z 0043d338 f   DlgItemHelper.obj
 0001:0003c378       ?ProcessHyperlinkCtrl@CDlgItemHelper@@SA_NPAUHWND__@@G@Z 0043d378 f   DlgItemHelper.obj
 0001:0003c440       ?checkDlgButton@CDlgItemHelper@@SA_NPAUHWND__@@GI@Z 0043d440 f   DlgItemHelper.obj
 0001:0003c45b       ?checkRadioButton@CDlgItemHelper@@SA_NPAUHWND__@@HHH@Z 0043d45b f   DlgItemHelper.obj
 0001:0003c477       ?enableDlgItem@CDlgItemHelper@@SAXPAUHWND__@@G_N@Z 0043d477 f   DlgItemHelper.obj
 0001:0003c497       ?enableDlgItems@CDlgItemHelper@@SAXPAUHWND__@@PAIH_N@Z 0043d497 f   DlgItemHelper.obj
 0001:0003c522       ?isChecked2@CDlgItemHelper@@SA_NPAUHWND__@@G@Z 0043d522 f   DlgItemHelper.obj
 0001:0003c539       ?isChecked@CDlgItemHelper@@SAEPAUHWND__@@G@Z 0043d539 f   DlgItemHelper.obj
 0001:0003c566       ?isHyperlinkCtrl@CDlgItemHelper@@SA_NG@Z 0043d566 f   DlgItemHelper.obj
 0001:0003c59f       ??0DontEnable@@QAE@_N@Z    0043d59f f   DontEnable.obj
 0001:0003c5e2       ??1DontEnable@@QAE@XZ      0043d5e2 f   DontEnable.obj
 0001:0003c5f7       ?isDontEnable@DontEnable@@SA_NXZ 0043d5f7 f   DontEnable.obj
 0001:0003c603       ??$_Emplace_reallocate@ABUDlgItem@CDpiForDialog@@@?$vector@UDlgItem@CDpiForDialog@@V?$MArrayAllocator@UDlgItem@CDpiForDialog@@@@@std@@QAEPAUDlgItem@CDpiForDialog@@QAU23@ABU23@@Z 0043d603 f i DpiAware.obj
 0001:0003c6ac       ??$_Uninitialized_move@PAUDlgItem@CDpiForDialog@@V?$MArrayAllocator@UDlgItem@CDpiForDialog@@@@@std@@YAPAUDlgItem@CDpiForDialog@@QAU12@0PAU12@AAV?$MArrayAllocator@UDlgItem@CDpiForDialog@@@@@Z 0043d6ac f i DpiAware.obj
 0001:0003c6d6       ??0CDpiForDialog@@IAE@XZ   0043d6d6 f   DpiAware.obj
 0001:0003c753       ??0DpiValue@@QAE@HHW4DpiSource@0@@Z 0043d753 f   DpiAware.obj
 0001:0003c76d       ??0DpiValue@@QAE@XZ        0043d76d f   DpiAware.obj
 0001:0003c77c       ??1CDpiForDialog@@QAE@XZ   0043d77c f   DpiAware.obj
 0001:0003c7d1       ??8DpiValue@@QBE_NABU0@@Z  0043d7d1 f   DpiAware.obj
 0001:0003c7da       ??9DpiValue@@QBE_NABU0@@Z  0043d7da f   DpiAware.obj
 0001:0003c7eb       ?Attach@CDpiForDialog@@QAE_NPAUHWND__@@0PAVCDynDialog@@@Z 0043d7eb f   DpiAware.obj
 0001:0003c9e5       ?CenterDialog@CDpiAware@@SAXPAUHWND__@@@Z 0043d9e5 f   DpiAware.obj
 0001:0003cab1       ?Create@CDpiForDialog@@SA_NAAPAV1@@Z 0043dab1 f   DpiAware.obj
 0001:0003caff       ?Detach@CDpiForDialog@@QAEXXZ 0043daff f   DpiAware.obj
 0001:0003cb62       ?Equals@DpiValue@@QBE_NABU1@@Z 0043db62 f   DpiAware.obj
 0001:0003cb80       ?FromWParam@DpiValue@@SA?AU1@I@Z 0043db80 f   DpiAware.obj
 0001:0003cba2       ?GetCenteredRect@CDpiAware@@SAXPAUHWND__@@AAUtagRECT@@PAUHMONITOR__@@@Z 0043dba2 f   DpiAware.obj
 0001:0003cc26       ?GetCurDpi@CDpiForDialog@@QBEABUDpiValue@@XZ 0043dc26 f   DpiAware.obj
 0001:0003cc2a       ??BCFontPtr@@QBEPAVCFont@@XZ 0043dc2a f   FontPtr.obj
 0001:0003cc2a       ??CCFontPtr@@QBEPAVCFont@@XZ 0043dc2a f   FontPtr.obj
 0001:0003cc2a       ?GetDpi@DpiValue@@QBEHXZ   0043dc2a f   DpiAware.obj
 0001:0003cc2a       ??BCEStr@@QBEPB_WXZ        0043dc2a f   common-kernel32:CEStr.obj
 0001:0003cc2a       ?data@CEStr@@QBEPA_WXZ     0043dc2a f   common-kernel32:CEStr.obj
 0001:0003cc2a       ??BMBSTR@@QBEPA_WXZ        0043dc2a f   common-user32:MBSTR.obj
 0001:0003cc2a       ?data@CEStrA@@QBEPADXZ     0043dc2a f   common-kernel32:CEStr.obj
 0001:0003cc2a       ??BCEStrA@@QBEPBDXZ        0043dc2a f   common-kernel32:CEStr.obj
 0001:0003cc2a       ?GetInsideIntegration@CConEmuInside@@QBE?AW4InsideIntegration@1@XZ 0043dc2a f   Inside.obj
 0001:0003cc2a       ?Ptr@CFontPtr@@QBEPAVCFont@@XZ 0043dc2a f   FontPtr.obj
 0001:0003cc2d       ?GetFontSizeForDpi@CDpiForDialog@@IAEHPAUHDC__@@H@Z 0043dc2d f   DpiAware.obj
 0001:0003cc5f       ?GetNext@?$MMap@PAUHWND__@@PAVCDynDialog@@$0A@@@QAE_NPBQAUHWND__@@PAPAU2@PAPAVCDynDialog@@@Z 0043dc5f f i DynDialog.obj
 0001:0003cc5f       ?GetNext@?$MMap@HPAV?$MArray@UDlgItem@CDpiForDialog@@@@$0A@@@QAE_NPBHPAHPAPAV?$MArray@UDlgItem@CDpiForDialog@@@@@Z 0043dc5f f i DpiAware.obj
 0001:0003cd09       ?GetShCore@CDpiAware@@KAABVMModule@@XZ 0043dd09 f   DpiAware.obj
 0001:0003cd2f       ?GetUser32@CDpiAware@@KAABVMModule@@XZ 0043dd2f f   DpiAware.obj
 0001:0003cd55       ?IsPerMonitorDpi@CDpiAware@@SA_NXZ 0043dd55 f   DpiAware.obj
 0001:0003ce01       ?IsValid@DpiValue@@QBE_NXZ 0043de01 f   DpiAware.obj
 0001:0003ce0f       ?LoadDialogItems@CDpiForDialog@@KAPAV?$MArray@UDlgItem@CDpiForDialog@@@@PAUHWND__@@@Z 0043de0f f   DpiAware.obj
 0001:0003cf4d       ?OnDpiChanged@DpiValue@@QAEXI@Z 0043df4d f   DpiAware.obj
 0001:0003cf75       ?ProcessDpiMessages@CDpiForDialog@@QAE_NPAUHWND__@@IIJ@Z 0043df75 f   DpiAware.obj
 0001:0003cfbb       ?QueryDpi@CDpiAware@@SAHPAUHWND__@@PAUDpiValue@@@Z 0043dfbb f   DpiAware.obj
 0001:0003d010       ?QueryDpiForMonitor@CDpiAware@@SA?AUDpiValue@@PAUHMONITOR__@@W4MonitorDpiType@@@Z 0043e010 f   DpiAware.obj
 0001:0003d0dd       ?QueryDpiForRect@CDpiAware@@SA?AUDpiValue@@ABUtagRECT@@W4MonitorDpiType@@@Z 0043e0dd f   DpiAware.obj
 0001:0003d0ff       ?QueryDpiForWindow@CDpiAware@@SAHPAUHWND__@@PAUDpiValue@@@Z 0043e0ff f   DpiAware.obj
 0001:0003d156       ?SetDialogDPI@CDpiForDialog@@QAE_NABUDpiValue@@PAUtagRECT@@@Z 0043e156 f   DpiAware.obj
 0001:0003da7f       ?SetDpi@DpiValue@@QAEXABU1@@Z 0043ea7f f   DpiAware.obj
 0001:0003da9b       ?SetProcessDpiAwareness@CDpiAware@@SAJXZ 0043ea9b f   DpiAware.obj
 0001:0003db13       ?UpdateStartupInfo@CDpiAware@@SAXPAUCEStartupEnv@@@Z 0043eb13 f   DpiAware.obj
 0001:0003dba8       ?_Calculate_growth@?$vector@UDlgItem@CDpiForDialog@@V?$MArrayAllocator@UDlgItem@CDpiForDialog@@@@@std@@ABEII@Z 0043eba8 f i DpiAware.obj
 0001:0003dbd9       ?_Change_array@?$vector@UDlgItem@CDpiForDialog@@V?$MArrayAllocator@UDlgItem@CDpiForDialog@@@@@std@@AAEXQAUDlgItem@CDpiForDialog@@II@Z 0043ebd9 f i DpiAware.obj
 0001:0003dc08       ?allocate@?$MArrayAllocator@UDlgItem@CDpiForDialog@@@@QAEPAUDlgItem@CDpiForDialog@@I@Z 0043ec08 f i DpiAware.obj
 0001:0003dc38       ??$SafeDelete@U_ShlOpInfo@CDragDrop@@@@YAXAAPAU_ShlOpInfo@CDragDrop@@@Z 0043ec38 f i DragDrop.obj
 0001:0003dc5b       ??$_Emplace_reallocate@ABUFoundFile@FastConfig@@@?$vector@UFoundFile@FastConfig@@V?$MArrayAllocator@UFoundFile@FastConfig@@@@@std@@QAEPAUFoundFile@FastConfig@@QAU23@ABU23@@Z 0043ec5b f i OptionsFast.obj
 0001:0003dc5b       ??$_Emplace_reallocate@ABU_ThInfo@CDragDrop@@@?$vector@U_ThInfo@CDragDrop@@V?$MArrayAllocator@U_ThInfo@CDragDrop@@@@@std@@QAEPAU_ThInfo@CDragDrop@@QAU23@ABU23@@Z 0043ec5b f i DragDrop.obj
 0001:0003dc5b       ??$_Emplace_reallocate@UVarDef@CVarDefs@FastConfig@@@?$vector@UVarDef@CVarDefs@FastConfig@@V?$MArrayAllocator@UVarDef@CVarDefs@FastConfig@@@@@std@@QAEPAUVarDef@CVarDefs@FastConfig@@QAU234@$$QAU234@@Z 0043ec5b f i OptionsFast.obj
 0001:0003dc5b       ??$_Emplace_reallocate@ABUtxt@CFormatCopy@@@?$vector@Utxt@CFormatCopy@@V?$MArrayAllocator@Utxt@CFormatCopy@@@@@std@@QAEPAUtxt@CFormatCopy@@QAU23@ABU23@@Z 0043ec5b f i HtmlCopy.obj
 0001:0003dd0c       ??$emplace_back@UVarDef@CVarDefs@FastConfig@@@?$vector@UVarDef@CVarDefs@FastConfig@@V?$MArrayAllocator@UVarDef@CVarDefs@FastConfig@@@@@std@@QAE?A_T$$QAUVarDef@CVarDefs@FastConfig@@@Z 0043ed0c f i OptionsFast.obj
 0001:0003dd0c       ??$emplace_back@ABUtxt@CFormatCopy@@@?$vector@Utxt@CFormatCopy@@V?$MArrayAllocator@Utxt@CFormatCopy@@@@@std@@QAE?A_TABUtxt@CFormatCopy@@@Z 0043ed0c f i HtmlCopy.obj
 0001:0003dd0c       ??$emplace_back@ABU_ThInfo@CDragDrop@@@?$vector@U_ThInfo@CDragDrop@@V?$MArrayAllocator@U_ThInfo@CDragDrop@@@@@std@@QAE?A_TABU_ThInfo@CDragDrop@@@Z 0043ed0c f i DragDrop.obj
 0001:0003dd0c       ??$emplace_back@ABUFoundFile@FastConfig@@@?$vector@UFoundFile@FastConfig@@V?$MArrayAllocator@UFoundFile@FastConfig@@@@@std@@QAE?A_TABUFoundFile@FastConfig@@@Z 0043ed0c f i OptionsFast.obj
 0001:0003dd3b       ??0CDragDrop@@QAE@XZ       0043ed3b f   DragDrop.obj
 0001:0003ddea       ??1CDragDrop@@UAE@XZ       0043edea f   DragDrop.obj
 0001:0003dfad       ??_ECDragDrop@@W7AEPAXI@Z  0043efad f i DragDrop.obj
 0001:0003dfb5       ??_GCDragDrop@@UAEPAXI@Z   0043efb5 f i DragDrop.obj
 0001:0003dfb5       ??_ECDragDrop@@UAEPAXI@Z   0043efb5 f i DragDrop.obj
 0001:0003dfda       ?CreateLink@CDragDrop@@QAEJPB_W00@Z 0043efda f   DragDrop.obj
 0001:0003e059       ?Drag@CDragDrop@@QAEXHU_COORD@@@Z 0043f059 f   DragDrop.obj
 0001:0003e118       ?DragEnter@CDragDrop@@UAGJPAUIDataObject@@KU_POINTL@@PAK@Z 0043f118 f   DragDrop.obj
 0001:0003e217       ?DragLeave@CDragDrop@@UAGJXZ 0043f217 f   DragDrop.obj
 0001:0003e243       ?DragOver@CDragDrop@@UAGJKU_POINTL@@PAK@Z 0043f243 f   DragDrop.obj
 0001:0003e2d4       ?DragOverInt@CDragDrop@@IAEJKU_POINTL@@PAK@Z 0043f2d4 f   DragDrop.obj
 0001:0003e531       ?DragStart@CDragDrop@@IAEKPAUIDropSource@@KAAK@Z 0043f531 f   DragDrop.obj
 0001:0003e618       ?Drop@CDragDrop@@UAGJPAUIDataObject@@KU_POINTL@@PAK@Z 0043f618 f   DragDrop.obj
 0001:0003e891       ?DropFromStream@CDragDrop@@IAEJPAUIDataObject@@H@Z 0043f891 f   DragDrop.obj
 0001:0003f269       ?DropFromText@CDragDrop@@IAEJPAUIDataObject@@@Z 00440269 f   DragDrop.obj
 0001:0003f32e       ?DropLinks@CDragDrop@@IAEJPAUHDROP__@@HH@Z 0044032e f   DragDrop.obj
 0001:0003f551       ?DropNames@CDragDrop@@IAEJPAUHDROP__@@HH@Z 00440551 f   DragDrop.obj
 0001:0003fb5d       ?DropShellOp@CDragDrop@@IAEJPAUIDataObject@@PAKAAUtagSTGMEDIUM@@HH@Z 00440b5d f   DragDrop.obj
 0001:0003ff61       ?FileCreateName@CDragDrop@@IBE?AUCEStr@@HHPB_W0@Z 00440f61 f   DragDrop.obj
 0001:000404c1       ?FileStart@CDragDrop@@IAEPAXPB_W@Z 004414c1 f   DragDrop.obj
 0001:0004054f       ?FileWrite@CDragDrop@@IAEJPAXK0@Z 0044154f f   DragDrop.obj
 0001:0004065e       ?ReportUnknownData@CDragDrop@@IAEXPAUIDataObject@@PB_W@Z 0044165e f   DragDrop.obj
 0001:000407d1       ?ShellOpThreadProc@CDragDrop@@KGKPAX@Z 004417d1 f   DragDrop.obj
 0001:000408ed       ?_Calculate_growth@?$vector@U_ThInfo@CDragDrop@@V?$MArrayAllocator@U_ThInfo@CDragDrop@@@@@std@@ABEII@Z 004418ed f i DragDrop.obj
 0001:000408ed       ?_Calculate_growth@?$vector@UCEStr@@V?$allocator@UCEStr@@@std@@@std@@ABEII@Z 004418ed f i FontMgr.obj
 0001:000408ed       ?_Calculate_growth@?$vector@Utxt@CFormatCopy@@V?$MArrayAllocator@Utxt@CFormatCopy@@@@@std@@ABEII@Z 004418ed f i HtmlCopy.obj
 0001:000408ed       ?_Calculate_growth@?$vector@UCEStr@@V?$MArrayAllocator@UCEStr@@@@@std@@ABEII@Z 004418ed f i MacroImpl.obj
 0001:000408ed       ?_Calculate_growth@?$vector@UVarDef@CVarDefs@FastConfig@@V?$MArrayAllocator@UVarDef@CVarDefs@FastConfig@@@@@std@@ABEII@Z 004418ed f i OptionsFast.obj
 0001:000408ed       ?_Calculate_growth@?$vector@ULngRcItem@CLngRc@@V?$MArrayAllocator@ULngRcItem@CLngRc@@@@@std@@ABEII@Z 004418ed f i LngRc.obj
 0001:000408ed       ?_Calculate_growth@?$vector@UFoundFile@FastConfig@@V?$MArrayAllocator@UFoundFile@FastConfig@@@@@std@@ABEII@Z 004418ed f i OptionsFast.obj
 0001:00040919       ?_Change_array@?$vector@ULngRcItem@CLngRc@@V?$MArrayAllocator@ULngRcItem@CLngRc@@@@@std@@AAEXQAULngRcItem@CLngRc@@II@Z 00441919 f i LngRc.obj
 0001:00040919       ?_Change_array@?$vector@U_ThInfo@CDragDrop@@V?$MArrayAllocator@U_ThInfo@CDragDrop@@@@@std@@AAEXQAU_ThInfo@CDragDrop@@II@Z 00441919 f i DragDrop.obj
 0001:00040919       ?_Change_array@?$vector@UVarDef@CVarDefs@FastConfig@@V?$MArrayAllocator@UVarDef@CVarDefs@FastConfig@@@@@std@@AAEXQAUVarDef@CVarDefs@FastConfig@@II@Z 00441919 f i OptionsFast.obj
 0001:00040919       ?_Change_array@?$vector@UFoundFile@FastConfig@@V?$MArrayAllocator@UFoundFile@FastConfig@@@@@std@@AAEXQAUFoundFile@FastConfig@@II@Z 00441919 f i OptionsFast.obj
 0001:00040919       ?_Change_array@?$vector@Utxt@CFormatCopy@@V?$MArrayAllocator@Utxt@CFormatCopy@@@@@std@@AAEXQAUtxt@CFormatCopy@@II@Z 00441919 f i HtmlCopy.obj
 0001:00040948       ?allocate@?$MArrayAllocator@UVarDef@CVarDefs@FastConfig@@@@QAEPAUVarDef@CVarDefs@FastConfig@@I@Z 00441948 f i OptionsFast.obj
 0001:00040948       ?allocate@?$MArrayAllocator@UCEStr@@@@QAEPAUCEStr@@I@Z 00441948 f i MacroImpl.obj
 0001:00040948       ?allocate@?$MArrayAllocator@Utxt@CFormatCopy@@@@QAEPAUtxt@CFormatCopy@@I@Z 00441948 f i HtmlCopy.obj
 0001:00040948       ?allocate@?$MArrayAllocator@U_ThInfo@CDragDrop@@@@QAEPAU_ThInfo@CDragDrop@@I@Z 00441948 f i DragDrop.obj
 0001:00040948       ?allocate@?$MArrayAllocator@UFoundFile@FastConfig@@@@QAEPAUFoundFile@FastConfig@@I@Z 00441948 f i OptionsFast.obj
 0001:00040948       ?allocate@?$MArrayAllocator@ULngRcItem@CLngRc@@@@QAEPAULngRcItem@CLngRc@@I@Z 00441948 f i LngRc.obj
 0001:0004097a       ?erase@?$MArray@U_ThInfo@CDragDrop@@@@QAEXHH@Z 0044197a f i DragDrop.obj
 0001:000409c0       __vswprintf_s_l            004419c0 f i DragDrop.obj
 0001:000409ee       _swprintf_s                004419ee f i DragDrop.obj
 0001:00040a0a       ??$PidlDump@PBU_ITEMIDLIST@@@@YAXPBU_ITEMIDLIST@@PAX@Z 00441a0a f i DragDropData.obj
 0001:00040c9e       ??$sprintf_c@$0CAA@@@YAHAAY0CAA@DPBDZZ 00441c9e f i DragDropData.obj
 0001:00040cb7       ??0CDragDropData@@QAE@XZ   00441cb7 f   DragDropData.obj
 0001:00040d80       ??1CDragDropData@@UAE@XZ   00441d80 f   DragDropData.obj
 0001:00040e0f       ??_GCDragDropData@@UAEPAXI@Z 00441e0f f i DragDropData.obj
 0001:00040e0f       ??_ECDragDropData@@UAEPAXI@Z 00441e0f f i DragDropData.obj
 0001:00040e34       ?AddFmt_DragImageBits@CDragDropData@@AAEHPA_WIH@Z 00441e34 f   DragDropData.obj
 0001:00040f74       ?AddFmt_FileNameW@CDragDropData@@AAEHPA_WIH@Z 00441f74 f   DragDropData.obj
 0001:00040f97       ?AddFmt_HDROP@CDragDropData@@AAEHPA_WIH@Z 00441f97 f   DragDropData.obj
 0001:0004102f       ?AddFmt_InShellDragLoop@CDragDropData@@AAEHPA_WIH@Z 0044202f f   DragDropData.obj
 0001:0004105a       ?AddFmt_PREFERREDDROPEFFECT@CDragDropData@@AAEHPA_WIH@Z 0044205a f   DragDropData.obj
 0001:000410ab       ?AddFmt_SHELLIDLIST@CDragDropData@@AAEHPA_WIH@Z 004420ab f   DragDropData.obj
 0001:000412b9       ?CheckIsUpdatePackage@CDragDropData@@IAE_NPAUIDataObject@@@Z 004422b9 f   DragDropData.obj
 0001:000413b4       ?DragFeedBack@CDragDropData@@QAEXK@Z 004423b4 f   DragDropData.obj
 0001:00041416       ?DrawImageBits@CDragDropData@@IAEHPAUHDC__@@PA_WPAHH2@Z 00442416 f   DragDropData.obj
 0001:00041619       ?EnumDragFormats@CDragDropData@@IAEXPAUIDataObject@@PAX@Z 00442619 f   DragDropData.obj
 0001:00041de1       ?ForwardMessage@CDragDropData@@QAEHIIJ@Z 00442de1 f   DragDropData.obj
 0001:00041e36       ?InDragDrop@CDragDropData@@QAEHXZ 00442e36 f   DragDropData.obj
 0001:00041e46       ?IsDragImageOsSupported@CDragDropData@@IAE_NXZ 00442e46 f   DragDropData.obj
 0001:00041e68       ?IsDragStarting@CDragDropData@@QAEHXZ 00442e68 f   DragDropData.obj
 0001:00041ea4       ?NeedRefreshToInfo@CDragDropData@@QAE_NU_POINTL@@@Z 00442ea4 f   DragDropData.obj
 0001:00041f21       ?PaintDragImageBits@CDragDropData@@IAEHPA_WAAPAUHDC__@@AAPAUHBITMAP__@@2HHPAH3PAUtagPOINT@@_NK@Z 00442f21 f   DragDropData.obj
 0001:00042354       ?PrepareDrag@CDragDropData@@QAEHHU_COORD@@PAK@Z 00443354 f   DragDropData.obj
 0001:00042555       ?Register@CDragDropData@@QAEHXZ 00443555 f   DragDropData.obj
 0001:0004259b       ?RetrieveDragFromInfo@CDragDropData@@AAEHHU_COORD@@PAPA_WPAI@Z 0044359b f   DragDropData.obj
 0001:0004290c       ?RetrieveDragToInfo@CDragDropData@@QAEXU_POINTL@@@Z 0044390c f   DragDropData.obj
 0001:00042ad8       ?SetDragToInfo@CDragDropData@@QAEXPBUForwardedPanelInfo@@IPAVCRealConsole@@@Z 00443ad8 f   DragDropData.obj
 0001:00042c68       ?StringCbCopyW@@YGJPA_WIPB_W@Z 00443c68 f i DragDropData.obj
 0001:00042c90       ?TerminateDrag@CDragDropData@@IAEXXZ 00443c90 f   DragDropData.obj
 0001:00042d4b       ?UseSourceHelper@CDragDropData@@IAE_NXZ 00443d4b f   DragDropData.obj
 0001:00042dbc       ?UseTargetHelper@CDragDropData@@IAE_N_N@Z 00443dbc f   DragDropData.obj
 0001:00042e9f       ??0CDwmHelper@@QAE@XZ      00443e9f f   DwmHelper.obj
 0001:00042eeb       ??0DWM@CDwmHelper@@QAE@XZ  00443eeb f i DwmHelper.obj
 0001:00042f0a       ??0UX@CDwmHelper@@QAE@XZ   00443f0a f i DwmHelper.obj
 0001:00042f4a       ??1CDwmHelper@@UAE@XZ      00443f4a f   DwmHelper.obj
 0001:0004302b       ??_GCDwmHelper@@UAEPAXI@Z  0044402b f i DwmHelper.obj
 0001:0004302b       ??_ECDwmHelper@@UAEPAXI@Z  0044402b f i DwmHelper.obj
 0001:00043050       ?AdjustWindowRectExForDpi@CDwmHelper@@QAEHPAUtagRECT@@KHKI@Z 00444050 f   DwmHelper.obj
 0001:00043073       ?DrawType@CDwmHelper@@QAE?AW4FrameDrawStyle@@XZ 00444073 f   DwmHelper.obj
 0001:000430aa       ?DwmDefWindowProc@CDwmHelper@@QAEHPAUHWND__@@IIJPAJ@Z 004440aa f   DwmHelper.obj
 0001:000430bd       ?DwmGetWindowAttribute@CDwmHelper@@QAEJPAUHWND__@@KPAXK@Z 004440bd f   DwmHelper.obj
 0001:000430d3       ?DwmInvalidateIconicBitmaps@CDwmHelper@@QAEJPAUHWND__@@@Z 004440d3 f   DwmHelper.obj
 0001:000430e9       ?DwmSetIconicLivePreviewBitmap@CDwmHelper@@QAEJPAUHWND__@@PAUHBITMAP__@@PAUtagPOINT@@@Z 004440e9 f   DwmHelper.obj
 0001:00043109       ?DwmSetIconicThumbnail@CDwmHelper@@QAEJPAUHWND__@@PAUHBITMAP__@@@Z 00444109 f   DwmHelper.obj
 0001:00043126       ?ExtendWindowFrame@CDwmHelper@@QAE_NPAUHWND__@@ABUtagRECT@@@Z 00444126 f   DwmHelper.obj
 0001:0004317a       ?ExtendWindowFrame@CDwmHelper@@QAE_NXZ 0044417a f   DwmHelper.obj
 0001:000431ad       ?ForceSetIconic@CDwmHelper@@QAEXPAUHWND__@@@Z 004441ad f   DwmHelper.obj
 0001:000431ec       ?GetDwmClientRectTopOffset@CDwmHelper@@QAEHXZ 004441ec f   DwmHelper.obj
 0001:000431f3       ?InitDwm@CDwmHelper@@AAEXXZ 004441f3 f   DwmHelper.obj
 0001:00043476       ?IsDwm@CDwmHelper@@QAE_NXZ 00444476 f   DwmHelper.obj
 0001:000434a1       ?IsGlass@CDwmHelper@@QAE_NXZ 004444a1 f   DwmHelper.obj
 0001:000434c9       ?IsThemed@CDwmHelper@@QAE_NXZ 004444c9 f   DwmHelper.obj
 0001:000434e8       ?SetWindowTheme@CDwmHelper@@QAEXPAUHWND__@@PB_W1@Z 004444e8 f   DwmHelper.obj
 0001:000434fc       ??0CDynDialog@@QAE@I@Z     004444fc f   DynDialog.obj
 0001:00043547       ??1CDynDialog@@UAE@XZ      00444547 f   DynDialog.obj
 0001:000435e2       ??_G?$MMap@PAUHWND__@@PAVCDynDialog@@$0A@@@QAEPAXI@Z 004445e2 f i DynDialog.obj
 0001:00043642       ??_GCDynDialog@@UAEPAXI@Z  00444642 f i DynDialog.obj
 0001:00043642       ??_ECDynDialog@@UAEPAXI@Z  00444642 f i DynDialog.obj
 0001:00043664       ?Del@?$MMap@PAUHWND__@@PAVCDynDialog@@$0A@@@QAE_NABQAUHWND__@@@Z 00444664 f i DynDialog.obj
 0001:00043680       ?DynDialogBox@CDynDialog@@KGHPAUHWND__@@IIJ@Z 00444680 f   DynDialog.obj
 0001:00043710       ?ExecuteDialog@CDynDialog@@SAHIPAUHWND__@@P6GH0IIJ@ZJ@Z 00444710 f   DynDialog.obj
 0001:000437a7       ?GetDlgClass@CDynDialog@@SAPAV1@PAUHWND__@@@Z 004447a7 f   DynDialog.obj
 0001:000437cd       ?GetFontPointSize@CDynDialog@@QAEIXZ 004447cd f   DynDialog.obj
 0001:000437e0       ?LoadTemplate@CDynDialog@@QAE_NXZ 004447e0 f   DynDialog.obj
 0001:000439ea       ?LocalizeControl@CDynDialog@@SGHPAUHWND__@@J@Z 004449ea f   DynDialog.obj
 0001:00043aca       ?LocalizeDialog@CDynDialog@@SAXPAUHWND__@@I@Z 00444aca f   DynDialog.obj
 0001:00043b11       ?ParseDialog@CDynDialog@@IAE_NAAK@Z 00444b11 f   DynDialog.obj
 0001:00043bb6       ?ParseDialogEx@CDynDialog@@IAE_NAAK@Z 00444bb6 f   DynDialog.obj
 0001:00043c76       ?ParseItem@CDynDialog@@IAE_NAAK@Z 00444c76 f   DynDialog.obj
 0001:00043d0f       ?ParseItemEx@CDynDialog@@IAE_NAAK@Z 00444d0f f   DynDialog.obj
 0001:00043dad       ?PrepareDlg@CDynDialog@@IAEXP6GHPAUHWND__@@IIJ@Z@Z 00444dad f   DynDialog.obj
 0001:00043e01       ?ShowDialog@CDynDialog@@SAPAV1@IPAUHWND__@@P6GH0IIJ@ZJ@Z 00444e01 f   DynDialog.obj
 0001:00043ea1       ?SkipSz@CDynDialog@@IAEPA_WAAK@Z 00444ea1 f   DynDialog.obj
 0001:00043ecd       ?SkipSzOrAtom@CDynDialog@@IAEPA_WAAK@Z 00444ecd f   DynDialog.obj
 0001:00043f4d       ?SkipSzOrOrd@CDynDialog@@IAEPA_WAAK@Z 00444f4d f   DynDialog.obj
 0001:00043f7e       ??0ErrorInfo@@QAE@PB_W00I@Z 00444f7e f   ErrorInfo.obj
 0001:00044079       ??0ErrorInfo@@QAE@PB_W0I@Z 00445079 f   ErrorInfo.obj
 0001:0004413e       ??0ErrorInfo@@QAE@PB_W@Z   0044513e f   ErrorInfo.obj
 0001:00044184       ??0ErrorInfo@@QAE@PB_WI@Z  00445184 f   ErrorInfo.obj
 0001:00044219       ??0ErrorInfo@@QAE@XZ       00445219 f   ErrorInfo.obj
 0001:00044251       ??1ErrorInfo@@UAE@XZ       00445251 f   ErrorInfo.obj
 0001:00044274       ??_EErrorInfo@@UAEPAXI@Z   00445274 f i ErrorInfo.obj
 0001:00044274       ??_GErrorInfo@@UAEPAXI@Z   00445274 f i ErrorInfo.obj
 0001:00044296       ?ClearError@ErrorInfo@@QAEXXZ 00445296 f   ErrorInfo.obj
 0001:000442a7       ?HasError@ErrorInfo@@QBE_NXZ 004452a7 f   ErrorInfo.obj
 0001:000442ab       ?What@ErrorInfo@@QBEPB_WXZ 004452ab f   ErrorInfo.obj
 0001:000442b9       ??0CEFindDlg@@QAE@XZ       004452b9 f   FindDlg.obj
 0001:000442b9       ??0MSectionLock@@QAE@XZ    004452b9 f   common-kernel32:MSection.obj
 0001:000442c6       ?FindTextDialog@CEFindDlg@@QAEXXZ 004452c6 f   FindDlg.obj
 0001:000443d5       ?UpdateFindDlgAlpha@CEFindDlg@@QAEX_N@Z 004453d5 f   FindDlg.obj
 0001:0004447b       ?findTextProc@CEFindDlg@@SGHPAUHWND__@@IIJ@Z 0044547b f   FindDlg.obj
 0001:0004492a       ??$SafeDelete@UCEStr@@@@YAXAAPAUCEStr@@@Z 0044592a f i FindPanel.obj
 0001:0004495b       ??0CFindPanel@@QAE@PAVCConEmuMain@@@Z 0044595b f   FindPanel.obj
 0001:000449e0       ??1CFindPanel@@QAE@XZ      004459e0 f   FindPanel.obj
 0001:00044a05       ?Activate@CFindPanel@@QAEPAUHWND__@@_N@Z 00445a05 f   FindPanel.obj
 0001:00044a50       ?CreatePane@CFindPanel@@QAEPAUHWND__@@PAU2@H@Z 00445a50 f   FindPanel.obj
 0001:00044ac7       ?EditCtrlProc@CFindPanel@@KGJPAUHWND__@@IIJ@Z 00445ac7 f   FindPanel.obj
 0001:00044b7f       ?FindPaneProc@CFindPanel@@KGJPAUHWND__@@IIJ@Z 00445b7f f   FindPanel.obj
 0001:00044c87       ?GetParseError@MJsonValue@@QAEPB_WXZ 00445c87 f   common-user32:MJsonReader.obj
 0001:00044c87       ?GetHWND@CFindPanel@@QAEPAUHWND__@@XZ 00445c87 f   FindPanel.obj
 0001:00044c8b       ?GetMinWidth@CFindPanel@@QAEHXZ 00445c8b f   FindPanel.obj
 0001:00044ca5       ?Invalidate@CFindPanel@@QAEXXZ 00445ca5 f   FindPanel.obj
 0001:00044cce       ?IsAvailable@CFindPanel@@QAE_N_N@Z 00445cce f   FindPanel.obj
 0001:00044d16       ?OnCreate@CFindPanel@@IAE_NPAUtagCREATESTRUCTW@@@Z 00445d16 f   FindPanel.obj
 0001:00044d35       ?OnCreateFinished@CFindPanel@@QAE_NXZ 00445d35 f   FindPanel.obj
 0001:00044df1       ?OnCreateFont@CFindPanel@@IAEXXZ 00445df1 f   FindPanel.obj
 0001:00044eb5       ?OnDestroy@CFindPanel@@IAEXXZ 00445eb5 f   FindPanel.obj
 0001:00044f08       ?OnKeyboard@CFindPanel@@IAE_NIIJAAJ@Z 00445f08 f   FindPanel.obj
 0001:000450a7       ?OnSearch@CFindPanel@@IAEXXZ 004460a7 f   FindPanel.obj
 0001:0004514f       ?OnSize@CFindPanel@@IAEXPAUtagRECT@@@Z 0044614f f   FindPanel.obj
 0001:00045244       ?OnWindowPosChanging@CFindPanel@@IAEXPAUtagWINDOWPOS@@@Z 00446244 f   FindPanel.obj
 0001:00045299       ?RegisterPaneClass@CFindPanel@@IAE_NXZ 00446299 f   FindPanel.obj
 0001:0004530e       ?ShowMenu@CFindPanel@@IAEXXZ 0044630e f   FindPanel.obj
 0001:00045488       ?StopSearch@CFindPanel@@IAEXXZ 00446488 f   FindPanel.obj
 0001:000454c9       ??$_Free_non_head@V?$allocator@U?$_List_node@U?$pair@$$CBKI@std@@PAX@std@@@std@@@?$_List_node@U?$pair@$$CBKI@std@@PAX@std@@SAXAAV?$allocator@U?$_List_node@U?$pair@$$CBKI@std@@PAX@std@@@1@PAU01@@Z 004464c9 f i RealConsole.obj
 0001:000454c9       ??$_Free_non_head@V?$allocator@U?$_List_node@U?$pair@$$CBHG@std@@PAX@std@@@std@@@?$_List_node@U?$pair@$$CBHG@std@@PAX@std@@SAXAAV?$allocator@U?$_List_node@U?$pair@$$CBHG@std@@PAX@std@@@1@PAU01@@Z 004464c9 f i Font.obj
 0001:000454f1       ??0?$_Hash@V?$_Umap_traits@HGV?$_Uhash_compare@HU?$hash@H@std@@U?$equal_to@H@2@@std@@V?$allocator@U?$pair@$$CBHG@std@@@2@$0A@@std@@@std@@IAE@ABV?$_Uhash_compare@HU?$hash@H@std@@U?$equal_to@H@2@@1@ABV?$allocator@U?$pair@$$CBHG@std@@@1@@Z 004464f1 f i Font.obj
 0001:000454f1       ??0?$_Hash@V?$_Umap_traits@KIV?$_Uhash_compare@KU?$hash@K@std@@U?$equal_to@K@2@@std@@V?$allocator@U?$pair@$$CBKI@std@@@2@$0A@@std@@@std@@IAE@ABV?$_Uhash_compare@KU?$hash@K@std@@U?$equal_to@K@2@@1@ABV?$allocator@U?$pair@$$CBKI@std@@@1@@Z 004464f1 f i RealConsole.obj
 0001:00045550       ??0?$list@U?$pair@$$CBHG@std@@V?$allocator@U?$pair@$$CBHG@std@@@2@@std@@QAE@ABV?$allocator@U?$pair@$$CBHG@std@@@1@@Z 00446550 f i Font.obj
 0001:00045550       ??0?$list@U?$pair@$$CBKI@std@@V?$allocator@U?$pair@$$CBKI@std@@@2@@std@@QAE@ABV?$allocator@U?$pair@$$CBKI@std@@@1@@Z 00446550 f i RealConsole.obj
 0001:0004556f       ??0CFont@@QAE@PAUHFONT__@@@Z 0044656f f   Font.obj
 0001:00045614       ??0CFont@@QAE@PAVCustomFont@@@Z 00446614 f   Font.obj
 0001:000456c0       ??1?$list@U?$pair@$$CBKI@std@@V?$allocator@U?$pair@$$CBKI@std@@@2@@std@@QAE@XZ 004466c0 f i RealConsole.obj
 0001:000456c0       ??1?$list@U?$pair@$$CBHG@std@@V?$allocator@U?$pair@$$CBHG@std@@@2@@std@@QAE@XZ 004466c0 f i Font.obj
 0001:000456c5       ??1?$unordered_map@HGU?$hash@H@std@@U?$equal_to@H@2@V?$allocator@U?$pair@$$CBHG@std@@@2@@std@@QAE@XZ 004466c5 f i Font.obj
 0001:000456c5       ??1?$unordered_map@KIU?$hash@K@std@@U?$equal_to@K@2@V?$allocator@U?$pair@$$CBKI@std@@@2@@std@@QAE@XZ 004466c5 f i RealConsole.obj
 0001:000456d9       ??1CFont@@MAE@XZ           004466d9 f   Font.obj
 0001:00045764       ??_GCFont@@MAEPAXI@Z       00446764 f i Font.obj
 0001:00045764       ??_ECFont@@MAEPAXI@Z       00446764 f i Font.obj
 0001:00045789       ?Delete@CFont@@IAE_NXZ     00446789 f   Font.obj
 0001:000457c9       ?Equal@CFont@@QBE_NPBV1@@Z 004467c9 f   Font.obj
 0001:000457f6       ?IsSet@CFont@@QBE_NXZ      004467f6 f   Font.obj
 0001:00045817       ?ResetFontWidth@CFont@@QAEXXZ 00446817 f   Font.obj
 0001:00045822       ?_Bump_erased@_Range_eraser@?$_Hash@V?$_Umap_traits@HGV?$_Uhash_compare@HU?$hash@H@std@@U?$equal_to@H@2@@std@@V?$allocator@U?$pair@$$CBHG@std@@@2@$0A@@std@@@std@@QAEXXZ 00446822 f i Font.obj
 0001:0004583e       ?_Tidy@?$list@U?$pair@$$CBKI@std@@V?$allocator@U?$pair@$$CBKI@std@@@2@@std@@AAEXXZ 0044683e f i RealConsole.obj
 0001:0004583e       ?_Tidy@?$list@U?$pair@$$CBHG@std@@V?$allocator@U?$pair@$$CBHG@std@@@2@@std@@AAEXXZ 0044683e f i Font.obj
 0001:00045857       ?_Unchecked_erase@?$_Hash@V?$_Umap_traits@HGV?$_Uhash_compare@HU?$hash@H@std@@U?$equal_to@H@2@@std@@V?$allocator@U?$pair@$$CBHG@std@@@2@$0A@@std@@@std@@AAEPAU?$_List_node@U?$pair@$$CBHG@std@@PAX@2@PAU32@QAU32@@Z 00446857 f i Font.obj
 0001:00045982       ?clear@?$_Hash@V?$_Umap_traits@HGV?$_Uhash_compare@HU?$hash@H@std@@U?$equal_to@H@2@@std@@V?$allocator@U?$pair@$$CBHG@std@@@2@$0A@@std@@@std@@QAEXXZ 00446982 f i Font.obj
 0001:000459cc       ?clear@?$list@U?$pair@$$CBHG@std@@V?$allocator@U?$pair@$$CBHG@std@@@2@@std@@QAEXXZ 004469cc f i Font.obj
 0001:000459e8       ??$?0ABQB_W@?$_Tree_temp_node@V?$allocator@U?$_Tree_node@PB_WPAX@std@@@std@@@std@@QAE@AAV?$allocator@U?$_Tree_node@PB_WPAX@std@@@1@PAU?$_Tree_node@PB_WPAX@1@ABQB_W@Z 004469e8 f i FontMgr.obj
 0001:00045a2e       ??$_Buyheadnode@V?$allocator@U?$_Tree_node@PB_WPAX@std@@@std@@@?$_Tree_node@PB_WPAX@std@@SAPAU01@AAV?$allocator@U?$_Tree_node@PB_WPAX@std@@@1@@Z 00446a2e f i FontMgr.obj
 0001:00045b0e       ??$_Emplace_reallocate@ABUFontHeightInfo@@@?$vector@UFontHeightInfo@@V?$MArrayAllocator@UFontHeightInfo@@@@@std@@QAEPAUFontHeightInfo@@QAU2@ABU2@@Z 00446b0e f i FontMgr.obj
 0001:00045bb7       ??$_Emplace_reallocate@ABURegFont@@@?$vector@URegFont@@V?$MArrayAllocator@URegFont@@@@@std@@QAEPAURegFont@@QAU2@ABU2@@Z 00446bb7 f i FontMgr.obj
 0001:00045c6e       ??$_Emplace_reallocate@UCEStr@@@?$vector@UCEStr@@V?$allocator@UCEStr@@@std@@@std@@QAEPAUCEStr@@QAU2@$$QAU2@@Z 00446c6e f i FontMgr.obj
 0001:00045d11       ??$_Erase_head@V?$allocator@U?$_Tree_node@PB_WPAX@std@@@std@@@?$_Tree_val@U?$_Tree_simple_types@PB_W@std@@@std@@QAEXAAV?$allocator@U?$_Tree_node@PB_WPAX@std@@@1@@Z 00446d11 f i FontMgr.obj
 0001:00045d34       ??$_Erase_tree@V?$allocator@U?$_Tree_node@PB_WPAX@std@@@std@@@?$_Tree_val@U?$_Tree_simple_types@PB_W@std@@@std@@QAEXAAV?$allocator@U?$_Tree_node@PB_WPAX@std@@@1@PAU?$_Tree_node@PB_WPAX@1@@Z 00446d34 f i FontMgr.obj
 0001:00045d67       ??$_Uninitialized_move@PAUCEStr@@V?$allocator@UCEStr@@@std@@@std@@YAPAUCEStr@@QAU1@0PAU1@AAV?$allocator@UCEStr@@@0@@Z 00446d67 f i FontMgr.obj
 0001:00045d67       ??$_Uninitialized_move@PAUCEStr@@V?$MArrayAllocator@UCEStr@@@@@std@@YAPAUCEStr@@QAU1@0PAU1@AAV?$MArrayAllocator@UCEStr@@@@@Z 00446d67 f i MacroImpl.obj
 0001:00045d8d       ??$_Uninitialized_move@PAUFontHeightInfo@@V?$MArrayAllocator@UFontHeightInfo@@@@@std@@YAPAUFontHeightInfo@@QAU1@0PAU1@AAV?$MArrayAllocator@UFontHeightInfo@@@@@Z 00446d8d f i FontMgr.obj
 0001:00045db7       ??$_Uninitialized_move@PAURegFont@@V?$MArrayAllocator@URegFont@@@@@std@@YAPAURegFont@@QAU1@0PAU1@AAV?$MArrayAllocator@URegFont@@@@@Z 00446db7 f i FontMgr.obj
 0001:00045de6       ??$emplace_back@ABUFontHeightInfo@@@?$vector@UFontHeightInfo@@V?$MArrayAllocator@UFontHeightInfo@@@@@std@@QAE?A_TABUFontHeightInfo@@@Z 00446de6 f i FontMgr.obj
 0001:00045e14       ??$emplace_back@ABURegFont@@@?$vector@URegFont@@V?$MArrayAllocator@URegFont@@@@@std@@QAE?A_TABURegFont@@@Z 00446e14 f i FontMgr.obj
 0001:00045e47       ??$emplace_back@UCEStr@@@?$vector@UCEStr@@V?$allocator@UCEStr@@@std@@@std@@QAE?A_T$$QAUCEStr@@@Z 00446e47 f i FontMgr.obj
 0001:00045e70       ??0?$_Tree_temp_node_alloc@V?$allocator@U?$_Tree_node@PB_WPAX@std@@@std@@@std@@QAE@AAV?$allocator@U?$_Tree_node@PB_WPAX@std@@@1@@Z 00446e70 f i FontMgr.obj
 0001:00045ea3       ??0CFontMgr@@QAE@XZ        00446ea3 f   FontMgr.obj
 0001:00045fc5       ??0CLogFont@@QAE@PB_WJJJEE@Z 00446fc5 f i FontMgr.obj
 0001:0004603f       ??1?$_Alloc_construct_ptr@V?$allocator@U?$_Tree_node@PB_WPAX@std@@@std@@@std@@QAE@XZ 0044703f f i FontMgr.obj
 0001:00046059       ??1?$vector@UCEStr@@V?$allocator@UCEStr@@@std@@@std@@QAE@XZ 00447059 f i FontMgr.obj
 0001:0004605e       ??1CEDC@@QAE@XZ            0044705e f i FontMgr.obj
 0001:0004607a       ??1CFontMgr@@QAE@XZ        0044707a f   FontMgr.obj
 0001:000461cb       ?AddFontsDir@CFontMgr@@QAEXPB_W@Z 004471cb f   FontMgr.obj
 0001:0004624d       ?AutoRecreateFont@CFontMgr@@QAE_NHH@Z 0044724d f   FontMgr.obj
 0001:0004631c       ?BorderFontCharSet@CFontMgr@@QAEEXZ 0044731c f   FontMgr.obj
 0001:00046368       ?BorderFontFaceName@CFontMgr@@QAEPB_WXZ 00447368 f   FontMgr.obj
 0001:0004638b       ?BorderFontHeight@CFontMgr@@QAEJXZ 0044738b f   FontMgr.obj
 0001:000463d0       ?BorderFontWidth@CFontMgr@@QAEJXZ 004473d0 f   FontMgr.obj
 0001:00046415       ?Create@CFontMgr@@QAE_NUCLogFont@@AAVCFontPtr@@PAPAVCustomFontFamily@@@Z 00447415 f   FontMgr.obj
 0001:00046b2d       ?CreateFontGroup@CFontMgr@@AAE_NUCLogFont@@@Z 00447b2d f   FontMgr.obj
 0001:00046e78       ?CreateOtherFont@CFontMgr@@QAE_NPB_WAAVCFontPtr@@@Z 00447e78 f   FontMgr.obj
 0001:00046ef8       ?EvalFontHeight@CFontMgr@@QAEJPB_WJE@Z 00447ef8 f   FontMgr.obj
 0001:0004713d       ?EvalLogfontSizes@CFontMgr@@QAEXAAUtagLOGFONTW@@JJ@Z 0044813d f   FontMgr.obj
 0001:00047195       ?FindCustomFont@CFontMgr@@AAE_NPB_WHHHHPAPAVCustomFontFamily@@PAPAVCustomFont@@@Z 00448195 f   FontMgr.obj
 0001:0004723c       ?FontBold@CFontMgr@@QAEHXZ 0044823c f   FontMgr.obj
 0001:00047249       ?FontCellWidth@CFontMgr@@QAEJXZ 00448249 f   FontMgr.obj
 0001:0004724e       ?FontCharSet@CFontMgr@@QAEEXZ 0044824e f   FontMgr.obj
 0001:00047252       ?FontFaceName@CFontMgr@@QAEPB_WXZ 00448252 f   FontMgr.obj
 0001:00047256       ?FontHeight@CFontMgr@@QAEJXZ 00448256 f   FontMgr.obj
 0001:000472df       ?FontHeightHtml@CFontMgr@@QAEJXZ 004482df f   FontMgr.obj
 0001:0004736b       ?FontItalic@CFontMgr@@QAEHXZ 0044836b f   FontMgr.obj
 0001:00047374       ?FontMonospaced@CFontMgr@@QAE_NXZ 00448374 f   FontMgr.obj
 0001:000473a0       ?FontPtrRegister@CFontMgr@@IAEXPAVCFont@@@Z 004483a0 f   FontMgr.obj
 0001:000473b0       ?FontPtrUnregister@CFontMgr@@IAEXPAVCFont@@@Z 004483b0 f   FontMgr.obj
 0001:000473e8       ?FontQuality@CFontMgr@@QAEEXZ 004483e8 f   FontMgr.obj
 0001:000473ec       ?FontWidth@CFontMgr@@QAEJXZ 004483ec f   FontMgr.obj
 0001:00047455       ?GetFontNameFromFile@CFontMgr@@QAEHPB_WAAY0CA@_W1@Z 00448455 f   FontMgr.obj
 0001:000474db       ?GetFontNameFromFile_BDF@CFontMgr@@QAEHPB_WAAY0CA@_W1@Z 004484db f   FontMgr.obj
 0001:00047511       ?GetFontNameFromFile_OTF@CFontMgr@@QAEHPB_WAAY0CA@_W1@Z 00448511 f   FontMgr.obj
 0001:00047b10       ?GetFontNameFromFile_TTF@CFontMgr@@QAEHPB_WAAY0CA@_W1@Z 00448b10 f   FontMgr.obj
 0001:000481e4       ?GetMainLogFont@CFontMgr@@QAEXAAUtagLOGFONTW@@@Z 004491e4 f   FontMgr.obj
 0001:000481fa       ?GetZoom@CFontMgr@@QAEJ_N@Z 004491fa f   FontMgr.obj
 0001:00048218       ?InitFont@CFontMgr@@QAEXPB_WHH@Z 00449218 f   FontMgr.obj
 0001:00048450       ?IsAlmostMonospace@CFontMgr@@SA_NPB_WPAUtagTEXTMETRICW@@PAU_OUTLINETEXTMETRICW@@@Z 00449450 f   FontMgr.obj
 0001:00048528       ?LoadOutline@CFontMgr@@SAPAU_OUTLINETEXTMETRICW@@PAUHDC__@@PAUHFONT__@@@Z 00449528 f   FontMgr.obj
 0001:000485eb       ?MacroFontSetName@CFontMgr@@QAEXPB_WGG@Z 004495eb f   FontMgr.obj
 0001:0004877f       ?MacroFontSetSize@CFontMgr@@QAE_NHH@Z 0044977f f   FontMgr.obj
 0001:00048b1f       ?MacroFontSetSizeInt@CFontMgr@@AAE_NAAUtagLOGFONTW@@HH@Z 00449b1f f   FontMgr.obj
 0001:00048c97       ?QueryFont@CFontMgr@@QAE_NW4CEFontStyles@@PAVCVirtualConsole@@AAVCFontPtr@@@Z 00449c97 f   FontMgr.obj
 0001:00048d29       ?RecreateAlternativeFont@CFontMgr@@AAEXXZ 00449d29 f   FontMgr.obj
 0001:00049052       ?RecreateFont@CFontMgr@@AAEX_N0@Z 0044a052 f   FontMgr.obj
 0001:000493cc       ?RecreateFontByDpi@CFontMgr@@QAE_NABUDpiValue@@@Z 0044a3cc f   FontMgr.obj
 0001:0004943b       ?RegisterFont@CFontMgr@@QAEHPB_WH@Z 0044a43b f   FontMgr.obj
 0001:00049c02       ?RegisterFonts@CFontMgr@@QAEXXZ 0044ac02 f   FontMgr.obj
 0001:00049d6e       ?RegisterFontsDir@CFontMgr@@AAEXPB_W@Z 0044ad6e f   FontMgr.obj
 0001:00049f8a       ?ResetFontWidth@CFontMgr@@AAEXXZ 0044af8a f   FontMgr.obj
 0001:00049fd8       ?SaveFontSizes@CFontMgr@@AAEX_N0@Z 0044afd8 f   FontMgr.obj
 0001:0004a0a8       ?SettingsLoaded@CFontMgr@@QAEXK@Z 0044b0a8 f   FontMgr.obj
 0001:0004a1b4       ?SettingsPreSave@CFontMgr@@QAEXXZ 0044b1b4 f   FontMgr.obj
 0001:0004a214       ?UnregisterFonts@CFontMgr@@QAEXXZ 0044b214 f   FontMgr.obj
 0001:0004a27c       ?_Calculate_growth@?$vector@UFontHeightInfo@@V?$MArrayAllocator@UFontHeightInfo@@@@@std@@ABEII@Z 0044b27c f i FontMgr.obj
 0001:0004a2ad       ?_Calculate_growth@?$vector@URegFont@@V?$MArrayAllocator@URegFont@@@@@std@@ABEII@Z 0044b2ad f i FontMgr.obj
 0001:0004a2e0       ?_Change_array@?$vector@UCEStr@@V?$allocator@UCEStr@@@std@@@std@@AAEXQAUCEStr@@II@Z 0044b2e0 f i FontMgr.obj
 0001:0004a331       ?_Change_array@?$vector@UFontHeightInfo@@V?$MArrayAllocator@UFontHeightInfo@@@@@std@@AAEXQAUFontHeightInfo@@II@Z 0044b331 f i FontMgr.obj
 0001:0004a360       ?_Change_array@?$vector@URegFont@@V?$MArrayAllocator@URegFont@@@@@std@@AAEXQAURegFont@@II@Z 0044b360 f i FontMgr.obj
 0001:0004a395       ?_Insert_node@?$_Tree_val@U?$_Tree_simple_types@V?$basic_string@_WU?$char_traits@_W@std@@V?$allocator@_W@2@@std@@@std@@@std@@QAEPAU?$_Tree_node@V?$basic_string@_WU?$char_traits@_W@std@@V?$allocator@_W@2@@std@@PAX@2@U?$_Tree_id@PAU?$_Tree_node@V?$basic_string@_WU?$char_traits@_W@std@@V?$allocator@_W@2@@std@@PAX@std@@@2@QAU32@@Z 0044b395 f i SystemEnvironment.obj
 0001:0004a395       ?_Insert_node@?$_Tree_val@U?$_Tree_simple_types@PB_W@std@@@std@@QAEPAU?$_Tree_node@PB_WPAX@2@U?$_Tree_id@PAU?$_Tree_node@PB_WPAX@std@@@2@QAU32@@Z 0044b395 f i FontMgr.obj
 0001:0004a49b       ?_Lrotate@?$_Tree_val@U?$_Tree_simple_types@PB_W@std@@@std@@QAEXPAU?$_Tree_node@PB_WPAX@2@@Z 0044b49b f i FontMgr.obj
 0001:0004a49b       ?_Lrotate@?$_Tree_val@U?$_Tree_simple_types@V?$basic_string@_WU?$char_traits@_W@std@@V?$allocator@_W@2@@std@@@std@@@std@@QAEXPAU?$_Tree_node@V?$basic_string@_WU?$char_traits@_W@std@@V?$allocator@_W@2@@std@@PAX@2@@Z 0044b49b f i SystemEnvironment.obj
 0001:0004a4df       ?_Rrotate@?$_Tree_val@U?$_Tree_simple_types@PB_W@std@@@std@@QAEXPAU?$_Tree_node@PB_WPAX@2@@Z 0044b4df f i FontMgr.obj
 0001:0004a4df       ?_Rrotate@?$_Tree_val@U?$_Tree_simple_types@V?$basic_string@_WU?$char_traits@_W@std@@V?$allocator@_W@2@@std@@@std@@@std@@QAEXPAU?$_Tree_node@V?$basic_string@_WU?$char_traits@_W@std@@V?$allocator@_W@2@@std@@PAX@2@@Z 0044b4df f i SystemEnvironment.obj
 0001:0004a525       ?_Throw_tree_length_error@std@@YAXXZ 0044b525 f i FontMgr.obj
 0001:0004a530       ?_Tidy@?$vector@UCEStr@@V?$allocator@UCEStr@@@std@@@std@@AAEXXZ 0044b530 f i FontMgr.obj
 0001:0004a56e       ?allocate@?$MArrayAllocator@UFontHeightInfo@@@@QAEPAUFontHeightInfo@@I@Z 0044b56e f i FontMgr.obj
 0001:0004a59e       ?allocate@?$MArrayAllocator@URegFont@@@@QAEPAURegFont@@I@Z 0044b59e f i FontMgr.obj
 0001:0004a5d1       ?allocate@?$allocator@UCEStr@@@std@@QAEPAUCEStr@@I@Z 0044b5d1 f i FontMgr.obj
 0001:0004a5f2       ?erase@?$MArray@URegFont@@@@QAEXHH@Z 0044b5f2 f i FontMgr.obj
 0001:0004a645       ?pop_back@?$MArray@PAVCFont@@@@QAE_NAAPAVCFont@@@Z 0044b645 f i FontMgr.obj
 0001:0004a645       ?pop_back@?$MArray@PAUSwitch@@@@QAE_NAAPAUSwitch@@@Z 0044b645 f i SetPgIntegr.obj
 0001:0004a645       ?pop_back@?$MArray@URunQueueItem@CRunQueue@@@@QAE_NAAURunQueueItem@CRunQueue@@@Z 0044b645 f i RunQueue.obj
 0001:0004a66f       ??0CFontPtr@@QAE@XZ        0044b66f f   FontPtr.obj
 0001:0004a675       ??1CFontPtr@@QAE@XZ        0044b675 f   FontPtr.obj
 0001:0004a6ae       ??4CFontPtr@@QAEAAV0@PAVCFont@@@Z 0044b6ae f   FontPtr.obj
 0001:0004a6c3       ?Attach@CFontPtr@@QAE_NPAVCFont@@@Z 0044b6c3 f   FontPtr.obj
 0001:0004a6fa       ?Equal@CFontPtr@@QBE_NPBVCFont@@@Z 0044b6fa f   FontPtr.obj
 0001:0004a718       ?IsSet@CFontPtr@@QBE_NXZ   0044b718 f   FontPtr.obj
 0001:0004a72d       ?Release@CFontPtr@@QAEHXZ  0044b72d f   FontPtr.obj
 0001:0004a73f       ??0?$MHandleBase@PAUHBRUSH__@@@@QAE@PAUHBRUSH__@@V?$function@$$A6AXPAUHBRUSH__@@@Z@std@@@Z 0044b73f f i FrameHolder.obj
 0001:0004a73f       ??0?$MHandleBase@PAX@@QAE@PAXV?$function@$$A6AXPAX@Z@std@@@Z 0044b73f f i common-kernel32:WObjects.obj
 0001:0004a73f       ??0?$MHandleBase@PAUHRGN__@@@@QAE@PAUHRGN__@@V?$function@$$A6AXPAUHRGN__@@@Z@std@@@Z 0044b73f f i SizeInfo.obj
 0001:0004a769       ??0CFrameHolder@@QAE@XZ    0044b769 f   FrameHolder.obj
 0001:0004a7bb       ??0MBrush@@QAE@PAUHBRUSH__@@V?$function@$$A6AXPAUHBRUSH__@@@Z@std@@@Z 0044b7bb f i FrameHolder.obj
 0001:0004a7bb       ??0MRgn@@QAE@PAUHRGN__@@V?$function@$$A6AXPAUHRGN__@@@Z@std@@@Z 0044b7bb f i SizeInfo.obj
 0001:0004a7ed       ??1CFrameHolder@@UAE@XZ    0044b7ed f   FrameHolder.obj
 0001:0004a7f8       ??_GCFrameHolder@@UAEPAXI@Z 0044b7f8 f i FrameHolder.obj
 0001:0004a7f8       ??_ECFrameHolder@@UAEPAXI@Z 0044b7f8 f i FrameHolder.obj
 0001:0004a81f       ?DoNcHitTest@CFrameHolder@@IAEJABUtagPOINT@@HHJ@Z 0044b81f f   FrameHolder.obj
 0001:0004aacb       ?GetWinCaptionHeight@CFrameHolder@@QAEIXZ 0044bacb f   FrameHolder.obj
 0001:0004aad7       ?GetWinFrameWidth@CFrameHolder@@QAEIXZ 0044bad7 f   FrameHolder.obj
 0001:0004aaf4       ?InitFrameHolder@CFrameHolder@@QAEXXZ 0044baf4 f   FrameHolder.obj
 0001:0004aafd       ?NC_Redraw@CFrameHolder@@IAEXXZ 0044bafd f   FrameHolder.obj
 0001:0004ab33       ?OnDwmCompositionChanged@CFrameHolder@@IAE_NPAUHWND__@@IIJAAJ@Z 0044bb33 f   FrameHolder.obj
 0001:0004ab97       ?OnKeyboardMessage@CFrameHolder@@IAE_NPAUHWND__@@IIJAAJ@Z 0044bb97 f   FrameHolder.obj
 0001:0004abf2       ?OnMouseMessage@CFrameHolder@@IAE_NPAUHWND__@@IIJAAJ@Z 0044bbf2 f   FrameHolder.obj
 0001:0004accd       ?OnNcActivate@CFrameHolder@@IAE_NPAUHWND__@@IIJAAJ@Z 0044bccd f   FrameHolder.obj
 0001:0004adab       ?OnNcCalcSize@CFrameHolder@@IAE_NPAUHWND__@@IIJAAJ@Z 0044bdab f   FrameHolder.obj
 0001:0004b0b9       ?OnNcHitTest@CFrameHolder@@IAE_NPAUHWND__@@IIJAAJ@Z 0044c0b9 f   FrameHolder.obj
 0001:0004b174       ?OnNcLButtonDblClk@CFrameHolder@@IAE_NPAUHWND__@@IIJAAJ@Z 0044c174 f   FrameHolder.obj
 0001:0004b1df       ?OnNcMouseMessage@CFrameHolder@@IAE_NPAUHWND__@@IIJAAJ@Z 0044c1df f   FrameHolder.obj
 0001:0004b33a       ?OnNcPaint@CFrameHolder@@IAE_NPAUHWND__@@IIJAAJ@Z 0044c33a f   FrameHolder.obj
 0001:0004b3cc       ?OnNcUahDrawCaption@CFrameHolder@@IAE_NPAUHWND__@@IIJAAJ@Z 0044c3cc f   FrameHolder.obj
 0001:0004b457       ?OnNcUahDrawFrame@CFrameHolder@@IAE_NPAUHWND__@@IIJAAJ@Z 0044c457 f   FrameHolder.obj
 0001:0004b4e2       ?OnPaint@CFrameHolder@@IAE_NPAUHWND__@@PAUHDC__@@IAAJ@Z 0044c4e2 f   FrameHolder.obj
 0001:0004b714       ?OnSysCommand@CFrameHolder@@IAE_NPAUHWND__@@IIJAAJ@Z 0044c714 f   FrameHolder.obj
 0001:0004b79a       ?ProcessNcMessage@CFrameHolder@@QAE_NPAUHWND__@@IIJAAJ@Z 0044c79a f   FrameHolder.obj
 0001:0004b9ee       ?RecalculateFrameSizes@CFrameHolder@@QAEXXZ 0044c9ee f   FrameHolder.obj
 0001:0004ba4c       ?RedrawFrame@CFrameHolder@@QAEXXZ 0044ca4c f   FrameHolder.obj
 0001:0004ba5c       ?SetAllowPreserveClient@CFrameHolder@@QAE_N_N@Z 0044ca5c f   FrameHolder.obj
 0001:0004ba6c       ?SetDontPreserveClient@CFrameHolder@@QAE_N_N@Z 0044ca6c f   FrameHolder.obj
 0001:0004ba7c       ?SetFrameActiveState@CFrameHolder@@QAEX_N@Z 0044ca7c f   FrameHolder.obj
 0001:0004ba9b       ?isInNcPaint@CFrameHolder@@QAE_NXZ 0044ca9b f   FrameHolder.obj
 0001:0004baa3       ??0MGlobal@@QAE@XZ         0044caa3 f   common-user32:MGlobal.obj
 0001:0004baa3       ??0HandleMonitor@@QAE@XZ   0044caa3 f   GdiObjects.obj
 0001:0004baa3       ??0CEStr@@QAE@XZ           0044caa3 f   common-kernel32:CEStr.obj
 0001:0004baa3       ??0CEStrA@@QAE@XZ          0044caa3 f   common-kernel32:CEStr.obj
 0001:0004baad       ?DoCheck@HandleMonitor@@QAEXXZ 0044caad f   GdiObjects.obj
 0001:0004bb78       ??$swprintf_c@$0DM@@@YAHAAY0DM@_WPB_WZZ 0044cb78 f i GestureEngine.obj
 0001:0004bb8e       ??0CGestures@@QAE@XZ       0044cb8e f   GestureEngine.obj
 0001:0004bc2c       ??1CGestures@@UAE@XZ       0044cc2c f   GestureEngine.obj
 0001:0004bc33       ??_ECGestures@@UAEPAXI@Z   0044cc33 f i GestureEngine.obj
 0001:0004bc33       ??_GCGestures@@UAEPAXI@Z   0044cc33 f i GestureEngine.obj
 0001:0004bc56       ?DumpGesture@CGestures@@AAEXPB_WABUtagGESTUREINFO@@@Z 0044cc56 f   GestureEngine.obj
 0001:0004bdfa       ?IsGesturesEnabled@CGestures@@QAE_NXZ 0044cdfa f   GestureEngine.obj
 0001:0004be40       ?ProcessGestureMessage@CGestures@@UAE_NPAUHWND__@@IIJAAJ@Z 0044ce40 f   GestureEngine.obj
 0001:0004c365       ?ProcessMove@CGestures@@UAE_NPAUHWND__@@JJ@Z 0044d365 f   GestureEngine.obj
 0001:0004c445       ?ProcessPressAndTap@CGestures@@UAEXPAUHWND__@@JJFF@Z 0044d445 f   GestureEngine.obj
 0001:0004c45a       ?ProcessRotate@CGestures@@UAE_NPAUHWND__@@JJJ_N@Z 0044d45a f   GestureEngine.obj
 0001:0004c4d4       ?ProcessTwoFingerTap@CGestures@@UAEXPAUHWND__@@JJK@Z 0044d4d4 f   GestureEngine.obj
 0001:0004c4e9       ?ProcessZoom@CGestures@@UAEXPAUHWND__@@NJJ@Z 0044d4e9 f   GestureEngine.obj
 0001:0004c561       ?SendRClick@CGestures@@AAEXPAUHWND__@@JJ@Z 0044d561 f   GestureEngine.obj
 0001:0004c608       ??$GetProcAddress@PAPAUHWND__@@@@YAPAPAUHWND__@@AAPAPAU0@PAUHINSTANCE__@@PBD@Z 0044d608 f i GlobalHotkeys.obj
 0001:0004c62c       ??$swprintf_s@$0BAA@@@YAHAAY0BAA@_WPB_WZZ 0044d62c f i GlobalHotkeys.obj
 0001:0004c64a       ??$swprintf_s@$0EA@@@YAHAAY0EA@_WPB_WZZ 0044d64a f i GlobalHotkeys.obj
 0001:0004c665       ??$swprintf_s@$0FA@@@YAHAAY0FA@_WPB_WZZ 0044d665 f i GlobalHotkeys.obj
 0001:0004c695       ?GlobalHotKeyChanged@GlobalHotkeys@@QAEXXZ 0044d695 f   GlobalHotkeys.obj
 0001:0004c6c3       ?IsActiveHotkeyRegistered@GlobalHotkeys@@QBE_NXZ 0044d6c3 f   GlobalHotkeys.obj
 0001:0004c6c6       ?IsKeyboardHookRegistered@GlobalHotkeys@@QBE_NXZ 0044d6c6 f   GlobalHotkeys.obj
 0001:0004c6ce       ?LoadConEmuCD@GlobalHotkeys@@IAEPAUHINSTANCE__@@XZ 0044d6ce f   GlobalHotkeys.obj
 0001:0004c755       ?OnWmHotkey@GlobalHotkeys@@QBEXIK@Z 0044d755 f   GlobalHotkeys.obj
 0001:0004c96a       ?RegisterGlobalHotKeys@GlobalHotkeys@@QAEX_N@Z 0044d96a f   GlobalHotkeys.obj
 0001:0004cb03       ?RegisterHooks@GlobalHotkeys@@QAEXXZ 0044db03 f   GlobalHotkeys.obj
 0001:0004cd3b       ?RegisterHotKeys@GlobalHotkeys@@QAEXXZ 0044dd3b f   GlobalHotkeys.obj
 0001:0004cd7f       ?RegisterHotkey@GlobalHotkeys@@IBE_NAAURegisteredHotKeys@1@KKKPB_W@Z 0044dd7f f   GlobalHotkeys.obj
 0001:0004cedd       ?RegisterMinRestore@GlobalHotkeys@@QBEX_N@Z 0044dedd f   GlobalHotkeys.obj
 0001:0004d0bd       ?UnRegisterHooks@GlobalHotkeys@@QAEX_N@Z 0044e0bd f   GlobalHotkeys.obj
 0001:0004d144       ?UnRegisterHotKeys@GlobalHotkeys@@QAEX_N@Z 0044e144 f   GlobalHotkeys.obj
 0001:0004d160       ?UnregisterHotkey@GlobalHotkeys@@IBEXAAURegisteredHotKeys@1@@Z 0044e160 f   GlobalHotkeys.obj
 0001:0004d204       ?UpdateActiveGhost@GlobalHotkeys@@QBEXPAVCVirtualConsole@@@Z 0044e204 f   GlobalHotkeys.obj
 0001:0004d253       ?UpdateWinHookSettings@GlobalHotkeys@@QBEXXZ 0044e253 f   GlobalHotkeys.obj
 0001:0004d2ae       ??0CGuiServer@@QAE@XZ      0044e2ae f   GuiServer.obj
 0001:0004d2fc       ??1CGuiServer@@QAE@XZ      0044e2fc f   GuiServer.obj
 0001:0004d337       ?AllocRequestBuf@PipeInst@?$PipeServer@UCESERVER_REQ@@@@QAEPAUCESERVER_REQ@@K@Z 0044e337 f i GuiServer.obj
 0001:0004d465       ?DumpError@?$PipeServer@UCESERVER_REQ@@@@IAEXPAUPipeInst@1@PB_WH@Z 0044e465 f i GuiServer.obj
 0001:0004d538       ?GuiServerCommand@CGuiServer@@KGHPAXPAUCESERVER_REQ@@AAPAU2@AAK3J@Z 0044e538 f   GuiServer.obj
 0001:0004e4ec       ?GuiServerFree@CGuiServer@@KGXPAUCESERVER_REQ@@J@Z 0044f4ec f   GuiServer.obj
 0001:0004e4ec       ?ServerCommandFree@CRealServer@@KGXPAUCESERVER_REQ@@J@Z 0044f4ec f   RealServer.obj
 0001:0004e551       ?PipeServerRead@?$PipeServer@UCESERVER_REQ@@@@IAEHPAUPipeInst@1@@Z 0044f551 f i GuiServer.obj
 0001:0004e7a0       ?PipeServerThread@?$PipeServer@UCESERVER_REQ@@@@IAEKPAUPipeInst@1@@Z 0044f7a0 f i GuiServer.obj
 0001:0004e9cb       ?PipeServerWrite@?$PipeServer@UCESERVER_REQ@@@@IAEHPAUPipeInst@1@PBXKPAKH@Z 0044f9cb f i GuiServer.obj
 0001:0004eaa7       ?SetMaxCount@?$PipeServer@UCESERVER_REQ@@@@QAEXH@Z 0044faa7 f i GuiServer.obj
 0001:0004eace       ?Start@CGuiServer@@QAE_NXZ 0044face f   GuiServer.obj
 0001:0004eb8c       ?StartPipeInstance@?$PipeServer@UCESERVER_REQ@@@@IAE_NPAUPipeInst@1@@Z 0044fb8c f i GuiServer.obj
 0001:0004ecbb       ?StartPipeServer@?$PipeServer@UCESERVER_REQ@@@@QAE_N_NPB_WJPAU_SECURITY_ATTRIBUTES@@P6GHPAXPAUCESERVER_REQ@@AAPAU3@AAK6J@ZP6GX4J@ZP6GH3J@Z99@Z 0044fcbb f i GuiServer.obj
 0001:0004eded       ?Stop@CGuiServer@@QAEX_N@Z 0044fded f   GuiServer.obj
 0001:0004ee90       ?StopPipeServer@?$PipeServer@UCESERVER_REQ@@@@QAEX_NAA_N@Z 0044fe90 f i GuiServer.obj
 0001:0004f154       ?TerminatePipeThread@?$PipeServer@UCESERVER_REQ@@@@KAXAAPAXABUPipeInst@1@AA_N@Z 00450154 f i GuiServer.obj
 0001:0004f1a5       ?WaitForClient@?$PipeServer@UCESERVER_REQ@@@@IAE_NPAUPipeInst@1@AAH1@Z 004501a5 f i GuiServer.obj
 0001:0004f472       ?WaitOverlapped@?$PipeServer@UCESERVER_REQ@@@@IAEHPAUPipeInst@1@PAK@Z 00450472 f i GuiServer.obj
 0001:0004f5c1       ?WriteDummyAnswer@?$PipeServer@UCESERVER_REQ@@@@IAEHPAUPipeInst@1@@Z 004505c1 f i GuiServer.obj
 0001:0004f66b       ?_Disconnect@?$PipeServer@UCESERVER_REQ@@@@IAEXPAUPipeInst@1@_N11@Z 0045066b f i GuiServer.obj
 0001:0004f724       ?_PipeServerThread@?$PipeServer@UCESERVER_REQ@@@@KGKPAX@Z 00450724 f i GuiServer.obj
 0001:0004f771       ?HooksUnlockerProc@@YA_N_N@Z 00450771 f   HooksUnlocker.obj
 0001:0004f7bb       ?Compare@ConEmuChord@@CA_NKK@Z 004507bb f   HotkeyChord.obj
 0001:0004f8ba       ?GetFlagsFromMod@CEVkMatch@@SAKK@Z 004508ba f   HotkeyChord.obj
 0001:0004f8ed       ?GetHotKeyMod@ConEmuChord@@SAKK@Z 004508ed f   HotkeyChord.obj
 0001:0004f961       ?GetHotkey@ConEmuChord@@SAKK@Z 00450961 f   HotkeyChord.obj
 0001:0004f96a       ?GetHotkeyName@ConEmuChord@@SAPB_WAAY0IA@_WKW4ConEmuHotKeyType@@_N@Z 0045096a f   HotkeyChord.obj
 0001:0004faf0       ?GetMatchByVk@CEVkMatch@@SA_NEAAU1@@Z 00450af0 f   HotkeyChord.obj
 0001:0004fc3e       ?GetModifier@ConEmuChord@@SAKKH@Z 00450c3e f   HotkeyChord.obj
 0001:0004fcad       ?GetModifiers@ConEmuChord@@QBEIAAY02E@Z 00450cad f   HotkeyChord.obj
 0001:0004fd18       ?GetVkByKeyName@ConEmuChord@@SAIPB_WPAHPAK@Z 00450d18 f   HotkeyChord.obj
 0001:0004fe12       ?GetVkKeyName@ConEmuChord@@SAXEAAY0CA@_W_N@Z 00450e12 f   HotkeyChord.obj
 0001:000500e0       ?GetVkMod@ConEmuChord@@QBEKW4ConEmuHotKeyType@@@Z 004510e0 f   HotkeyChord.obj
 0001:0005019f       ?HasModifier@ConEmuChord@@SA_NKE@Z 0045119f f   HotkeyChord.obj
 0001:000501e9       ?IsEmpty@ConEmuChord@@QBE_NXZ 004511e9 f   HotkeyChord.obj
 0001:000501f0       ?IsEqual@ConEmuChord@@QBE_NABU1@@Z 004511f0 f   HotkeyChord.obj
 0001:00050206       ?IsEqual@ConEmuChord@@QBE_NEK@Z 00451206 f   HotkeyChord.obj
 0001:0005023c       ?MakeHotKey@ConEmuChord@@SAKEEEE@Z 0045123c f   HotkeyChord.obj
 0001:00050293       ?Set@ConEmuChord@@QAEXEK@Z 00451293 f   HotkeyChord.obj
 0001:000502a5       ?SetHotKey@ConEmuChord@@QAEXW4ConEmuHotKeyType@@EEEE@Z 004512a5 f   HotkeyChord.obj
 0001:000502d1       ?SetModifier@ConEmuChord@@SAKKE_N@Z 004512d1 f   HotkeyChord.obj
 0001:00050421       ?SetVkMod@ConEmuChord@@QAEXW4ConEmuHotKeyType@@K_N@Z 00451421 f   HotkeyChord.obj
 0001:00050487       ?TestHostkeyModifiers@ConEmuChord@@SAXAAK@Z 00451487 f   HotkeyChord.obj
 0001:000505ed       ??0CHotKeyDialog@@QAE@PAUHWND__@@K@Z 004515ed f   HotkeyDlg.obj
 0001:0005065d       ??1CHotKeyDialog@@QAE@XZ   0045165d f   HotkeyDlg.obj
 0001:0005066b       ?EditHotKey@CHotKeyDialog@@SA_NPAUHWND__@@AAK@Z 0045166b f   HotkeyDlg.obj
 0001:000506d3       ?FillModifierBoxes@CHotKeyDialog@@SAXABUConEmuHotKey@@PAUHWND__@@@Z 004516d3 f   HotkeyDlg.obj
 0001:0005071c       ?SetHotkeyField@CHotKeyDialog@@SAXPAUHWND__@@E@Z 0045171c f   HotkeyDlg.obj
 0001:0005076f       ?dlgGetHotkey@CHotKeyDialog@@SAKPAUHWND__@@II@Z 0045176f f   HotkeyDlg.obj
 0001:00050828       ?hkDlgProc@CHotKeyDialog@@SGHPAUHWND__@@IIJ@Z 00451828 f   HotkeyDlg.obj
 0001:00050b49       ??$_Emplace_reallocate@UConEmuHotKey@@@?$vector@UConEmuHotKey@@V?$MArrayAllocator@UConEmuHotKey@@@@@std@@QAEPAUConEmuHotKey@@QAU2@$$QAU2@@Z 00451b49 f i HotkeyList.obj
 0001:00050bfe       ??$_Uninitialized_move@PAUConEmuHotKey@@V?$MArrayAllocator@UConEmuHotKey@@@@@std@@YAPAUConEmuHotKey@@QAU1@0PAU1@AAV?$MArrayAllocator@UConEmuHotKey@@@@@Z 00451bfe f i HotkeyList.obj
 0001:00050c2b       ??$emplace_back@UConEmuHotKey@@@?$vector@UConEmuHotKey@@V?$MArrayAllocator@UConEmuHotKey@@@@@std@@QAE?A_T$$QAUConEmuHotKey@@@Z 00451c2b f i HotkeyList.obj
 0001:00050c5c       ?Add@ConEmuHotKeyList@@IAEAAUConEmuHotKey@@HW4ConEmuHotKeyType@@PB_WP6G_NABUConEmuChord@@_NPBU2@PAVCRealConsole@@@Z@Z 00451c5c f   HotkeyList.obj
 0001:00050d2b       ?AllocateHotkeys@ConEmuHotKeyList@@QAEHXZ 00451d2b f   HotkeyList.obj
 0001:00052aa3       ?FindHotKey@ConEmuHotKeyList@@QAEPBUConEmuHotKey@@ABUConEmuChord@@PAVCRealConsole@@@Z 00453aa3 f   HotkeyList.obj
 0001:00052b90       ?GetHotKeyInfo@ConEmuHotKeyList@@QAEPBUConEmuHotKey@@ABUConEmuChord@@_NPAVCRealConsole@@@Z 00453b90 f   HotkeyList.obj
 0001:00052bb6       ?GetHotKeyPtr@ConEmuHotKeyList@@QAEPBUConEmuHotKey@@H@Z 00453bb6 f   HotkeyList.obj
 0001:00052c02       ?ReleaseHotkeys@ConEmuHotKeyList@@QAEXXZ 00453c02 f   HotkeyList.obj
 0001:00052c5c       ?UpdateArrowModifier@ConEmuHotKeyList@@QAEXXZ 00453c5c f   HotkeyList.obj
 0001:00052cba       ?UpdateNumberModifier@ConEmuHotKeyList@@QAEXXZ 00453cba f   HotkeyList.obj
 0001:00052d18       ?_Change_array@?$vector@UConEmuHotKey@@V?$MArrayAllocator@UConEmuHotKey@@@@@std@@AAEXQAUConEmuHotKey@@II@Z 00453d18 f i HotkeyList.obj
 0001:00052d4d       ?CanChangeVK@ConEmuHotKey@@QBE_NXZ 00453d4d f   Hotkeys.obj
 0001:00052d6e       ?CreateNotUniqueWarning@ConEmuHotKey@@SAPB_WPB_W00AAUCEStr@@@Z 00453d6e f   Hotkeys.obj
 0001:00052e1d       ?Equal@ConEmuHotKey@@QBE_NEEEE@Z 00453e1d f   Hotkeys.obj
 0001:00052e46       ?GetDescription@ConEmuHotKey@@QBEPB_WPA_WH_N@Z 00453e46 f   Hotkeys.obj
 0001:000530f7       ?GetHotkeyName@ConEmuHotKey@@QBEPB_WAAY0IA@_W_N@Z 004540f7 f   Hotkeys.obj
 0001:0005311e       ?GetTaskIndex@ConEmuHotKey@@QBEHXZ 0045411e f   Hotkeys.obj
 0001:00053135       ?GetVkMod@ConEmuHotKey@@QBEKXZ 00454135 f   Hotkeys.obj
 0001:00053144       ?InSelection@ConEmuHotKey@@SA_NXZ 00454144 f   Hotkeys.obj
 0001:00053196       ?IsTaskHotKey@ConEmuHotKey@@QBE_NXZ 00454196 f   Hotkeys.obj
 0001:000531a5       ?SetEnabled@ConEmuHotKey@@QAEAAU1@P6A_NXZ@Z 004541a5 f   Hotkeys.obj
 0001:000531b4       ?SetHotKey@ConEmuHotKey@@QAEAAU1@EEEE@Z 004541b4 f   Hotkeys.obj
 0001:000531db       ?SetMacro@ConEmuHotKey@@QAEAAU1@PB_W@Z 004541db f   Hotkeys.obj
 0001:00053254       ?SetOnKeyUp@ConEmuHotKey@@QAEAAU1@XZ 00454254 f   Hotkeys.obj
 0001:0005325e       ?SetTaskIndex@ConEmuHotKey@@QAEXH@Z 0045425e f   Hotkeys.obj
 0001:00053274       ?SetVkMod@ConEmuHotKey@@QAEAAU1@K@Z 00454274 f   Hotkeys.obj
 0001:00053294       ?UseCTSShiftArrow@ConEmuHotKey@@SA_NXZ 00454294 f   Hotkeys.obj
 0001:00053317       ?UseCtrlBS@ConEmuHotKey@@SA_NXZ 00454317 f   Hotkeys.obj
 0001:00053331       ?UseCtrlTab@ConEmuHotKey@@SA_NXZ 00454331 f   Hotkeys.obj
 0001:0005333d       ?UseDndLKey@ConEmuHotKey@@SA_NXZ 0045433d f   Hotkeys.obj
 0001:0005334b       ?UsePromptFind@ConEmuHotKey@@SA_NXZ 0045434b f   Hotkeys.obj
 0001:000533f8       ?UseWinArrows@ConEmuHotKey@@SA_NXZ 004543f8 f   Hotkeys.obj
 0001:00053404       ?UseWinMove@ConEmuHotKey@@SA_NXZ 00454404 f   Hotkeys.obj
 0001:0005342f       ?UseWinNumber@ConEmuHotKey@@SA_NXZ 0045442f f   Hotkeys.obj
 0001:00053452       ?UseWndDragKey@ConEmuHotKey@@SA_NXZ 00454452 f   Hotkeys.obj
 0001:0005345e       ??$sprintf_c@$0PP@@@YAHAAY0PP@DPBDZZ 0045445e f i HtmlCopy.obj
 0001:00053477       ??$swprintf_c@$0HNA@@@YAHAAY0HNA@_WPB_WZZ 00454477 f i HtmlCopy.obj
 0001:00053490       ??$wcscpy_c@$0BAA@@@YAHAAY0BAA@_WPB_W@Z 00454490 f i HtmlCopy.obj
 0001:000534a5       ??0CAnsiCopy@@QAE@ABV?$array@K$0BA@@std@@KK@Z 004544a5 f   HtmlCopy.obj
 0001:00053501       ??0CFormatCopy@@QAE@XZ     00454501 f   HtmlCopy.obj
 0001:00053536       ??0CHtmlCopy@@QAE@_NPB_W1HKK@Z 00454536 f   HtmlCopy.obj
 0001:00053624       ??1CFormatCopy@@UAE@XZ     00454624 f   HtmlCopy.obj
 0001:0005369c       ??_GCAnsiCopy@@UAEPAXI@Z   0045469c f i HtmlCopy.obj
 0001:0005369c       ??_ECAnsiCopy@@UAEPAXI@Z   0045469c f i HtmlCopy.obj
 0001:000536c7       ??_GCFormatCopy@@UAEPAXI@Z 004546c7 f i HtmlCopy.obj
 0001:000536c7       ??_ECFormatCopy@@UAEPAXI@Z 004546c7 f i HtmlCopy.obj
 0001:000536ec       ??_GCHtmlCopy@@UAEPAXI@Z   004546ec f i HtmlCopy.obj
 0001:000536ec       ??_ECHtmlCopy@@UAEPAXI@Z   004546ec f i HtmlCopy.obj
 0001:00053717       ?CreateResult@CAnsiCopy@@UAEPAXXZ 00454717 f   HtmlCopy.obj
 0001:00053766       ?CreateResult@CHtmlCopy@@UAEPAXXZ 00454766 f   HtmlCopy.obj
 0001:00053851       ?CreateResultInternal@CFormatCopy@@IAEPAXPBDH@Z 00454851 f   HtmlCopy.obj
 0001:000539b7       ?FormatColor@CAnsiCopy@@IAEPB_WKK_N00AAY0FA@_W@Z 004549b7 f   HtmlCopy.obj
 0001:00053c02       ?FormatColor@CHtmlCopy@@IAEPB_WKPA_W@Z 00454c02 f   HtmlCopy.obj
 0001:00053c37       ?LineAdd@CFormatCopy@@UAEXPB_WPBGABV?$array@K$0BA@@std@@H@Z 00454c37 f   HtmlCopy.obj
 0001:00053cc2       ?LineAdd@CFormatCopy@@UAEXPB_WPBUtag_CharAttr@@H@Z 00454cc2 f   HtmlCopy.obj
 0001:00053d84       ?ParBegin@CAnsiCopy@@MAEXXZ 00454d84 f   HtmlCopy.obj
 0001:00053d9e       ?ParBegin@CHtmlCopy@@MAEXXZ 00454d9e f   HtmlCopy.obj
 0001:00053db8       ?ParEnd@CAnsiCopy@@MAEXXZ  00454db8 f   HtmlCopy.obj
 0001:00053dd5       ?ParEnd@CHtmlCopy@@MAEXXZ  00454dd5 f   HtmlCopy.obj
 0001:00053df2       ?RawAdd@CFormatCopy@@IAEXPB_WH@Z 00454df2 f   HtmlCopy.obj
 0001:00053ea2       ?TextAdd@CAnsiCopy@@MAEXPB_WHKK_N11@Z 00454ea2 f   HtmlCopy.obj
 0001:00053f63       ?TextAdd@CHtmlCopy@@MAEXPB_WHKK_N11@Z 00454f63 f   HtmlCopy.obj
 0001:00054171       ??0CIconList@@QAE@XZ       00455171 f   IconList.obj
 0001:000541d6       ??1CIconList@@QAE@XZ       004551d6 f   IconList.obj
 0001:00054289       ?CreateTabIcon@CIconList@@QAEHPB_W_N0@Z 00455289 f   IconList.obj
 0001:0005443b       ?CreateTabIconInt@CIconList@@IAEHPB_W_N0@Z 0045543b f   IconList.obj
 0001:000549e9       ?GetIconInfoStr@CIconList@@SAPB_WPAUHICON__@@AAY0FA@_W@Z 004559e9 f   IconList.obj
 0001:00054a68       ?GetTabIcon@CIconList@@QAEH_N@Z 00455a68 f   IconList.obj
 0001:00054a90       ?GetTabIconByIndex@CIconList@@QAEPAUHICON__@@H@Z 00455a90 f   IconList.obj
 0001:00054ab3       ?Initialize@CIconList@@QAE_NXZ 00455ab3 f   IconList.obj
 0001:00054cfa       ?IsInitialized@CIconList@@QAE_NXZ 00455cfa f   IconList.obj
 0001:00054d02       ?ParseIconFileIndex@CIconList@@SAPB_WAAUCEStr@@AAH@Z 00455d02 f   IconList.obj
 0001:00054d73       ??$SafeDelete@VCToolImg@@@@YAXAAPAVCToolImg@@@Z 00455d73 f i ImgButton.obj
 0001:00054da4       ??$_Emplace_reallocate@ABUBtnInfo@@@?$vector@UBtnInfo@@V?$MArrayAllocator@UBtnInfo@@@@@std@@QAEPAUBtnInfo@@QAU2@ABU2@@Z 00455da4 f i ImgButton.obj
 0001:00054e4d       ??$_Uninitialized_move@PAUBtnInfo@@V?$MArrayAllocator@UBtnInfo@@@@@std@@YAPAUBtnInfo@@QAU1@0PAU1@AAV?$MArrayAllocator@UBtnInfo@@@@@Z 00455e4d f i ImgButton.obj
 0001:00054e77       ??$emplace_back@ABUBtnInfo@@@?$vector@UBtnInfo@@V?$MArrayAllocator@UBtnInfo@@@@@std@@QAE?A_TABUBtnInfo@@@Z 00455e77 f i ImgButton.obj
 0001:00054ea5       ??0CImgButtons@@QAE@PAUHWND__@@HH@Z 00455ea5 f   ImgButton.obj
 0001:00054ee3       ??1CImgButtons@@QAE@XZ     00455ee3 f   ImgButton.obj
 0001:00054f9b       ?Add@CImgButtons@@IAEXPB_WP6APAVCToolImg@@XZI0P6AXXZ@Z 00455f9b f   ImgButton.obj
 0001:0005502b       ?AddDonateButtons@CImgButtons@@QAEXXZ 0045602b f   ImgButton.obj
 0001:00055054       ?GetBtnInfo@CImgButtons@@IAE_NIPAPAUBtnInfo@@@Z 00456054 f   ImgButton.obj
 0001:000550ad       ?ImplementButtons@CImgButtons@@IAEXXZ 004560ad f   ImgButton.obj
 0001:000551f7       ?Process@CImgButtons@@QAE_NPAUHWND__@@IIJAAH@Z 004561f7 f   ImgButton.obj
 0001:000552e4       ?RegisterTip@CImgButtons@@IAEXXZ 004562e4 f   ImgButton.obj
 0001:000553e7       ?_Calculate_growth@?$vector@UBtnInfo@@V?$MArrayAllocator@UBtnInfo@@@@@std@@ABEII@Z 004563e7 f i ImgButton.obj
 0001:00055418       ?_Change_array@?$vector@UBtnInfo@@V?$MArrayAllocator@UBtnInfo@@@@@std@@AAEXQAUBtnInfo@@II@Z 00456418 f i ImgButton.obj
 0001:00055447       ?allocate@?$MArrayAllocator@UBtnInfo@@@@QAEPAUBtnInfo@@I@Z 00456447 f i ImgButton.obj
 0001:00055477       ??0?$MFileMapping@UCONEMU_INSIDE_MAPPING@@@@QAE@XZ 00456477 f i Inside.obj
 0001:000554d4       ??0CConEmuInside@@QAE@XZ   004564d4 f   Inside.obj
 0001:0005557e       ??1CConEmuInside@@QAE@XZ   0045657e f   Inside.obj
 0001:00055668       ?CheckInsideFocus@CConEmuInside@@QBEPAUHWND__@@XZ 00456668 f   Inside.obj
 0001:000557a2       ?EnumInsideFindParent@CConEmuInside@@CGHPAUHWND__@@J@Z 004567a2 f   Inside.obj
 0001:00055862       ?GetInsideRect@CConEmuInside@@QBE_NPAUtagRECT@@@Z 00456862 f   Inside.obj
 0001:00055985       ?GetInsideSynchronizeCurDir@CConEmuInside@@QBEPB_WXZ 00456985 f   Inside.obj
 0001:00055996       ?GetParentRoot@CConEmuInside@@QBEPAUHWND__@@XZ 00456996 f   Inside.obj
 0001:000559d3       ?GetParentWnd@CConEmuInside@@QBEPAUHWND__@@XZ 004569d3 f   Inside.obj
 0001:000559eb       ?InitInside@CConEmuInside@@SA_N_N0PB_WKPAUHWND__@@@Z 004569eb f   Inside.obj
 0001:00055aa9       ?InsideFindConEmu@CConEmuInside@@CAPAUHWND__@@PAU2@@Z 00456aa9 f   Inside.obj
 0001:00055b1f       ?InsideFindParent@CConEmuInside@@QAEPAUHWND__@@XZ 00456b1f f   Inside.obj
 0001:00055e6a       ?InsideFindShellView@CConEmuInside@@AAE_NPAUHWND__@@@Z 00456e6a f   Inside.obj
 0001:00056155       ?InsideParentMonitor@CConEmuInside@@QAEXXZ 00457155 f   Inside.obj
 0001:00056170       ?InsideUpdateDir@CConEmuInside@@AAEXXZ 00457170 f   Inside.obj
 0001:00056309       ?InsideUpdatePlacement@CConEmuInside@@AAEXXZ 00457309 f   Inside.obj
 0001:000564be       ?IsInMinimizing@CConEmuInside@@QBE_NPAUtagWINDOWPOS@@@Z 004574be f   Inside.obj
 0001:000564cb       ?IsInsideIntegrationAdmin@CConEmuInside@@QBE_NXZ 004574cb f   Inside.obj
 0001:000564d2       ?IsInsideWndSet@CConEmuInside@@QBE_NXZ 004574d2 f   Inside.obj
 0001:000564ea       ?IsParentIconic@CConEmuInside@@QBE_NXZ 004574ea f   Inside.obj
 0001:00056512       ?IsParentProcess@CConEmuInside@@QBE_NPAUHWND__@@@Z 00457512 f   Inside.obj
 0001:00056549       ?IsSynchronizeCurDir@CConEmuInside@@QBE_NXZ 00457549 f   Inside.obj
 0001:00056550       ?SendVkKeySequence@CConEmuInside@@CA_NPAUHWND__@@PAG@Z 00457550 f   Inside.obj
 0001:000566ab       ?SetFocusParent@CConEmuInside@@QBE_NXZ 004576ab f   Inside.obj
 0001:00056739       ?SetInsideIntegrationAdmin@CConEmuInside@@QAEX_N@Z 00457739 f   Inside.obj
 0001:00056749       ?SetInsideParentWnd@CConEmuInside@@QAEXPAUHWND__@@@Z 00457749 f   Inside.obj
 0001:0005683e       ?SetInsideSynchronizeCurDir@CConEmuInside@@QAEXPB_W@Z 0045783e f   Inside.obj
 0001:000568a1       ?SetSynchronizeCurDir@CConEmuInside@@QAEX_N@Z 004578a1 f   Inside.obj
 0001:000568b1       ?TurnExplorerTipPane@CConEmuInside@@AAE_NAAY0IA@_W@Z 004578b1 f   Inside.obj
 0001:00056a59       ?UpdateDefTermMapping@CConEmuInside@@QAEXXZ 00457a59 f   Inside.obj
 0001:00056b94       ?Initialize@CLngPredefined@@SAXXZ 00457b94 f   LngData.obj
 0001:00056bc3       ?compare@LngPredefined@@SAHPBX0@Z 00457bc3 f i LngData.obj
 0001:00056bd2       ?getHint@CLngPredefined@@SAPB_WI@Z 00457bd2 f   LngData.obj
 0001:00056c0b       ?getRsrc@CLngPredefined@@SAPB_WI@Z 00457c0b f   LngData.obj
 0001:00056c44       ??$SafeDelete@VMJsonValue@@@@YAXAAPAVMJsonValue@@@Z 00457c44 f i LngRc.obj
 0001:00056c75       ??$_Resize@U_Value_init_tag@std@@@?$vector@ULngRcItem@CLngRc@@V?$MArrayAllocator@ULngRcItem@CLngRc@@@@@std@@AAEXIABU_Value_init_tag@1@@Z 00457c75 f i LngRc.obj
 0001:00056cc5       ??$_Resize_reallocate@U_Value_init_tag@std@@@?$vector@ULngRcItem@CLngRc@@V?$MArrayAllocator@ULngRcItem@CLngRc@@@@@std@@AAEXIABU_Value_init_tag@1@@Z 00457cc5 f i LngRc.obj
 0001:00056d35       ??$_Uninitialized_value_construct_n@V?$MArrayAllocator@ULngRcItem@CLngRc@@@@@std@@YAPAULngRcItem@CLngRc@@PAU12@IAAV?$MArrayAllocator@ULngRcItem@CLngRc@@@@@Z 00457d35 f i LngRc.obj
 0001:00056d5e       ??0CLngRc@@QAE@XZ          00457d5e f   LngRc.obj
 0001:00056dfc       ??1CLngRc@@QAE@XZ          00457dfc f   LngRc.obj
 0001:00056e37       ?Clean@CLngRc@@KAXAAV?$MArray@ULngRcItem@CLngRc@@@@@Z 00457e37 f   LngRc.obj
 0001:00056e74       ?Clear@CLngRc@@KAXAAV?$MArray@ULngDefinition@CLngRc@@@@@Z 00457e74 f   LngRc.obj
 0001:00056ee7       ?GetResource@CLngRc@@KA_NAAV?$MArray@ULngRcItem@CLngRc@@@@HAAUCEStr@@PB_W@Z 00457ee7 f   LngRc.obj
 0001:00056f32       ?Initialize@CLngRc@@SAXXZ  00457f32 f   LngRc.obj
 0001:00056f76       ?LoadLanguages@CLngRc@@IAE_NPAVMJsonValue@@@Z 00457f76 f   LngRc.obj
 0001:00057111       ?LoadResources@CLngRc@@IAE_NPB_W0@Z 00458111 f   LngRc.obj
 0001:000574b5       ?LoadSection@CLngRc@@IBE_NPAVMJsonValue@@AAV?$MArray@ULngRcItem@CLngRc@@@@H@Z 004584b5 f   LngRc.obj
 0001:00057742       ?Reload@CLngRc@@QAEX_N@Z   00458742 f   LngRc.obj
 0001:000579e3       ?SetResource@CLngRc@@KA_NAAV?$MArray@ULngRcItem@CLngRc@@@@HPAVMJsonValue@@@Z 004589e3 f   LngRc.obj
 0001:00057a8c       ?SetResource@CLngRc@@KA_NAAV?$MArray@ULngRcItem@CLngRc@@@@HPB_W_N@Z 00458a8c f   LngRc.obj
 0001:00057ba4       ?_Reallocate_exactly@?$vector@ULngRcItem@CLngRc@@V?$MArrayAllocator@ULngRcItem@CLngRc@@@@@std@@AAEXI@Z 00458ba4 f i LngRc.obj
 0001:00057be2       ?getControl@CLngRc@@SAPB_WJAAUCEStr@@PB_W@Z 00458be2 f   LngRc.obj
 0001:00057c1c       ?getHint@CLngRc@@SA_NIPA_WI@Z 00458c1c f   LngRc.obj
 0001:00057cc3       ?getLanguage@CLngRc@@SAPB_WXZ 00458cc3 f   LngRc.obj
 0001:00057cea       ?getLanguages@CLngRc@@SA_NAAV?$MArray@PB_W@@@Z 00458cea f   LngRc.obj
 0001:00057d42       ?getRsrc@CLngRc@@SAPB_WIPAUCEStr@@@Z 00458d42 f   LngRc.obj
 0001:00057da6       ?isLocalized@CLngRc@@SA_NXZ 00458da6 f   LngRc.obj
 0001:00057dd1       ?loadString@CLngRc@@KA_NIPA_WI@Z 00458dd1 f   LngRc.obj
 0001:00057df6       ?reserve@?$vector@ULngRcItem@CLngRc@@V?$MArrayAllocator@ULngRcItem@CLngRc@@@@@std@@QAEXI@Z 00458df6 f i LngRc.obj
 0001:00057e1f       ?resize@?$MArray@ULngRcItem@CLngRc@@@@QAE_NH@Z 00458e1f f i LngRc.obj
 0001:00057e3f       ?set_at@?$MArray@ULngRcItem@CLngRc@@@@QAEHHABULngRcItem@CLngRc@@@Z 00458e3f f i LngRc.obj
 0001:00057e86       ??0MStream@@QAE@XZ         00458e86 f i LoadImg.obj
 0001:00057ea6       ??1MStream@@UAE@XZ         00458ea6 f i LoadImg.obj
 0001:00057edd       ??_GMStream@@UAEPAXI@Z     00458edd f i LoadImg.obj
 0001:00057edd       ??_EMStream@@UAEPAXI@Z     00458edd f i LoadImg.obj
 0001:00057eff       ?AddRef@MStream@@UAGKXZ    00458eff f i LoadImg.obj
 0001:00057f18       ?Clone@MStream@@UAGJPAPAUIStream@@@Z 00458f18 f i LoadImg.obj
 0001:00057f20       ?Commit@MStream@@UAGJK@Z   00458f20 f i LoadImg.obj
 0001:00057f32       ?CopyTo@MStream@@UAGJPAUIStream@@T_ULARGE_INTEGER@@PAT3@2@Z 00458f32 f i LoadImg.obj
 0001:00057f32       ?UnlockRegion@MStream@@UAGJT_ULARGE_INTEGER@@0K@Z 00458f32 f i LoadImg.obj
 0001:00057f32       ?LockRegion@MStream@@UAGJT_ULARGE_INTEGER@@0K@Z 00458f32 f i LoadImg.obj
 0001:00057f3a       ?CreateSolidImage@@YAPAUtagBITMAPFILEHEADER@@KII@Z 00458f3a f   LoadImg.obj
 0001:00058043       ?GetCodecClsid@@YAHPB_WPAU_GUID@@@Z 00459043 f   LoadImg.obj
 0001:0005828c       ?LoadImageEx@@YAPAUtagBITMAPFILEHEADER@@PB_WAAU_BY_HANDLE_FILE_INFORMATION@@@Z 0045928c f   LoadImg.obj
 0001:000583ba       ?LoadImageFinalize@@YAXXZ  004593ba f   LoadImg.obj
 0001:000583fa       ?LoadImageGdip@@YAPAUtagBITMAPFILEHEADER@@PB_W@Z 004593fa f   LoadImg.obj
 0001:0005865f       ?QueryInterface@MStream@@UAGJABU_GUID@@PAPAX@Z 0045965f f i LoadImg.obj
 0001:000586c7       ?Read@MStream@@UAGJPAXKPAK@Z 004596c7 f i LoadImg.obj
 0001:0005871c       ?Release@MStream@@UAGKXZ   0045971c f i LoadImg.obj
 0001:00058743       ?Revert@MStream@@UAGJXZ    00459743 f i LoadImg.obj
 0001:0005874b       ?SaveImageEx@@YA_NPB_WPAEK@Z 0045974b f   LoadImg.obj
 0001:00058855       ?SaveImageEx@@YA_NPB_WPAUHBITMAP__@@@Z 00459855 f   LoadImg.obj
 0001:00058928       ?Seek@MStream@@UAGJT_LARGE_INTEGER@@KPAT_ULARGE_INTEGER@@@Z 00459928 f i LoadImg.obj
 0001:000589a2       ?SetData@MStream@@QAEXPBXK@Z 004599a2 f i LoadImg.obj
 0001:000589e1       ?SetSize@MStream@@UAGJT_ULARGE_INTEGER@@@Z 004599e1 f i LoadImg.obj
 0001:00058a54       ?Stat@MStream@@UAGJPAUtagSTATSTG@@K@Z 00459a54 f i LoadImg.obj
 0001:00058acc       ?Write@MStream@@UAGJPBXKPAK@Z 00459acc f i LoadImg.obj
 0001:00058b5f       ?About@ConEmuMacro@@YA?AUCEStr@@PAUGuiMacro@@PAVCRealConsole@@_N@Z 00459b5f f   Macro.obj
 0001:00058bc2       ?AffinityPriority@ConEmuMacro@@YA?AUCEStr@@PAUGuiMacro@@PAVCRealConsole@@_N@Z 00459bc2 f   Macro.obj
 0001:00058cd1       ?AltNumber@ConEmuMacro@@YA?AUCEStr@@PAUGuiMacro@@PAVCRealConsole@@_N@Z 00459cd1 f   Macro.obj
 0001:00058d27       ?Attach@ConEmuMacro@@YA?AUCEStr@@PAUGuiMacro@@PAVCRealConsole@@_N@Z 00459d27 f   Macro.obj
 0001:00058dc2       ?Break@ConEmuMacro@@YA?AUCEStr@@PAUGuiMacro@@PAVCRealConsole@@_N@Z 00459dc2 f   Macro.obj
 0001:00058e74       ?Close@ConEmuMacro@@YA?AUCEStr@@PAUGuiMacro@@PAVCRealConsole@@_N@Z 00459e74 f   Macro.obj
 0001:000591a8       ?Context@ConEmuMacro@@YA?AUCEStr@@PAUGuiMacro@@PAVCRealConsole@@_N@Z 0045a1a8 f   Macro.obj
 0001:0005920a       ?Copy@ConEmuMacro@@YA?AUCEStr@@PAUGuiMacro@@PAVCRealConsole@@_N@Z 0045a20a f   Macro.obj
 0001:0005937e       ?Debug@ConEmuMacro@@YA?AUCEStr@@PAUGuiMacro@@PAVCRealConsole@@_N@Z 0045a37e f   Macro.obj
 0001:00059473       ?Detach@ConEmuMacro@@YA?AUCEStr@@PAUGuiMacro@@PAVCRealConsole@@_N@Z 0045a473 f   Macro.obj
 0001:00059550       ?EnvironmentReload@ConEmuMacro@@YA?AUCEStr@@PAUGuiMacro@@PAVCRealConsole@@_N@Z 0045a550 f   Macro.obj
 0001:00059576       ?EnvironmentList@ConEmuMacro@@YA?AUCEStr@@PAUGuiMacro@@PAVCRealConsole@@_N@Z 0045a576 f   Macro.obj
 0001:00059716       ?FindEditor@ConEmuMacro@@YA?AUCEStr@@PAUGuiMacro@@PAVCRealConsole@@_N@Z 0045a716 f   Macro.obj
 0001:00059794       ?FindFarWindow@ConEmuMacro@@YA?AUCEStr@@PAUGuiMacro@@PAVCRealConsole@@_N@Z 0045a794 f   Macro.obj
 0001:00059828       ?FindViewer@ConEmuMacro@@YA?AUCEStr@@PAUGuiMacro@@PAVCRealConsole@@_N@Z 0045a828 f   Macro.obj
 0001:000598a6       ?Flash@ConEmuMacro@@YA?AUCEStr@@PAUGuiMacro@@PAVCRealConsole@@_N@Z 0045a8a6 f   Macro.obj
 0001:0005998b       ?FontSetName@ConEmuMacro@@YA?AUCEStr@@PAUGuiMacro@@PAVCRealConsole@@_N@Z 0045a98b f   Macro.obj
 0001:00059a3f       ?FontSetSize@ConEmuMacro@@YA?AUCEStr@@PAUGuiMacro@@PAVCRealConsole@@_N@Z 0045aa3f f   Macro.obj
 0001:00059aa1       ?GetInfo@ConEmuMacro@@YA?AUCEStr@@PAUGuiMacro@@PAVCRealConsole@@_N@Z 0045aaa1 f   Macro.obj
 0001:00059ec2       ?GetOption@ConEmuMacro@@YA?AUCEStr@@PAUGuiMacro@@PAVCRealConsole@@_N@Z 0045aec2 f   Macro.obj
 0001:0005a085       ?GroupInput@ConEmuMacro@@YA?AUCEStr@@PAUGuiMacro@@PAVCRealConsole@@_N@Z 0045b085 f   Macro.obj
 0001:0005a12a       ?HighlightMouse@ConEmuMacro@@YA?AUCEStr@@PAUGuiMacro@@PAVCRealConsole@@_N@Z 0045b12a f   Macro.obj
 0001:0005a19f       ?IsConEmu@ConEmuMacro@@YA?AUCEStr@@PAUGuiMacro@@PAVCRealConsole@@_N@Z 0045b19f f   Macro.obj
 0001:0005a1ba       ?IsConsoleActive@ConEmuMacro@@YA?AUCEStr@@PAUGuiMacro@@PAVCRealConsole@@_N@Z 0045b1ba f   Macro.obj
 0001:0005a225       ?IsRealVisible@ConEmuMacro@@YA?AUCEStr@@PAUGuiMacro@@PAVCRealConsole@@_N@Z 0045b225 f   Macro.obj
 0001:0005a296       ?Keys@ConEmuMacro@@YA?AUCEStr@@PAUGuiMacro@@PAVCRealConsole@@_N@Z 0045b296 f   Macro.obj
 0001:0005a5b8       ?Menu@ConEmuMacro@@YA?AUCEStr@@PAUGuiMacro@@PAVCRealConsole@@_N@Z 0045b5b8 f   Macro.obj
 0001:0005a6ba       ?MsgBox@ConEmuMacro@@YA?AUCEStr@@PAUGuiMacro@@PAVCRealConsole@@_N@Z 0045b6ba f   Macro.obj
 0001:0005a8b3       ?Palette@ConEmuMacro@@YA?AUCEStr@@PAUGuiMacro@@PAVCRealConsole@@_N@Z 0045b8b3 f   Macro.obj
 0001:0005ab57       ?Paste@ConEmuMacro@@YA?AUCEStr@@PAUGuiMacro@@PAVCRealConsole@@_N@Z 0045bb57 f   Macro.obj
 0001:0005ada5       ?PasteExplorerPath@ConEmuMacro@@YA?AUCEStr@@PAUGuiMacro@@PAVCRealConsole@@_N@Z 0045bda5 f   Macro.obj
 0001:0005ae2c       ?PasteFile@ConEmuMacro@@YA?AUCEStr@@PAUGuiMacro@@PAVCRealConsole@@_N@Z 0045be2c f   Macro.obj
 0001:0005b085       ?Pause@ConEmuMacro@@YA?AUCEStr@@PAUGuiMacro@@PAVCRealConsole@@_N@Z 0045c085 f   Macro.obj
 0001:0005b174       ?Print@ConEmuMacro@@YA?AUCEStr@@PAUGuiMacro@@PAVCRealConsole@@_N@Z 0045c174 f   Macro.obj
 0001:0005b210       ?Progress@ConEmuMacro@@YA?AUCEStr@@PAUGuiMacro@@PAVCRealConsole@@_N@Z 0045c210 f   Macro.obj
 0001:0005b2e7       ?Recreate@ConEmuMacro@@YA?AUCEStr@@PAUGuiMacro@@PAVCRealConsole@@_N@Z 0045c2e7 f   Macro.obj
 0001:0005b3de       ?Rename@ConEmuMacro@@YA?AUCEStr@@PAUGuiMacro@@PAVCRealConsole@@_N@Z 0045c3de f   Macro.obj
 0001:0005b4a6       ?Scroll@ConEmuMacro@@YA?AUCEStr@@PAUGuiMacro@@PAVCRealConsole@@_N@Z 0045c4a6 f   Macro.obj
 0001:0005b5c1       ?Select@ConEmuMacro@@YA?AUCEStr@@PAUGuiMacro@@PAVCRealConsole@@_N@Z 0045c5c1 f   Macro.obj
 0001:0005b73e       ?SetDpi@ConEmuMacro@@YA?AUCEStr@@PAUGuiMacro@@PAVCRealConsole@@_N@Z 0045c73e f   Macro.obj
 0001:0005b7c8       ?SetFocus@ConEmuMacro@@YA?AUCEStr@@PAUGuiMacro@@PAVCRealConsole@@_N@Z 0045c7c8 f   Macro.obj
 0001:0005b81d       ?SetOption@ConEmuMacro@@YA?AUCEStr@@PAUGuiMacro@@PAVCRealConsole@@_N@Z 0045c81d f   Macro.obj
 0001:0005beb3       ?SetParentHWND@ConEmuMacro@@YA?AUCEStr@@PAUGuiMacro@@PAVCRealConsole@@_N@Z 0045ceb3 f   Macro.obj
 0001:0005bf2e       ?Settings@ConEmuMacro@@YA?AUCEStr@@PAUGuiMacro@@PAVCRealConsole@@_N@Z 0045cf2e f   Macro.obj
 0001:0005bf72       ?Shell@ConEmuMacro@@YA?AUCEStr@@PAUGuiMacro@@PAVCRealConsole@@_N@Z 0045cf72 f   Macro.obj
 0001:0005cb08       ?Sleep@ConEmuMacro@@YA?AUCEStr@@PAUGuiMacro@@PAVCRealConsole@@_N@Z 0045db08 f   Macro.obj
 0001:0005ccba       ?Split@ConEmuMacro@@YA?AUCEStr@@PAUGuiMacro@@PAVCRealConsole@@_N@Z 0045dcba f   Macro.obj
 0001:0005cfb3       ?Status@ConEmuMacro@@YA?AUCEStr@@PAUGuiMacro@@PAVCRealConsole@@_N@Z 0045dfb3 f   Macro.obj
 0001:0005d0e5       ?Tab@ConEmuMacro@@YA?AUCEStr@@PAUGuiMacro@@PAVCRealConsole@@_N@Z 0045e0e5 f   Macro.obj
 0001:0005d511       ?Task@ConEmuMacro@@YA?AUCEStr@@PAUGuiMacro@@PAVCRealConsole@@_N@Z 0045e511 f   Macro.obj
 0001:0005d82e       ?TaskAdd@ConEmuMacro@@YA?AUCEStr@@PAUGuiMacro@@PAVCRealConsole@@_N@Z 0045e82e f   Macro.obj
 0001:0005d9ac       ?TermMode@ConEmuMacro@@YA?AUCEStr@@PAUGuiMacro@@PAVCRealConsole@@_N@Z 0045e9ac f   Macro.obj
 0001:0005da25       ?Transparency@ConEmuMacro@@YA?AUCEStr@@PAUGuiMacro@@PAVCRealConsole@@_N@Z 0045ea25 f   Macro.obj
 0001:0005da7c       ?Unfasten@ConEmuMacro@@YA?AUCEStr@@PAUGuiMacro@@PAVCRealConsole@@_N@Z 0045ea7c f   Macro.obj
 0001:0005db33       ?Update@ConEmuMacro@@YA?AUCEStr@@PAUGuiMacro@@PAVCRealConsole@@_N@Z 0045eb33 f   Macro.obj
 0001:0005db66       ?Wiki@ConEmuMacro@@YA?AUCEStr@@PAUGuiMacro@@PAVCRealConsole@@_N@Z 0045eb66 f   Macro.obj
 0001:0005dbbc       ?WindowFullscreen@ConEmuMacro@@YA?AUCEStr@@PAUGuiMacro@@PAVCRealConsole@@_N@Z 0045ebbc f   Macro.obj
 0001:0005dc02       ?WindowMaximize@ConEmuMacro@@YA?AUCEStr@@PAUGuiMacro@@PAVCRealConsole@@_N@Z 0045ec02 f   Macro.obj
 0001:0005dc78       ?WindowMinimize@ConEmuMacro@@YA?AUCEStr@@PAUGuiMacro@@PAVCRealConsole@@_N@Z 0045ec78 f   Macro.obj
 0001:0005dce5       ?WindowMode@ConEmuMacro@@YA?AUCEStr@@PAUGuiMacro@@PAVCRealConsole@@_N@Z 0045ece5 f   Macro.obj
 0001:0005e041       ?WindowPosSize@ConEmuMacro@@YA?AUCEStr@@PAUGuiMacro@@PAVCRealConsole@@_N@Z 0045f041 f   Macro.obj
 0001:0005e153       ?Write@ConEmuMacro@@YA?AUCEStr@@PAUGuiMacro@@PAVCRealConsole@@_N@Z 0045f153 f   Macro.obj
 0001:0005e1e5       ?Zoom@ConEmuMacro@@YA?AUCEStr@@PAUGuiMacro@@PAVCRealConsole@@_N@Z 0045f1e5 f   Macro.obj
 0001:0005e230       ??$_Erase_head@V?$allocator@U?$_Tree_node@V?$basic_string@_WU?$char_traits@_W@std@@V?$allocator@_W@2@@std@@PAX@std@@@std@@@?$_Tree_val@U?$_Tree_simple_types@V?$basic_string@_WU?$char_traits@_W@std@@V?$allocator@_W@2@@std@@@std@@@std@@QAEXAAV?$allocator@U?$_Tree_node@V?$basic_string@_WU?$char_traits@_W@std@@V?$allocator@_W@2@@std@@PAX@std@@@1@@Z 0045f230 f i Macro.obj
 0001:0005e253       ??$_Erase_tree@V?$allocator@U?$_Tree_node@V?$basic_string@_WU?$char_traits@_W@std@@V?$allocator@_W@2@@std@@PAX@std@@@std@@@?$_Tree_val@U?$_Tree_simple_types@V?$basic_string@_WU?$char_traits@_W@std@@V?$allocator@_W@2@@std@@@std@@@std@@QAEXAAV?$allocator@U?$_Tree_node@V?$basic_string@_WU?$char_traits@_W@std@@V?$allocator@_W@2@@std@@PAX@std@@@1@PAU?$_Tree_node@V?$basic_string@_WU?$char_traits@_W@std@@V?$allocator@_W@2@@std@@PAX@1@@Z 0045f253 f i Macro.obj
 0001:0005e285       ??$_Freenode@V?$allocator@U?$_Tree_node@V?$basic_string@_WU?$char_traits@_W@std@@V?$allocator@_W@2@@std@@PAX@std@@@std@@@?$_Tree_node@V?$basic_string@_WU?$char_traits@_W@std@@V?$allocator@_W@2@@std@@PAX@std@@SAXAAV?$allocator@U?$_Tree_node@V?$basic_string@_WU?$char_traits@_W@std@@V?$allocator@_W@2@@std@@PAX@std@@@1@PAU01@@Z 0045f285 f i Macro.obj
 0001:0005e2a1       ??$ultow_s@$0BAE@@@YAPB_WIAAY0BAE@_WH@Z 0045f2a1 f i Macro.obj
 0001:0005e2cc       ??1?$set@V?$basic_string@_WU?$char_traits@_W@std@@V?$allocator@_W@2@@std@@U?$less@V?$basic_string@_WU?$char_traits@_W@std@@V?$allocator@_W@2@@std@@@2@V?$allocator@V?$basic_string@_WU?$char_traits@_W@std@@V?$allocator@_W@2@@std@@@2@@std@@QAE@XZ 0045f2cc f i Macro.obj
 0001:0005e2d3       ??1CStartEnvTitle@@UAE@XZ  0045f2d3 f   RealConsole.obj
 0001:0005e2da       ??E?$_Tree_unchecked_const_iterator@V?$_Tree_val@U?$_Tree_simple_types@V?$basic_string@_WU?$char_traits@_W@std@@V?$allocator@_W@2@@std@@@std@@@std@@U_Iterator_base0@2@@std@@QAEAAV01@XZ 0045f2da f i Macro.obj
 0001:0005e331       ??_ECStartEnvBase@@UAEPAXI@Z 0045f331 f i Macro.obj
 0001:0005e331       ??_GCStartEnvBase@@UAEPAXI@Z 0045f331 f i Macro.obj
 0001:0005e3d3       ?ChangeContext@ConEmuMacro@@YAPAVCRealConsole@@PAV2@HIAAVCVConGuard@@AAUCEStr@@@Z 0045f3d3 f   Macro.obj
 0001:0005e5f0       ?ConvertMacro@ConEmuMacro@@YA?AUCEStr@@PB_WE_N@Z 0045f5f0 f   Macro.obj
 0001:0005e785       ?ExecuteMacro@ConEmuMacro@@YA?AUCEStr@@$$QAU2@PAVCRealConsole@@_NPAUCESERVER_REQ_GUIMACRO@@@Z 0045f785 f   Macro.obj
 0001:0005ed0b       ?ExecuteMacroSync@ConEmuMacro@@YAJIJ@Z 0045fd0b f   Macro.obj
 0001:0005ed90       ?FindFarWindowHelper@ConEmuMacro@@YA?AUCEStr@@IABU2@PAVCRealConsole@@_N@Z 0045fd90 f   Macro.obj
 0001:0005ee9f       ?Int2Str@ConEmuMacro@@YA?AUCEStr@@I_N@Z 0045fe9f f   Macro.obj
 0001:0005ef4e       ?TransparencyHelper@ConEmuMacro@@YA?AUCEStr@@HH@Z 0045ff4e f   Macro.obj
 0001:0005f0df       ?_Min@?$_Tree_val@U?$_Tree_simple_types@V?$basic_string@_WU?$char_traits@_W@std@@V?$allocator@_W@2@@std@@@std@@@std@@SAPAU?$_Tree_node@V?$basic_string@_WU?$char_traits@_W@std@@V?$allocator@_W@2@@std@@PAX@2@PAU32@@Z 004600df f i Macro.obj
 0001:0005f101       ?at@?$unordered_map@V?$basic_string@_WU?$char_traits@_W@std@@V?$allocator@_W@2@@std@@UVariableData@SystemEnvironment@@U?$hash@V?$basic_string@_WU?$char_traits@_W@std@@V?$allocator@_W@2@@std@@@2@U?$equal_to@V?$basic_string@_WU?$char_traits@_W@std@@V?$allocator@_W@2@@std@@@2@V?$allocator@U?$pair@$$CBV?$basic_string@_WU?$char_traits@_W@std@@V?$allocator@_W@2@@std@@UVariableData@SystemEnvironment@@@std@@@2@@std@@QBEABUVariableData@SystemEnvironment@@ABV?$basic_string@_WU?$char_traits@_W@std@@V?$allocator@_W@2@@2@@Z 00460101 f i Macro.obj
 0001:0005f13a       ??$_Destroy_range@V?$MArrayAllocator@UCEStr@@@@@std@@YAXPAUCEStr@@QAU1@AAV?$MArrayAllocator@UCEStr@@@@@Z 0046013a f i MacroImpl.obj
 0001:0005f155       ??$_Emplace_reallocate@ABUGuiMacroArg@@@?$vector@UGuiMacroArg@@V?$MArrayAllocator@UGuiMacroArg@@@@@std@@QAEPAUGuiMacroArg@@QAU2@ABU2@@Z 00460155 f i MacroImpl.obj
 0001:0005f203       ??$_Resize@U_Value_init_tag@std@@@?$vector@UCEStr@@V?$MArrayAllocator@UCEStr@@@@@std@@AAEXIABU_Value_init_tag@1@@Z 00460203 f i MacroImpl.obj
 0001:0005f26f       ??$_Resize_reallocate@U_Value_init_tag@std@@@?$vector@UCEStr@@V?$MArrayAllocator@UCEStr@@@@@std@@AAEXIABU_Value_init_tag@1@@Z 0046026f f i MacroImpl.obj
 0001:0005f329       ??$_Uninitialized_value_construct_n@V?$MArrayAllocator@UCEStr@@@@@std@@YAPAUCEStr@@PAU1@IAAV?$MArrayAllocator@UCEStr@@@@@Z 00460329 f i MacroImpl.obj
 0001:0005f369       ??$swprintf_c@$0M@@@YAHAAY0M@_WPB_WZZ 00460369 f i MacroImpl.obj
 0001:0005f37f       ??1?$MArray@UCEStr@@@@QAE@XZ 0046037f f i MacroImpl.obj
 0001:0005f384       ??1?$_Uninitialized_backout_al@V?$MArrayAllocator@UCEStr@@@@@std@@QAE@XZ 00460384 f i MacroImpl.obj
 0001:0005f39e       ?AsString@GuiMacro@@QBE?AUCEStr@@XZ 0046039e f   MacroImpl.obj
 0001:0005f82f       ?ConcatMacro@ConEmuMacro@@YAPB_WAAUCEStr@@PB_W@Z 0046082f f   MacroImpl.obj
 0001:0005f8a1       ?GetIntArg@GuiMacro@@QAE_NIAAH@Z 004608a1 f   MacroImpl.obj
 0001:0005f8d6       ?GetNextInt@ConEmuMacro@@YAPA_WAAPA_WAAUGuiMacroArg@@@Z 004608d6 f   MacroImpl.obj
 0001:0005f97f       ?GetNextMacro@ConEmuMacro@@YAPAUGuiMacro@@AAPA_W_NPAUCEStr@@@Z 0046097f f   MacroImpl.obj
 0001:0006007d       ?GetNextString@ConEmuMacro@@YAPA_WAAPA_W0_NAA_N@Z 0046107d f   MacroImpl.obj
 0001:0006035d       ?GetRestStrArgs@GuiMacro@@QAE_NIAAUCEStr@@@Z 0046135d f   MacroImpl.obj
 0001:000603e8       ?GetStrArg@GuiMacro@@QAE_NIAAUCEStr@@@Z 004613e8 f   MacroImpl.obj
 0001:00060433       ?IsIntArg@GuiMacro@@QAE_NI@Z 00461433 f   MacroImpl.obj
 0001:0006045c       ?IsStrArg@GuiMacro@@QAE_NI@Z 0046145c f   MacroImpl.obj
 0001:00060485       ?SkipWhiteSpaces@ConEmuMacro@@YAXAAPA_W@Z 00461485 f   MacroImpl.obj
 0001:0006049e       ?_Calculate_growth@?$vector@UGuiMacroArg@@V?$MArrayAllocator@UGuiMacroArg@@@@@std@@ABEII@Z 0046149e f i MacroImpl.obj
 0001:000604ca       ?_Change_array@?$vector@UCEStr@@V?$MArrayAllocator@UCEStr@@@@@std@@AAEXQAUCEStr@@II@Z 004614ca f i MacroImpl.obj
 0001:00060516       ?_Change_array@?$vector@UGuiMacroArg@@V?$MArrayAllocator@UGuiMacroArg@@@@@std@@AAEXQAUGuiMacroArg@@II@Z 00461516 f i MacroImpl.obj
 0001:00060549       ?_Tidy@?$vector@UCEStr@@V?$MArrayAllocator@UCEStr@@@@@std@@AAEXXZ 00461549 f i MacroImpl.obj
 0001:000605b5       ?allocate@?$MArrayAllocator@UGuiMacroArg@@@@QAEPAUGuiMacroArg@@I@Z 004615b5 f i MacroImpl.obj
 0001:000605e7       ?deallocate@?$MArrayAllocator@UAppInfo@AppFoundList@FastConfig@@@@QAEXPAUAppInfo@AppFoundList@FastConfig@@I@Z 004615e7 f i OptionsFast.obj
 0001:000605e7       ?deallocate@?$MArrayAllocator@UCmdTaskPopupItem@CConEmuMenu@@@@QAEXPAUCmdTaskPopupItem@CConEmuMenu@@I@Z 004615e7 f i Menu.obj
 0001:000605e7       ?deallocate@?$MArrayAllocator@UCEStr@@@@QAEXPAUCEStr@@I@Z 004615e7 f i MacroImpl.obj
 0001:000605fd       ?resize@?$MArray@UCEStr@@@@QAE_NH@Z 004615fd f i MacroImpl.obj
 0001:0006061d       ??0CMatch@@QAE@$$QAV?$function@$$A6A_NPB_WAAUCEStr@@@Z@std@@@Z 0046161d f   Match.obj
 0001:0006069c       ??1CMatch@@QAE@XZ          0046169c f   Match.obj
 0001:000606c3       ??R?$_Func_class@_NPB_WAAUCEStr@@@std@@QBE_NPB_WAAUCEStr@@@Z 004616c3 f i Match.obj
 0001:000606e3       ?CheckValidUrl@CMatch@@KA_NAAH0AA_NPB_W222H@Z 004616e3 f   Match.obj
 0001:000607dc       ?FindRangeStart@CMatch@@KA_NAAH0AA_NPB_W22222H@Z 004617dc f   Match.obj
 0001:000609be       ?GetNextLine@CMatch@@IAE_NAAVCRConDataGuard@@H@Z 004619be f   Match.obj
 0001:00060a63       ?IsFileLineTerminator@CMatch@@KA_NPB_W0@Z 00461a63 f   Match.obj
 0001:00060b0b       ?IsValidFile@CMatch@@IAE_NPB_WH00AAH@Z 00461b0b f   Match.obj
 0001:00060c65       ?Match@CMatch@@QAEHW4ExpandTextRangeType@@PB_WHHAAVCRConDataGuard@@H@Z 00461c65 f   Match.obj
 0001:00060d49       ?MatchAny@CMatch@@IAE_NAAVCRConDataGuard@@H@Z 00461d49 f   Match.obj
 0001:00061923       ?MatchFileNoExt@CMatch@@IAE_NAAVCRConDataGuard@@H@Z 00462923 f   Match.obj
 0001:00061a5d       ?MatchWord@CMatch@@IAE_NPB_WHHAAH1AAVCRConDataGuard@@H@Z 00462a5d f   Match.obj
 0001:00061c18       ?StoreMatchText@CMatch@@IAEXPB_W0@Z 00462c18 f   Match.obj
 0001:00061cec       ??$_Construct_n@PBQAPAUHMENU__@@PBQAPAU1@@?$vector@PAPAUHMENU__@@V?$allocator@PAPAUHMENU__@@@std@@@std@@AAEXI$$QAPBQAPAUHMENU__@@0@Z 00462cec f i Menu.obj
 0001:00061d2b       ??$_Destroy_range@V?$MArrayAllocator@UCmdTaskPopupItem@CConEmuMenu@@@@@std@@YAXPAUCmdTaskPopupItem@CConEmuMenu@@QAU12@AAV?$MArrayAllocator@UCmdTaskPopupItem@CConEmuMenu@@@@@Z 00462d2b f i Menu.obj
 0001:00061d4b       ??$_Emplace_reallocate@ABUCmdTaskPopupItem@CConEmuMenu@@@?$vector@UCmdTaskPopupItem@CConEmuMenu@@V?$MArrayAllocator@UCmdTaskPopupItem@CConEmuMenu@@@@@std@@QAEPAUCmdTaskPopupItem@CConEmuMenu@@QAU23@ABU23@@Z 00462d4b f i Menu.obj
 0001:00061f4c       ??$_Uninitialized_move@PAUCmdTaskPopupItem@CConEmuMenu@@V?$MArrayAllocator@UCmdTaskPopupItem@CConEmuMenu@@@@@std@@YAPAUCmdTaskPopupItem@CConEmuMenu@@QAU12@0PAU12@AAV?$MArrayAllocator@UCmdTaskPopupItem@CConEmuMenu@@@@@Z 00462f4c f i Menu.obj
 0001:00061fb6       ??$emplace_back@ABUCmdTaskPopupItem@CConEmuMenu@@@?$vector@UCmdTaskPopupItem@CConEmuMenu@@V?$MArrayAllocator@UCmdTaskPopupItem@CConEmuMenu@@@@@std@@QAE?A_TABUCmdTaskPopupItem@CConEmuMenu@@@Z 00462fb6 f i Menu.obj
 0001:00061fe2       ??0?$vector@PAPAUHMENU__@@V?$allocator@PAPAUHMENU__@@@std@@@std@@QAE@V?$initializer_list@PAPAUHMENU__@@@1@ABV?$allocator@PAPAUHMENU__@@@1@@Z 00462fe2 f i Menu.obj
 0001:0006201c       ??0CConEmuMenu@@QAE@XZ     0046301c f   Menu.obj
 0001:00062121       ??0CmdTaskPopupItem@CConEmuMenu@@QAE@$$QAU01@@Z 00463121 f i Menu.obj
 0001:00062187       ??0CmdTaskPopupItem@CConEmuMenu@@QAE@ABU01@@Z 00463187 f i Menu.obj
 0001:000621ed       ??1?$MArray@UCmdTaskPopupItem@CConEmuMenu@@@@QAE@XZ 004631ed f i Menu.obj
 0001:000621f2       ??1CConEmuMenu@@QAE@XZ     004631f2 f   Menu.obj
 0001:0006223a       ??1CmdTaskPopupItem@CConEmuMenu@@QAE@XZ 0046323a f i Menu.obj
 0001:00062245       ??4CmdTaskPopupItem@CConEmuMenu@@QAEAAU01@$$QAU01@@Z 00463245 f i Menu.obj
 0001:000622b2       ??4CmdTaskPopupItem@CConEmuMenu@@QAEAAU01@ABU01@@Z 004632b2 f i Menu.obj
 0001:0006231f       ??_GCmdTaskPopupItem@CConEmuMenu@@QAEPAXI@Z 0046331f f i Menu.obj
 0001:0006234a       ?CalcTabMenuPos@CConEmuMenu@@QAE?AUtagPOINT@@PAVCVirtualConsole@@@Z 0046334a f   Menu.obj
 0001:000623fc       ?CreateDebugMenuPopup@CConEmuMenu@@QAEPAUHMENU__@@XZ 004633fc f   Menu.obj
 0001:000625b3       ?CreateEditMenuPopup@CConEmuMenu@@QAEPAUHMENU__@@PAVCVirtualConsole@@PAU2@@Z 004635b3 f   Menu.obj
 0001:0006291e       ?CreateHelpMenuPopup@CConEmuMenu@@QAEPAUHMENU__@@XZ 0046391e f   Menu.obj
 0001:00062ada       ?CreateOrUpdateMenu@CConEmuMenu@@QAE_NAAPAUHMENU__@@PBUMenuItem@@I@Z 00463ada f   Menu.obj
 0001:00062c20       ?CreateVConListPopupMenu@CConEmuMenu@@SAPAUHMENU__@@PAU2@H@Z 00463c20 f   Menu.obj
 0001:00062fbf       ?CreateVConPopupMenu@CConEmuMenu@@QAEPAUHMENU__@@PAVCVirtualConsole@@PAU2@_N2@Z 00463fbf f   Menu.obj
 0001:00063601       ?CreateViewMenuPopup@CConEmuMenu@@QAEPAUHMENU__@@PAVCVirtualConsole@@PAU2@@Z 00464601 f   Menu.obj
 0001:000637f1       ?ExecPopupMenuCmd@CConEmuMenu@@QAEXW4TrackMenuPlace@@PAVCVirtualConsole@@H@Z 004647f1 f   Menu.obj
 0001:00063b38       ?FillTaskPopup@CConEmuMenu@@AAEHPAUHMENU__@@PAUCmdTaskPopupItem@1@@Z 00464b38 f   Menu.obj
 0001:00063dcf       ?GetInScMinimize@CConEmuMenu@@QBE_NXZ 00464dcf f   Menu.obj
 0001:00063dd3       ?GetRestoreFromMinimized@CConEmuMenu@@QBE_NXZ 00464dd3 f   Menu.obj
 0001:00063dd7       ?GetSysMenu@CConEmuMenu@@QAEPAUHMENU__@@H@Z 00464dd7 f   Menu.obj
 0001:00063e5c       ?GetTrackMenuPlace@CConEmuMenu@@QBE?AW4TrackMenuPlace@@XZ 00464e5c f   Menu.obj
 0001:00063e60       ?MenuAccel@CConEmuMenu@@AAEPB_WHPB_W@Z 00464e60 f   Menu.obj
 0001:00063f49       ?OnInitMenuPopup@CConEmuMenu@@QAEJPAUHWND__@@PAUHMENU__@@J@Z 00464f49 f   Menu.obj
 0001:00064200       ?OnMenuRClick@CConEmuMenu@@QAEXPAUHMENU__@@I@Z 00465200 f   Menu.obj
 0001:00064213       ?OnMenuSelected@CConEmuMenu@@QAE_NPAUHMENU__@@GG@Z 00465213 f   Menu.obj
 0001:000642ee       ?OnMenuSelected_NewCon@CConEmuMenu@@AAE_NPAUHMENU__@@GG@Z 004652ee f   Menu.obj
 0001:000644a2       ?OnNcIconLClick@CConEmuMenu@@QAEXXZ 004654a2 f   Menu.obj
 0001:00064512       ?OnNewConPopupMenu@CConEmuMenu@@QAEXPAUtagPOINT@@K_N@Z 00465512 f   Menu.obj
 0001:000651cc       ?OnNewConPopupMenuRClick@CConEmuMenu@@AAEXPAUHMENU__@@I@Z 004661cc f   Menu.obj
 0001:0006559b       ?OnSysCommand@CConEmuMenu@@QAEJPAUHWND__@@IJI@Z 0046659b f   Menu.obj
 0001:00065f87       ?Reset@CmdTaskPopupItem@CConEmuMenu@@QAEXW4CmdTaskPopupItemType@12@HPB_W@Z 00466f87 f   Menu.obj
 0001:0006601e       ?SetMenuName@CmdTaskPopupItem@CConEmuMenu@@SAXPA_WIPB_W_N21@Z 0046701e f   Menu.obj
 0001:00066227       ?SetPassSysCommand@CConEmuMenu@@QAE_N_N@Z 00467227 f   Menu.obj
 0001:00066237       ?SetRestoreFromMinimized@CConEmuMenu@@QAE_N_N@Z 00467237 f   Menu.obj
 0001:00066247       ?SetShortName@CmdTaskPopupItem@CConEmuMenu@@QAEXPB_W_N0@Z 00467247 f   Menu.obj
 0001:0006626f       ?SetTrackMenuPlace@CConEmuMenu@@QAE?AW4TrackMenuPlace@@W42@@Z 0046726f f   Menu.obj
 0001:0006627f       ?ShowEditMenu@CConEmuMenu@@QAEXPAVCVirtualConsole@@UtagPOINT@@K@Z 0046727f f   Menu.obj
 0001:000662d8       ?ShowKeyBarHint@CConEmuMenu@@AAEXPAUHMENU__@@GG@Z 004672d8 f   Menu.obj
 0001:00066341       ?ShowMenuHint@CConEmuMenu@@AAEXPAUHMENU__@@GG@Z 00467341 f   Menu.obj
 0001:0006642f       ?ShowMenuHint@CConEmuMenu@@AAEXPB_WPAUtagPOINT@@@Z 0046742f f   Menu.obj
 0001:0006652f       ?ShowPopupMenu@CConEmuMenu@@QAEXPAVCVirtualConsole@@UtagPOINT@@K_N@Z 0046752f f   Menu.obj
 0001:00066654       ?ShowSysmenu@CConEmuMenu@@QAEXHHK@Z 00467654 f   Menu.obj
 0001:00066ac5       ?UpdateSysMenu@CConEmuMenu@@AAEXPAUHMENU__@@@Z 00467ac5 f   Menu.obj
 0001:00066e75       ?_Buy_nonzero@?$vector@PAPAUHMENU__@@V?$allocator@PAPAUHMENU__@@@std@@@std@@AAEXI@Z 00467e75 f i Menu.obj
 0001:00066ea4       ?_Calculate_growth@?$vector@UCmdTaskPopupItem@CConEmuMenu@@V?$MArrayAllocator@UCmdTaskPopupItem@CConEmuMenu@@@@@std@@ABEII@Z 00467ea4 f i Menu.obj
 0001:00066ed7       ?_Change_array@?$vector@UCmdTaskPopupItem@CConEmuMenu@@V?$MArrayAllocator@UCmdTaskPopupItem@CConEmuMenu@@@@@std@@AAEXQAUCmdTaskPopupItem@CConEmuMenu@@II@Z 00467ed7 f i Menu.obj
 0001:00066f1f       ?_Tidy@?$vector@PAPAUHMENU__@@V?$allocator@PAPAUHMENU__@@@std@@@std@@AAEXXZ 00467f1f f i Menu.obj
 0001:00066f1f       ?_Tidy@?$vector@KV?$allocator@K@std@@@std@@AAEXXZ 00467f1f f i RealConsole.obj
 0001:00066f45       ?_Tidy@?$vector@UCmdTaskPopupItem@CConEmuMenu@@V?$MArrayAllocator@UCmdTaskPopupItem@CConEmuMenu@@@@@std@@AAEXXZ 00467f45 f i Menu.obj
 0001:00066fa7       ?allocate@?$MArrayAllocator@UCmdTaskPopupItem@CConEmuMenu@@@@QAEPAUCmdTaskPopupItem@CConEmuMenu@@I@Z 00467fa7 f i Menu.obj
 0001:00066fda       ?clear@?$vector@UCmdTaskPopupItem@CConEmuMenu@@V?$MArrayAllocator@UCmdTaskPopupItem@CConEmuMenu@@@@@std@@QAEXXZ 00467fda f i Menu.obj
 0001:00066ff2       ?trackPopupMenu@CConEmuMenu@@QAEHW4TrackMenuPlace@@PAUHMENU__@@IHHPAUHWND__@@PAUtagRECT@@@Z 00467ff2 f   Menu.obj
 0001:00067224       ?CopyToClipboard@@YA_NPB_W@Z 00468224 f   MyClipboard.obj
 0001:00067317       ?GetClipboardText@@YA?AUCEStr@@AAKPA_WH@Z 00468317 f   MyClipboard.obj
 0001:000674ee       ?MyCloseClipboard@@YAXXZ   004684ee f   MyClipboard.obj
 0001:00067520       ?MyOpenClipboard@@YA_NPB_W@Z 00468520 f   MyClipboard.obj
 0001:0006762e       ?MySetClipboardData@@YAPAXIPAX@Z 0046862e f   MyClipboard.obj
 0001:000676b1       ??0OleInitializer@@QAE@XZ  004686b1 f   OleInitializer.obj
 0001:000676be       ??0OleInitializer@@QAE@_N@Z 004686be f   OleInitializer.obj
 0001:000676e0       ??1OleInitializer@@UAE@XZ  004686e0 f   OleInitializer.obj
 0001:000676f6       ??_EOleInitializer@@UAEPAXI@Z 004686f6 f i OleInitializer.obj
 0001:000676f6       ??_GOleInitializer@@UAEPAXI@Z 004686f6 f i OleInitializer.obj
 0001:00067718       ?Initialize@OleInitializer@@QAE_NXZ 00468718 f   OleInitializer.obj
 0001:0006773b       ?isInitialized@OleInitializer@@QBE_NXZ 0046873b f   OleInitializer.obj
 0001:0006774c       ??$SafeDelete@UCommandHistory@@@@YAXAAPAUCommandHistory@@@Z 0046874c f i Options.obj
 0001:0006777d       ??$SafeDelete@USettingsBase@@@@YAXAAPAUSettingsBase@@@Z 0046877d f i Options.obj
 0001:000677a2       ??$ltow_s@$0BA@@@YAPB_WHAAY0BA@_WH@Z 004687a2 f i Options.obj
 0001:000677c8       ??$swprintf_c@$0BCM@@@YAHAAY0BCM@_WPB_WZZ 004687c8 f i Options.obj
 0001:000677e1       ??0Settings@@QAE@XZ        004687e1 f   Options.obj
 0001:00067842       ??1FindTextOptions@@QAE@XZ 00468842 f i Options.obj
 0001:00067847       ??1Settings@@QAE@XZ        00468847 f   Options.obj
 0001:0006789a       ?AppSettingsDelete@Settings@@IAEXH@Z 0046889a f   Options.obj
 0001:000678fb       ?AppSettingsXch@Settings@@IAE_NHH@Z 004688fb f   Options.obj
 0001:0006794d       ?AsString@CESize@@QAEPB_WXZ 0046894d f i Options.obj
 0001:0006798a       ?AutoSaveSettings@Settings@@QAEXPAUSettingsBase@@_N@Z 0046898a f   Options.obj
 0001:00067c62       ?CheckCharAltFont@Settings@@QAE_NH@Z 00468c62 f   Options.obj
 0001:00067c90       ?CheckConsoleSettings@Settings@@QAEXXZ 00468c90 f   Options.obj
 0001:00067df0       ?CheckHotkeyUnique@Settings@@QAEXXZ 00468df0 f   Options.obj
 0001:0006802d       ?CmdTaskGet@Settings@@QAEPBUCommandTasks@@H@Z 0046902d f   Options.obj
 0001:000680bd       ?CmdTaskGetByName@Settings@@QAEPBUCommandTasks@@PB_W@Z 004690bd f   Options.obj
 0001:00068200       ?CmdTaskGetDefaultShell@Settings@@QAE_NAAURConStartArgsEx@@AAUCEStr@@@Z 00469200 f   Options.obj
 0001:000683e4       ?CmdTaskSet@Settings@@QAEHHPB_W00K@Z 004693e4 f   Options.obj
 0001:000686ed       ?CmdTaskSetVkMod@Settings@@QAEXHK@Z 004696ed f   Options.obj
 0001:0006871f       ?CmdTaskXch@Settings@@QAE_NHH@Z 0046971f f   Options.obj
 0001:0006876c       ?CreateCharRanges@Settings@@QAE?AUCEStr@@AAY0BAAAA@E@Z 0046976c f   Options.obj
 0001:00068854       ?CreatePredefinedPalettes@Settings@@QAEXH@Z 00469854 f   Options.obj
 0001:000689d3       ?CreateSettings@Settings@@QAEPAUSettingsBase@@PBUSettingsStorage@@@Z 004699d3 f   Options.obj
 0001:00068bb3       ?DisableLogging@Settings@@QAEXXZ 00469bb3 f   Options.obj
 0001:00068bbb       ?EnableLogging@Settings@@QAEXXZ 00469bbb f   Options.obj
 0001:00068bd9       ?FreeApps@Settings@@AAEXHPAPAUAppSettings@@@Z 00469bd9 f   Options.obj
 0001:00068c3d       ?FreeCmdTasks@Settings@@IAEXXZ 00469c3d f   Options.obj
 0001:00068c85       ?FreePalettes@Settings@@IAEXXZ 00469c85 f   Options.obj
 0001:00068cd4       ?FreeProgresses@Settings@@IAEXXZ 00469cd4 f   Options.obj
 0001:00068d2f       ?FreeStartupTask@Settings@@IAEXXZ 00469d2f f   Options.obj
 0001:00068d4a       ?GetAppSettings@Settings@@QAEPBUAppSettings@@H@Z 00469d4a f   Options.obj
 0001:00068d8f       ?GetAppSettingsId@Settings@@QAEHPB_W_N@Z 00469d8f f   Options.obj
 0001:00068ed4       ?GetAppSettingsPtr@Settings@@IAEPAUAppSettings@@HH@Z 00469ed4 f   Options.obj
 0001:00068fda       ?GetColors@Settings@@QAEABV?$array@K$0BA@@std@@HH@Z 00469fda f   Options.obj
 0001:00069030       ?GetColorsPrepare@Settings@@QAEABV?$array@K$0BA@@std@@ABV23@AAV23@PA_NH@Z 0046a030 f   Options.obj
 0001:00069062       ?GetDefColors@Settings@@CA_NPB_WAAV?$array@K$0BA@@std@@@Z 0046a062 f   Options.obj
 0001:000690c5       ?GetDefaultTerminalApps@Settings@@QAE?AUCEStr@@XZ 0046a0c5 f   Options.obj
 0001:000690e5       ?GetDefaultTerminalAppsMSZ@Settings@@QAEPB_WXZ 0046a0e5 f   Options.obj
 0001:000690ec       ?GetFadeColor@Settings@@QAEKK@Z 0046a0ec f   Options.obj
 0001:00069154       ?GetFadeColorItem@Settings@@AAEEE@Z 0046a154 f i Options.obj
 0001:0006919b       ?GetHotkeyById@Settings@@QAEKHPAPBUConEmuHotKey@@@Z 0046a19b f   Options.obj
 0001:00069213       ?GetHotkeyNameById@Settings@@QAEPB_WHAAY0IA@_W_N@Z 0046a213 f   Options.obj
 0001:00069272       ?GetIntelligentExceptions@Settings@@QAE?AUCEStr@@XZ 0046a272 f   Options.obj
 0001:00069292       ?GetIntelligentExceptionsMSZ@Settings@@QAEPB_WXZ 0046a292 f   Options.obj
 0001:00069299       ?GetPaletteColors@Settings@@QAEABV?$array@K$0BA@@std@@PB_WH@Z 0046a299 f   Options.obj
 0001:000692ee       ?GetPaletteIndex@AppSettings@@QBEHXZ 0046a2ee f   Options.obj
 0001:00069306       ?GetSettingsType@Settings@@QAE?AUSettingsStorage@@XZ 0046a306 f   Options.obj
 0001:000693e0       ?GetStoragePlaceDescr@Settings@@QAE?AUCEStr@@PBUSettingsStorage@@PB_W@Z 0046a3e0 f   Options.obj
 0001:00069487       ?GetWindowsColors@Settings@@CAXAAV?$array@K$0BA@@std@@@Z 0046a487 f   Options.obj
 0001:000695b7       ?HideCaptionAlwaysFrame@Settings@@QAEHXZ 0046a5b7 f   Options.obj
 0001:000695f5       ?HistoryAdd@Settings@@QAEXPB_W@Z 0046a5f5 f   Options.obj
 0001:000696ea       ?HistoryGet@Settings@@QAEPB_WH@Z 0046a6ea f   Options.obj
 0001:00069703       ?HistoryLoad@Settings@@QAEXPAUSettingsBase@@@Z 0046a703 f   Options.obj
 0001:000697dd       ?HistoryReset@Settings@@QAEXXZ 0046a7dd f   Options.obj
 0001:000697fa       ?HistorySave@Settings@@QAEXPAUSettingsBase@@@Z 0046a7fa f   Options.obj
 0001:000698ac       ?InitSettings@Settings@@QAEXXZ 0046a8ac f   Options.obj
 0001:0006a32f       ?InitVanilla@Settings@@QAEXXZ 0046b32f f   Options.obj
 0001:0006a417       ?InitVanillaFontSettings@Settings@@QAEXXZ 0046b417 f   Options.obj
 0001:0006a450       ?IsAutoSaveSettings@Settings@@QAE_N_N@Z 0046b450 f   Options.obj
 0001:0006a486       ?IsHotkey@Settings@@QAE_NH@Z 0046b486 f   Options.obj
 0001:0006a4a3       ?IsModifierPressed@Settings@@QAEXHPA_N0@Z 0046b4a3 f   Options.obj
 0001:0006a589       ?IsModifierPressed@Settings@@QAE_NH_N@Z 0046b589 f   Options.obj
 0001:0006a5b9       ?LineDelimited2MSZ@Settings@@QBE?AUCEStr@@PB_W_N@Z 0046b5b9 f   Options.obj
 0001:0006a6aa       ?LoadAppSettings@Settings@@AAEXPAUSettingsBase@@PAUAppSettings@@@Z 0046b6aa f   Options.obj
 0001:0006aa11       ?LoadAppsSettings@Settings@@AAEXPAUSettingsBase@@_N@Z 0046ba11 f   Options.obj
 0001:0006ac71       ?LoadCmdTasks@Settings@@QAEXPAUSettingsBase@@_N@Z 0046bc71 f   Options.obj
 0001:0006ae93       ?LoadCursorSettings@Settings@@AAEXPAUSettingsBase@@PATCECursorType@@1@Z 0046be93 f   Options.obj
 0001:0006b0de       ?LoadHotkeys@Settings@@AAEXPAUSettingsBase@@AB_N11@Z 0046c0de f   Options.obj
 0001:0006b4ed       ?LoadMSZ@Settings@@QAE_NPAUSettingsBase@@PB_WAAUCEStr@@1_N@Z 0046c4ed f   Options.obj
 0001:0006b554       ?LoadPalettes@Settings@@QAEXPAUSettingsBase@@@Z 0046c554 f   Options.obj
 0001:0006b84a       ?LoadSettings@Settings@@QAEXAA_NPBUSettingsStorage@@@Z 0046c84a f   Options.obj
 0001:0006d81b       ?LoadSizeSettings@Settings@@IAEXPAUSettingsBase@@@Z 0046e81b f   Options.obj
 0001:0006da9a       ?MSZ2LineDelimited@Settings@@QAE?AUCEStr@@PB_W0_N@Z 0046ea9a f   Options.obj
 0001:0006dbea       ?MultiLine2MSZ@Settings@@QBE?AUCEStr@@PB_WPAK@Z 0046ebea f   Options.obj
 0001:0006dd1a       ?NeedCreateAppWindow@Settings@@QAE_NXZ 0046ed1a f   Options.obj
 0001:0006dd49       ?OnAutoSaveTimer@Settings@@QAEXXZ 0046ed49 f   Options.obj
 0001:0006ddbc       ?PaletteDelete@Settings@@QAEXPB_W@Z 0046edbc f   Options.obj
 0001:0006de27       ?PaletteFindByColors@Settings@@QAEPBUColorPalette@@_NPBU2@@Z 0046ee27 f   Options.obj
 0001:0006de99       ?PaletteFindCurrent@Settings@@QAEPBUColorPalette@@_N@Z 0046ee99 f   Options.obj
 0001:0006dec3       ?PaletteGet@Settings@@QAEPBUColorPalette@@H@Z 0046eec3 f   Options.obj
 0001:0006decc       ?PaletteGetByName@Settings@@QAEPBUColorPalette@@PB_W@Z 0046eecc f   Options.obj
 0001:0006dee7       ?PaletteGetIndex@Settings@@QAEHPB_W@Z 0046eee7 f   Options.obj
 0001:0006df44       ?PaletteGetPtr@Settings@@IAEPAUColorPalette@@H@Z 0046ef44 f   Options.obj
 0001:0006dfe0       ?PaletteSaveAs@Settings@@QAEXPB_W@Z 0046efe0 f   Options.obj
 0001:0006e018       ?PaletteSaveAs@Settings@@QAEXPB_WEEEEABV?$array@K$0BA@@std@@_N@Z 0046f018 f   Options.obj
 0001:0006e250       ?PaletteSetActive@Settings@@QAEHPB_W@Z 0046f250 f   Options.obj
 0001:0006e2d5       ?PaletteSetStdIndexes@Settings@@QAEXXZ 0046f2d5 f   Options.obj
 0001:0006e35f       ?ParseCharRanges@Settings@@QAEHPB_WAAY0BAAAA@EE@Z 0046f35f f   Options.obj
 0001:0006e492       ?PrepareFadeColors@Settings@@QAEXABV?$array@K$0BA@@std@@AAV23@PA_N@Z 0046f492 f   Options.obj
 0001:0006e510       ?RClickMacro@Settings@@QAEPB_WW4FarMacroVersion@@@Z 0046f510 f   Options.obj
 0001:0006e559       ?RClickMacroDefault@Settings@@QAEPB_WW4FarMacroVersion@@@Z 0046f559 f   Options.obj
 0001:0006e570       ?ReleasePointers@Settings@@IAEXXZ 0046f570 f   Options.obj
 0001:0006e729       ?ResetFadeColors@Settings@@QAEXXZ 0046f729 f   Options.obj
 0001:0006e766       ?ResetSavedOnExit@Settings@@QAEXXZ 0046f766 f   Options.obj
 0001:0006e76e       ?SafeFarCloseMacro@Settings@@QAEPB_WW4FarMacroVersion@@@Z 0046f76e f   Options.obj
 0001:0006e7b7       ?SafeFarCloseMacroDefault@Settings@@QAEPB_WW4FarMacroVersion@@@Z 0046f7b7 f   Options.obj
 0001:0006e7ce       ?SaveAllMacro@Settings@@QAEPB_WW4FarMacroVersion@@@Z 0046f7ce f   Options.obj
 0001:0006e817       ?SaveAllMacroDefault@Settings@@QAEPB_WW4FarMacroVersion@@@Z 0046f817 f   Options.obj
 0001:0006e82e       ?SaveAppSettings@Settings@@AAEXPAUSettingsBase@@PAUAppSettings@@@Z 0046f82e f   Options.obj
 0001:0006e9f7       ?SaveAppsSettings@Settings@@QAEXPAUSettingsBase@@@Z 0046f9f7 f   Options.obj
 0001:0006ebbf       ?SaveCmdTasks@Settings@@QAE_NPAUSettingsBase@@@Z 0046fbbf f   Options.obj
 0001:0006ee18       ?SaveConsoleFont@Settings@@QAEXXZ 0046fe18 f   Options.obj
 0001:0006ee98       ?SaveFindOptions@Settings@@QAEXPAUSettingsBase@@@Z 0046fe98 f   Options.obj
 0001:0006ef5d       ?SaveHotkeys@Settings@@AAEXPAUSettingsBase@@H@Z 0046ff5d f   Options.obj
 0001:0006f127       ?SaveMSZ@Settings@@QAEXPAUSettingsBase@@PB_W11_N@Z 00470127 f   Options.obj
 0001:0006f172       ?SavePalettes@Settings@@IAEXPAUSettingsBase@@@Z 00470172 f   Options.obj
 0001:0006f5e7       ?SaveSettings@Settings@@QAEHHPBUSettingsStorage@@@Z 004705e7 f   Options.obj
 0001:00070cb0       ?SaveSettingsOnExit@Settings@@QAEXXZ 00471cb0 f   Options.obj
 0001:00070cce       ?SaveSizeSettings@Settings@@IAEXPAUSettingsBase@@@Z 00471cce f   Options.obj
 0001:00070edf       ?SaveStartCommands@Settings@@AAEXPAUSettingsBase@@@Z 00471edf f   Options.obj
 0001:00070f5e       ?SaveStatusSettings@Settings@@IAEXPAUSettingsBase@@@Z 00471f5e f   Options.obj
 0001:0007103d       ?SaveStdColors@Settings@@AAEXPAUSettingsBase@@@Z 0047203d f   Options.obj
 0001:00071127       ?SaveStopBuzzingDate@Settings@@QAEXXZ 00472127 f   Options.obj
 0001:000711fe       ?SaveVanilla@Settings@@QAE_NPAUSettingsBase@@@Z 004721fe f   Options.obj
 0001:00071381       ?SetDefaultTerminalApps@Settings@@QAEXPB_W@Z 00472381 f   Options.obj
 0001:000713ff       ?SetFromRaw@CESize@@QAEX_NK@Z 004723ff f i Options.obj
 0001:0007142c       ?SetHideCaptionAlways@Settings@@QAEX_N@Z 0047242c f   Options.obj
 0001:0007143c       ?SetHotkeyById@Settings@@QAEXHK@Z 0047243c f   Options.obj
 0001:000714a3       ?SetIntelligentExceptions@Settings@@QAEXPB_W@Z 004724a3 f   Options.obj
 0001:000714fa       ?SetMinToTray@Settings@@QAEX_N@Z 004724fa f   Options.obj
 0001:0007154b       ?SetPaletteName@AppSettings@@QAEXPB_W@Z 0047254b f   Options.obj
 0001:00071568       ?SortPalettes@Settings@@IAEXXZ 00472568 f   Options.obj
 0001:00071656       ?StatusBarFontHeight@Settings@@QAEHXZ 00472656 f   Options.obj
 0001:00071665       ?StatusBarHeight@Settings@@QAEHXZ 00472665 f   Options.obj
 0001:000716c1       ?SwitchHideCaptionAlways@Settings@@QAEXXZ 004726c1 f   Options.obj
 0001:000716d2       ?TabCloseMacro@Settings@@QAEPB_WW4FarMacroVersion@@@Z 004726d2 f   Options.obj
 0001:0007171b       ?TabCloseMacroDefault@Settings@@QAEPB_WW4FarMacroVersion@@@Z 0047271b f   Options.obj
 0001:00071732       ?getTypeName@SettingsStorage@@SAPB_WW4StorageType@@@Z 00472732 f i Options.obj
 0001:00071760       ?hasFile@SettingsStorage@@QBE_NXZ 00472760 f i Options.obj
 0001:0007177b       ?isActivateSplitMouseOver@Settings@@QAE_NXZ 0047277b f   Options.obj
 0001:000717af       ?isAdminShield@Settings@@QAE_NXZ 004727af f   Options.obj
 0001:000717b8       ?isAdminSuffix@Settings@@QAE_NXZ 004727b8 f   Options.obj
 0001:000717d5       ?isAlwaysShowTrayIcon@Settings@@QAE_NXZ 004727d5 f   Options.obj
 0001:00071810       ?isCloseOnCrossClick@Settings@@QAE_NXZ 00472810 f   Options.obj
 0001:0007182c       ?isCloseOnLastTabClose@Settings@@QAE_NE@Z 0047282c f   Options.obj
 0001:0007185d       ?isCloseOnLastTabClose@Settings@@QAE_NXZ 0047285d f   Options.obj
 0001:0007186b       ?isForcedHideCaptionAlways@Settings@@QAE_NXZ 0047286b f   Options.obj
 0001:00071883       ?isHideCaptionAlways@Settings@@QAE_NXZ 00472883 f   Options.obj
 0001:000718b2       ?isHideOnLastTabClose@Settings@@QAE_NXZ 004728b2 f   Options.obj
 0001:000718e0       ?isIndexes@CONEMUDEFCOLORS@@QBE_NXZ 004728e0 f i Options.obj
 0001:000718fe       ?isIntegralSize@Settings@@QBE_NXZ 004728fe f   Options.obj
 0001:00071964       ?isKeyboardHooks@Settings@@QAE_N_N0@Z 00472964 f   Options.obj
 0001:00071993       ?isLogging@Settings@@QAEII@Z 00472993 f   Options.obj
 0001:000719e1       ?isMinOnLastTabClose@Settings@@QAE_NXZ 004729e1 f   Options.obj
 0001:00071a0f       ?isMinToTray@Settings@@QAE_N_N@Z 00472a0f f   Options.obj
 0001:00071a2f       ?isMinimizeOnLoseFocus@Settings@@QAE_NXZ 00472a2f f   Options.obj
 0001:00071a4b       ?isModifierExist@Settings@@QAE_NE_N@Z 00472a4b f   Options.obj
 0001:00071ae9       ?isRClickTouchInvert@Settings@@QAE_NXZ 00472ae9 f   Options.obj
 0001:00071b11       ?isTabsOnTaskBar@Settings@@QAE_NXZ 00472b11 f   Options.obj
 0001:00071b68       ?isTransparentAllowed@Settings@@QAE_NXZ 00472b68 f   Options.obj
 0001:00071b9a       ?isUseClink@Settings@@QAEKXZ 00472b9a f   Options.obj
 0001:00071de7       ?isWindowOnTaskBar@Settings@@QAE_N_N@Z 00472de7 f   Options.obj
 0001:00071e45       ??$GetPageObj@VCSetPgColors@@@CSettings@@QAE_NAAPAVCSetPgColors@@@Z 00472e45 f i OptionsClass.obj
 0001:00071e74       ??$GetPageObj@VCSetPgSizePos@@@CSettings@@QAE_NAAPAVCSetPgSizePos@@@Z 00472e74 f i OptionsClass.obj
 0001:00071ea3       ??0?$MFileMapping@UPanelViewSetMapping@@@@QAE@XZ 00472ea3 f i OptionsClass.obj
 0001:00071f00       ??0CSettings@@QAE@XZ       00472f00 f   OptionsClass.obj
 0001:000721e9       ??0ConEmuHotKey@@QAE@XZ    004731e9 f i OptionsClass.obj
 0001:0007222c       ??1CSettings@@UAE@XZ       0047322c f   OptionsClass.obj
 0001:00072383       ??_ECSettings@@UAEPAXI@Z   00473383 f i OptionsClass.obj
 0001:00072383       ??_GCSettings@@UAEPAXI@Z   00473383 f i OptionsClass.obj
 0001:000723a8       ?ActivatePage@CSettings@@QAE_NW4TabHwndIndex@@@Z 004733a8 f   OptionsClass.obj
 0001:00072408       ?BalloonStyle@CSettings@@QAEKXZ 00473408 f   OptionsClass.obj
 0001:00072471       ?CenterMoreDlg@CSettings@@CAXPAUHWND__@@@Z 00473471 f   OptionsClass.obj
 0001:000724f3       ?ChangeCurrentPalette@CSettings@@QAEXPBUColorPalette@@_N@Z 004734f3 f   OptionsClass.obj
 0001:000727a5       ?CheckConsoleFont@CSettings@@KA_NPAUHWND__@@@Z 004737a5 f   OptionsClass.obj
 0001:00072b40       ?CheckConsoleFontFast@CSettings@@QAE_NPB_W@Z 00473b40 f   OptionsClass.obj
 0001:00072fa5       ?CheckConsoleFontRegistry@CSettings@@KA_NPB_W@Z 00473fa5 f   OptionsClass.obj
 0001:000731c7       ?CheckSelectionModifiers@CSettings@@QAEXPAUHWND__@@@Z 004741c7 f   OptionsClass.obj
 0001:000736de       ?CheckTheming@CSettings@@QAE_NXZ 004746de f   OptionsClass.obj
 0001:0007376d       ?ClearPages@CSettings@@AAEXXZ 0047476d f   OptionsClass.obj
 0001:000737b8       ?Create@CSetPgANSI@@SAPAVCSetPgBase@@XZ 004747b8 f i OptionsClass.obj
 0001:000737e5       ?Create@CSetPgAppear@@SAPAVCSetPgBase@@XZ 004747e5 f i OptionsClass.obj
 0001:00073812       ?Create@CSetPgApps@@SAPAVCSetPgBase@@XZ 00474812 f i OptionsClass.obj
 0001:0007383f       ?Create@CSetPgBackgr@@SAPAVCSetPgBase@@XZ 0047483f f i OptionsClass.obj
 0001:0007386c       ?Create@CSetPgChildGui@@SAPAVCSetPgBase@@XZ 0047486c f i OptionsClass.obj
 0001:00073899       ?Create@CSetPgColors@@SAPAVCSetPgBase@@XZ 00474899 f i OptionsClass.obj
 0001:000738c6       ?Create@CSetPgComspec@@SAPAVCSetPgBase@@XZ 004748c6 f i OptionsClass.obj
 0001:000738f3       ?Create@CSetPgConfirm@@SAPAVCSetPgBase@@XZ 004748f3 f i OptionsClass.obj
 0001:00073920       ?Create@CSetPgCursor@@SAPAVCSetPgBase@@XZ 00474920 f i OptionsClass.obj
 0001:0007394d       ?Create@CSetPgDebug@@SAPAVCSetPgBase@@XZ 0047494d f i OptionsClass.obj
 0001:0007397a       ?Create@CSetPgDefTerm@@SAPAVCSetPgBase@@XZ 0047497a f i OptionsClass.obj
 0001:000739a7       ?Create@CSetPgEnvironment@@SAPAVCSetPgBase@@XZ 004749a7 f i OptionsClass.obj
 0001:000739d4       ?Create@CSetPgFar@@SAPAVCSetPgBase@@XZ 004749d4 f i OptionsClass.obj
 0001:00073a01       ?Create@CSetPgFarMacro@@SAPAVCSetPgBase@@XZ 00474a01 f i OptionsClass.obj
 0001:00073a2e       ?Create@CSetPgFeatures@@SAPAVCSetPgBase@@XZ 00474a2e f i OptionsClass.obj
 0001:00073a5b       ?Create@CSetPgFonts@@SAPAVCSetPgBase@@XZ 00474a5b f i OptionsClass.obj
 0001:00073a88       ?Create@CSetPgGeneral@@SAPAVCSetPgBase@@XZ 00474a88 f i OptionsClass.obj
 0001:00073ab5       ?Create@CSetPgHilight@@SAPAVCSetPgBase@@XZ 00474ab5 f i OptionsClass.obj
 0001:00073ae2       ?Create@CSetPgInfo@@SAPAVCSetPgBase@@XZ 00474ae2 f i OptionsClass.obj
 0001:00073b0f       ?Create@CSetPgIntegr@@SAPAVCSetPgBase@@XZ 00474b0f f i OptionsClass.obj
 0001:00073b3c       ?Create@CSetPgKeyboard@@SAPAVCSetPgBase@@XZ 00474b3c f i OptionsClass.obj
 0001:00073b69       ?Create@CSetPgKeys@@SAPAVCSetPgBase@@XZ 00474b69 f i OptionsClass.obj
 0001:00073b96       ?Create@CSetPgMarkCopy@@SAPAVCSetPgBase@@XZ 00474b96 f i OptionsClass.obj
 0001:00073bc3       ?Create@CSetPgMouse@@SAPAVCSetPgBase@@XZ 00474bc3 f i OptionsClass.obj
 0001:00073bf0       ?Create@CSetPgPaste@@SAPAVCSetPgBase@@XZ 00474bf0 f i OptionsClass.obj
 0001:00073c1d       ?Create@CSetPgQuake@@SAPAVCSetPgBase@@XZ 00474c1d f i OptionsClass.obj
 0001:00073c4a       ?Create@CSetPgSizePos@@SAPAVCSetPgBase@@XZ 00474c4a f i OptionsClass.obj
 0001:00073c77       ?Create@CSetPgStartup@@SAPAVCSetPgBase@@XZ 00474c77 f i OptionsClass.obj
 0001:00073ca4       ?Create@CSetPgStatus@@SAPAVCSetPgBase@@XZ 00474ca4 f i OptionsClass.obj
 0001:00073cd1       ?Create@CSetPgTabs@@SAPAVCSetPgBase@@XZ 00474cd1 f i OptionsClass.obj
 0001:00073cfe       ?Create@CSetPgTaskbar@@SAPAVCSetPgBase@@XZ 00474cfe f i OptionsClass.obj
 0001:00073d2b       ?Create@CSetPgTasks@@SAPAVCSetPgBase@@XZ 00474d2b f i OptionsClass.obj
 0001:00073d58       ?Create@CSetPgTransparent@@SAPAVCSetPgBase@@XZ 00474d58 f i OptionsClass.obj
 0001:00073d85       ?Create@CSetPgUpdate@@SAPAVCSetPgBase@@XZ 00474d85 f i OptionsClass.obj
 0001:00073db2       ?Create@CSetPgViews@@SAPAVCSetPgBase@@XZ 00474db2 f i OptionsClass.obj
 0001:00073ddf       ?CreateConFontError@CSettings@@IAEPB_WPB_W0@Z 00474ddf f   OptionsClass.obj
 0001:00073f73       ?Dialog@CSettings@@SAXH@Z  00474f73 f   OptionsClass.obj
 0001:000740bc       ?EditConsoleFont@CSettings@@QAE_NPAUHWND__@@@Z 004750bc f   OptionsClass.obj
 0001:000740f9       ?EditConsoleFontProc@CSettings@@SGHPAUHWND__@@IIJ@Z 004750f9 f   OptionsClass.obj
 0001:00074cde       ?EnumConFamCallBack@CSettings@@SGHPAUtagLOGFONTW@@PAUtagNEWTEXTMETRICW@@KPAX@Z 00475cde f   OptionsClass.obj
 0001:00074ed8       ?EvalSize@CSettings@@QBEJJKPBUDpiValue@@@Z 00475ed8 f   OptionsClass.obj
 0001:00074f6e       ?ExportSettings@CSettings@@IAEXXZ 00475f6e f   OptionsClass.obj
 0001:000750f9       ?GetActivePage@CSettings@@QAEPAUHWND__@@XZ 004760f9 f   OptionsClass.obj
 0001:0007512d       ?GetActivePageObj@CSettings@@QAEPAVCSetPgBase@@XZ 0047612d f   OptionsClass.obj
 0001:00075164       ?GetActivePageWiki@CSettings@@QAEPB_WAAUCEStr@@@Z 00476164 f   OptionsClass.obj
 0001:000751c6       ?GetBackgroundObject@CSettings@@QBEPAVCBackgroundInfo@@XZ 004761c6 f   OptionsClass.obj
 0001:000751e5       ?GetConfigName@CSettings@@QAEPB_WXZ 004761e5 f   OptionsClass.obj
 0001:000751ec       ?GetConfigPath@CSettings@@QAEPB_WXZ 004761ec f   OptionsClass.obj
 0001:000751f3       ?GetDefaultCreateAction@CSettings@@QAE?AW4RecreateActionParm@@XZ 004761f3 f   OptionsClass.obj
 0001:00075217       ?GetDialogDpi@CSettings@@AAEHXZ 00476217 f   OptionsClass.obj
 0001:00075232       ?GetOverallDpi@CSettings@@IAEXXZ 00476232 f   OptionsClass.obj
 0001:00075279       ?GetPage@CSettings@@QAEPAUHWND__@@W4TabHwndIndex@@@Z 00476279 f   OptionsClass.obj
 0001:0007528f       ?GetPageData@CSettings@@AAEPBUConEmuSetupPages@@W4TabHwndIndex@@@Z 0047628f f   OptionsClass.obj
 0001:000752d6       ?GetPageId@CSettings@@AAE?AW4TabHwndIndex@@PAUHWND__@@PAPAUConEmuSetupPages@@@Z 004762d6 f   OptionsClass.obj
 0001:0007531b       ?GetPageIdByDialogId@CSettings@@AAE?AW4TabHwndIndex@@I@Z 0047631b f   OptionsClass.obj
 0001:00075351       ?GetPageObj@CSettings@@QAEPAVCSetPgBase@@W4TabHwndIndex@@@Z 00476351 f   OptionsClass.obj
 0001:0007536a       ?ImportSettings@CSettings@@IAEXXZ 0047636a f   OptionsClass.obj
 0001:0007544a       ?InitPageNames@CSettings@@AAEXXZ 0047644a f   OptionsClass.obj
 0001:0007549f       ?InitVars_Pages@CSettings@@AAEXXZ 0047649f f   OptionsClass.obj
 0001:00075bb8       ?IsBackgroundEnabled@CSettings@@QBE_NPAVCVirtualConsole@@@Z 00476bb8 f   OptionsClass.obj
 0001:00075c79       ?IsMulti@CSettings@@QAE_NXZ 00476c79 f   OptionsClass.obj
 0001:00075c95       ?IsSingleInstanceArg@CSettings@@QBE_NXZ 00476c95 f   OptionsClass.obj
 0001:00075cc3       ?IsValid@CESize@@QBE_N_N@Z 00476cc3 f i OptionsClass.obj
 0001:00075d09       ?LoadBackgroundFile@CSettings@@QAE_NPB_W_N@Z 00476d09 f   OptionsClass.obj
 0001:00075d3f       ?NeedBackgroundUpdate@CSettings@@QAEXXZ 00476d3f f   OptionsClass.obj
 0001:00075d8b       ?OnCtlColorStatic@CSettings@@IAEHPAUHWND__@@PAUHDC__@@0G@Z 00476d8b f   OptionsClass.obj
 0001:00075dea       ?OnDrawFontItem@CSettings@@IAEHPAUHWND__@@IIJ@Z 00476dea f   OptionsClass.obj
 0001:00075fcc       ?OnInitDialog@CSettings@@IAEJXZ 00476fcc f   OptionsClass.obj
 0001:0007656b       ?OnListBoxDblClk@CSettings@@IAEJPAUHWND__@@IJ@Z 0047756b f   OptionsClass.obj
 0001:0007659e       ?OnMeasureFontItem@CSettings@@IAEHPAUHWND__@@IIJ@Z 0047759e f   OptionsClass.obj
 0001:00076616       ?OnNextPage@CSettings@@IAEJXZ 00477616 f   OptionsClass.obj
 0001:0007667b       ?OnPage@CSettings@@IAEJPAUtagNMHDR@@@Z 0047767b f   OptionsClass.obj
 0001:000768c2       ?OnPanelViewAppeared@CSettings@@QAEXH@Z 004778c2 f   OptionsClass.obj
 0001:00076915       ?OnPrevPage@CSettings@@IAEJXZ 00477915 f   OptionsClass.obj
 0001:0007697b       ?OnResetOrReload@CSettings@@IAEX_NPAUSettingsStorage@@@Z 0047797b f   OptionsClass.obj
 0001:00076c81       ?OnSettingsClosed@CSettings@@QAEXXZ 00477c81 f   OptionsClass.obj
 0001:00076d89       ?Performance@CSettings@@QAEXIH@Z 00477d89 f   OptionsClass.obj
 0001:000770b4       ?PostUpdateCounters@CSettings@@QAEX_N@Z 004780b4 f   OptionsClass.obj
 0001:000775d9       ?ProcessTipHelp@CSettings@@QAEHPAUHWND__@@IIJ@Z 004785d9 f   OptionsClass.obj
 0001:00077626       ?QueryDpi@CSettings@@QBEHXZ 00478626 f   OptionsClass.obj
 0001:0007762d       ?RecreateFont@CSettings@@ABEXG@Z 0047862d f   OptionsClass.obj
 0001:000776cb       ?RegisterTabs@CSettings@@AAEXXZ 004786cb f   OptionsClass.obj
 0001:00077711       ?RegisterTipsFor@CSettings@@QAEXPAUHWND__@@@Z 00478711 f   OptionsClass.obj
 0001:000779c8       ?RegisterTipsForChild@CSettings@@CGHPAUHWND__@@J@Z 004789c8 f   OptionsClass.obj
 0001:00077abe       ?ReleaseHandles@CSettings@@AAEXXZ 00478abe f   OptionsClass.obj
 0001:00077ad9       ?ResetCmdHistory@CSettings@@QAE_NPAUHWND__@@@Z 00478ad9 f   OptionsClass.obj
 0001:00077b24       ?SearchForControls@CSettings@@IAEXXZ 00478b24 f   OptionsClass.obj
 0001:000785c5       ?SelectTreeItem@CSettings@@CAXPAUHWND__@@PAU_TREEITEM@@_N@Z 004795c5 f   OptionsClass.obj
 0001:0007860f       ?SetArgBufferHeight@CSettings@@QAEXH@Z 0047960f f   OptionsClass.obj
 0001:000786e9       ?SetBgImageDarker@CSettings@@QAEXE_N@Z 004796e9 f   OptionsClass.obj
 0001:000787c6       ?SetConfigName@CSettings@@QAEXPB_W@Z 004797c6 f   OptionsClass.obj
 0001:00078861       ?SetOption@CSettings@@QAE_NPB_W0@Z 00479861 f   OptionsClass.obj
 0001:00078999       ?SetOption@CSettings@@QAE_NPB_WH@Z 00479999 f   OptionsClass.obj
 0001:00078a0b       ?SetRequestedDpi@CSettings@@QAEXABUDpiValue@@@Z 00479a0b f   OptionsClass.obj
 0001:00078a2c       ?SetSaveCmdHistory@CSettings@@QAEX_N@Z 00479a2c f   OptionsClass.obj
 0001:00078a9c       ?SettingsLoaded@CSettings@@QAEXKPB_W@Z 00479a9c f   OptionsClass.obj
 0001:00078ebf       ?SettingsPreSave@CSettings@@QAEXXZ 00479ebf f   OptionsClass.obj
 0001:00079082       ?ShowConFontErrorTip@CSettings@@QAEXXZ 0047a082 f   OptionsClass.obj
 0001:000790af       ?ShowErrorTip@CSettings@@AAEXPA_WPAUHWND__@@H1PAUtagTOOLINFOW@@1K_N@Z 0047a0af f   OptionsClass.obj
 0001:000791dc       ?ShowFontErrorTip@CSettings@@QAEXPB_W@Z 0047a1dc f   OptionsClass.obj
 0001:00079246       ?ShowModifierErrorTip@CSettings@@QAEXPB_WPAUHWND__@@G@Z 0047a246 f   OptionsClass.obj
 0001:0007928e       ?StringCchCopyNW@@YGJPA_WIPB_WI@Z 0047a28e f i OptionsClass.obj
 0001:000792d0       ?UnregisterTabs@CSettings@@AAEXXZ 0047a2d0 f   OptionsClass.obj
 0001:00079307       ?UpdateConsoleMode@CSettings@@QAEXPAVCRealConsole@@@Z 0047a307 f   OptionsClass.obj
 0001:0007934c       ?UpdateFontInfo@CSettings@@QAEXXZ 0047a34c f   OptionsClass.obj
 0001:0007936b       ?UpdatePos@CSettings@@QAEXHH_N@Z 0047a36b f   OptionsClass.obj
 0001:0007957b       ?UpdateSize@CSettings@@QAEXTCESize@@0@Z 0047a57b f   OptionsClass.obj
 0001:000797a4       ?UpdateTextColorSettings@CSettings@@SAXHHPBUAppSettings@@@Z 0047a7a4 f   OptionsClass.obj
 0001:000797de       ?UpdateWinHookSettings@CSettings@@QBEXPAUHINSTANCE__@@@Z 0047a7de f   OptionsClass.obj
 0001:00079a28       ?UpdateWindowMode@CSettings@@QAEXW4ConEmuWindowMode@@@Z 0047aa28 f   OptionsClass.obj
 0001:00079ac8       ?isDialogMessage@CSettings@@QAE_NAAUtagMSG@@@Z 0047aac8 f   OptionsClass.obj
 0001:00079bc1       ?wndOpProc@CSettings@@SGHPAUHWND__@@IIJ@Z 0047abc1 f   OptionsClass.obj
 0001:0007a05e       ??$_Destroy_range@V?$MArrayAllocator@UAppInfo@AppFoundList@FastConfig@@@@@std@@YAXPAUAppInfo@AppFoundList@FastConfig@@QAU123@AAV?$MArrayAllocator@UAppInfo@AppFoundList@FastConfig@@@@@Z 0047b05e f i OptionsFast.obj
 0001:0007a07c       ??$_Emplace_reallocate@ABUAppInfo@AppFoundList@FastConfig@@@?$vector@UAppInfo@AppFoundList@FastConfig@@V?$MArrayAllocator@UAppInfo@AppFoundList@FastConfig@@@@@std@@QAEPAUAppInfo@AppFoundList@FastConfig@@QAU234@ABU234@@Z 0047b07c f i OptionsFast.obj
 0001:0007a172       ??$_Guess_median_unchecked@PAUAppInfo@AppFoundList@FastConfig@@P6A_NABU123@0@Z@std@@YAXPAUAppInfo@AppFoundList@FastConfig@@00P6A_NABU123@1@Z@Z 0047b172 f i OptionsFast.obj
 0001:0007a1f8       ??$_Insertion_sort_unchecked@PAUAppInfo@AppFoundList@FastConfig@@P6A_NABU123@0@Z@std@@YAPAUAppInfo@AppFoundList@FastConfig@@QAU123@0P6A_NABU123@1@Z@Z 0047b1f8 f i OptionsFast.obj
 0001:0007a327       ??$_Make_heap_unchecked@PAUAppInfo@AppFoundList@FastConfig@@P6A_NABU123@0@Z@std@@YAXPAUAppInfo@AppFoundList@FastConfig@@0P6A_NABU123@1@Z@Z 0047b327 f i OptionsFast.obj
 0001:0007a3b3       ??$_Med3_unchecked@PAUAppInfo@AppFoundList@FastConfig@@P6A_NABU123@0@Z@std@@YAXPAUAppInfo@AppFoundList@FastConfig@@00P6A_NABU123@1@Z@Z 0047b3b3 f i OptionsFast.obj
 0001:0007a404       ??$_Move_backward_unchecked@PAUAppInfo@AppFoundList@FastConfig@@PAU123@@std@@YAPAUAppInfo@AppFoundList@FastConfig@@PAU123@00@Z 0047b404 f i OptionsFast.obj
 0001:0007a432       ??$_Move_unchecked@PAUAppInfo@AppFoundList@FastConfig@@PAU123@@std@@YAPAUAppInfo@AppFoundList@FastConfig@@PAU123@00@Z 0047b432 f i OptionsFast.obj
 0001:0007a460       ??$_Partition_by_median_guess_unchecked@PAUAppInfo@AppFoundList@FastConfig@@P6A_NABU123@0@Z@std@@YA?AU?$pair@PAUAppInfo@AppFoundList@FastConfig@@PAU123@@0@PAUAppInfo@AppFoundList@FastConfig@@0P6A_NABU234@1@Z@Z 0047b460 f i OptionsFast.obj
 0001:0007a63e       ??$_Pop_heap_hole_by_index@PAUAppInfo@AppFoundList@FastConfig@@U123@P6A_NABU123@0@Z@std@@YAXPAUAppInfo@AppFoundList@FastConfig@@HH$$QAU123@P6A_NABU123@2@Z@Z 0047b63e f i OptionsFast.obj
 0001:0007a6e5       ??$_Pop_heap_hole_unchecked@PAUAppInfo@AppFoundList@FastConfig@@U123@P6A_NABU123@0@Z@std@@YAXPAUAppInfo@AppFoundList@FastConfig@@00$$QAU123@P6A_NABU123@2@Z@Z 0047b6e5 f i OptionsFast.obj
 0001:0007a717       ??$_Pop_heap_unchecked@PAUAppInfo@AppFoundList@FastConfig@@P6A_NABU123@0@Z@std@@YAXPAUAppInfo@AppFoundList@FastConfig@@0P6A_NABU123@1@Z@Z 0047b717 f i OptionsFast.obj
 0001:0007a776       ??$_Push_heap_by_index@PAUAppInfo@AppFoundList@FastConfig@@U123@P6A_NABU123@0@Z@std@@YAXPAUAppInfo@AppFoundList@FastConfig@@HH$$QAU123@P6A_NABU123@2@Z@Z 0047b776 f i OptionsFast.obj
 0001:0007a7d0       ??$_Sort_heap_unchecked@PAUAppInfo@AppFoundList@FastConfig@@P6A_NABU123@0@Z@std@@YAXPAUAppInfo@AppFoundList@FastConfig@@0P6A_NABU123@1@Z@Z 0047b7d0 f i OptionsFast.obj
 0001:0007a806       ??$_Sort_unchecked@PAUAppInfo@AppFoundList@FastConfig@@P6A_NABU123@0@Z@std@@YAXPAUAppInfo@AppFoundList@FastConfig@@0HP6A_NABU123@1@Z@Z 0047b806 f i OptionsFast.obj
 0001:0007a8b7       ??$_Uninitialized_move@PAUAppInfo@AppFoundList@FastConfig@@V?$MArrayAllocator@UAppInfo@AppFoundList@FastConfig@@@@@std@@YAPAUAppInfo@AppFoundList@FastConfig@@QAU123@0PAU123@AAV?$MArrayAllocator@UAppInfo@AppFoundList@FastConfig@@@@@Z 0047b8b7 f i OptionsFast.obj
 0001:0007a8f2       ??$emplace_back@ABUAppInfo@AppFoundList@FastConfig@@@?$vector@UAppInfo@AppFoundList@FastConfig@@V?$MArrayAllocator@UAppInfo@AppFoundList@FastConfig@@@@@std@@QAE?A_TABUAppInfo@AppFoundList@FastConfig@@@Z 0047b8f2 f i OptionsFast.obj
 0001:0007a91e       ??$sort@V?$_Vector_iterator@V?$_Vector_val@U?$_Simple_types@UAppInfo@AppFoundList@FastConfig@@@std@@@std@@@std@@P6A_NABUAppInfo@AppFoundList@FastConfig@@0@Z@std@@YAXV?$_Vector_iterator@V?$_Vector_val@U?$_Simple_types@UAppInfo@AppFoundList@FastConfig@@@std@@@std@@@0@0P6A_NABUAppInfo@AppFoundList@FastConfig@@1@Z@Z 0047b91e f i OptionsFast.obj
 0001:0007a943       ??$swap@UAppInfo@AppFoundList@FastConfig@@$0A@@std@@YAXAAUAppInfo@AppFoundList@FastConfig@@0@Z 0047b943 f i OptionsFast.obj
 0001:0007a999       ??0AppFoundList@FastConfig@@QAE@H@Z 0047b999 f i OptionsFast.obj
 0001:0007a9cd       ??0AppInfo@AppFoundList@FastConfig@@QAE@$$QAU012@@Z 0047b9cd f i OptionsFast.obj
 0001:0007aaae       ??0AppInfo@AppFoundList@FastConfig@@QAE@ABU012@@Z 0047baae f i OptionsFast.obj
 0001:0007aba5       ??0CVarDefs@FastConfig@@QAE@XZ 0047bba5 f i OptionsFast.obj
 0001:0007ac0b       ??0FarVerList@FastConfig@@QAE@XZ 0047bc0b f i OptionsFast.obj
 0001:0007ac70       ??1AppFoundList@FastConfig@@UAE@XZ 0047bc70 f i OptionsFast.obj
 0001:0007ac89       ??1AppInfo@AppFoundList@FastConfig@@QAE@XZ 0047bc89 f i OptionsFast.obj
 0001:0007acbd       ??1CVarDefs@FastConfig@@QAE@XZ 0047bcbd f i OptionsFast.obj
 0001:0007ad4e       ??1FarVerList@FastConfig@@UAE@XZ 0047bd4e f i OptionsFast.obj
 0001:0007ad59       ??1FoundFiles@FastConfig@@QAE@XZ 0047bd59 f i OptionsFast.obj
 0001:0007adf6       ??4AppInfo@AppFoundList@FastConfig@@QAEAAU012@$$QAU012@@Z 0047bdf6 f i OptionsFast.obj
 0001:0007aee1       ??_FAppFoundList@FastConfig@@QAEXXZ 0047bee1 f i OptionsFast.obj
 0001:0007aee9       ??_EAppFoundList@FastConfig@@UAEPAXI@Z 0047bee9 f i OptionsFast.obj
 0001:0007aee9       ??_GAppFoundList@FastConfig@@UAEPAXI@Z 0047bee9 f i OptionsFast.obj
 0001:0007af0b       ??_EFarVerList@FastConfig@@UAEPAXI@Z 0047bf0b f i OptionsFast.obj
 0001:0007af0b       ??_GFarVerList@FastConfig@@UAEPAXI@Z 0047bf0b f i OptionsFast.obj
 0001:0007af33       ?Add@AppFoundList@FastConfig@@QAA_NPB_W0000ZZ 0047bf33 f i OptionsFast.obj
 0001:0007b0f6       ?Add@FoundFiles@FastConfig@@QAEXPB_W0@Z 0047c0f6 f i OptionsFast.obj
 0001:0007b203       ?AddAppPath@AppFoundList@FastConfig@@MAEHPB_W00_N000@Z 0047c203 f i OptionsFast.obj
 0001:0007b7da       ?CheckOptionsFast@FastConfig@@YAXPB_WK@Z 0047c7da f   OptionsFast.obj
 0001:0007bbd8       ?CheckUnique@AppFoundList@FastConfig@@QAE_NPB_W@Z 0047cbd8 f i OptionsFast.obj
 0001:0007bd91       ?Commit@AppFoundList@FastConfig@@UAE_NXZ 0047cd91 f i OptionsFast.obj
 0001:0007c920       ?CreateDefaultTasks@FastConfig@@YAXK@Z 0047d920 f   OptionsFast.obj
 0001:0007d8e6       ?DoPaintColorBox@FastConfig@@YAXPAUHWND__@@ABUColorPalette@@@Z 0047e8e6 f   OptionsFast.obj
 0001:0007d9d8       ?DoStartupCommand@FastConfig@@YAXPAUHWND__@@G@Z 0047e9d8 f   OptionsFast.obj
 0001:0007dcc1       ?FastMsgBox@FastConfig@@YAHPB_WI0PAUHWND__@@_N@Z 0047ecc1 f   OptionsFast.obj
 0001:0007dd08       ?FindInstalledVersions@FarVerList@FastConfig@@QAEXXZ 0047ed08 f i OptionsFast.obj
 0001:0007e6b5       ?FindStartupTask@FastConfig@@YAXK@Z 0047f6b5 f   OptionsFast.obj
 0001:0007e80a       ?GetStartupCommand@FastConfig@@YAPB_WAAUCEStr@@@Z 0047f80a f   OptionsFast.obj
 0001:0007ea85       ?MakeUnique@AppFoundList@FastConfig@@UAEXXZ 0047fa85 f i OptionsFast.obj
 0001:0007faac       ?Process@CVarDefs@FastConfig@@QAEXHPB_W@Z 00480aac f i OptionsFast.obj
 0001:0007fc12       ?ScanRegistry@FarVerList@FastConfig@@IAEXXZ 00480c12 f i OptionsFast.obj
 0001:0007fda3       ?SortRoutine@impl@?1??MakeUnique@AppFoundList@FastConfig@@UAEXXZ@SA_NABUAppInfo@34@0@Z 00480da3 f i OptionsFast.obj
 0001:0007fe28       ?SortRoutine@impl@?BM@??FindInstalledVersions@FarVerList@FastConfig@@QAEXXZ@SA_NABUAppInfo@AppFoundList@4@0@Z 00480e28 f i OptionsFast.obj
 0001:0007fe8e       ?Store@CVarDefs@FastConfig@@QAEX$$QAPA_W0@Z 00480e8e f i OptionsFast.obj
 0001:0007fee2       ?Trim@AppFoundList@FastConfig@@IAE_NXZ 00480ee2 f i OptionsFast.obj
 0001:0008014f       ?_Calculate_growth@?$vector@UAppInfo@AppFoundList@FastConfig@@V?$MArrayAllocator@UAppInfo@AppFoundList@FastConfig@@@@@std@@ABEII@Z 0048114f f i OptionsFast.obj
 0001:00080182       ?_Change_array@?$vector@UAppInfo@AppFoundList@FastConfig@@V?$MArrayAllocator@UAppInfo@AppFoundList@FastConfig@@@@@std@@AAEXQAUAppInfo@AppFoundList@FastConfig@@II@Z 00481182 f i OptionsFast.obj
 0001:000801ca       ?_Move@?$_Func_impl_no_alloc@P6A_NABUCEStr@@ABU_WIN32_FIND_DATAW@@PAX@Z_NABU1@ABU2@PAX@std@@EAEPAV?$_Func_base@_NABUCEStr@@ABU_WIN32_FIND_DATAW@@PAX@2@PAX@Z 004811ca f i OptionsFast.obj
 0001:000801ca       ?_Copy@?$_Func_impl_no_alloc@P6A_NABUCEStr@@ABU_WIN32_FIND_DATAW@@PAX@Z_NABU1@ABU2@PAX@std@@EBEPAV?$_Func_base@_NABUCEStr@@ABU_WIN32_FIND_DATAW@@PAX@2@PAX@Z 004811ca f i OptionsFast.obj
 0001:000801e0       ?_Do_call@?$_Func_impl_no_alloc@P6A_NABUCEStr@@ABU_WIN32_FIND_DATAW@@PAX@Z_NABU1@ABU2@PAX@std@@EAE_NABUCEStr@@ABU_WIN32_FIND_DATAW@@$$QAPAX@Z 004811e0 f i OptionsFast.obj
 0001:000801f8       ?_Target_type@?$_Func_impl_no_alloc@P6A_NABUCEStr@@ABU_WIN32_FIND_DATAW@@PAX@Z_NABU1@ABU2@PAX@std@@EBEABVtype_info@@XZ 004811f8 f i OptionsFast.obj
 0001:000801fe       ?_Tidy@?$vector@UAppInfo@AppFoundList@FastConfig@@V?$MArrayAllocator@UAppInfo@AppFoundList@FastConfig@@@@@std@@AAEXXZ 004811fe f i OptionsFast.obj
 0001:00080260       ?allocate@?$MArrayAllocator@UAppInfo@AppFoundList@FastConfig@@@@QAEPAUAppInfo@AppFoundList@FastConfig@@I@Z 00481260 f i OptionsFast.obj
 0001:00080293       ?clear@?$vector@UAppInfo@AppFoundList@FastConfig@@V?$MArrayAllocator@UAppInfo@AppFoundList@FastConfig@@@@@std@@QAEXXZ 00481293 f i OptionsFast.obj
 0001:000802ab       ?erase@?$MArray@UAppInfo@AppFoundList@FastConfig@@@@QAEXHH@Z 004812ab f i OptionsFast.obj
 0001:000802fe       ?erase@?$vector@UAppInfo@AppFoundList@FastConfig@@V?$MArrayAllocator@UAppInfo@AppFoundList@FastConfig@@@@@std@@QAE?AV?$_Vector_iterator@V?$_Vector_val@U?$_Simple_types@UAppInfo@AppFoundList@FastConfig@@@std@@@std@@@2@V?$_Vector_const_iterator@V?$_Vector_val@U?$_Simple_types@UAppInfo@AppFoundList@FastConfig@@@std@@@std@@@2@0@Z 004812fe f i OptionsFast.obj
 0001:00080338       ?isNeedQuot@AppInfo@AppFoundList@FastConfig@@QBE_NXZ 00481338 f i OptionsFast.obj
 0001:00080355       ?pop_back@?$MArray@UVarDef@CVarDefs@FastConfig@@@@QAE_NAAUVarDef@CVarDefs@FastConfig@@@Z 00481355 f i OptionsFast.obj
 0001:00080388       ?GetItemHelp@CEHelpPopup@@SA_NHPAUHWND__@@PA_WK@Z 00481388 f   OptionsHelp.obj
 0001:000804b3       ?OpenSettingsWiki@CEHelpPopup@@SA_NPAUHWND__@@G@Z 004814b3 f   OptionsHelp.obj
 0001:0008058c       ??0CPushInfo@@QAE@XZ       0048158c f   PushInfo.obj
 0001:00080764       ?OnNotificationClick@CPushInfo@@QAEXXZ 00481764 f   PushInfo.obj
 0001:000807eb       ?OpenNotificationUrl@CPushInfo@@QAEXXZ 004817eb f   PushInfo.obj
 0001:0008082a       ?ShowNotification@CPushInfo@@QAE_NXZ 0048182a f   PushInfo.obj
 0001:00080887       ??0CRConData@@IAE@PAVCRealConsole@@PA_WPAUtag_CharAttr@@ABU_CONSOLE_SCREEN_BUFFER_INFO@@ABU_COORD@@@Z 00481887 f   RConData.obj
 0001:000808fa       ??1CRConData@@MAE@XZ       004818fa f   RConData.obj
 0001:00080977       ??_GCRConData@@MAEPAXI@Z   00481977 f i RConData.obj
 0001:00080977       ??_ECRConData@@MAEPAXI@Z   00481977 f i RConData.obj
 0001:00080999       ?Allocate@CRConData@@SA_NAAVCRConDataGuard@@PAVCRealConsole@@I@Z 00481999 f   RConData.obj
 0001:00080a74       ?Allocate@CRConData@@SA_NAAVCRConDataGuard@@PAVCRealConsole@@PA_WPAUtag_CharAttr@@ABU_CONSOLE_SCREEN_BUFFER_INFO@@ABU_COORD@@@Z 00481a74 f   RConData.obj
 0001:00080ad7       ?CheckProgressInConsole@CRConData@@QAEFI@Z 00481ad7 f   RConData.obj
 0001:00080ff0       ?FindPanels@CRConData@@QAE_NAA_NAAUtagRECT@@1011@Z 00481ff0 f   RConData.obj
 0001:00081649       ?GetConsoleData@CRConData@@QAEIPA_WPAUtag_CharAttr@@II_WU2@11_N4@Z 00482649 f   RConData.obj
 0001:00081b2f       ?GetConsoleLine@CRConData@@QBE_NHAAUConsoleLinePtr@@@Z 00482b2f f   RConData.obj
 0001:00081bc9       ?clear@ConsoleLinePtr@@QAEXXZ 00482bc9 f   RConData.obj
 0001:00081bd7       ?isValid@CRConData@@QAE_N_NI@Z 00482bd7 f   RConData.obj
 0001:00081c19       ?isValid@CRConDataGuard@@QAE_NI@Z 00482c19 f   RConData.obj
 0001:00081c3a       _wmemset                   00482c3a f i RConData.obj
 0001:00081c64       ??0CRConFiles@@QAE@PAVCRealConsole@@@Z 00482c64 f   RConFiles.obj
 0001:00081c72       ?CheckParentFolders@CRConFiles@@AAE_NPB_W0AAUCEStr@@@Z 00482c72 f   RConFiles.obj
 0001:00081d4c       ?GetFileFromConsole@CRConFiles@@QAEPB_WPB_WAAUCEStr@@@Z 00482d4c f   RConFiles.obj
 0001:00081fbc       ??$?9K$0BA@@std@@YA_NABV?$array@K$0BA@@0@0@Z 00482fbc f i RConPalette.obj
 0001:00081fe3       ??$swprintf_s@$0MI@@@YAHAAY0MI@_WPB_WZZ 00482fe3 f i RConPalette.obj
 0001:00082001       ??0CRConPalette@@QAE@PAVCRealConsole@@@Z 00483001 f   RConPalette.obj
 0001:0008203d       ??_GCRConPalette@@UAEPAXI@Z 0048303d f i RConPalette.obj
 0001:0008203d       ??_ECRConPalette@@UAEPAXI@Z 0048303d f i RConPalette.obj
 0001:00082063       ?UpdateColorTable@CRConPalette@@QAEXABV?$array@K$0BA@@std@@_N1EEE@Z 00483063 f   RConPalette.obj
 0001:0008245d       ??$MinMax@F@@YAXAAFHH@Z    0048345d f i RealBuffer.obj
 0001:0008247d       ??$SafeDelete@VCMatch@@@@YAXAAPAVCMatch@@@Z 0048347d f i RealBuffer.obj
 0001:000824b1       ??$log2@K$0A@@@YANK@Z      004834b1 f i RealBuffer.obj
 0001:000824db       ??$sprintf_c@$0CA@@@YAHAAY0CA@DPBDZZ 004834db f i RealBuffer.obj
 0001:000824f1       ??$swprintf_c@$0GA@@@YAHAAY0GA@_WPB_WZZ 004834f1 f i RealBuffer.obj
 0001:00082507       ??$swprintf_c@$0PA@@@YAHAAY0PA@_WPB_WZZ 00483507 f i RealBuffer.obj
 0001:00082520       ??0?$CRefGuard@VCRConData@@@@QAE@XZ 00483520 f i RealBuffer.obj
 0001:0008253a       ??0CEnvRestorer@@QAE@XZ    0048353a f i RealBuffer.obj
 0001:0008256a       ??0CRealBuffer@@QAE@PAVCRealConsole@@W4RealBufferType@@@Z 0048356a f   RealBuffer.obj
 0001:000826a1       ??1?$CRefGuard@VCRConData@@@@UAE@XZ 004836a1 f i RealBuffer.obj
 0001:000826ef       ??1CRConDataGuard@@UAE@XZ  004836ef f i RealBuffer.obj
 0001:000826f4       ??1CRealBuffer@@QAE@XZ     004836f4 f   RealBuffer.obj
 0001:00082831       ??_GCRConDataGuard@@UAEPAXI@Z 00483831 f i RealBuffer.obj
 0001:00082831       ??_G?$CRefGuard@VCRConData@@@@UAEPAXI@Z 00483831 f i RealBuffer.obj
 0001:00082831       ??_E?$CRefGuard@VCRConData@@@@UAEPAXI@Z 00483831 f i RealBuffer.obj
 0001:00082831       ??_ECRConDataGuard@@UAEPAXI@Z 00483831 f i RealBuffer.obj
 0001:00082853       ?AllocateBuffer@MPipeBase@@IAEPAXIPAXI@Z 00483853 f i RealBuffer.obj
 0001:000828db       ?ApplyConsoleInfo@CRealBuffer@@AAEXPBUCESERVER_REQ@@AA_N11@Z 004838db f   RealBuffer.obj
 0001:00082fcc       ?ApplyConsoleInfo@CRealBuffer@@QAE_NXZ 00483fcc f   RealBuffer.obj
 0001:000830ca       ?Attach@?$CRefGuard@VCVConGroup@@@@UAE_NPAVCVConGroup@@@Z 004840ca f i VConGroup.obj
 0001:000830ca       ?Attach@?$CRefGuard@VCConHostSearch@CRealConsole@@@@UAE_NPAVCConHostSearch@CRealConsole@@@Z 004840ca f i RealConsole.obj
 0001:000830ca       ?Attach@?$CRefGuard@VCRConData@@@@UAE_NPAVCRConData@@@Z 004840ca f i RealBuffer.obj
 0001:000830ca       ?Attach@?$CRefGuard@VCVirtualConsole@@@@UAE_NPAVCVirtualConsole@@@Z 004840ca f i VConRelease.obj
 0001:00083103       ?BuferModeChangeLock@CRealBuffer@@QAE_NXZ 00484103 f   RealBuffer.obj
 0001:00083115       ?BuferModeChangeUnlock@CRealBuffer@@QAEXXZ 00484115 f   RealBuffer.obj
 0001:0008311d       ?BufferHeight@CRealBuffer@@QAEHI@Z 0048411d f   RealBuffer.obj
 0001:0008315c       ?BufferToScreen@CRealBuffer@@QAE?AU_COORD@@U2@_N1@Z 0048415c f   RealBuffer.obj
 0001:00083203       ?CanProcessHyperlink@CRealBuffer@@AAE_NABU_COORD@@@Z 00484203 f   RealBuffer.obj
 0001:000832be       ?ChangeBufferHeightMode@CRealBuffer@@QAEX_N@Z 004842be f   RealBuffer.obj
 0001:00083369       ?ChangeSelectionByKey@CRealBuffer@@QAEXI_N0@Z 00484369 f   RealBuffer.obj
 0001:00083687       ?CheckBufferSize@CRealBuffer@@AAE_NXZ 00484687 f   RealBuffer.obj
 0001:000836d6       ?Close@ConDumpInfo@CRealBuffer@@QAEXXZ 004846d6 f i RealBuffer.obj
 0001:000836f1       ?Close@MPipeBase@@QAEXXZ   004846f1 f i RealBuffer.obj
 0001:0008376b       ?ConsoleCursorInfo@CRealBuffer@@QAEXPAU_CONSOLE_CURSOR_INFO@@@Z 0048476b f   RealBuffer.obj
 0001:00083817       ?ConsoleCursorPos@CRealBuffer@@QAEXPAU_COORD@@@Z 00484817 f   RealBuffer.obj
 0001:00083871       ?ConsoleScreenBufferInfo@CRealBuffer@@QAEXPAU_CONSOLE_SCREEN_BUFFER_INFO@@PAU_SMALL_RECT@@PAUTOPLEFTCOORD@@@Z 00484871 f   RealBuffer.obj
 0001:000838e2       ?CorrectSelectionAnchor@CRealBuffer@@QAEIXZ 004848e2 f   RealBuffer.obj
 0001:0008397a       ?DoCopyPaste@CRealBuffer@@QAEX_N0@Z 0048497a f   RealBuffer.obj
 0001:00083a39       ?DoScrollBuffer@CRealBuffer@@QAEJHFI_N@Z 00484a39 f   RealBuffer.obj
 0001:00083b75       ?DoSelectionCopy@CRealBuffer@@QAE_NW4CECopyMode@@EPB_WPAPAX@Z 00484b75 f   RealBuffer.obj
 0001:00083d63       ?DoSelectionCopyInt@CRealBuffer@@AAE_NW4CECopyMode@@_NHHHHEPB_WPAPAX@Z 00484d63 f   RealBuffer.obj
 0001:00084850       ?DoSelectionFinalize@CRealBuffer@@QAE_N_NW4CECopyMode@@IPAPAX@Z 00485850 f   RealBuffer.obj
 0001:000848a6       ?DoSelectionStop@CRealBuffer@@QAEXXZ 004858a6 f   RealBuffer.obj
 0001:00084912       ?DumpConsole@CRealBuffer@@QAEXPAX@Z 00485912 f   RealBuffer.obj
 0001:000849ba       ?ExpandSelection@CRealBuffer@@QAEXFF_N@Z 004859ba f   RealBuffer.obj
 0001:00084ec1       ?ExpandTextRange@CRealBuffer@@AAE?AW4ExpandTextRangeType@@U_COORD@@AAU3@1W42@PAUCEStr@@@Z 00485ec1 f   RealBuffer.obj
 0001:000850c6       ?FindPanels@CRealBuffer@@QAEXXZ 004860c6 f   RealBuffer.obj
 0001:00085381       ?GetAutoscrollSelectionLines@CRealBuffer@@AAEIH@Z 00486381 f   RealBuffer.obj
 0001:00085434       ?GetBufferHeight@CRealBuffer@@QBEFXZ 00486434 f   RealBuffer.obj
 0001:0008543c       ?GetBufferPosY@CRealBuffer@@QBEFXZ 0048643c f   RealBuffer.obj
 0001:0008544e       ?GetBufferWidth@CRealBuffer@@QBEFXZ 0048644e f   RealBuffer.obj
 0001:00085456       ?GetConInMode@CRealBuffer@@QAEGXZ 00486456 f   RealBuffer.obj
 0001:0008545e       ?GetConOutMode@CRealBuffer@@QAEGXZ 0048645e f   RealBuffer.obj
 0001:00085466       ?GetConWindowSize@CRealBuffer@@QBE_NABU_CONSOLE_SCREEN_BUFFER_INFO@@PAH1PAK@Z 00486466 f   RealBuffer.obj
 0001:0008553e       ?GetConsoleCP@CRealBuffer@@QAEKXZ 0048653e f   RealBuffer.obj
 0001:00085545       ?GetConsoleData@CRealBuffer@@QAEXPA_WPAUtag_CharAttr@@HHAAUConEmuTextRange@@@Z 00486545 f   RealBuffer.obj
 0001:00085e0c       ?GetConsoleLine@CRealBuffer@@QAE_NAAVCRConDataGuard@@HAAPB_WAAHPAVMSectionLock@@@Z 00486e0c f   RealBuffer.obj
 0001:00085e49       ?GetConsoleLine@CRealBuffer@@QAE_NHAAVCRConDataGuard@@AAUConsoleLinePtr@@PAVMSectionLock@@@Z 00486e49 f   RealBuffer.obj
 0001:00085f5f       ?GetConsoleOutputCP@CRealBuffer@@QAEKXZ 00486f5f f   RealBuffer.obj
 0001:00085f66       ?GetConsoleSelectionInfo@CRealBuffer@@QAE_NPAU_CONSOLE_SELECTION_INFO@@@Z 00486f66 f   RealBuffer.obj
 0001:00085f92       ?GetCursorInfo@CRealBuffer@@QAEXPAU_COORD@@PAU_CONSOLE_CURSOR_INFO@@@Z 00486f92 f   RealBuffer.obj
 0001:00085fb6       ?GetData@CRealBuffer@@IAE_NAAVCRConDataGuard@@@Z 00486fb6 f   RealBuffer.obj
 0001:0008602b       ?GetDefaultNtvdmHeight@CRealBuffer@@QAE?AU_COORD@@XZ 0048702b f   RealBuffer.obj
 0001:00086095       ?GetDetector@CRealBuffer@@QAEPBVCRgnDetect@@XZ 00487095 f   RealBuffer.obj
 0001:000860a0       ?GetDynamicHeight@CRealBuffer@@QBEHXZ 004870a0 f   RealBuffer.obj
 0001:000860bd       ?GetKeybLayout@CRealBuffer@@QAEKXZ 004870bd f   RealBuffer.obj
 0001:000860c4       ?GetLastTextRangeType@CRealBuffer@@QAE?AW4ExpandTextRangeType@@XZ 004870c4 f   RealBuffer.obj
 0001:000860d2       ?GetMaxSize@CRealBuffer@@QAE?AU_COORD@@XZ 004870d2 f   RealBuffer.obj
 0001:000860e4       ?GetPanelRect@CRealBuffer@@QAE_N_NPAUtagRECT@@00@Z 004870e4 f   RealBuffer.obj
 0001:00086197       ?GetRBtnDrag@CRealBuffer@@QBE_NPAU_COORD@@@Z 00487197 f   RealBuffer.obj
 0001:000861b3       ?GetSelectionCellsCount@CRealBuffer@@QAEHXZ 004871b3 f   RealBuffer.obj
 0001:000861f6       ?GetSelectionCharCount@CRealBuffer@@AAEH_NHHHHPAH1H@Z 004871f6 f   RealBuffer.obj
 0001:00086296       ?GetStatusLineCount@CRealBuffer@@QAEHH@Z 00487296 f   RealBuffer.obj
 0001:0008635e       ?GetTextHeight@CRealBuffer@@QBEHXZ 0048735e f   RealBuffer.obj
 0001:0008636d       ?GetTextWidth@CRealBuffer@@QBEHXZ 0048736d f   RealBuffer.obj
 0001:0008637c       ?GetTo@?$MFileMapping@$$CBUCEFAR_INFO_MAPPING@@@@QAE_NPAUCEFAR_INFO_MAPPING@@H@Z 0048737c f i RealBuffer.obj
 0001:0008637c       ?GetTo@?$MFileMapping@UAnnotationHeader@@@@QAE_NPAUAnnotationHeader@@H@Z 0048737c f i RealBuffer.obj
 0001:0008644f       ?InitBuffers@CRealBuffer@@AAE_NKHHPAVCRConDataGuard@@@Z 0048744f f   RealBuffer.obj
 0001:00086908       ?InitMaxSize@CRealBuffer@@QAEXABU_COORD@@@Z 00487908 f   RealBuffer.obj
 0001:0008691a       ?InitSBI@CRealBuffer@@QAEXABU_CONSOLE_SCREEN_BUFFER_INFO@@@Z 0048791a f   RealBuffer.obj
 0001:00086a17       ?IsBufferHeightTurnedOn@CRealBuffer@@AAE_NABU_CONSOLE_SCREEN_BUFFER_INFO@@@Z 00487a17 f   RealBuffer.obj
 0001:00086a53       ?IsFarLua@FarVersion@@QBE_NXZ 00487a53 f i RealBuffer.obj
 0001:00086a70       ?IsForceLineBreakChar@CRealBuffer@@ABE_N_W@Z 00487a70 f   RealBuffer.obj
 0001:00086a8b       ?IsTrueColorerBufferChanged@CRealBuffer@@AAE_NXZ 00487a8b f   RealBuffer.obj
 0001:00086c3e       ?LoadAlternativeConsole@CRealBuffer@@QAE_NW4LoadAltMode@@@Z 00487c3e f   RealBuffer.obj
 0001:00086e85       ?LoadDataFromDump@CRealBuffer@@AAE_NABU_CONSOLE_SCREEN_BUFFER_INFO@@PBU_CHAR_INFO@@K@Z 00487e85 f   RealBuffer.obj
 0001:000871b8       ?LoadDataFromSrv@CRealBuffer@@AAE_NAAVCRConDataGuard@@KPAU_CHAR_INFO@@@Z 004881b8 f   RealBuffer.obj
 0001:000874f1       ?LoadDumpConsole@CRealBuffer@@QAE_NPB_W@Z 004884f1 f   RealBuffer.obj
 0001:000879a5       ?MarkFindText@CRealBuffer@@QAEXHPB_W_N1@Z 004889a5 f   RealBuffer.obj
 0001:00087f21       ?OnBufferHeight@CRealBuffer@@QAEXXZ 00488f21 f   RealBuffer.obj
 0001:00087f36       ?OnKeyboard@CRealBuffer@@QAE_NPAUHWND__@@IIJPB_W@Z 00488f36 f   RealBuffer.obj
 0001:00088132       ?OnKeysSending@CRealBuffer@@QAEXXZ 00489132 f   RealBuffer.obj
 0001:00088184       ?OnMouse@CRealBuffer@@QAE_NIIHHU_COORD@@@Z 00489184 f   RealBuffer.obj
 0001:00088ea9       ?OnMouseSelection@CRealBuffer@@AAE_NIIHH@Z 00489ea9 f   RealBuffer.obj
 0001:0008949a       ?OnMouseSelectionStarted@CRealBuffer@@AAEXXZ 0048a49a f   RealBuffer.obj
 0001:000894ba       ?OnMouseSelectionStopped@CRealBuffer@@AAEXXZ 0048a4ba f   RealBuffer.obj
 0001:000894d9       ?OnTimerCheckSelection@CRealBuffer@@QAEXXZ 0048a4d9 f   RealBuffer.obj
 0001:000895c8       ?Open@?$MPipe@UCESERVER_REQ_HDR@@U1@@@QAE_NXZ 0048a5c8 f i RealBuffer.obj
 0001:0008966e       ?PatchMouseCoords@CRealBuffer@@AAE_NAAH0AAU_COORD@@@Z 0048a66e f   RealBuffer.obj
 0001:0008993a       ?PreFillBuffers@CRealBuffer@@QAEXXZ 0048a93a f   RealBuffer.obj
 0001:000899a9       ?PreInit@CRealBuffer@@QAE_NXZ 0048a9a9 f   RealBuffer.obj
 0001:00089b16       ?PrepareColorTable@CRealBuffer@@AAEXPBUAppSettings@@PAPAUtag_CharAttr@@1@Z 0048ab16 f   RealBuffer.obj
 0001:00089bce       ?PrepareTransparent@CRealBuffer@@AAEXPA_WPAUtag_CharAttr@@HH@Z 0048abce f   RealBuffer.obj
 0001:00089dbe       ?ProcessFarHyperlink@CRealBuffer@@QAE_NIU_COORD@@_N@Z 0048adbe f   RealBuffer.obj
 0001:0008a88d       ?ProcessFarHyperlink@CRealBuffer@@QAE_N_N@Z 0048b88d f   RealBuffer.obj
 0001:0008a9b1       ?ProcessSelectionHotKey@CRealBuffer@@QAEPBUConEmuHotKey@@ABUConEmuChord@@_NPB_W@Z 0048b9b1 f   RealBuffer.obj
 0001:0008ac38       ?QueryCellInfo@CRealBuffer@@QAEXPA_WH@Z 0048bc38 f   RealBuffer.obj
 0001:0008ad96       ?ReleaseMem@CRealBuffer@@QAEXXZ 0048bd96 f   RealBuffer.obj
 0001:0008ada4       ?ResetBuffer@CRealBuffer@@QAEXXZ 0048bda4 f   RealBuffer.obj
 0001:0008ae61       ?ResetConData@CRealBuffer@@QAEXXZ 0048be61 f   RealBuffer.obj
 0001:0008ae70       ?ResetLastMousePos@CRealBuffer@@AAE_NXZ 0048be70 f   RealBuffer.obj
 0001:0008aea2       ?ResetTopLeft@CRealBuffer@@QAEXXZ 0048bea2 f   RealBuffer.obj
 0001:0008aece       ?ScreenToBuffer@CRealBuffer@@QAE?AU_COORD@@U2@@Z 0048bece f   RealBuffer.obj
 0001:0008af00       ?SetBufferHeightMode@CRealBuffer@@QAEX_N0@Z 0048bf00 f   RealBuffer.obj
 0001:0008af38       ?SetChange2Size@CRealBuffer@@QAEXHH@Z 0048bf38 f   RealBuffer.obj
 0001:0008af51       ?SetConsoleSize@CRealBuffer@@QAE_NFFGK@Z 0048bf51 f   RealBuffer.obj
 0001:0008b252       ?SetConsoleSizeSrv@CRealBuffer@@AAE_NGGGK@Z 0048c252 f   RealBuffer.obj
 0001:0008bc3a       ?SetKeybLayout@CRealBuffer@@QAEXK@Z 0048cc3a f   RealBuffer.obj
 0001:0008bc4a       ?SetRBtnDrag@CRealBuffer@@QAEX_NPBU_COORD@@@Z 0048cc4a f   RealBuffer.obj
 0001:0008bc69       ?SetSelectionAnchor@CRealBuffer@@AAEXHH@Z 0048cc69 f   RealBuffer.obj
 0001:0008bc9e       ?SetSelectionFlags@CRealBuffer@@AAEXK@Z 0048cc9e f   RealBuffer.obj
 0001:0008bd0c       ?SetTopLeft@CRealBuffer@@IAE_NHH_N0@Z 0048cd0c f   RealBuffer.obj
 0001:0008be0a       ?ShowKeyBarHint@CRealBuffer@@QAEXG@Z 0048ce0a f   RealBuffer.obj
 0001:0008be35       ?StartSelection@CRealBuffer@@QAEX_NFF0IPAU_COORD@@K@Z 0048ce35 f   RealBuffer.obj
 0001:0008c0a1       ?StoreLastTextRange@CRealBuffer@@AAE_NW4ExpandTextRangeType@@@Z 0048d0a1 f   RealBuffer.obj
 0001:0008c0ed       ?StorePausedState@CRealBuffer@@QAEXW4CEPauseCmd@@@Z 0048d0ed f   RealBuffer.obj
 0001:0008c12e       ?SyncConsole2Window@CRealBuffer@@QAEXFF@Z 0048d12e f   RealBuffer.obj
 0001:0008c1f0       ?TextHeight@CRealBuffer@@QBEHXZ 0048d1f0 f   RealBuffer.obj
 0001:0008c209       ?TextWidth@CRealBuffer@@QBEHXZ 0048d209 f   RealBuffer.obj
 0001:0008c222       ?Transact@?$MPipe@UCESERVER_REQ_HDR@@U1@@@QAE_NPBUCESERVER_REQ_HDR@@KPAPBU2@@Z 0048d222 f i RealBuffer.obj
 0001:0008c5ce       ?UpdateHyperlink@CRealBuffer@@QAEXXZ 0048d5ce f   RealBuffer.obj
 0001:0008c5ec       ?UpdateSelection@CRealBuffer@@QAEXXZ 0048d5ec f   RealBuffer.obj
 0001:0008c657       ?isConSelectMode@CRealBuffer@@QAE_NXZ 0048d657 f   RealBuffer.obj
 0001:0008c692       ?isConsoleDataChanged@CRealBuffer@@QAE_NXZ 0048d692 f   RealBuffer.obj
 0001:0008c6a0       ?isCursorVisible@CRealBuffer@@QAE_NXZ 0048d6a0 f   RealBuffer.obj
 0001:0008c6de       ?isDataValid@CRealBuffer@@IAE_NXZ 0048d6de f   RealBuffer.obj
 0001:0008c76a       ?isFarMenuOrMacro@CRealBuffer@@QAE_NXZ 0048d76a f   RealBuffer.obj
 0001:0008c89f       ?isInitialized@CRealBuffer@@QAE_NXZ 0048d89f f   RealBuffer.obj
 0001:0008c8bf       ?isLeftPanel@CRealBuffer@@QAE_NXZ 0048d8bf f   RealBuffer.obj
 0001:0008c8c3       ?isMouseClickExtension@CRealBuffer@@QAE_NXZ 0048d8c3 f   RealBuffer.obj
 0001:0008c905       ?isMouseInsideSelection@CRealBuffer@@QAE_NHH@Z 0048d905 f   RealBuffer.obj
 0001:0008c9d1       ?isMouseSelectionPresent@CRealBuffer@@QAE_NXZ 0048d9d1 f   RealBuffer.obj
 0001:0008c9e4       ?isPaused@CRealBuffer@@QAE_NXZ 0048d9e4 f   RealBuffer.obj
 0001:0008c9f4       ?isRightPanel@CRealBuffer@@QAE_NXZ 0048d9f4 f   RealBuffer.obj
 0001:0008c9f8       ?isScroll@CRealBuffer@@QAE_NW4RealBufferScroll@@@Z 0048d9f8 f   RealBuffer.obj
 0001:0008ca01       ?isSelectionAllowed@CRealBuffer@@QAE_NXZ 0048da01 f   RealBuffer.obj
 0001:0008cb5b       ?isSelectionPresent@CRealBuffer@@QAE_NXZ 0048db5b f   RealBuffer.obj
 0001:0008cb6d       ?isStreamSelection@CRealBuffer@@QAE_NXZ 0048db6d f   RealBuffer.obj
 0001:0008cb80       ??$?0ABK@?$_List_node_emplace_op2@V?$allocator@U?$_List_node@KPAX@std@@@std@@@std@@QAE@AAV?$allocator@U?$_List_node@KPAX@std@@@1@ABK@Z 0048db80 f i RealConsole.obj
 0001:0008cbbb       ??$?0U?$pair@$$CBKI@std@@@?$_List_node_emplace_op2@V?$allocator@U?$_List_node@U?$pair@$$CBKI@std@@PAX@std@@@std@@@std@@QAE@AAV?$allocator@U?$_List_node@U?$pair@$$CBKI@std@@PAX@std@@@1@$$QAU?$pair@$$CBKI@1@@Z 0048dbbb f i RealConsole.obj
 0001:0008cbfc       ??$SafeDelete@UTermX@@@@YAXAAPAUTermX@@@Z 0048dbfc f i RealConsole.obj
 0001:0008cc1f       ??$SafeDelete@VCProcessData@@@@YAXAAPAVCProcessData@@@Z 0048dc1f f i RealConsole.obj
 0001:0008cc53       ??$SafeDelete@VCTab@@@@YAXAAPAVCTab@@@Z 0048dc53 f i RealConsole.obj
 0001:0008cc84       ??$_Emplace_reallocate@ABK@?$vector@KV?$allocator@K@std@@@std@@QAEPAKQAKABK@Z 0048dc84 f i RealConsole.obj
 0001:0008cd32       ??$_Emplace_reallocate@ABUtagPROCESSENTRY32W@@@?$vector@UtagPROCESSENTRY32W@@V?$MArrayAllocator@UtagPROCESSENTRY32W@@@@@std@@QAEPAUtagPROCESSENTRY32W@@QAU2@ABU2@@Z 0048dd32 f i RealConsole.obj
 0001:0008cde9       ??$_Emplace_reallocate@UConProcess@@@?$vector@UConProcess@@V?$MArrayAllocator@UConProcess@@@@@std@@QAEPAUConProcess@@QAU2@$$QAU2@@Z 0048dde9 f i RealConsole.obj
 0001:0008ce9e       ??$_Find_last@K@?$_Hash@V?$_Uset_traits@KV?$_Uhash_compare@KU?$hash@K@std@@U?$equal_to@K@2@@std@@V?$allocator@K@2@$0A@@std@@@std@@IBE?AU?$_Hash_find_last_result@PAU?$_List_node@KPAX@std@@@1@ABKI@Z 0048de9e f i RealConsole.obj
 0001:0008ce9e       ??$_Find_last@K@?$_Hash@V?$_Umap_traits@KIV?$_Uhash_compare@KU?$hash@K@std@@U?$equal_to@K@2@@std@@V?$allocator@U?$pair@$$CBKI@std@@@2@$0A@@std@@@std@@IBE?AU?$_Hash_find_last_result@PAU?$_List_node@U?$pair@$$CBKI@std@@PAX@std@@@1@ABKI@Z 0048de9e f i RealConsole.obj
 0001:0008ce9e       ??$_Find_last@H@?$_Hash@V?$_Umap_traits@HGV?$_Uhash_compare@HU?$hash@H@std@@U?$equal_to@H@2@@std@@V?$allocator@U?$pair@$$CBHG@std@@@2@$0A@@std@@@std@@IBE?AU?$_Hash_find_last_result@PAU?$_List_node@U?$pair@$$CBHG@std@@PAX@std@@@1@ABHI@Z 0048de9e f i VirtualConsole.obj
 0001:0008ceef       ??$_Free_non_head@V?$allocator@U?$_List_node@KPAX@std@@@std@@@?$_List_node@KPAX@std@@SAXAAV?$allocator@U?$_List_node@KPAX@std@@@1@PAU01@@Z 0048deef f i RealConsole.obj
 0001:0008cf17       ??$_Uninitialized_move@PAUConProcess@@V?$MArrayAllocator@UConProcess@@@@@std@@YAPAUConProcess@@QAU1@0PAU1@AAV?$MArrayAllocator@UConProcess@@@@@Z 0048df17 f i RealConsole.obj
 0001:0008cf46       ??$_Uninitialized_move@PAUtagPROCESSENTRY32W@@V?$MArrayAllocator@UtagPROCESSENTRY32W@@@@@std@@YAPAUtagPROCESSENTRY32W@@QAU1@0PAU1@AAV?$MArrayAllocator@UtagPROCESSENTRY32W@@@@@Z 0048df46 f i RealConsole.obj
 0001:0008cf75       ??$count@X@?$_Hash@V?$_Uset_traits@KV?$_Uhash_compare@KU?$hash@K@std@@U?$equal_to@K@2@@std@@V?$allocator@K@2@$0A@@std@@@std@@QBEIABK@Z 0048df75 f i RealConsole.obj
 0001:0008cf75       ??$count@X@?$_Hash@V?$_Umap_traits@KIV?$_Uhash_compare@KU?$hash@K@std@@U?$equal_to@K@2@@std@@V?$allocator@U?$pair@$$CBKI@std@@@2@$0A@@std@@@std@@QBEIABK@Z 0048df75 f i RealConsole.obj
 0001:0008cfad       ??$emplace@ABK@?$_Hash@V?$_Uset_traits@KV?$_Uhash_compare@KU?$hash@K@std@@U?$equal_to@K@2@@std@@V?$allocator@K@2@$0A@@std@@@std@@QAE?AU?$pair@V?$_List_const_iterator@V?$_List_val@U?$_List_simple_types@K@std@@@std@@@std@@_N@1@ABK@Z 0048dfad f i RealConsole.obj
 0001:0008d06c       ??$emplace@U?$pair@$$CBKI@std@@@?$_Hash@V?$_Umap_traits@KIV?$_Uhash_compare@KU?$hash@K@std@@U?$equal_to@K@2@@std@@V?$allocator@U?$pair@$$CBKI@std@@@2@$0A@@std@@@std@@QAE?AU?$pair@V?$_List_iterator@V?$_List_val@U?$_List_simple_types@U?$pair@$$CBKI@std@@@std@@@std@@@std@@_N@1@$$QAU?$pair@$$CBKI@1@@Z 0048e06c f i RealConsole.obj
 0001:0008d12b       ??$emplace_back@ABK@?$vector@KV?$allocator@K@std@@@std@@QAE?A_TABK@Z 0048e12b f i RealConsole.obj
 0001:0008d150       ??$emplace_back@ABUtagPROCESSENTRY32W@@@?$vector@UtagPROCESSENTRY32W@@V?$MArrayAllocator@UtagPROCESSENTRY32W@@@@@std@@QAE?A_TABUtagPROCESSENTRY32W@@@Z 0048e150 f i RealConsole.obj
 0001:0008d183       ??$emplace_back@UConProcess@@@?$vector@UConProcess@@V?$MArrayAllocator@UConProcess@@@@@std@@QAE?A_T$$QAUConProcess@@@Z 0048e183 f i RealConsole.obj
 0001:0008d1b4       ??$find@X@?$_Hash@V?$_Umap_traits@HGV?$_Uhash_compare@HU?$hash@H@std@@U?$equal_to@H@2@@std@@V?$allocator@U?$pair@$$CBHG@std@@@2@$0A@@std@@@std@@QAE?AV?$_List_iterator@V?$_List_val@U?$_List_simple_types@U?$pair@$$CBHG@std@@@std@@@std@@@1@ABH@Z 0048e1b4 f i VirtualConsole.obj
 0001:0008d1b4       ??$find@X@?$_Hash@V?$_Umap_traits@KIV?$_Uhash_compare@KU?$hash@K@std@@U?$equal_to@K@2@@std@@V?$allocator@U?$pair@$$CBKI@std@@@2@$0A@@std@@@std@@QAE?AV?$_List_iterator@V?$_List_val@U?$_List_simple_types@U?$pair@$$CBKI@std@@@std@@@std@@@1@ABK@Z 0048e1b4 f i RealConsole.obj
 0001:0008d1f1       ??$ltow_s@$0BE@@@YAPB_WHAAY0BE@_WH@Z 0048e1f1 f i RealConsole.obj
 0001:0008d217       ??$sprintf_c@$0MA@@@YAHAAY0MA@DPBDZZ 0048e217 f i RealConsole.obj
 0001:0008d230       ??$swprintf_c@$04@@YAHAAY04_WPB_WZZ 0048e230 f i RealConsole.obj
 0001:0008d246       ??$swprintf_c@$07@@YAHAAY07_WPB_WZZ 0048e246 f i RealConsole.obj
 0001:0008d25c       ??$swprintf_c@$0BAD@@@YAHAAY0BAD@_WPB_WZZ 0048e25c f i RealConsole.obj
 0001:0008d275       ??$swprintf_c@$0BGI@@@YAHAAY0BGI@_WPB_WZZ 0048e275 f i RealConsole.obj
 0001:0008d28e       ??$swprintf_c@$0BO@@@YAHAAY0BO@_WPB_WZZ 0048e28e f i RealConsole.obj
 0001:0008d2a4       ??$ultow_s@$0DAM@@@YAPB_WIAAY0DAM@_WH@Z 0048e2a4 f i RealConsole.obj
 0001:0008d2cf       ??$ultow_s@$0EBA@@@YAPB_WIAAY0EBA@_WH@Z 0048e2cf f i RealConsole.obj
 0001:0008d2fa       ??$wcscat_c@$0EGA@@@YAHAAY0EGA@_WPB_W@Z 0048e2fa f i RealConsole.obj
 0001:0008d30f       ??$wcscat_c@$0EMA@@@YAHAAY0EMA@_WPB_W@Z 0048e30f f i RealConsole.obj
 0001:0008d324       ??$wcscpy_c@$0EAA@@@YAHAAY0EAA@_WPB_W@Z 0048e324 f i RealConsole.obj
 0001:0008d339       ??$wcscpy_c@$0EAB@@@YAHAAY0EAB@_WPB_W@Z 0048e339 f i RealConsole.obj
 0001:0008d34e       ??$wcscpy_c@$0EGA@@@YAHAAY0EGA@_WPB_W@Z 0048e34e f i RealConsole.obj
 0001:0008d363       ??$wcscpy_c@$0EMA@@@YAHAAY0EMA@_WPB_W@Z 0048e363 f i RealConsole.obj
 0001:0008d378       ??$wcscpy_c@$0IAAA@@@YAHAAY0IAAA@_WPB_W@Z 0048e378 f i RealConsole.obj
 0001:0008d38d       ??$xf_interlocked_new@UTermX@@@@YAPAUTermX@@AAPAU0@$$QAPAU0@@Z 0048e38d f i RealConsole.obj
 0001:0008d3c1       ??0<unnamed-type-m_ConStatus>@CRealConsole@@QAE@XZ 0048e3c1 f i RealConsole.obj
 0001:0008d3e3       ??0<unnamed-type-m_Mouse>@CRealConsole@@QAE@XZ 0048e3e3 f i RealConsole.obj
 0001:0008d428       ??0<unnamed-type-m_Progress>@CRealConsole@@QAE@XZ 0048e428 f i RealConsole.obj
 0001:0008d44e       ??0?$CRefGuard@VCConHostSearch@CRealConsole@@@@QAE@PAVCConHostSearch@CRealConsole@@@Z 0048e44e f i RealConsole.obj
 0001:0008d478       ??0?$CRefGuard@VCConHostSearch@CRealConsole@@@@QAE@XZ 0048e478 f i RealConsole.obj
 0001:0008d492       ??0?$MFileMapping@$$CBUCEFAR_INFO_MAPPING@@@@QAE@XZ 0048e492 f i RealConsole.obj
 0001:0008d4ef       ??0?$MFileMapping@UAnnotationHeader@@@@QAE@XZ 0048e4ef f i RealConsole.obj
 0001:0008d54c       ??0?$MFileMapping@UCESERVER_CONSAVE_MAP@@@@QAE@XZ 0048e54c f i RealConsole.obj
 0001:0008d5a9       ??0?$MFileMapping@UCESERVER_CONSAVE_MAPHDR@@@@QAE@XZ 0048e5a9 f i RealConsole.obj
 0001:0008d606       ??0?$MFileMapping@UCESERVER_CONSOLE_APP_MAPPING@@@@QAE@XZ 0048e606 f i RealConsole.obj
 0001:0008d663       ??0?$MFileMapping@UCESERVER_CONSOLE_MAPPING_HDR@@@@QAE@XZ 0048e663 f i RealConsole.obj
 0001:0008d6c0       ??0?$MPipe@UCESERVER_REQ_HDR@@U1@@@QAE@XZ 0048e6c0 f i RealConsole.obj
 0001:0008d6f8       ??0?$MToolHelp@UtagPROCESSENTRY32W@@$1?Process32FirstW@@YGHPAXPAU1@@Z$1?Process32NextW@@YGH01@Z@@QAE@KK@Z 0048e6f8 f i RealConsole.obj
 0001:0008d765       ??0?$_Hash@V?$_Uset_traits@KV?$_Uhash_compare@KU?$hash@K@std@@U?$equal_to@K@2@@std@@V?$allocator@K@2@$0A@@std@@@std@@IAE@ABV?$_Uhash_compare@KU?$hash@K@std@@U?$equal_to@K@2@@1@ABV?$allocator@K@1@@Z 0048e765 f i RealConsole.obj
 0001:0008d7c4       ??0?$list@KV?$allocator@K@std@@@std@@QAE@ABV?$allocator@K@1@@Z 0048e7c4 f i RealConsole.obj
 0001:0008d7e3       ??0CConHostSearch@CRealConsole@@QAE@XZ 0048e7e3 f   RealConsole.obj
 0001:0008d841       ??0CRealConsole@@QAE@PAVCVirtualConsole@@PAVCConEmuMain@@@Z 0048e841 f   RealConsole.obj
 0001:0008db28       ??0MPipeBase@@QAE@XZ       0048eb28 f i RealConsole.obj
 0001:0008dc0b       ??0_TabsInfo@CRealConsole@@QAE@XZ 0048ec0b f i RealConsole.obj
 0001:0008dc56       ??1?$CRefGuard@VCConHostSearch@CRealConsole@@@@UAE@XZ 0048ec56 f i RealConsole.obj
 0001:0008dca4       ??1?$MPipe@UCESERVER_REQ_HDR@@U1@@@UAE@XZ 0048eca4 f i RealConsole.obj
 0001:0008dcf2       ??1?$MToolHelp@UtagPROCESSENTRY32W@@$1?Process32FirstW@@YGHPAXPAU1@@Z$1?Process32NextW@@YGH01@Z@@UAE@XZ 0048ecf2 f i RealConsole.obj
 0001:0008dd40       ??1?$_Alloc_construct_ptr@V?$allocator@U?$_List_node@KPAX@std@@@std@@@std@@QAE@XZ 0048ed40 f i RealConsole.obj
 0001:0008dd40       ??1?$_List_node_emplace_op2@V?$allocator@U?$_List_node@KPAX@std@@@std@@@std@@QAE@XZ 0048ed40 f i RealConsole.obj
 0001:0008dd53       ??1?$_Alloc_construct_ptr@V?$allocator@U?$_List_node@U?$pair@$$CBKI@std@@PAX@std@@@std@@@std@@QAE@XZ 0048ed53 f i RealConsole.obj
 0001:0008dd53       ??1?$_Alloc_construct_ptr@V?$allocator@U?$_List_node@U?$pair@$$CBHG@std@@PAX@std@@@std@@@std@@QAE@XZ 0048ed53 f i VirtualConsole.obj
 0001:0008dd53       ??1?$_List_node_emplace_op2@V?$allocator@U?$_List_node@U?$pair@$$CBKI@std@@PAX@std@@@std@@@std@@QAE@XZ 0048ed53 f i RealConsole.obj
 0001:0008dd53       ??1?$_List_node_emplace_op2@V?$allocator@U?$_List_node@U?$pair@$$CBHG@std@@PAX@std@@@std@@@std@@QAE@XZ 0048ed53 f i VirtualConsole.obj
 0001:0008dd66       ??1?$list@KV?$allocator@K@std@@@std@@QAE@XZ 0048ed66 f i RealConsole.obj
 0001:0008dd6b       ??1?$unordered_set@KU?$hash@K@std@@U?$equal_to@K@2@V?$allocator@K@2@@std@@QAE@XZ 0048ed6b f i RealConsole.obj
 0001:0008dd7f       ??1?$vector@KV?$allocator@K@std@@@std@@QAE@XZ 0048ed7f f i RealConsole.obj
 0001:0008dd84       ??1CConHostSearch@CRealConsole@@UAE@XZ 0048ed84 f i RealConsole.obj
 0001:0008ddd7       ??1CRealConsole@@QAE@XZ    0048edd7 f   RealConsole.obj
 0001:0008e1be       ??1MToolHelpProcess@@UAE@XZ 0048f1be f i RealConsole.obj
 0001:0008e1c3       ??1_TabsInfo@CRealConsole@@QAE@XZ 0048f1c3 f i RealConsole.obj
 0001:0008e270       ??_E?$CRefGuard@VCConHostSearch@CRealConsole@@@@UAEPAXI@Z 0048f270 f i RealConsole.obj
 0001:0008e270       ??_G?$CRefGuard@VCConHostSearch@CRealConsole@@@@UAEPAXI@Z 0048f270 f i RealConsole.obj
 0001:0008e292       ??_G?$MPipe@UCESERVER_REQ_HDR@@U1@@@UAEPAXI@Z 0048f292 f i RealConsole.obj
 0001:0008e292       ??_E?$MPipe@UCESERVER_REQ_HDR@@U1@@@UAEPAXI@Z 0048f292 f i RealConsole.obj
 0001:0008e2b7       ??_EMToolHelpProcess@@UAEPAXI@Z 0048f2b7 f i RealConsole.obj
 0001:0008e2b7       ??_G?$MToolHelp@UtagPROCESSENTRY32W@@$1?Process32FirstW@@YGHPAXPAU1@@Z$1?Process32NextW@@YGH01@Z@@UAEPAXI@Z 0048f2b7 f i RealConsole.obj
 0001:0008e2b7       ??_GMToolHelpProcess@@UAEPAXI@Z 0048f2b7 f i RealConsole.obj
 0001:0008e2b7       ??_E?$MToolHelp@UtagPROCESSENTRY32W@@$1?Process32FirstW@@YGHPAXPAU1@@Z$1?Process32NextW@@YGH01@Z@@UAEPAXI@Z 0048f2b7 f i RealConsole.obj
 0001:0008e2dc       ??_GCConHostSearch@CRealConsole@@UAEPAXI@Z 0048f2dc f i RealConsole.obj
 0001:0008e2dc       ??_ECConHostSearch@CRealConsole@@UAEPAXI@Z 0048f2dc f i RealConsole.obj
 0001:0008e2fe       ??_GMPipeBase@@UAEPAXI@Z   0048f2fe f i RealConsole.obj
 0001:0008e2fe       ??_EMPipeBase@@UAEPAXI@Z   0048f2fe f i RealConsole.obj
 0001:0008e363       ?ActivateFarWindow@CRealConsole@@QAE_NH@Z 0048f363 f   RealConsole.obj
 0001:0008e5c8       ?AddIndicatorsCtrlState@CRealConsole@@QAEXAAK@Z 0048f5c8 f   RealConsole.obj
 0001:0008e606       ?AddModifiersCtrlState@CRealConsole@@QAEXAAK@Z 0048f606 f   RealConsole.obj
 0001:0008e669       ?AdminDuplicate@CRealConsole@@QAEXXZ 0048f669 f   RealConsole.obj
 0001:0008e67b       ?AttachConemuC@CRealConsole@@QAE_NPAUHWND__@@KPBUCESERVER_REQ_STARTSTOP@@AAUCESERVER_REQ_SRVSTARTSTOPRET@@@Z 0048f67b f   RealConsole.obj
 0001:0008e88f       ?AutoCopyTimer@CRealConsole@@QAEXXZ 0048f88f f   RealConsole.obj
 0001:0008e8e7       ?BufferHeight@CRealConsole@@QAEII@Z 0048f8e7 f   RealConsole.obj
 0001:0008e8f6       ?BufferToScreen@CRealConsole@@QAE?AU_COORD@@U2@_N1@Z 0048f8f6 f   RealConsole.obj
 0001:0008e925       ?TextWidth@CRealConsole@@QAEIXZ 0048f925 f   RealConsole.obj
 0001:0008e925       ?BufferWidth@CRealConsole@@QAEIXZ 0048f925 f   RealConsole.obj
 0001:0008e938       ?CanActivateFarWindow@CRealConsole@@QAEKH@Z 0048f938 f   RealConsole.obj
 0001:0008eabb       ?CanCloseTab@CRealConsole@@QAE_N_N@Z 0048fabb f   RealConsole.obj
 0001:0008eae0       ?CanCutChildFrame@CRealConsole@@SA_NPB_W@Z 0048fae0 f   RealConsole.obj
 0001:0008eb1a       ?ChangeAffinityPriority@CRealConsole@@QAE_NPB_W0@Z 0048fb1a f   RealConsole.obj
 0001:0008ed1a       ?ChangeBufferHeightMode@CRealConsole@@QAEX_N@Z 0048fd1a f   RealConsole.obj
 0001:0008ed31       ?ChangePromptPosition@CRealConsole@@AAE_NPBUAppSettings@@U_COORD@@@Z 0048fd31 f   RealConsole.obj
 0001:0008ee75       ?ChangeSelectionByKey@CRealConsole@@QAEXI_N0@Z 0048fe75 f   RealConsole.obj
 0001:0008ee84       ?CheckConsoleAppAlive@CRealConsole@@IAE_NK_N@Z 0048fe84 f   RealConsole.obj
 0001:0008efc4       ?CheckFarStates@CRealConsole@@AAEXXZ 0048ffc4 f   RealConsole.obj
 0001:0008f239       ?CheckPanelTitle@CRealConsole@@AAEXXZ 00490239 f   RealConsole.obj
 0001:0008f2b8       ?CheckProgressInTitle@CRealConsole@@IAEFXZ 004902b8 f   RealConsole.obj
 0001:0008f4c5       ?CheckVConRConPointer@CRealConsole@@AAEX_N@Z 004904c5 f   RealConsole.obj
 0001:0008f531       ?ChildSystemMenu@CRealConsole@@QAEXXZ 00490531 f   RealConsole.obj
 0001:0008f5cb       ?Close@?$MToolHelp@UtagPROCESSENTRY32W@@$1?Process32FirstW@@YGHPAXPAU1@@Z$1?Process32NextW@@YGH01@Z@@QAEXXZ 004905cb f i RealConsole.obj
 0001:0008f652       ?CloseColorMapping@CRealConsole@@AAEXXZ 00490652 f   RealConsole.obj
 0001:0008f67d       ?CloseConsole@CRealConsole@@QAEX_N00@Z 0049067d f   RealConsole.obj
 0001:0008f846       ?CloseConsoleWindow@CRealConsole@@QAEX_N@Z 00490846 f   RealConsole.obj
 0001:0008f8b2       ?CloseFarMapData@CRealConsole@@AAEXPAVMSectionLock@@@Z 004908b2 f   RealConsole.obj
 0001:0008f914       ?CloseMapHeader@CRealConsole@@AAEXXZ 00490914 f   RealConsole.obj
 0001:0008f975       ?CloseTab@CRealConsole@@QAEXXZ 00490975 f   RealConsole.obj
 0001:0008fb51       ?ConHostSearch@CRealConsole@@IAEK_N@Z 00490b51 f   RealConsole.obj
 0001:0008fe06       ?ConHostSearchPrepare@CRealConsole@@IAEXXZ 00490e06 f   RealConsole.obj
 0001:0008ff0b       ?ConHostSetPID@CRealConsole@@IAEXK@Z 00490f0b f   RealConsole.obj
 0001:0008ff4e       ?ConWnd@CRealConsole@@QAEPAUHWND__@@XZ 00490f4e f   RealConsole.obj
 0001:0008ff5a       ?Construct@CRealConsole@@QAE_NPAVCVirtualConsole@@PAURConStartArgsEx@@@Z 00490f5a f   RealConsole.obj
 0001:000905b6       ?CoordInPanel@CRealConsole@@QAEHU_COORD@@_N@Z 004915b6 f   RealConsole.obj
 0001:0009064e       ?CorrectGuiChildRect@CRealConsole@@SAXKKAAUtagRECT@@PB_W@Z 0049164e f   RealConsole.obj
 0001:0009074d       ?CreateColorMapping@CRealConsole@@AAEXXZ 0049174d f   RealConsole.obj
 0001:0009085a       ?CreateCommandLine@CRealConsole@@QAE?AUCEStr@@_N@Z 0049185a f   RealConsole.obj
 0001:0009097e       ?CreateLogFiles@CRealConsole@@AAEXXZ 0049197e f   RealConsole.obj
 0001:00090ab0       ?CreateOrRunAs@CRealConsole@@KA_NPAV1@AAURConStartArgsEx@@PA_WAAPB_WAAU_STARTUPINFOW@@AAU_PROCESS_INFORMATION@@AAPAU_SHELLEXECUTEINFOW@@AAK_N@Z 00491ab0 f   RealConsole.obj
 0001:000910f9       ?CtrlWinAltSpace@CRealConsole@@QAEXXZ 004920f9 f   RealConsole.obj
 0001:00091143       ?DeleteWordKeyPress@CRealConsole@@QAE_N_N@Z 00492143 f   RealConsole.obj
 0001:0009129a       ?DetachRCon@CRealConsole@@QAE_N_N00@Z 0049229a f   RealConsole.obj
 0001:000915d0       ?DoEndFindText@CRealConsole@@QAEXXZ 004925d0 f   RealConsole.obj
 0001:00091641       ?DoFindText@CRealConsole@@QAEXH@Z 00492641 f   RealConsole.obj
 0001:000916ef       ?DoLockUnlock@CRealConsole@@QAEX_N@Z 004926ef f   RealConsole.obj
 0001:000918ae       ?DoRenameTab@CRealConsole@@QAEXXZ 004928ae f   RealConsole.obj
 0001:00091907       ?DoScroll@CRealConsole@@QAEJHI@Z 00492907 f   RealConsole.obj
 0001:00091b93       ?DoSelectionCopy@CRealConsole@@QAE_NW4CECopyMode@@EPB_W@Z 00492b93 f   RealConsole.obj
 0001:00091d1d       ?DoSelectionFinalize@CRealConsole@@QAEXXZ 00492d1d f   RealConsole.obj
 0001:00091d6a       ?DumpConsole@CRealConsole@@QAEXPAX@Z 00492d6a f   RealConsole.obj
 0001:00091d79       ?DuplicateRoot@CRealConsole@@QAE_N_N0PB_W11@Z 00492d79 f   RealConsole.obj
 0001:0009247f       ?EndSizing@CRealConsole@@QAEXXZ 0049347f f   RealConsole.obj
 0001:00092589       ?EvalPromptCtrlBSCount@CRealConsole@@AAEHPBUAppSettings@@@Z 00493589 f   RealConsole.obj
 0001:000926f1       ?EvalPromptLeftRightCount@CRealConsole@@AAEHPBUAppSettings@@U_COORD@@AAG@Z 004936f1 f   RealConsole.obj
 0001:00092abf       ?ExpandSelection@CRealConsole@@QAEXFF@Z 00493abf f   RealConsole.obj
 0001:00092aea       ?Filter@?$MToolHelp@UtagPROCESSENTRY32W@@$1?Process32FirstW@@YGHPAXPAU1@@Z$1?Process32NextW@@YGH01@Z@@MAE_NABUtagPROCESSENTRY32W@@@Z 00493aea f i RealConsole.obj
 0001:00092aef       ?FinalRelease@CConHostSearch@CRealConsole@@MAEXXZ 00493aef f   RealConsole.obj
 0001:00092af7       ?FindChildGuiWindowProc@CRealConsole@@CGHPAUHWND__@@J@Z 00493af7 f   RealConsole.obj
 0001:00092b31       ?FindPicViewFrom@CRealConsole@@AAEPAUHWND__@@PAU2@@Z 00493b31 f   RealConsole.obj
 0001:00092b87       ?GetActivateFarWindowError@CRealConsole@@QAEPB_WPA_WI@Z 00493b87 f   RealConsole.obj
 0001:00092bf1       ?GetActiveAppFlags@CRealConsole@@QAEKXZ 00493bf1 f   RealConsole.obj
 0001:00092c0c       ?GetActiveAppSettingsId@CRealConsole@@QAEH_N@Z 00493c0c f   RealConsole.obj
 0001:00092cbc       ?GetActiveBufferType@CRealConsole@@QAE?AW4RealBufferType@@XZ 00493cbc f   RealConsole.obj
 0001:00092cd0       ?GetActiveDlgFlags@CRealConsole@@QAEKXZ 00493cd0 f   RealConsole.obj
 0001:00092cf0       ?GetActivePID@CRealConsole@@QAEKPAUConProcess@@@Z 00493cf0 f   RealConsole.obj
 0001:00092d3c       ?GetActiveProcessInfo@CRealConsole@@QAEPB_WAAUCEStr@@@Z 00493d3c f   RealConsole.obj
 0001:00092fa2       ?GetActiveProcessName@CRealConsole@@QAEPB_WXZ 00493fa2 f   RealConsole.obj
 0001:00092fb9       ?GetActiveTab@CRealConsole@@QAEHXZ 00493fb9 f   RealConsole.obj
 0001:00092fc7       ?GetActiveTabType@CRealConsole@@QAEIXZ 00493fc7 f   RealConsole.obj
 0001:00092fce       ?GetAnsiLogInfo@CRealConsole@@QAE?AUConEmuAnsiLog@@XZ 00493fce f   RealConsole.obj
 0001:0009321c       ?GetAppCursorKeys@CRealConsole@@QAE_NXZ 0049421c f   RealConsole.obj
 0001:00093235       ?GetArgs@CRealConsole@@QAEABURConStartArgsEx@@XZ 00494235 f   RealConsole.obj
 0001:0009323c       ?GetBracketedPaste@CRealConsole@@QAE_NXZ 0049423c f   RealConsole.obj
 0001:0009324f       ?GetCmd@CRealConsole@@QAEPB_W_N@Z 0049424f f   RealConsole.obj
 0001:00093284       ?GetConStatus@CRealConsole@@QAEPB_WXZ 00494284 f   RealConsole.obj
 0001:00093298       ?GetConsoleCP@CRealConsole@@QAEKXZ 00494298 f   RealConsole.obj
 0001:000932a3       ?GetConsoleCurDir@CRealConsole@@QAEPB_WAAUCEStr@@_N@Z 004942a3 f   RealConsole.obj
 0001:00093385       ?GetConsoleCursorInfo@CRealConsole@@QAEXPAU_CONSOLE_CURSOR_INFO@@PAU_COORD@@@Z 00494385 f   RealConsole.obj
 0001:000933b8       ?GetConsoleData@CRealConsole@@QAEXPA_WPAUtag_CharAttr@@HHAAUConEmuTextRange@@@Z 004943b8 f   RealConsole.obj
 0001:000933df       ?GetConsoleInfo@CRealConsole@@QAEPB_WPB_WAAUCEStr@@@Z 004943df f   RealConsole.obj
 0001:00093674       ?GetConsoleInfo@CRealConsole@@QAEXPAUConsoleInfoArg@@@Z 00494674 f   RealConsole.obj
 0001:000936ad       ?GetConsoleOutputCP@CRealConsole@@QAEKXZ 004946ad f   RealConsole.obj
 0001:000936b8       ?GetConsoleScreenBufferInfo@CRealConsole@@QAEXPAU_CONSOLE_SCREEN_BUFFER_INFO@@@Z 004946b8 f   RealConsole.obj
 0001:000936d5       ?GetConsoleStartDir@CRealConsole@@QAEPB_WAAUCEStr@@@Z 004946d5 f   RealConsole.obj
 0001:00093710       ?GetCursorShape@CRealConsole@@QAE?AW4TermCursorShapes@@XZ 00494710 f   RealConsole.obj
 0001:0009371e       ?GetDefaultAppSettingsId@CRealConsole@@AAEHXZ 0049471e f   RealConsole.obj
 0001:00093961       ?GetDetector@CRealConsole@@QAEPBVCRgnDetect@@XZ 00494961 f   RealConsole.obj
 0001:00093973       ?GetFarInfo@CRealConsole@@QAEPBUCEFAR_INFO_MAPPING@@XZ 00494973 f   RealConsole.obj
 0001:00093988       ?GetFarPID@CRealConsole@@QAEK_N@Z 00494988 f   RealConsole.obj
 0001:000939c3       ?GetFarStatus@CRealConsole@@QAEKXZ 004949c3 f   RealConsole.obj
 0001:000939da       ?GetFarVersion@CRealConsole@@QAE_NPAUFarVersion@@@Z 004949da f   RealConsole.obj
 0001:00093a1e       ?GetFileFromConsole@CRealConsole@@QAEPB_WPB_WAAUCEStr@@@Z 00494a1e f   RealConsole.obj
 0001:00093ab6       ?GetInteractivePID@CRealConsole@@QAEKXZ 00494ab6 f   RealConsole.obj
 0001:00093ae3       ?GetLastTextRangeType@CRealConsole@@QAE?AW4ExpandTextRangeType@@XZ 00494ae3 f   RealConsole.obj
 0001:00093aee       ?GetLoadedPID@CRealConsole@@QAEKXZ 00494aee f   RealConsole.obj
 0001:00093b67       ?GetMaxConSize@CRealConsole@@QAE_NPAU_COORD@@@Z 00494b67 f   RealConsole.obj
 0001:00093b88       ?GetMntPrefix@CRealConsole@@QAEPB_WXZ 00494b88 f   RealConsole.obj
 0001:00093c20       ?GetModifiedEditors@CRealConsole@@QAEHXZ 00494c20 f   RealConsole.obj
 0001:00093c73       ?GetMonitorThreadID@CRealConsole@@QAEKXZ 00494c73 f   RealConsole.obj
 0001:00093c81       ?GetPanelDirs@CRealConsole@@QAEXAAUCEStr@@0@Z 00494c81 f   RealConsole.obj
 0001:00093cd5       ?GetPanelRect@CRealConsole@@QAE_N_NPAUtagRECT@@00@Z 00494cd5 f   RealConsole.obj
 0001:00093d61       ?GetPanelTitle@CRealConsole@@QAEPB_WXZ 00494d61 f   RealConsole.obj
 0001:00093d89       ?GetProcessInformation@CRealConsole@@QAE_NKPAUConProcess@@@Z 00494d89 f   RealConsole.obj
 0001:00093e2d       ?GetProcesses@CRealConsole@@QAEHPAPAUConProcess@@_N@Z 00494e2d f   RealConsole.obj
 0001:00094087       ?GetProgramStatus@CRealConsole@@QAEKXZ 00495087 f   RealConsole.obj
 0001:00094095       ?GetProgress@CRealConsole@@QAEFPAW4AnsiProgressStatus@@PA_N@Z 00495095 f   RealConsole.obj
 0001:00094133       ?GetRootProcessIcon@CRealConsole@@QAEHXZ 00495133 f   RealConsole.obj
 0001:00094150       ?GetRootProcessName@CRealConsole@@QAEPB_WXZ 00495150 f   RealConsole.obj
 0001:00094166       ?GetRunTime@CRealConsole@@AAEKXZ 00495166 f   RealConsole.obj
 0001:0009418e       ?GetRunningPID@CRealConsole@@QAEKXZ 0049518e f   RealConsole.obj
 0001:0009428b       ?GetServerPID@CRealConsole@@QAEK_N@Z 0049528b f   RealConsole.obj
 0001:000942b0       ?GetStartupDir@CRealConsole@@QAEPB_WXZ 004952b0 f   RealConsole.obj
 0001:000942d6       ?GetStatusLineCount@CRealConsole@@QAEHH@Z 004952d6 f   RealConsole.obj
 0001:00094302       ?GetTab@CRealConsole@@QAE_NHAAVCTab@@@Z 00495302 f   RealConsole.obj
 0001:000943d7       ?GetTabCount@CRealConsole@@QAEH_N@Z 004953d7 f   RealConsole.obj
 0001:00094416       ?GetTabTitle@CRealConsole@@QAEPB_WAAVCTab@@@Z 00495416 f   RealConsole.obj
 0001:0009446a       ?GetTermType@CRealConsole@@QAE?AW4TermEmulationType@@XZ 0049546a f   RealConsole.obj
 0001:000944c2       ?GetTerminalPID@CRealConsole@@QAEKXZ 004954c2 f   RealConsole.obj
 0001:000944d0       ?GetTitle@CRealConsole@@QAEPB_W_N@Z 004954d0 f   RealConsole.obj
 0001:000945db       ?GetUserPwd@CRealConsole@@QBE_NAAPB_W0AA_N@Z 004955db f   RealConsole.obj
 0001:00094625       ?GetView@CRealConsole@@QAEPAUHWND__@@XZ 00495625 f   RealConsole.obj
 0001:00094636       ?GuiAppAttachAllowed@CRealConsole@@QAE_NKPB_WK@Z 00495636 f   RealConsole.obj
 0001:000948c6       ?GuiNotifyChildWindow@CRealConsole@@QAEXXZ 004958c6 f   RealConsole.obj
 0001:000949ae       ?GuiWnd@CRealConsole@@QAEPAUHWND__@@XZ 004959ae f   RealConsole.obj
 0001:000949c1       ?GuiWndFocusRestore@CRealConsole@@QAEX_N@Z 004959c1 f   RealConsole.obj
 0001:00094af6       ?GuiWndFocusStore@CRealConsole@@QAEXXZ 00495af6 f   RealConsole.obj
 0001:00094c1d       ?GuiWndFocusThread@CRealConsole@@AAEXPAUHWND__@@AAH1AAK@Z 00495c1d f   RealConsole.obj
 0001:00094c9a       ?GuiWndPID@CRealConsole@@QAEKXZ 00495c9a f   RealConsole.obj
 0001:00094cab       ?InCreateRoot@CRealConsole@@QAE_NXZ 00495cab f   RealConsole.obj
 0001:00094cc7       ?InScroll@CRealConsole@@QAE_NXZ 00495cc7 f   RealConsole.obj
 0001:00094ceb       ?InitAltServer@CRealConsole@@IAE_NK@Z 00495ceb f   RealConsole.obj
 0001:00094df3       ?InitName@?$MPipe@UCESERVER_REQ_HDR@@U1@@@QAEXPB_W00K@Z 00495df3 f i RealConsole.obj
 0001:00094e3a       ?InitNames@CRealConsole@@IAEXXZ 00495e3a f   RealConsole.obj
 0001:00094ed4       ?InitiateDetach@CRealConsole@@AAEKXZ 00495ed4 f   RealConsole.obj
 0001:00094f7f       ?IsConsoleDataChanged@CRealConsole@@QAE_NXZ 00495f7f f   RealConsole.obj
 0001:00094fa3       ?IsFarHyperlinkAllowed@CRealConsole@@QAE_N_N@Z 00495fa3 f   RealConsole.obj
 0001:00095052       ?IsFarLua@CRealConsole@@QAE_NXZ 00496052 f   RealConsole.obj
 0001:0009507d       ?IsPromptActionAllowed@CRealConsole@@AAE_N_NPBUAppSettings@@@Z 0049607d f   RealConsole.obj
 0001:000950f7       ?IsSwitchFarWindowAllowed@CRealConsole@@QAE_NXZ 004960f7 f   RealConsole.obj
 0001:00095134       ?LoadAlternativeConsole@CRealConsole@@AAE_NW4LoadAltMode@@@Z 00496134 f   RealConsole.obj
 0001:000951b5       ?LoadDumpConsole@CRealConsole@@QAE_NPB_W@Z 004961b5 f   RealConsole.obj
 0001:00095236       ?LogInput@CRealConsole@@AAE_NPAU_INPUT_RECORD@@@Z 00496236 f   RealConsole.obj
 0001:00095563       ?LogInput@CRealConsole@@QAE_NIIJPB_W@Z 00496563 f   RealConsole.obj
 0001:0009586c       ?LogString@CRealConsole@@QAE_NPBD@Z 0049686c f   RealConsole.obj
 0001:000958e7       ?LogString@CRealConsole@@QAE_NPB_W@Z 004968e7 f   RealConsole.obj
 0001:00095960       ?MonitorAssertTrap@CRealConsole@@QAEXXZ 00496960 f   RealConsole.obj
 0001:00095974       ?MonitorThread@CRealConsole@@KGKPAX@Z 00496974 f   RealConsole.obj
 0001:00095b66       ?MonitorThreadWorker@CRealConsole@@IAEK_NAA_N@Z 00496b66 f   RealConsole.obj
 0001:0009679c       ?NeedRefreshRootProcessIcon@CRealConsole@@QAEXXZ 0049779c f   RealConsole.obj
 0001:000967a8       ?Next@?$MToolHelp@UtagPROCESSENTRY32W@@$1?Process32FirstW@@YGHPAXPAU1@@Z$1?Process32NextW@@YGH01@Z@@QAE_NAAUtagPROCESSENTRY32W@@@Z 004977a8 f i RealConsole.obj
 0001:00096800       ?OnActivate@CRealConsole@@QAEXHH@Z 00497800 f   RealConsole.obj
 0001:00096a23       ?OnBufferHeight@CRealConsole@@QAEXXZ 00497a23 f   RealConsole.obj
 0001:00096a2e       ?OnConsoleDataChanged@CRealConsole@@QAEXXZ 00497a2e f   RealConsole.obj
 0001:00096abe       ?OnConsoleKeyboardLayout@CRealConsole@@QAEXK@Z 00497abe f   RealConsole.obj
 0001:00096add       ?OnConsoleLangChange@CRealConsole@@QAEXK@Z 00497add f   RealConsole.obj
 0001:00096b99       ?OnDeactivate@CRealConsole@@QAEXH@Z 00497b99 f   RealConsole.obj
 0001:00096bfe       ?OnDosAppStartStop@CRealConsole@@QAEXW4StartStopType@@K@Z 00497bfe f   RealConsole.obj
 0001:00096c84       ?OnFocus@CRealConsole@@QAEX_N@Z 00497c84 f   RealConsole.obj
 0001:00096d00       ?OnGuiFocused@CRealConsole@@QAEX_N0@Z 00497d00 f   RealConsole.obj
 0001:00096db3       ?OnKeyboard@CRealConsole@@QAEXPAUHWND__@@IIJPB_WPBUtagMSG@@@Z 00497db3 f   RealConsole.obj
 0001:00096eae       ?OnKeyboardBackCall@CRealConsole@@CA_NPAVCVirtualConsole@@J@Z 00497eae f   RealConsole.obj
 0001:00096ed8       ?OnKeyboardIme@CRealConsole@@QAEXPAUHWND__@@IIJ@Z 00497ed8 f   RealConsole.obj
 0001:0009708c       ?OnKeyboardInt@CRealConsole@@AAEXPAUHWND__@@IIJPB_WPBUtagMSG@@@Z 0049808c f   RealConsole.obj
 0001:000973d7       ?OnKeysSending@CRealConsole@@QAEXXZ 004983d7 f   RealConsole.obj
 0001:000973ea       ?OnMouse@CRealConsole@@QAE_NIIHH_N@Z 004983ea f   RealConsole.obj
 0001:000976ad       ?OnMouseSelection@CRealConsole@@QAE_NIIHH@Z 004986ad f   RealConsole.obj
 0001:000976f9       ?OnScroll@CRealConsole@@QAEXIIHH_N@Z 004986f9 f   RealConsole.obj
 0001:000977e1       ?OnSelectionChanged@CRealConsole@@QAEXXZ 004987e1 f   RealConsole.obj
 0001:00097934       ?OnSelectionTimerCheck@CRealConsole@@QAEXXZ 00498934 f   RealConsole.obj
 0001:0009796d       ?OnServerClosing@CRealConsole@@QAEXKPAH@Z 0049896d f   RealConsole.obj
 0001:00097a9e       ?OnServerStarted@CRealConsole@@AAEXKPAXK_N@Z 00498a9e f   RealConsole.obj
 0001:00097b12       ?OnServerStarted@CRealConsole@@QAEPAUHWND__@@QAU2@KKAAUCESERVER_REQ_SRVSTARTSTOPRET@@@Z 00498b12 f   RealConsole.obj
 0001:00097b90       ?OnStartProcessAllowed@CRealConsole@@QAEXXZ 00498b90 f   RealConsole.obj
 0001:00097c36       ?OnStartedSuccess@CRealConsole@@AAEXXZ 00498c36 f   RealConsole.obj
 0001:00097c4b       ?OnTimerCheck@CRealConsole@@QAEXXZ 00498c4b f   RealConsole.obj
 0001:00097d02       ?OnTitleChanged@CRealConsole@@AAEXXZ 00498d02 f   RealConsole.obj
 0001:0009805c       ?Open@?$MToolHelp@UtagPROCESSENTRY32W@@$1?Process32FirstW@@YGHPAXPAU1@@Z$1?Process32NextW@@YGH01@Z@@QAE_NXZ 0049905c f i RealConsole.obj
 0001:000980b8       ?OpenConsoleEventPipe@CRealConsole@@QAE_NXZ 004990b8 f   RealConsole.obj
 0001:00098230       ?OpenFarMapData@CRealConsole@@AAE_NXZ 00499230 f   RealConsole.obj
 0001:000983cd       ?OpenMapHeader@CRealConsole@@AAE_N_N@Z 004993cd f   RealConsole.obj
 0001:000984f0       ?Owner@CRealConsole@@QAEPAVCConEmuMain@@XZ 004994f0 f   RealConsole.obj
 0001:000984fb       ?Paste@CRealConsole@@QAEXW4CEPasteMode@@PB_W_NE@Z 004994fb f   RealConsole.obj
 0001:00098a5c       ?PasteExplorerPath@CRealConsole@@QAEX_N0@Z 00499a5c f   RealConsole.obj
 0001:00098aef       ?Pause@CRealConsole@@QAE?AW4CEPauseCmd@@W42@@Z 00499aef f   RealConsole.obj
 0001:00098bbf       ?PortableStarted@CRealConsole@@QAEXPAUCESERVER_REQ_PORTABLESTARTED@@@Z 00499bbf f   RealConsole.obj
 0001:00098c8b       ?PostCommand@CRealConsole@@AAEXKKPBX@Z 00499c8b f   RealConsole.obj
 0001:00098d61       ?PostConsoleEvent@CRealConsole@@QAE_NPAU_INPUT_RECORD@@_N@Z 00499d61 f   RealConsole.obj
 0001:00098f61       ?PostConsoleEventPipe@CRealConsole@@QAE_NPAUMSG64@@I@Z 00499f61 f   RealConsole.obj
 0001:0009905a       ?PostConsoleMessage@CRealConsole@@QAE_NPAUHWND__@@IIJ@Z 0049a05a f   RealConsole.obj
 0001:00099196       ?PostCtrlBreakEvent@CRealConsole@@QAE_NKK@Z 0049a196 f   RealConsole.obj
 0001:00099236       ?PostDragCopy@CRealConsole@@QAEX_N@Z 0049a236 f   RealConsole.obj
 0001:0009930a       ?PostKeyPress@CRealConsole@@QAE_NGK_WH@Z 0049a30a f   RealConsole.obj
 0001:000993c7       ?PostKeyUp@CRealConsole@@QAE_NGK_WH@Z 0049a3c7 f   RealConsole.obj
 0001:0009947c       ?PostLeftClickSync@CRealConsole@@QAE_NU_COORD@@@Z 0049a47c f   RealConsole.obj
 0001:00099593       ?PostMacro@CRealConsole@@QAEXPB_W_N@Z 0049a593 f   RealConsole.obj
 0001:000999f3       ?PostMacroThread@CRealConsole@@CGKPAX@Z 0049a9f3 f   RealConsole.obj
 0001:00099ae7       ?PostMouseEvent@CRealConsole@@AAEXIIU_COORD@@_N@Z 0049aae7 f   RealConsole.obj
 0001:0009a090       ?PostPromptCmd@CRealConsole@@QAE_N_NPB_W@Z 0049b090 f   RealConsole.obj
 0001:0009a496       ?PostString@CRealConsole@@IAE_NPA_WIW4PostStringFlags@1@@Z 0049b496 f   RealConsole.obj
 0001:0009a98a       ?PostponeMacro@CRealConsole@@QAE?AUCEStr@@$$QAU2@@Z 0049b98a f   RealConsole.obj
 0001:0009a9fa       ?PreCreate@CRealConsole@@AAE_NPAURConStartArgsEx@@@Z 0049b9fa f   RealConsole.obj
 0001:0009ac21       ?PrepareConsoleRegistryKey@CRealConsole@@ABEPAUHKEY__@@PB_W@Z 0049bc21 f   RealConsole.obj
 0001:0009af14       ?PrepareDefaultColors@CRealConsole@@AAEXAAE000_NPAUHKEY__@@@Z 0049bf14 f   RealConsole.obj
 0001:0009b19e       ?PrepareDefaultColors@CRealConsole@@QAEXXZ 0049c19e f   RealConsole.obj
 0001:0009b1bd       ?PrepareNewConArgs@CRealConsole@@AAEXXZ 0049c1bd f   RealConsole.obj
 0001:0009b1e9       ?PrepareOutputFile@CRealConsole@@AAE_N_NPA_W@Z 0049c1e9 f   RealConsole.obj
 0001:0009b5aa       ?PrepareOutputFileCreate@CRealConsole@@AAEPAXPA_W@Z 0049c5aa f   RealConsole.obj
 0001:0009b629       ?ProcessCheckName@CRealConsole@@AAEXAAUConProcess@@PA_W@Z 0049c629 f   RealConsole.obj
 0001:0009b73c       ?ProcessKeyboard@CRealConsole@@QAEXIIJPB_W@Z 0049c73c f   RealConsole.obj
 0001:0009b87d       ?ProcessPostponedMacro@CRealConsole@@AAEXXZ 0049c87d f   RealConsole.obj
 0001:0009b93c       ?ProcessSelectionHotKey@CRealConsole@@QAEPBUConEmuHotKey@@ABUConEmuChord@@_NPB_W@Z 0049c93c f   RealConsole.obj
 0001:0009b972       ?ProcessUpdate@CRealConsole@@AAE_NPBKI@Z 0049c972 f   RealConsole.obj
 0001:0009c13d       ?ProcessUpdateFlags@CRealConsole@@AAE_N_N@Z 0049d13d f   RealConsole.obj
 0001:0009c500       ?ProcessXtermSubst@CRealConsole@@QAE_NABU_INPUT_RECORD@@@Z 0049d500 f   RealConsole.obj
 0001:0009c640       ?QueryCellInfo@CRealConsole@@QAEXPA_WH@Z 0049d640 f   RealConsole.obj
 0001:0009c672       ?QueryPromptStart@CRealConsole@@QAE_NPAU_COORD@@@Z 0049d672 f   RealConsole.obj
 0001:0009c6c2       ?QueryRConModes@CRealConsole@@QAEXPA_WH_N@Z 0049d6c2 f   RealConsole.obj
 0001:0009c755       ?QueryStartStopRet@CRealConsole@@QAEXAAUCESERVER_REQ_SRVSTARTSTOPRET@@@Z 0049d755 f   RealConsole.obj
 0001:0009c884       ?QueryTermModes@CRealConsole@@QAEXPA_WH_N@Z 0049d884 f   RealConsole.obj
 0001:0009cac1       ?RecreateProcess@CRealConsole@@QAE_NPAURConStartArgsEx@@@Z 0049dac1 f   RealConsole.obj
 0001:0009cdfe       ?RecreateProcessStart@CRealConsole@@AAE_NXZ 0049ddfe f   RealConsole.obj
 0001:0009cef9       ?RefreshAfterRestore@CRealConsole@@SA_NPAVCVirtualConsole@@J@Z 0049def9 f   RealConsole.obj
 0001:0009cf95       ?RefreshFarPID@_TabsInfo@CRealConsole@@QAE_NK@Z 0049df95 f   RealConsole.obj
 0001:0009d001       ?ReleaseBuffer@?$MPipe@UCESERVER_REQ_HDR@@U1@@@UAEXXZ 0049e001 f i RealConsole.obj
 0001:0009d035       ?ReleaseBuffer@MPipeBase@@UAEXXZ 0049e035 f i RealConsole.obj
 0001:0009d05a       ?ReloadFarWorkDir@CRealConsole@@IAE_NXZ 0049e05a f   RealConsole.obj
 0001:0009d0f6       ?RenameTab@CRealConsole@@QAEXPB_W@Z 0049e0f6 f   RealConsole.obj
 0001:0009d1ac       ?RenameWindow@CRealConsole@@QAEXPB_W@Z 0049e1ac f   RealConsole.obj
 0001:0009d265       ?ReopenServerPipes@CRealConsole@@IAE_NXZ 0049e265 f   RealConsole.obj
 0001:0009d4bc       ?RepositionDialogWithTab@CRealConsole@@IAEXPAUHWND__@@@Z 0049e4bc f   RealConsole.obj
 0001:0009d585       ?RequestStartup@CRealConsole@@AAEX_N@Z 0049e585 f   RealConsole.obj
 0001:0009d5ca       ?Reset@?$MMap@KH$0A@@@QAEXXZ 0049e5ca f i RealConsole.obj
 0001:0009d5ca       ?Reset@?$MMap@PAUHWND__@@P6GJPAU1@IIJ@Z$0A@@@QAEXXZ 0049e5ca f i SetDlgColors.obj
 0001:0009d5e9       ?ResetActiveAppSettingsId@CRealConsole@@QAEXXZ 0049e5e9 f   RealConsole.obj
 0001:0009d5f1       ?ResetTopLeft@CRealConsole@@QAEXXZ 0049e5f1 f   RealConsole.obj
 0001:0009d604       ?ResetVarsOnStart@CRealConsole@@AAEXXZ 0049e604 f   RealConsole.obj
 0001:0009d75f       ?ScreenToBuffer@CRealConsole@@QAE?AU_COORD@@U2@@Z 0049e75f f   RealConsole.obj
 0001:0009d788       ?SetActiveBuffer@CRealConsole@@AAE_NPAVCRealBuffer@@_N@Z 0049e788 f   RealConsole.obj
 0001:0009d817       ?SetActiveBuffer@CRealConsole@@QAE_NW4RealBufferType@@@Z 0049e817 f   RealConsole.obj
 0001:0009d863       ?SetActivePID@CRealConsole@@AAEXPBUConProcess@@@Z 0049e863 f   RealConsole.obj
 0001:0009d8e9       ?SetAltSrvPID@CRealConsole@@IAEXK@Z 0049e8e9 f   RealConsole.obj
 0001:0009d94d       ?SetAppDistinctPID@CRealConsole@@AAEXPBUConProcess@@@Z 0049e94d f   RealConsole.obj
 0001:0009da47       ?SetConStatus@CRealConsole@@QAEXPB_WK@Z 0049ea47 f   RealConsole.obj
 0001:0009dba6       ?SetConsoleSize@CRealConsole@@QAE_NFFGK@Z 0049eba6 f   RealConsole.obj
 0001:0009dbd1       ?SetCursorShape@CRealConsole@@QAEXW4TermCursorShapes@@@Z 0049ebd1 f   RealConsole.obj
 0001:0009dc01       ?SetFarPID@CRealConsole@@QAEXK@Z 0049ec01 f   RealConsole.obj
 0001:0009dcea       ?SetFarPluginPID@CRealConsole@@QAEXK@Z 0049ecea f   RealConsole.obj
 0001:0009dd95       ?SetFullScreen@CRealConsole@@QAE_NXZ 0049ed95 f   RealConsole.obj
 0001:0009de0f       ?SetGuiMode@CRealConsole@@QAEXKPAUHWND__@@KKPB_WKHUtagRECT@@@Z 0049ee0f f   RealConsole.obj
 0001:0009e36e       ?SetHwnd@CRealConsole@@AAEXPAUHWND__@@_N@Z 0049f36e f   RealConsole.obj
 0001:0009e48f       ?SetInCloseConsole@CRealConsole@@IAEX_N@Z 0049f48f f   RealConsole.obj
 0001:0009e4a7       ?SetInitEnvCommands@CRealConsole@@QAEXAAUCESERVER_REQ_SRVSTARTSTOPRET@@@Z 0049f4a7 f   RealConsole.obj
 0001:0009e699       ?SetMainSrvPID@CRealConsole@@IAEXKPAX@Z 0049f699 f   RealConsole.obj
 0001:0009e783       ?SetMonitorThreadEvent@CRealConsole@@IAEXXZ 0049f783 f   RealConsole.obj
 0001:0009e794       ?SetMountRoot@CRealConsole@@IAEXPAUCESERVER_REQ@@@Z 0049f794 f   RealConsole.obj
 0001:0009e809       ?SetOtherWindowParent@CRealConsole@@QAEPAUHWND__@@PAU2@0@Z 0049f809 f   RealConsole.obj
 0001:0009e8f6       ?SetOtherWindowPos@CRealConsole@@QAE_NPAUHWND__@@0HHHHI@Z 0049f8f6 f   RealConsole.obj
 0001:0009eae8       ?SetOtherWindowRgn@CRealConsole@@QAE_NPAUHWND__@@HPAUtagRECT@@_N@Z 0049fae8 f   RealConsole.obj
 0001:0009ebe0       ?SetPaletteName@CRealConsole@@QAEXPB_W@Z 0049fbe0 f   RealConsole.obj
 0001:0009ec2c       ?SetProgramStatus@CRealConsole@@QAEXKK@Z 0049fc2c f   RealConsole.obj
 0001:0009ec74       ?SetProgress@CRealConsole@@QAE_NW4AnsiProgressStatus@@FPB_W@Z 0049fc74 f   RealConsole.obj
 0001:0009ed51       ?SetRootProcessName@CRealConsole@@IAEXPB_W@Z 0049fd51 f   RealConsole.obj
 0001:0009ede9       ?SetSwitchActiveServer@CRealConsole@@IAEX_NW4SwitchActiveServerEvt@1@1@Z 0049fde9 f   RealConsole.obj
 0001:0009ee67       ?SetTabs@CRealConsole@@QAEXPAUConEmuTab@@HK@Z 0049fe67 f   RealConsole.obj
 0001:0009f265       ?SetTerminalPID@CRealConsole@@IAEXK@Z 004a0265 f   RealConsole.obj
 0001:0009f2b7       ?ShowConsole@CRealConsole@@QAEXH@Z 004a02b7 f   RealConsole.obj
 0001:0009f3b5       ?ShowConsoleOrGuiClient@CRealConsole@@QAEXH@Z 004a03b5 f   RealConsole.obj
 0001:0009f3eb       ?ShowGuiClientExt@CRealConsole@@QAEXH_N@Z 004a03eb f   RealConsole.obj
 0001:0009f548       ?ShowGuiClientInt@CRealConsole@@QAEX_N@Z 004a0548 f   RealConsole.obj
 0001:0009f5d5       ?ShowKeyBarHint@CRealConsole@@QAEXG@Z 004a05d5 f   RealConsole.obj
 0001:0009f5f0       ?ShowOtherWindow@CRealConsole@@QAE_NPAUHWND__@@H_N@Z 004a05f0 f   RealConsole.obj
 0001:0009f6ec       ?ShowPropertiesDialog@CRealConsole@@QAEXXZ 004a06ec f   RealConsole.obj
 0001:0009f79a       ?StartDebugger@CRealConsole@@QAE_NW4StartDebugType@@@Z 004a079a f   RealConsole.obj
 0001:0009fbce       ?StartMonitorThread@CRealConsole@@IAE_NXZ 004a0bce f   RealConsole.obj
 0001:0009fcb4       ?StartProcess@CRealConsole@@IAE_NXZ 004a0cb4 f   RealConsole.obj
 0001:000a05bd       ?StartProcessInt@CRealConsole@@AAE_NAAPB_WAAUCEStr@@0_NPAUHWND__@@AAK44EEEEAAU_STARTUPINFOW@@AAU_PROCESS_INFORMATION@@4@Z 004a15bd f   RealConsole.obj
 0001:000a0c52       ?StartSelection@CRealConsole@@QAEX_NFF0K@Z 004a1c52 f   RealConsole.obj
 0001:000a0c77       ?StartStopAppCursorKeys@CRealConsole@@QAEXK_N@Z 004a1c77 f   RealConsole.obj
 0001:000a0d6f       ?StartStopBracketedPaste@CRealConsole@@QAEXK_N@Z 004a1d6f f   RealConsole.obj
 0001:000a0e32       ?StartStopTermMode@CRealConsole@@QAE_NKW4TermModeCommand@@K@Z 004a1e32 f   RealConsole.obj
 0001:000a0f2c       ?StartStopTermMode@CRealConsole@@QAE_NW4TermModeCommand@@W4ChangeTermAction@@@Z 004a1f2c f   RealConsole.obj
 0001:000a0fa9       ?StartStopXMouse@CRealConsole@@QAEXKW4TermMouseMode@@@Z 004a1fa9 f   RealConsole.obj
 0001:000a105b       ?StartStopXTerm@CRealConsole@@QAEXK_N@Z 004a205b f   RealConsole.obj
 0001:000a114b       ?StopSignal@CRealConsole@@QAEXXZ 004a214b f   RealConsole.obj
 0001:000a121f       ?StopThread@CRealConsole@@QAEX_N@Z 004a221f f   RealConsole.obj
 0001:000a140c       ?StoreActiveTab@_TabsInfo@CRealConsole@@QAEXHAAVCTab@@@Z 004a240c f   RealConsole.obj
 0001:000a1459       ?StoreCurWorkDir@CRealConsole@@IAEXPAUCESERVER_REQ_STORECURDIR@@@Z 004a2459 f   RealConsole.obj
 0001:000a15e4       ?StoreGuiChildRect@CRealConsole@@QAEXPAUtagRECT@@@Z 004a25e4 f   RealConsole.obj
 0001:000a1644       ?SwitchKeyboardLayout@CRealConsole@@QAEXIK@Z 004a2644 f   RealConsole.obj
 0001:000a1760       ?SyncConsole2Window@CRealConsole@@QAEX_NPAUtagRECT@@@Z 004a2760 f   RealConsole.obj
 0001:000a184a       ?SyncGui2Window@CRealConsole@@QAEXUtagRECT@@@Z 004a284a f   RealConsole.obj
 0001:000a1978       ?TerminateActiveProcess@CRealConsole@@QAE_N_NK@Z 004a2978 f   RealConsole.obj
 0001:000a1ad1       ?TerminateActiveProcessConfirm@CRealConsole@@QAE_NK@Z 004a2ad1 f   RealConsole.obj
 0001:000a1bad       ?TerminateAllButShell@CRealConsole@@QAE_N_N@Z 004a2bad f   RealConsole.obj
 0001:000a1e0e       ?TextHeight@CRealConsole@@QAEIXZ 004a2e0e f   RealConsole.obj
 0001:000a1e21       ?Unfasten@CRealConsole@@QAEXXZ 004a2e21 f   RealConsole.obj
 0001:000a1fac       ?UpdateCursorInfo@CRealConsole@@QAEXXZ 004a2fac f   RealConsole.obj
 0001:000a2008       ?UpdateFarSettings@CRealConsole@@QAEXKPAUFAR_REQ_FARSETCHANGED@@@Z 004a3008 f   RealConsole.obj
 0001:000a2128       ?UpdateGuiInfoMapping@CRealConsole@@QAEXPBUConEmuGuiMapping@@@Z 004a3128 f   RealConsole.obj
 0001:000a21cb       ?UpdateRootInfo@CRealConsole@@IAEXABUCESERVER_ROOT_INFO@@@Z 004a31cb f   RealConsole.obj
 0001:000a22df       ?UpdateScrollInfo@CRealConsole@@QAEXXZ 004a32df f   RealConsole.obj
 0001:000a23ec       ?UpdateServerActive@CRealConsole@@QAEX_N@Z 004a33ec f   RealConsole.obj
 0001:000a2557       ?UpdateStartArgs@CRealConsole@@QAEXW4SplitType@RConStartArgs@@II_N@Z 004a3557 f   RealConsole.obj
 0001:000a25a5       ?UpdateStartState@CRealConsole@@IAEXW4RConStartState@@_N@Z 004a35a5 f   RealConsole.obj
 0001:000a25e0       ?UpdateTextColorSettings@CRealConsole@@QAEX_N0PBUAppSettings@@@Z 004a35e0 f   RealConsole.obj
 0001:000a2798       ?VCon@CRealConsole@@QAEPAVCVirtualConsole@@XZ 004a3798 f   RealConsole.obj
 0001:000a27a2       ?Write@CRealConsole@@QAE_NPB_WHPAK@Z 004a37a2 f   RealConsole.obj
 0001:000a287b       ?_Calculate_growth@?$vector@UConProcess@@V?$MArrayAllocator@UConProcess@@@@@std@@ABEII@Z 004a387b f i RealConsole.obj
 0001:000a28ae       ?_Calculate_growth@?$vector@UtagPROCESSENTRY32W@@V?$MArrayAllocator@UtagPROCESSENTRY32W@@@@@std@@ABEII@Z 004a38ae f i RealConsole.obj
 0001:000a28e1       ?_Change_array@?$vector@KV?$allocator@K@std@@@std@@AAEXQAKII@Z 004a38e1 f i RealConsole.obj
 0001:000a291a       ?_Change_array@?$vector@UConProcess@@V?$MArrayAllocator@UConProcess@@@@@std@@AAEXQAUConProcess@@II@Z 004a391a f i RealConsole.obj
 0001:000a294f       ?_Change_array@?$vector@UtagPROCESSENTRY32W@@V?$MArrayAllocator@UtagPROCESSENTRY32W@@@@@std@@AAEXQAUtagPROCESSENTRY32W@@II@Z 004a394f f i RealConsole.obj
 0001:000a2984       ?_Check_max_size@?$_Hash@V?$_Umap_traits@KIV?$_Uhash_compare@KU?$hash@K@std@@U?$equal_to@K@2@@std@@V?$allocator@U?$pair@$$CBKI@std@@@2@$0A@@std@@@std@@IBEXXZ 004a3984 f i RealConsole.obj
 0001:000a2984       ?_Check_max_size@?$_Hash@V?$_Umap_traits@HGV?$_Uhash_compare@HU?$hash@H@std@@U?$equal_to@H@2@@std@@V?$allocator@U?$pair@$$CBHG@std@@@2@$0A@@std@@@std@@IBEXXZ 004a3984 f i VirtualConsole.obj
 0001:000a2999       ?_Check_max_size@?$_Hash@V?$_Uset_traits@KV?$_Uhash_compare@KU?$hash@K@std@@U?$equal_to@K@2@@std@@V?$allocator@K@2@$0A@@std@@@std@@IBEXXZ 004a3999 f i RealConsole.obj
 0001:000a29ae       ?_Check_rehash_required_1@?$_Hash@V?$_Umap_traits@KIV?$_Uhash_compare@KU?$hash@K@std@@U?$equal_to@K@2@@std@@V?$allocator@U?$pair@$$CBKI@std@@@2@$0A@@std@@@std@@IBE_NXZ 004a39ae f i RealConsole.obj
 0001:000a29ae       ?_Check_rehash_required_1@?$_Hash@V?$_Uset_traits@KV?$_Uhash_compare@KU?$hash@K@std@@U?$equal_to@K@2@@std@@V?$allocator@K@2@$0A@@std@@@std@@IBE_NXZ 004a39ae f i RealConsole.obj
 0001:000a29ae       ?_Check_rehash_required_1@?$_Hash@V?$_Umap_traits@HGV?$_Uhash_compare@HU?$hash@H@std@@U?$equal_to@H@2@@std@@V?$allocator@U?$pair@$$CBHG@std@@@2@$0A@@std@@@std@@IBE_NXZ 004a39ae f i VirtualConsole.obj
 0001:000a29ae       ?_Check_rehash_required_1@?$_Hash@V?$_Umap_traits@V?$basic_string@_WU?$char_traits@_W@std@@V?$allocator@_W@2@@std@@UVariableData@SystemEnvironment@@V?$_Uhash_compare@V?$basic_string@_WU?$char_traits@_W@std@@V?$allocator@_W@2@@std@@U?$hash@V?$basic_string@_WU?$char_traits@_W@std@@V?$allocator@_W@2@@std@@@2@U?$equal_to@V?$basic_string@_WU?$char_traits@_W@std@@V?$allocator@_W@2@@std@@@2@@2@V?$allocator@U?$pair@$$CBV?$basic_string@_WU?$char_traits@_W@std@@V?$allocator@_W@2@@std@@UVariableData@SystemEnvironment@@@std@@@2@$0A@@std@@@std@@IBE_NXZ 004a39ae f i SystemEnvironment.obj
 0001:000a29f0       ?_Desired_grow_bucket_count@?$_Hash@V?$_Umap_traits@V?$basic_string@_WU?$char_traits@_W@std@@V?$allocator@_W@2@@std@@UVariableData@SystemEnvironment@@V?$_Uhash_compare@V?$basic_string@_WU?$char_traits@_W@std@@V?$allocator@_W@2@@std@@U?$hash@V?$basic_string@_WU?$char_traits@_W@std@@V?$allocator@_W@2@@std@@@2@U?$equal_to@V?$basic_string@_WU?$char_traits@_W@std@@V?$allocator@_W@2@@std@@@2@@2@V?$allocator@U?$pair@$$CBV?$basic_string@_WU?$char_traits@_W@std@@V?$allocator@_W@2@@std@@UVariableData@SystemEnvironment@@@std@@@2@$0A@@std@@@std@@IBEII@Z 004a39f0 f i SystemEnvironment.obj
 0001:000a29f0       ?_Desired_grow_bucket_count@?$_Hash@V?$_Umap_traits@HGV?$_Uhash_compare@HU?$hash@H@std@@U?$equal_to@H@2@@std@@V?$allocator@U?$pair@$$CBHG@std@@@2@$0A@@std@@@std@@IBEII@Z 004a39f0 f i VirtualConsole.obj
 0001:000a29f0       ?_Desired_grow_bucket_count@?$_Hash@V?$_Umap_traits@KIV?$_Uhash_compare@KU?$hash@K@std@@U?$equal_to@K@2@@std@@V?$allocator@U?$pair@$$CBKI@std@@@2@$0A@@std@@@std@@IBEII@Z 004a39f0 f i RealConsole.obj
 0001:000a29f0       ?_Desired_grow_bucket_count@?$_Hash@V?$_Uset_traits@KV?$_Uhash_compare@KU?$hash@K@std@@U?$equal_to@K@2@@std@@V?$allocator@K@2@$0A@@std@@@std@@IBEII@Z 004a39f0 f i RealConsole.obj
 0001:000a2a28       ?_Erase_bucket@?$_Hash@V?$_Umap_traits@KIV?$_Uhash_compare@KU?$hash@K@std@@U?$equal_to@K@2@@std@@V?$allocator@U?$pair@$$CBKI@std@@@2@$0A@@std@@@std@@IAEXPAU?$_List_node@U?$pair@$$CBKI@std@@PAX@2@I@Z 004a3a28 f i RealConsole.obj
 0001:000a2a28       ?_Erase_bucket@?$_Hash@V?$_Uset_traits@KV?$_Uhash_compare@KU?$hash@K@std@@U?$equal_to@K@2@@std@@V?$allocator@K@2@$0A@@std@@@std@@IAEXPAU?$_List_node@KPAX@2@I@Z 004a3a28 f i RealConsole.obj
 0001:000a2a60       ?_Forced_rehash@?$_Hash@V?$_Umap_traits@KIV?$_Uhash_compare@KU?$hash@K@std@@U?$equal_to@K@2@@std@@V?$allocator@U?$pair@$$CBKI@std@@@2@$0A@@std@@@std@@IAEXI@Z 004a3a60 f i RealConsole.obj
 0001:000a2a60       ?_Forced_rehash@?$_Hash@V?$_Umap_traits@HGV?$_Uhash_compare@HU?$hash@H@std@@U?$equal_to@H@2@@std@@V?$allocator@U?$pair@$$CBHG@std@@@2@$0A@@std@@@std@@IAEXI@Z 004a3a60 f i VirtualConsole.obj
 0001:000a2bb5       ?_Forced_rehash@?$_Hash@V?$_Uset_traits@KV?$_Uhash_compare@KU?$hash@K@std@@U?$equal_to@K@2@@std@@V?$allocator@K@2@$0A@@std@@@std@@IAEXI@Z 004a3bb5 f i RealConsole.obj
 0001:000a2cf1       ?_Insert_new_node_before@?$_Hash@V?$_Umap_traits@V?$basic_string@_WU?$char_traits@_W@std@@V?$allocator@_W@2@@std@@UVariableData@SystemEnvironment@@V?$_Uhash_compare@V?$basic_string@_WU?$char_traits@_W@std@@V?$allocator@_W@2@@std@@U?$hash@V?$basic_string@_WU?$char_traits@_W@std@@V?$allocator@_W@2@@std@@@2@U?$equal_to@V?$basic_string@_WU?$char_traits@_W@std@@V?$allocator@_W@2@@std@@@2@@2@V?$allocator@U?$pair@$$CBV?$basic_string@_WU?$char_traits@_W@std@@V?$allocator@_W@2@@std@@UVariableData@SystemEnvironment@@@std@@@2@$0A@@std@@@std@@IAEPAU?$_List_node@U?$pair@$$CBV?$basic_string@_WU?$char_traits@_W@std@@V?$allocator@_W@2@@std@@UVariableData@SystemEnvironment@@@std@@PAX@2@IQAU32@0@Z 004a3cf1 f i SystemEnvironment.obj
 0001:000a2cf1       ?_Insert_new_node_before@?$_Hash@V?$_Umap_traits@HGV?$_Uhash_compare@HU?$hash@H@std@@U?$equal_to@H@2@@std@@V?$allocator@U?$pair@$$CBHG@std@@@2@$0A@@std@@@std@@IAEPAU?$_List_node@U?$pair@$$CBHG@std@@PAX@2@IQAU32@0@Z 004a3cf1 f i VirtualConsole.obj
 0001:000a2cf1       ?_Insert_new_node_before@?$_Hash@V?$_Uset_traits@KV?$_Uhash_compare@KU?$hash@K@std@@U?$equal_to@K@2@@std@@V?$allocator@K@2@$0A@@std@@@std@@IAEPAU?$_List_node@KPAX@2@IQAU32@0@Z 004a3cf1 f i RealConsole.obj
 0001:000a2cf1       ?_Insert_new_node_before@?$_Hash@V?$_Umap_traits@KIV?$_Uhash_compare@KU?$hash@K@std@@U?$equal_to@K@2@@std@@V?$allocator@U?$pair@$$CBKI@std@@@2@$0A@@std@@@std@@IAEPAU?$_List_node@U?$pair@$$CBKI@std@@PAX@2@IQAU32@0@Z 004a3cf1 f i RealConsole.obj
 0001:000a2d41       ?_Min_load_factor_buckets@?$_Hash@V?$_Uset_traits@KV?$_Uhash_compare@KU?$hash@K@std@@U?$equal_to@K@2@@std@@V?$allocator@K@2@$0A@@std@@@std@@IBEII@Z 004a3d41 f i RealConsole.obj
 0001:000a2d41       ?_Min_load_factor_buckets@?$_Hash@V?$_Umap_traits@HGV?$_Uhash_compare@HU?$hash@H@std@@U?$equal_to@H@2@@std@@V?$allocator@U?$pair@$$CBHG@std@@@2@$0A@@std@@@std@@IBEII@Z 004a3d41 f i VirtualConsole.obj
 0001:000a2d41       ?_Min_load_factor_buckets@?$_Hash@V?$_Umap_traits@V?$basic_string@_WU?$char_traits@_W@std@@V?$allocator@_W@2@@std@@UVariableData@SystemEnvironment@@V?$_Uhash_compare@V?$basic_string@_WU?$char_traits@_W@std@@V?$allocator@_W@2@@std@@U?$hash@V?$basic_string@_WU?$char_traits@_W@std@@V?$allocator@_W@2@@std@@@2@U?$equal_to@V?$basic_string@_WU?$char_traits@_W@std@@V?$allocator@_W@2@@std@@@2@@2@V?$allocator@U?$pair@$$CBV?$basic_string@_WU?$char_traits@_W@std@@V?$allocator@_W@2@@std@@UVariableData@SystemEnvironment@@@std@@@2@$0A@@std@@@std@@IBEII@Z 004a3d41 f i SystemEnvironment.obj
 0001:000a2d41       ?_Min_load_factor_buckets@?$_Hash@V?$_Umap_traits@KIV?$_Uhash_compare@KU?$hash@K@std@@U?$equal_to@K@2@@std@@V?$allocator@U?$pair@$$CBKI@std@@@2@$0A@@std@@@std@@IBEII@Z 004a3d41 f i RealConsole.obj
 0001:000a2d91       ?_Reallocate_exactly@?$vector@KV?$allocator@K@std@@@std@@AAEXI@Z 004a3d91 f i RealConsole.obj
 0001:000a2dcf       ?_Reallocate_exactly@?$vector@UConProcess@@V?$MArrayAllocator@UConProcess@@@@@std@@AAEXI@Z 004a3dcf f i RealConsole.obj
 0001:000a2e14       ?_Rehash_for_1@?$_Hash@V?$_Umap_traits@KIV?$_Uhash_compare@KU?$hash@K@std@@U?$equal_to@K@2@@std@@V?$allocator@U?$pair@$$CBKI@std@@@2@$0A@@std@@@std@@IAEXXZ 004a3e14 f i RealConsole.obj
 0001:000a2e14       ?_Rehash_for_1@?$_Hash@V?$_Umap_traits@HGV?$_Uhash_compare@HU?$hash@H@std@@U?$equal_to@H@2@@std@@V?$allocator@U?$pair@$$CBHG@std@@@2@$0A@@std@@@std@@IAEXXZ 004a3e14 f i VirtualConsole.obj
 0001:000a2e2b       ?_Rehash_for_1@?$_Hash@V?$_Uset_traits@KV?$_Uhash_compare@KU?$hash@K@std@@U?$equal_to@K@2@@std@@V?$allocator@K@2@$0A@@std@@@std@@IAEXXZ 004a3e2b f i RealConsole.obj
 0001:000a2e42       ?_Tidy@?$list@KV?$allocator@K@std@@@std@@AAEXXZ 004a3e42 f i RealConsole.obj
 0001:000a2e5b       ?_Unchecked_erase@?$_Hash@V?$_Umap_traits@KIV?$_Uhash_compare@KU?$hash@K@std@@U?$equal_to@K@2@@std@@V?$allocator@U?$pair@$$CBKI@std@@@2@$0A@@std@@@std@@AAEPAU?$_List_node@U?$pair@$$CBKI@std@@PAX@2@PAU32@@Z 004a3e5b f i RealConsole.obj
 0001:000a2e95       ?_Unchecked_erase@?$list@KV?$allocator@K@std@@@std@@AAEPAU?$_List_node@KPAX@2@QAU32@@Z 004a3e95 f i RealConsole.obj
 0001:000a2ebd       ?_Unchecked_erase@?$list@U?$pair@$$CBKI@std@@V?$allocator@U?$pair@$$CBKI@std@@@2@@std@@AAEPAU?$_List_node@U?$pair@$$CBKI@std@@PAX@2@QAU32@@Z 004a3ebd f i RealConsole.obj
 0001:000a2ee5       ?allocate@?$MArrayAllocator@UConProcess@@@@QAEPAUConProcess@@I@Z 004a3ee5 f i RealConsole.obj
 0001:000a2f18       ?allocate@?$MArrayAllocator@UtagPROCESSENTRY32W@@@@QAEPAUtagPROCESSENTRY32W@@I@Z 004a3f18 f i RealConsole.obj
 0001:000a2f4b       ?erase@?$MArray@UConProcess@@@@QAEXHH@Z 004a3f4b f i RealConsole.obj
 0001:000a2f9e       ?erase@?$_Hash@V?$_Umap_traits@KIV?$_Uhash_compare@KU?$hash@K@std@@U?$equal_to@K@2@@std@@V?$allocator@U?$pair@$$CBKI@std@@@2@$0A@@std@@@std@@QAEIABK@Z 004a3f9e f i RealConsole.obj
 0001:000a2ff7       ?erase@?$_Hash@V?$_Uset_traits@KV?$_Uhash_compare@KU?$hash@K@std@@U?$equal_to@K@2@@std@@V?$allocator@K@2@$0A@@std@@@std@@QAEIABK@Z 004a3ff7 f i RealConsole.obj
 0001:000a3050       ?getNext@?$MToolHelp@UtagPROCESSENTRY32W@@$1?Process32FirstW@@YGHPAXPAU1@@Z$1?Process32NextW@@YGH01@Z@@IAE_NXZ 004a4050 f i RealConsole.obj
 0001:000a30d1       ?isActive@CRealConsole@@QAE_N_N@Z 004a40d1 f   RealConsole.obj
 0001:000a30ea       ?isAdministrator@CRealConsole@@QAE_NXZ 004a40ea f   RealConsole.obj
 0001:000a3124       ?isAlive@CRealConsole@@QAE_NXZ 004a4124 f   RealConsole.obj
 0001:000a3164       ?isAlternative@CRealConsole@@QAE_NXZ 004a4164 f   RealConsole.obj
 0001:000a3187       ?isBufferHeight@CRealConsole@@QAE_NXZ 004a4187 f   RealConsole.obj
 0001:000a31b3       ?isCloseTabConfirmed@CRealConsole@@QAE_NIPB_W_N@Z 004a41b3 f   RealConsole.obj
 0001:000a32d6       ?isConSelectMode@CRealConsole@@QAE_NXZ 004a42d6 f   RealConsole.obj
 0001:000a32eb       ?isConsoleClosing@CRealConsole@@QAE_NXZ 004a42eb f   RealConsole.obj
 0001:000a339a       ?isConsoleReady@CRealConsole@@QAE_NXZ 004a439a f   RealConsole.obj
 0001:000a33bb       ?isDetached@CRealConsole@@QAE_NXZ 004a43bb f   RealConsole.obj
 0001:000a33df       ?isEditor@CRealConsole@@QAE_NXZ 004a43df f   RealConsole.obj
 0001:000a33f1       ?isFar@CRealConsole@@QAE_N_N@Z 004a43f1 f   RealConsole.obj
 0001:000a340d       ?isFarBufferSupported@CRealConsole@@QAE_NXZ 004a440d f   RealConsole.obj
 0001:000a3440       ?isFarInStack@CRealConsole@@QAE_NXZ 004a4440 f   RealConsole.obj
 0001:000a3479       ?isFarKeyBarShown@CRealConsole@@QAE_NXZ 004a4479 f   RealConsole.obj
 0001:000a34d1       ?isFarPanelAllowed@CRealConsole@@QAE_NXZ 004a44d1 f   RealConsole.obj
 0001:000a35f1       ?isFilePanel@CRealConsole@@QAE_N_N00@Z 004a45f1 f   RealConsole.obj
 0001:000a3752       ?isFixAndCenter@CRealConsole@@QAE_NPAU_COORD@@@Z 004a4752 f   RealConsole.obj
 0001:000a3784       ?isGuiEagerFocus@CRealConsole@@QAE_NXZ 004a4784 f   RealConsole.obj
 0001:000a37a7       ?isGuiForceConView@CRealConsole@@QAE_NXZ 004a47a7 f   RealConsole.obj
 0001:000a37c1       ?isGuiOverCon@CRealConsole@@QAE_NXZ 004a47c1 f   RealConsole.obj
 0001:000a37d8       ?isGuiVisible@CRealConsole@@QAE_NXZ 004a47d8 f   RealConsole.obj
 0001:000a3815       ?isHighlighted@CRealConsole@@QAE_NXZ 004a4815 f   RealConsole.obj
 0001:000a3858       ?isInFocus@CRealConsole@@QAE_NXZ 004a4858 f   RealConsole.obj
 0001:000a3889       ?isInternalScroll@CRealConsole@@QAE_NXZ 004a4889 f   RealConsole.obj
 0001:000a38c9       ?isLogging@CRealConsole@@QAEII@Z 004a48c9 f   RealConsole.obj
 0001:000a38eb       ?isMouseButtonDown@CRealConsole@@QAE_NXZ 004a48eb f   RealConsole.obj
 0001:000a38f9       ?isMouseSelectionPresent@CRealConsole@@QAE_NXZ 004a48f9 f   RealConsole.obj
 0001:000a390b       ?isNeedCursorDraw@CRealConsole@@QAE_NXZ 004a490b f   RealConsole.obj
 0001:000a394a       ?isNtvdm@CRealConsole@@QAE_NXZ 004a494a f   RealConsole.obj
 0001:000a3956       ?isPictureView@CRealConsole@@QAEPAUHWND__@@_N@Z 004a4956 f   RealConsole.obj
 0001:000a3bfd       ?isPosixConvertAllowed@CRealConsole@@QAE_NXZ 004a4bfd f   RealConsole.obj
 0001:000a3c52       ?isSelectionPresent@CRealConsole@@QAE_NXZ 004a4c52 f   RealConsole.obj
 0001:000a3c64       ?isSendMouseAllowed@CRealConsole@@QAE_NXZ 004a4c64 f   RealConsole.obj
 0001:000a3c83       ?isServerAlive@CRealConsole@@QAE_NXZ 004a4c83 f   RealConsole.obj
 0001:000a3cab       ?isServerAvailable@CRealConsole@@QAE_NXZ 004a4cab f   RealConsole.obj
 0001:000a3cb9       ?isServerClosing@CRealConsole@@QAE_N_N@Z 004a4cb9 f   RealConsole.obj
 0001:000a3cee       ?isServerCreated@CRealConsole@@QAE_N_N@Z 004a4cee f   RealConsole.obj
 0001:000a3d16       ?isUnixFS@CRealConsole@@QAE_NXZ 004a4d16 f   RealConsole.obj
 0001:000a3d36       ?isViewer@CRealConsole@@QAE_NXZ 004a4d36 f   RealConsole.obj
 0001:000a3d48       ?isVisible@CRealConsole@@QAE_NXZ 004a4d48 f   RealConsole.obj
 0001:000a3d59       ?logProgress@CRealConsole@@IAEXPB_WHH@Z 004a4d59 f   RealConsole.obj
 0001:000a3db4       ?priorityProc@CRealConsole@@KGHPAUHWND__@@IIJ@Z 004a4db4 f   RealConsole.obj
 0001:000a4118       ?push_back@?$MArray@UConProcess@@@@QAEH$$QAUConProcess@@@Z 004a5118 f i RealConsole.obj
 0001:000a413a       ?push_back@?$MArray@UtagPROCESSENTRY32W@@@@QAEHABUtagPROCESSENTRY32W@@@Z 004a513a f i RealConsole.obj
 0001:000a415c       ?rehash@?$_Hash@V?$_Umap_traits@KIV?$_Uhash_compare@KU?$hash@K@std@@U?$equal_to@K@2@@std@@V?$allocator@U?$pair@$$CBKI@std@@@2@$0A@@std@@@std@@QAEXI@Z 004a515c f i RealConsole.obj
 0001:000a4183       ?rehash@?$_Hash@V?$_Uset_traits@KV?$_Uhash_compare@KU?$hash@K@std@@U?$equal_to@K@2@@std@@V?$allocator@K@2@$0A@@std@@@std@@QAEXI@Z 004a5183 f i RealConsole.obj
 0001:000a41aa       ?renameProc@CRealConsole@@CGHPAUHWND__@@IIJ@Z 004a51aa f   RealConsole.obj
 0001:000a43be       ?reserve@?$_Hash@V?$_Umap_traits@KIV?$_Uhash_compare@KU?$hash@K@std@@U?$equal_to@K@2@@std@@V?$allocator@U?$pair@$$CBKI@std@@@2@$0A@@std@@@std@@QAEXI@Z 004a53be f i RealConsole.obj
 0001:000a43fd       ?reserve@?$_Hash@V?$_Uset_traits@KV?$_Uhash_compare@KU?$hash@K@std@@U?$equal_to@K@2@@std@@V?$allocator@K@2@$0A@@std@@@std@@QAEXI@Z 004a53fd f i RealConsole.obj
 0001:000a443c       ?reserve@?$vector@KV?$allocator@K@std@@@std@@QAEXI@Z 004a543c f i RealConsole.obj
 0001:000a4465       ?reserve@?$vector@UConProcess@@V?$MArrayAllocator@UConProcess@@@@@std@@QAEXI@Z 004a5465 f i RealConsole.obj
 0001:000a4495       ?setAppProgress@CRealConsole@@IAEXW4AnsiProgressStatus@@F@Z 004a5495 f   RealConsole.obj
 0001:000a44de       ?setConsoleProgress@CRealConsole@@IAEXF@Z 004a54de f   RealConsole.obj
 0001:000a450f       ?setGuiWnd@CRealConsole@@AAEXPAUHWND__@@@Z 004a550f f   RealConsole.obj
 0001:000a4523       ?setGuiWndPID@CRealConsole@@AAEXPAUHWND__@@KHPB_W@Z 004a5523 f   RealConsole.obj
 0001:000a45f6       ?setLastConsoleProgress@CRealConsole@@IAEXF_N@Z 004a55f6 f   RealConsole.obj
 0001:000a4647       ?setLastShownProgress@CRealConsole@@IAEXF@Z 004a5647 f   RealConsole.obj
 0001:000a4678       ?setPreWarningProgress@CRealConsole@@IAEXF@Z 004a5678 f   RealConsole.obj
 0001:000a46a9       ?setProgress@CRealConsole@@IAEXF@Z 004a56a9 f   RealConsole.obj
 0001:000a46fc       __vsprintf_s_l             004a56fc f i RealConsole.obj
 0001:000a472a       _sprintf_s                 004a572a f i RealConsole.obj
 0001:000a4746       ??0CRealServer@@QAE@XZ     004a5746 f   RealServer.obj
 0001:000a4756       ??1CRealServer@@QAE@XZ     004a5756 f   RealServer.obj
 0001:000a4791       ?DelayedWrite@?$PipeServer@UCESERVER_REQ@@@@QAE_NPAXPBXK@Z 004a5791 f i RealServer.obj
 0001:000a47b8       ?Init@CRealServer@@QAEXPAVCRealConsole@@@Z 004a57b8 f   RealServer.obj
 0001:000a47e2       ?ServerCommand@CRealServer@@KGHPAXPAUCESERVER_REQ@@AAPAU2@AAK3J@Z 004a57e2 f   RealServer.obj
 0001:000a4bc1       ?ServerThreadReady@CRealServer@@KGHPAXJ@Z 004a5bc1 f   RealServer.obj
 0001:000a4bfa       ?Start@CRealServer@@QAE_NXZ 004a5bfa f   RealServer.obj
 0001:000a4cbc       ?Stop@CRealServer@@QAEX_N@Z 004a5cbc f   RealServer.obj
 0001:000a4d1a       ?cmdActivateCon@CRealServer@@IAEPAUCESERVER_REQ@@PAXPAU2@I@Z 004a5d1a f   RealServer.obj
 0001:000a4d59       ?cmdActivateTab@CRealServer@@IAEPAUCESERVER_REQ@@PAXPAU2@I@Z 004a5d59 f   RealServer.obj
 0001:000a4e28       ?cmdExportEnvVarAll@CRealServer@@IAEPAUCESERVER_REQ@@PAXPAU2@I@Z 004a5e28 f   RealServer.obj
 0001:000a4e6b       ?cmdFlashWindow@CRealServer@@IAEPAUCESERVER_REQ@@PAXPAU2@I@Z 004a5e6b f   RealServer.obj
 0001:000a4ecd       ?cmdGetAllPanels@CRealServer@@IAEPAUCESERVER_REQ@@PAXPAU2@I@Z 004a5ecd f   RealServer.obj
 0001:000a4f64       ?cmdGetAllTabs@CRealServer@@IAEPAUCESERVER_REQ@@PAXPAU2@I@Z 004a5f64 f   RealServer.obj
 0001:000a4fe3       ?cmdGetOutputFile@CRealServer@@IAEPAUCESERVER_REQ@@PAXPAU2@I@Z 004a5fe3 f   RealServer.obj
 0001:000a5034       ?cmdGetTaskCmd@CRealServer@@IAEPAUCESERVER_REQ@@PAXPAU2@I@Z 004a6034 f   RealServer.obj
 0001:000a511f       ?cmdGuiMacro@CRealServer@@IAEPAUCESERVER_REQ@@PAXPAU2@I@Z 004a611f f   RealServer.obj
 0001:000a51db       ?cmdIsAnsiExecAllowed@CRealServer@@IAEPAUCESERVER_REQ@@PAXPAU2@I@Z 004a61db f   RealServer.obj
 0001:000a52ae       ?cmdLangChange@CRealServer@@IAEPAUCESERVER_REQ@@PAXPAU2@I@Z 004a62ae f   RealServer.obj
 0001:000a52d0       ?cmdLockDc@CRealServer@@IAEPAUCESERVER_REQ@@PAXPAU2@I@Z 004a62d0 f   RealServer.obj
 0001:000a5303       ?cmdOnCreateProc@CRealServer@@IAEPAUCESERVER_REQ@@PAXPAU2@I@Z 004a6303 f   RealServer.obj
 0001:000a535f       ?cmdOnPeekReadInput@CRealServer@@IAEPAUCESERVER_REQ@@PAXPAU2@I@Z 004a635f f   RealServer.obj
 0001:000a53c7       ?cmdOnSetConsoleKeyShortcuts@CRealServer@@IAEPAUCESERVER_REQ@@PAXPAU2@I@Z 004a63c7 f   RealServer.obj
 0001:000a5403       ?cmdPortableStarted@CRealServer@@IAEPAUCESERVER_REQ@@PAXPAU2@I@Z 004a6403 f   RealServer.obj
 0001:000a5427       ?cmdQueryPalette@CRealServer@@IAEPAUCESERVER_REQ@@PAXPAU2@I@Z 004a6427 f   RealServer.obj
 0001:000a54e1       ?cmdRegPanelView@CRealServer@@IAEPAUCESERVER_REQ@@PAXPAU2@I@Z 004a64e1 f   RealServer.obj
 0001:000a5537       ?cmdRenameTab@CRealServer@@IAEPAUCESERVER_REQ@@PAXPAU2@I@Z 004a6537 f   RealServer.obj
 0001:000a556e       ?cmdResources@CRealServer@@IAEPAUCESERVER_REQ@@PAXPAU2@I@Z 004a656e f   RealServer.obj
 0001:000a56fa       ?cmdSetBackground@CRealServer@@IAEPAUCESERVER_REQ@@PAXPAU2@I@Z 004a66fa f   RealServer.obj
 0001:000a5748       ?cmdSetForeground@CRealServer@@IAEPAUCESERVER_REQ@@PAXPAU2@I@Z 004a6748 f   RealServer.obj
 0001:000a57b5       ?cmdSetProgress@CRealServer@@IAEPAUCESERVER_REQ@@PAXPAU2@I@Z 004a67b5 f   RealServer.obj
 0001:000a5805       ?cmdSshAgentStarted@CRealServer@@IAEPAUCESERVER_REQ@@PAXPAU2@I@Z 004a6805 f   RealServer.obj
 0001:000a582b       ?cmdStartStop@CRealServer@@IAEPAUCESERVER_REQ@@PAXPAU2@I@Z 004a682b f   RealServer.obj
 0001:000a6297       ?cmdStartXTerm@CRealServer@@IAEPAUCESERVER_REQ@@PAXPAU2@I@Z 004a7297 f   RealServer.obj
 0001:000a62da       ?cmdTabsChanged@CRealServer@@IAEPAUCESERVER_REQ@@PAXPAU2@I@Z 004a72da f   RealServer.obj
 0001:000a641e       ?cmdTabsCmd@CRealServer@@IAEPAUCESERVER_REQ@@PAXPAU2@I@Z 004a741e f   RealServer.obj
 0001:000a6441       ??0CRecreateDlg@@QAE@XZ    004a7441 f   Recreate.obj
 0001:000a64a4       ??1CRecreateDlg@@QAE@XZ    004a74a4 f   Recreate.obj
 0001:000a64bd       ?AddCommandList@CRecreateDlg@@IAEXPB_WH@Z 004a74bd f   Recreate.obj
 0001:000a6516       ?AddDirectoryList@CRecreateDlg@@IAEXPB_WH@Z 004a7516 f   Recreate.obj
 0001:000a655f       ?BrowseCallbackProc@CRecreateDlg@@SGHPAUHWND__@@IJJ@Z 004a755f f   Recreate.obj
 0001:000a658c       ?Close@CRecreateDlg@@QAEXXZ 004a758c f   Recreate.obj
 0001:000a65be       ?FreeVars@CRecreateDlg@@IAEXXZ 004a75be f   Recreate.obj
 0001:000a661a       ?InitVars@CRecreateDlg@@IAEXXZ 004a761a f   Recreate.obj
 0001:000a68c9       ?OnButtonClicked@CRecreateDlg@@IAEHPAUHWND__@@IIJ@Z 004a78c9 f   Recreate.obj
 0001:000a6f12       ?OnComboSetFocus@CRecreateDlg@@IAEHPAUHWND__@@IIJ@Z 004a7f12 f   Recreate.obj
 0001:000a6f46       ?OnCtlColorStatic@CRecreateDlg@@IAEHPAUHWND__@@IIJ@Z 004a7f46 f   Recreate.obj
 0001:000a6f8b       ?OnEditSetFocus@CRecreateDlg@@IAEHPAUHWND__@@IIJ@Z 004a7f8b f   Recreate.obj
 0001:000a6fcc       ?OnFillCmdList@CRecreateDlg@@IAEHPAUHWND__@@IIJ@Z 004a7fcc f   Recreate.obj
 0001:000a705e       ?OnInitDialog@CRecreateDlg@@IAEHPAUHWND__@@IIJ@Z 004a805e f   Recreate.obj
 0001:000a7cdd       ?OnSysCommand@CRecreateDlg@@IAEHPAUHWND__@@IIJ@Z 004a8cdd f   Recreate.obj
 0001:000a7e01       ?OnUserControls@CRecreateDlg@@IAEHPAUHWND__@@IIJ@Z 004a8e01 f   Recreate.obj
 0001:000a80bd       ?RecreateDlg@CRecreateDlg@@QAEHPAURConStartArgsEx@@_N@Z 004a90bd f   Recreate.obj
 0001:000a81bd       ?RecreateDlgProc@CRecreateDlg@@SGHPAUHWND__@@IIJ@Z 004a91bd f   Recreate.obj
 0001:000a8362       ??0CRunQueue@@QAE@XZ       004a9362 f   RunQueue.obj
 0001:000a83ea       ??1CRunQueue@@QAE@XZ       004a93ea f   RunQueue.obj
 0001:000a8475       ?AdvanceQueue@CRunQueue@@QAEXXZ 004a9475 f   RunQueue.obj
 0001:000a84b2       ?ProcessRunQueue@CRunQueue@@AAEXXZ 004a94b2 f   RunQueue.obj
 0001:000a85ce       ?RequestRConStartup@CRunQueue@@QAEXPAVCRealConsole@@@Z 004a95ce f   RunQueue.obj
 0001:000a864b       ?RunQueueThread@CRunQueue@@AAEKXZ 004a964b f   RunQueue.obj
 0001:000a86a6       ?RunQueueThreadHelper@CRunQueue@@CGKPAX@Z 004a96a6 f   RunQueue.obj
 0001:000a86c0       ?StartQueue@CRunQueue@@QAEXXZ 004a96c0 f   RunQueue.obj
 0001:000a86ec       ?Terminate@CRunQueue@@QAEXXZ 004a96ec f   RunQueue.obj
 0001:000a873b       ??$swprintf_c@$0BAF@@@YAHAAY0BAF@_WPB_WZZ 004a973b f i ScreenDump.obj
 0001:000a8754       ?DumpImage@@YAHPAUHDC__@@PAUHBITMAP__@@HHHHPB_W_N@Z 004a9754 f   ScreenDump.obj
 0001:000a89fb       ?DumpImage@@YAHPAUHDC__@@PAUHBITMAP__@@HHPB_W@Z 004a99fb f   ScreenDump.obj
 0001:000a8a1d       ?LoadScreen@@YAHPAUHDC__@@HHHHPAPAEPAK_N@Z 004a9a1d f   ScreenDump.obj
 0001:000a8ba4       ?AllocateBlock@?$MMap@HUCEIconDrawHandles@@$0A@@@IAEPAUMapItems@1@XZ 004a9ba4 f i SearchCtrl.obj
 0001:000a8bd1       ?AllocateBlock@?$MMap@PAUHWND__@@UCEIconHintInfo@@$0A@@@IAEPAUMapItems@1@XZ 004a9bd1 f i SearchCtrl.obj
 0001:000a8bff       ?AllocateBlock@?$MMap@PAUHWND__@@UTabPanelWinMap@@$0A@@@IAEPAUMapItems@1@XZ 004a9bff f i WinObjBase.obj
 0001:000a8bff       ?AllocateBlock@?$MMap@PAUHWND__@@UCEIconHintOthers@@$0A@@@IAEPAUMapItems@1@XZ 004a9bff f i SearchCtrl.obj
 0001:000a96e7       ?EditIconHint_Process@@YA_NPAUHWND__@@IIJAAH@Z 004aa6e7 f   SearchCtrl.obj
 0001:000a99e8       ?EditIconHint_ResChanged@@YAXPAUHWND__@@@Z 004aa9e8 f   SearchCtrl.obj
 0001:000a9a61       ?EditIconHint_Set@@YAXPAUHWND__@@0_NPB_W1IG@Z 004aaa61 f   SearchCtrl.obj
 0001:000a9c42       ?EditIconHint_SetTimer@@YAXPAUHWND__@@@Z 004aac42 f   SearchCtrl.obj
 0001:000a9c5c       ?EditIconHint_Subclass@@YAXPAUHWND__@@0@Z 004aac5c f   SearchCtrl.obj
 0001:000a9c7b       ?FindBlockItem@?$MMap@HUCEIconDrawHandles@@$0A@@@IAE_NABHAAPAUMapItems@1@AAPAUMapItem@1@@Z 004aac7b f i SearchCtrl.obj
 0001:000a9cd6       ?FindBlockItem@?$MMap@PAUHWND__@@UCEIconHintInfo@@$0A@@@IAE_NABQAUHWND__@@AAPAUMapItems@1@AAPAUMapItem@1@@Z 004aacd6 f i SearchCtrl.obj
 0001:000a9d34       ?FindBlockItem@?$MMap@PAUHWND__@@UTabPanelWinMap@@$0A@@@IAE_NABQAUHWND__@@AAPAUMapItems@1@AAPAUMapItem@1@@Z 004aad34 f i WinObjBase.obj
 0001:000a9d34       ?FindBlockItem@?$MMap@PAUHWND__@@UCEIconHintOthers@@$0A@@@IAE_NABQAUHWND__@@AAPAUMapItems@1@AAPAUMapItem@1@@Z 004aad34 f i SearchCtrl.obj
 0001:000a9d8f       ?Get@?$MMap@HUCEIconDrawHandles@@$0A@@@QAE_NABHPAUCEIconDrawHandles@@_N@Z 004aad8f f i SearchCtrl.obj
 0001:000a9df3       ?Get@?$MMap@PAUHWND__@@UCEIconHintInfo@@$0A@@@QAE_NABQAUHWND__@@PAUCEIconHintInfo@@_N@Z 004aadf3 f i SearchCtrl.obj
 0001:000a9e66       ?Get@?$MMap@PAUHWND__@@UTabPanelWinMap@@$0A@@@QAE_NABQAUHWND__@@PAUTabPanelWinMap@@_N@Z 004aae66 f i WinObjBase.obj
 0001:000a9e66       ?Get@?$MMap@PAUHWND__@@UCEIconHintOthers@@$0A@@@QAE_NABQAUHWND__@@PAUCEIconHintOthers@@_N@Z 004aae66 f i SearchCtrl.obj
 0001:000a9ec6       ?GetNext@?$MMap@PAUHWND__@@UCEIconHintInfo@@$0A@@@QAE_NPBQAUHWND__@@PAPAU2@PAUCEIconHintInfo@@@Z 004aaec6 f i SearchCtrl.obj
 0001:000a9f83       ?Init@?$MMap@HUCEIconDrawHandles@@$0A@@@QAE_NI_N@Z 004aaf83 f i SearchCtrl.obj
 0001:000a9fbb       ?Init@?$MMap@PAUHWND__@@UCEIconHintInfo@@$0A@@@QAE_NI_N@Z 004aafbb f i SearchCtrl.obj
 0001:000a9ff3       ?Init@?$MMap@PAUHWND__@@UCEIconHintOthers@@$0A@@@QAE_NI_N@Z 004aaff3 f i SearchCtrl.obj
 0001:000aa02b       ?Set@?$MMap@HUCEIconDrawHandles@@$0A@@@QAE_NABHABUCEIconDrawHandles@@@Z 004ab02b f i SearchCtrl.obj
 0001:000aa148       ?Set@?$MMap@PAUHWND__@@UCEIconHintInfo@@$0A@@@QAE_NABQAUHWND__@@ABUCEIconHintInfo@@@Z 004ab148 f i SearchCtrl.obj
 0001:000aa263       ?Set@?$MMap@PAUHWND__@@UCEIconHintOthers@@$0A@@@QAE_NABQAUHWND__@@ABUCEIconHintOthers@@@Z 004ab263 f i SearchCtrl.obj
 0001:000aa263       ?Set@?$MMap@PAUHWND__@@UTabPanelWinMap@@$0A@@@QAE_NABQAUHWND__@@ABUTabPanelWinMap@@@Z 004ab263 f i WinObjBase.obj
 0001:000aa378       ?BackColorIdx@AppSettings@@QBEEXZ 004ab378 f   SetAppSettings.obj
 0001:000aa397       ?CTSBashMargin@AppSettings@@QBE_NXZ 004ab397 f   SetAppSettings.obj
 0001:000aa3b9       ?CTSClickPromptPosition@AppSettings@@QBEEXZ 004ab3b9 f   SetAppSettings.obj
 0001:000aa3db       ?CTSDeleteLeftWord@AppSettings@@QBEEXZ 004ab3db f   SetAppSettings.obj
 0001:000aa3fd       ?CTSDetectLineEnd@AppSettings@@QBE_NXZ 004ab3fd f   SetAppSettings.obj
 0001:000aa41f       ?CTSEOL@AppSettings@@QBEEXZ 004ab41f f   SetAppSettings.obj
 0001:000aa441       ?CTSShiftArrowStart@AppSettings@@QBE_NXZ 004ab441 f   SetAppSettings.obj
 0001:000aa463       ?CTSTrimTrailing@AppSettings@@QBEEXZ 004ab463 f   SetAppSettings.obj
 0001:000aa485       ?Cursor@AppSettings@@QBE?ATCECursorType@@_N@Z 004ab485 f   SetAppSettings.obj
 0001:000aa4df       ?CursorBlink@AppSettings@@QBE_N_N@Z 004ab4df f   SetAppSettings.obj
 0001:000aa4f9       ?CursorFixedSize@AppSettings@@QBEE_N@Z 004ab4f9 f   SetAppSettings.obj
 0001:000aa513       ?CursorIgnoreSize@AppSettings@@QBE_N_N@Z 004ab513 f   SetAppSettings.obj
 0001:000aa52d       ?ExtendFonts@AppSettings@@QBE_NXZ 004ab52d f   SetAppSettings.obj
 0001:000aa54f       ?FontBoldColor@AppSettings@@QBEEXZ 004ab54f f   SetAppSettings.obj
 0001:000aa571       ?FontItalicColor@AppSettings@@QBEEXZ 004ab571 f   SetAppSettings.obj
 0001:000aa593       ?FontNormalColor@AppSettings@@QBEEXZ 004ab593 f   SetAppSettings.obj
 0001:000aa5b5       ?FreeApps@AppSettings@@QAEXXZ 004ab5b5 f   SetAppSettings.obj
 0001:000aa5e3       ?PasteAllLines@AppSettings@@QBEEXZ 004ab5e3 f   SetAppSettings.obj
 0001:000aa605       ?PasteFirstLine@AppSettings@@QBEEXZ 004ab605 f   SetAppSettings.obj
 0001:000aa627       ?PopBackColorIdx@AppSettings@@QBEEXZ 004ab627 f   SetAppSettings.obj
 0001:000aa646       ?PopTextColorIdx@AppSettings@@QBEEXZ 004ab646 f   SetAppSettings.obj
 0001:000aa665       ?PosixAllLines@AppSettings@@QBEEXZ 004ab665 f   SetAppSettings.obj
 0001:000aa687       ?PosixFirstLine@AppSettings@@QBEEXZ 004ab687 f   SetAppSettings.obj
 0001:000aa6a9       ?SetNames@AppSettings@@QAEXPB_W@Z 004ab6a9 f   SetAppSettings.obj
 0001:000aa748       ?TextColorIdx@AppSettings@@QBEEXZ 004ab748 f   SetAppSettings.obj
 0001:000aa767       ??$_Resize@U_Value_init_tag@std@@@?$vector@PA_WV?$MArrayAllocator@PA_W@@@std@@AAEXIABU_Value_init_tag@1@@Z 004ab767 f i SetCmdTask.obj
 0001:000aa7c0       ??$_Resize_reallocate@U_Value_init_tag@std@@@?$vector@PA_WV?$MArrayAllocator@PA_W@@@std@@AAEXIABU_Value_init_tag@1@@Z 004ab7c0 f i SetCmdTask.obj
 0001:000aa832       ?FreePtr@CommandTasks@@QAEXXZ 004ab832 f   SetCmdTask.obj
 0001:000aa87d       ?GetFirstCommandForPrompt@CommandTasks@@QBE?AUCEStr@@XZ 004ab87d f   SetCmdTask.obj
 0001:000aa993       ?LoadCmdTask@CommandTasks@@QAE_NPAUSettingsBase@@H@Z 004ab993 f   SetCmdTask.obj
 0001:000aad12       ?ParseGuiArgs@CommandTasks@@QBEXPAURConStartArgsEx@@@Z 004abd12 f   SetCmdTask.obj
 0001:000ab0a6       ?SaveCmdTask@CommandTasks@@QBE_NPAUSettingsBase@@_N@Z 004ac0a6 f   SetCmdTask.obj
 0001:000ab2fb       ?SetCommands@CommandTasks@@QAE_NPB_W@Z 004ac2fb f   SetCmdTask.obj
 0001:000ab3b9       ?SetGuiArg@CommandTasks@@QAE_NPB_W@Z 004ac3b9 f   SetCmdTask.obj
 0001:000ab477       ?SetName@CommandTasks@@QAEXPB_WH@Z 004ac477 f   SetCmdTask.obj
 0001:000ab572       ?FreePtr@ColorPalette@@QAEXXZ 004ac572 f   SetColorPalette.obj
 0001:000ab58e       ?GetColors@ColorPalette@@QAEABV?$array@K$0BA@@std@@_N@Z 004ac58e f   SetColorPalette.obj
 0001:000ab5b4       ??$GetPageObj@VCSetPgComspec@@@CSettings@@QAE_NAAPAVCSetPgComspec@@@Z 004ac5b4 f i SetDlgButtons.obj
 0001:000ab5e3       ??$GetPageObj@VCSetPgFeatures@@@CSettings@@QAE_NAAPAVCSetPgFeatures@@@Z 004ac5e3 f i SetDlgButtons.obj
 0001:000ab612       ??$GetPageObj@VCSetPgTasks@@@CSettings@@QAE_NAAPAVCSetPgTasks@@@Z 004ac612 f i SetDlgButtons.obj
 0001:000ab641       ??$swprintf_c@$0BMM@@@YAHAAY0BMM@_WPB_WZZ 004ac641 f i SetDlgButtons.obj
 0001:000ab65a       ?CheckButtonMacro@CSetDlgButtons@@SA?AUCEStr@@GE@Z 004ac65a f   SetDlgButtons.obj
 0001:000ab732       ?OnBtn_ActivateSplitMouseOver@CSetDlgButtons@@KAXPAUHWND__@@GE@Z 004ac732 f   SetDlgButtons.obj
 0001:000ab760       ?OnBtn_ActivityReset@CSetDlgButtons@@KAXPAUHWND__@@GE@Z 004ac760 f   SetDlgButtons.obj
 0001:000ab7a8       ?OnBtn_ActivitySaveAs@CSetDlgButtons@@KAXPAUHWND__@@GE@Z 004ac7a8 f   SetDlgButtons.obj
 0001:000ab7c1       ?OnBtn_AddConEmu2Path@CSetDlgButtons@@KAXPAUHWND__@@GE@Z 004ac7c1 f   SetDlgButtons.obj
 0001:000ab7ec       ?OnBtn_AddConEmuBase2Path@CSetDlgButtons@@KAXPAUHWND__@@GE@Z 004ac7ec f   SetDlgButtons.obj
 0001:000ab814       ?OnBtn_AddDefaults@CSetDlgButtons@@KAXPAUHWND__@@GE@Z 004ac814 f   SetDlgButtons.obj
 0001:000ab89a       ?OnBtn_AdminSuffixOrShield@CSetDlgButtons@@KAXPAUHWND__@@GE@Z 004ac89a f   SetDlgButtons.obj
 0001:000ab98f       ?OnBtn_AlwaysOnTop@CSetDlgButtons@@KAXPAUHWND__@@GE@Z 004ac98f f   SetDlgButtons.obj
 0001:000ab9b6       ?OnBtn_AlwaysShowTrayIcon@CSetDlgButtons@@KAXPAUHWND__@@GE@Z 004ac9b6 f   SetDlgButtons.obj
 0001:000ab9d6       ?OnBtn_AnsiSecureRadio@CSetDlgButtons@@KAXPAUHWND__@@GE@Z 004ac9d6 f   SetDlgButtons.obj
 0001:000aba2f       ?OnBtn_AntiAliasing2@CSetDlgButtons@@KAXPAUHWND__@@GE@Z 004aca2f f   SetDlgButtons.obj
 0001:000aba61       ?OnBtn_ApplyPos@CSetDlgButtons@@KAXPAUHWND__@@GE@Z 004aca61 f   SetDlgButtons.obj
 0001:000abc78       ?OnBtn_BgAllowPlugin@CSetDlgButtons@@KAXPAUHWND__@@GE@Z 004acc78 f   SetDlgButtons.obj
 0001:000abca3       ?OnBtn_BgImageChoose@CSetDlgButtons@@KAXPAUHWND__@@GE@Z 004acca3 f   SetDlgButtons.obj
 0001:000abed2       ?OnBtn_BgImageEnable@CSetDlgButtons@@KAXPAUHWND__@@GE@Z 004aced2 f   SetDlgButtons.obj
 0001:000abfe4       ?OnBtn_CTSAutoCopy@CSetDlgButtons@@KAXPAUHWND__@@GE@Z 004acfe4 f   SetDlgButtons.obj
 0001:000ac049       ?OnBtn_CTSBlockSelection@CSetDlgButtons@@KAXPAUHWND__@@GE@Z 004ad049 f   SetDlgButtons.obj
 0001:000ac06e       ?OnBtn_CTSClickPromptPosition@CSetDlgButtons@@KAXPAUHWND__@@GE@Z 004ad06e f   SetDlgButtons.obj
 0001:000ac08f       ?OnBtn_CTSEndCopyAuto@CSetDlgButtons@@KAXPAUHWND__@@GE@Z 004ad08f f   SetDlgButtons.obj
 0001:000ac16e       ?OnBtn_CTSIBeam@CSetDlgButtons@@KAXPAUHWND__@@GE@Z 004ad16e f   SetDlgButtons.obj
 0001:000ac194       ?OnBtn_CTSTextSelection@CSetDlgButtons@@KAXPAUHWND__@@GE@Z 004ad194 f   SetDlgButtons.obj
 0001:000ac1b9       ?OnBtn_CascadeFixed@CSetDlgButtons@@KAXPAUHWND__@@GE@Z 004ad1b9 f   SetDlgButtons.obj
 0001:000ac219       ?OnBtn_ClinkWebPage@CSetDlgButtons@@KAXPAUHWND__@@GE@Z 004ad219 f   SetDlgButtons.obj
 0001:000ac231       ?OnBtn_CloseConEmuOptions@CSetDlgButtons@@KAXPAUHWND__@@GE@Z 004ad231 f   SetDlgButtons.obj
 0001:000ac406       ?OnBtn_CloseConfirmFlags@CSetDlgButtons@@KAXPAUHWND__@@GE@Z 004ad406 f   SetDlgButtons.obj
 0001:000ac452       ?OnBtn_CmdAutoActions@CSetDlgButtons@@KAXPAUHWND__@@GE@Z 004ad452 f   SetDlgButtons.obj
 0001:000ac49b       ?OnBtn_CmdGroupApp@CSetDlgButtons@@KAXPAUHWND__@@GE@Z 004ad49b f   SetDlgButtons.obj
 0001:000ac6db       ?OnBtn_CmdGroupKey@CSetDlgButtons@@KAXPAUHWND__@@GE@Z 004ad6db f   SetDlgButtons.obj
 0001:000ac796       ?OnBtn_CmdTaskbarUpdate@CSetDlgButtons@@KAXPAUHWND__@@GE@Z 004ad796 f   SetDlgButtons.obj
 0001:000ac7de       ?OnBtn_CmdTasksActive@CSetDlgButtons@@KAXPAUHWND__@@GE@Z 004ad7de f   SetDlgButtons.obj
 0001:000ac832       ?OnBtn_CmdTasksAdd@CSetDlgButtons@@KAXPAUHWND__@@GE@Z 004ad832 f   SetDlgButtons.obj
 0001:000ac8c7       ?OnBtn_CmdTasksDel@CSetDlgButtons@@KAXPAUHWND__@@GE@Z 004ad8c7 f   SetDlgButtons.obj
 0001:000acb66       ?OnBtn_CmdTasksDir@CSetDlgButtons@@KAXPAUHWND__@@GE@Z 004adb66 f   SetDlgButtons.obj
 0001:000acc99       ?OnBtn_CmdTasksDup@CSetDlgButtons@@KAXPAUHWND__@@GE@Z 004adc99 f   SetDlgButtons.obj
 0001:000acda0       ?OnBtn_CmdTasksFlags@CSetDlgButtons@@KAXPAUHWND__@@GE@Z 004adda0 f   SetDlgButtons.obj
 0001:000acecb       ?OnBtn_CmdTasksParm@CSetDlgButtons@@KAXPAUHWND__@@GE@Z 004adecb f   SetDlgButtons.obj
 0001:000acfd1       ?OnBtn_CmdTasksReload@CSetDlgButtons@@KAXPAUHWND__@@GE@Z 004adfd1 f   SetDlgButtons.obj
 0001:000ad047       ?OnBtn_CmdTasksUpDown@CSetDlgButtons@@KAXPAUHWND__@@GE@Z 004ae047 f   SetDlgButtons.obj
 0001:000ad0f0       ?OnBtn_ColorField@CSetDlgButtons@@KAXPAUHWND__@@GE@Z 004ae0f0 f   SetDlgButtons.obj
 0001:000ad24c       ?OnBtn_ColorFormat@CSetDlgButtons@@KAXPAUHWND__@@GE@Z 004ae24c f   SetDlgButtons.obj
 0001:000ad28c       ?OnBtn_ColorKeyTransparent@CSetDlgButtons@@KAXPAUHWND__@@GE@Z 004ae28c f   SetDlgButtons.obj
 0001:000ad2ad       ?OnBtn_ColorSchemeSaveDelete@CSetDlgButtons@@KAXPAUHWND__@@GE@Z 004ae2ad f   SetDlgButtons.obj
 0001:000ad2d9       ?OnBtn_CompressLongStrings@CSetDlgButtons@@KAXPAUHWND__@@GE@Z 004ae2d9 f   SetDlgButtons.obj
 0001:000ad2fd       ?OnBtn_ComspecBitsRadio@CSetDlgButtons@@KAXPAUHWND__@@GE@Z 004ae2fd f   SetDlgButtons.obj
 0001:000ad352       ?OnBtn_ComspecExplicit@CSetDlgButtons@@KAXPAUHWND__@@GE@Z 004ae352 f   SetDlgButtons.obj
 0001:000ad495       ?OnBtn_ComspecRadio@CSetDlgButtons@@KAXPAUHWND__@@GE@Z 004ae495 f   SetDlgButtons.obj
 0001:000ad52d       ?OnBtn_ComspecTest@CSetDlgButtons@@KAXPAUHWND__@@GE@Z 004ae52d f   SetDlgButtons.obj
 0001:000ad5e9       ?OnBtn_ComspecUpdateEnv@CSetDlgButtons@@KAXPAUHWND__@@GE@Z 004ae5e9 f   SetDlgButtons.obj
 0001:000ad604       ?OnBtn_ConsoleExceptionHandler@CSetDlgButtons@@KAXPAUHWND__@@GE@Z 004ae604 f   SetDlgButtons.obj
 0001:000ad625       ?OnBtn_CursorOptions@CSetDlgButtons@@KAXPAUHWND__@@GE@Z 004ae625 f   SetDlgButtons.obj
 0001:000ad657       ?OnBtn_DebugActivityRadio@CSetDlgButtons@@KAXPAUHWND__@@GE@Z 004ae657 f   SetDlgButtons.obj
 0001:000ad6ac       ?OnBtn_DebugLog@CSetDlgButtons@@KAXPAUHWND__@@GE@Z 004ae6ac f   SetDlgButtons.obj
 0001:000ad730       ?OnBtn_DefTerm@CSetDlgButtons@@KAXPAUHWND__@@GE@Z 004ae730 f   SetDlgButtons.obj
 0001:000ad98c       ?OnBtn_DosBox@CSetDlgButtons@@KAXPAUHWND__@@GE@Z 004ae98c f   SetDlgButtons.obj
 0001:000ada32       ?OnBtn_DragLR@CSetDlgButtons@@KAXPAUHWND__@@GE@Z 004aea32 f   SetDlgButtons.obj
 0001:000ada70       ?OnBtn_DragPanel@CSetDlgButtons@@KAXPAUHWND__@@GE@Z 004aea70 f   SetDlgButtons.obj
 0001:000ada92       ?OnBtn_DragPanelBothEdges@CSetDlgButtons@@KAXPAUHWND__@@GE@Z 004aea92 f   SetDlgButtons.obj
 0001:000adab8       ?OnBtn_EnhanceButtons@CSetDlgButtons@@KAXPAUHWND__@@GE@Z 004aeab8 f   SetDlgButtons.obj
 0001:000adadc       ?OnBtn_EnhanceGraphics@CSetDlgButtons@@KAXPAUHWND__@@GE@Z 004aeadc f   SetDlgButtons.obj
 0001:000adb00       ?OnBtn_ExtendFonts@CSetDlgButtons@@KAXPAUHWND__@@GE@Z 004aeb00 f   SetDlgButtons.obj
 0001:000adb3e       ?OnBtn_ExtendUCharMap@CSetDlgButtons@@KAXPAUHWND__@@GE@Z 004aeb3e f   SetDlgButtons.obj
 0001:000adb62       ?OnBtn_FARuseASCIIsort@CSetDlgButtons@@KAXPAUHWND__@@GE@Z 004aeb62 f   SetDlgButtons.obj
 0001:000adb7d       ?OnBtn_FadeInactive@CSetDlgButtons@@KAXPAUHWND__@@GE@Z 004aeb7d f   SetDlgButtons.obj
 0001:000adb98       ?OnBtn_FarHourglass@CSetDlgButtons@@KAXPAUHWND__@@GE@Z 004aeb98 f   SetDlgButtons.obj
 0001:000adbbe       ?OnBtn_FixFarBorders@CSetDlgButtons@@KAXPAUHWND__@@GE@Z 004aebbe f   SetDlgButtons.obj
 0001:000adbed       ?OnBtn_FontAuto@CSetDlgButtons@@KAXPAUHWND__@@GE@Z 004aebed f   SetDlgButtons.obj
 0001:000adc82       ?OnBtn_NoneStandardCleartype@CSetDlgButtons@@KAXPAUHWND__@@GE@Z 004aec82 f   SetDlgButtons.obj
 0001:000adc82       ?OnBtn_FontStyles@CSetDlgButtons@@KAXPAUHWND__@@GE@Z 004aec82 f   SetDlgButtons.obj
 0001:000adca2       ?OnBtn_GotoEditorCmd@CSetDlgButtons@@KAXPAUHWND__@@GE@Z 004aeca2 f   SetDlgButtons.obj
 0001:000ade51       ?OnBtn_HideCaption@CSetDlgButtons@@KAXPAUHWND__@@GE@Z 004aee51 f   SetDlgButtons.obj
 0001:000adea2       ?OnBtn_HideCaptionAlways@CSetDlgButtons@@KAXPAUHWND__@@GE@Z 004aeea2 f   SetDlgButtons.obj
 0001:000adf1c       ?OnBtn_HideChildCaption@CSetDlgButtons@@KAXPAUHWND__@@GE@Z 004aef1c f   SetDlgButtons.obj
 0001:000adf48       ?OnBtn_HideInactiveConTabs@CSetDlgButtons@@KAXPAUHWND__@@GE@Z 004aef48 f   SetDlgButtons.obj
 0001:000adf72       ?OnBtn_HideOrMinOnLastTabClose@CSetDlgButtons@@KAXPAUHWND__@@GE@Z 004aef72 f   SetDlgButtons.obj
 0001:000ae077       ?OnBtn_HighlightMouseCol@CSetDlgButtons@@KAXPAUHWND__@@GE@Z 004af077 f   SetDlgButtons.obj
 0001:000ae09b       ?OnBtn_HighlightMouseRow@CSetDlgButtons@@KAXPAUHWND__@@GE@Z 004af09b f   SetDlgButtons.obj
 0001:000ae0bf       ?OnBtn_InstallKeybHooks@CSetDlgButtons@@KAXPAUHWND__@@GE@Z 004af0bf f   SetDlgButtons.obj
 0001:000ae123       ?OnBtn_LongOutput@CSetDlgButtons@@KAXPAUHWND__@@GE@Z 004af123 f   SetDlgButtons.obj
 0001:000ae15b       ?OnBtn_MinByEscRadio@CSetDlgButtons@@KAXPAUHWND__@@GE@Z 004af15b f   SetDlgButtons.obj
 0001:000ae1b2       ?OnBtn_MinMaxKey@CSetDlgButtons@@KAXPAUHWND__@@GE@Z 004af1b2 f   SetDlgButtons.obj
 0001:000ae271       ?OnBtn_Monospace@CSetDlgButtons@@KAXPAUHWND__@@GE@Z 004af271 f   SetDlgButtons.obj
 0001:000ae2c2       ?OnBtn_MultiCon@CSetDlgButtons@@KAXPAUHWND__@@GE@Z 004af2c2 f   SetDlgButtons.obj
 0001:000ae2ea       ?OnBtn_MultiShowPanes@CSetDlgButtons@@KAXPAUHWND__@@GE@Z 004af2ea f   SetDlgButtons.obj
 0001:000ae33b       ?OnBtn_NormalFullscreenMaximized@CSetDlgButtons@@KAXPAUHWND__@@GE@Z 004af33b f   SetDlgButtons.obj
 0001:000ae374       ?OnBtn_NumberInCaption@CSetDlgButtons@@KAXPAUHWND__@@GE@Z 004af374 f   SetDlgButtons.obj
 0001:000ae395       ?OnBtn_OneTabPerGroup@CSetDlgButtons@@KAXPAUHWND__@@GE@Z 004af395 f   SetDlgButtons.obj
 0001:000ae3bf       ?OnBtn_ProcessAnsi@CSetDlgButtons@@KAXPAUHWND__@@GE@Z 004af3bf f   SetDlgButtons.obj
 0001:000ae3e0       ?OnBtn_ProcessCmdStart@CSetDlgButtons@@KAXPAUHWND__@@GE@Z 004af3e0 f   SetDlgButtons.obj
 0001:000ae401       ?OnBtn_ProcessCtrlZ@CSetDlgButtons@@KAXPAUHWND__@@GE@Z 004af401 f   SetDlgButtons.obj
 0001:000ae422       ?OnBtn_ProcessNewConArg@CSetDlgButtons@@KAXPAUHWND__@@GE@Z 004af422 f   SetDlgButtons.obj
 0001:000ae443       ?OnBtn_QuakeStyles@CSetDlgButtons@@KAXPAUHWND__@@GE@Z 004af443 f   SetDlgButtons.obj
 0001:000ae4b8       ?OnBtn_RConVisible@CSetDlgButtons@@KAXPAUHWND__@@GE@Z 004af4b8 f   SetDlgButtons.obj
 0001:000ae515       ?OnBtn_RetardInactivePanes@CSetDlgButtons@@KAXPAUHWND__@@GE@Z 004af515 f   SetDlgButtons.obj
 0001:000ae537       ?OnBtn_ScrollbarDynamic@CSetDlgButtons@@KAXPAUHWND__@@GE@Z 004af537 f   SetDlgButtons.obj
 0001:000ae558       ?OnBtn_ScrollbarStyle@CSetDlgButtons@@KAXPAUHWND__@@GE@Z 004af558 f   SetDlgButtons.obj
 0001:000ae629       ?OnBtn_SendConsoleSpecials@CSetDlgButtons@@KAXPAUHWND__@@GE@Z 004af629 f   SetDlgButtons.obj
 0001:000ae6bf       ?OnBtn_ShellNoZoneCheck@CSetDlgButtons@@KAXPAUHWND__@@GE@Z 004af6bf f   SetDlgButtons.obj
 0001:000ae6da       ?OnBtn_ShowFarWindows@CSetDlgButtons@@KAXPAUHWND__@@GE@Z 004af6da f   SetDlgButtons.obj
 0001:000ae704       ?OnBtn_ShowStatusBar@CSetDlgButtons@@KAXPAUHWND__@@GE@Z 004af704 f   SetDlgButtons.obj
 0001:000ae720       ?OnBtn_SleepInBackground@CSetDlgButtons@@KAXPAUHWND__@@GE@Z 004af720 f   SetDlgButtons.obj
 0001:000ae742       ?OnBtn_SnapToDesktopEdges@CSetDlgButtons@@KAXPAUHWND__@@GE@Z 004af742 f   SetDlgButtons.obj
 0001:000ae77c       ?OnBtn_StatusAddDel@CSetDlgButtons@@KAXPAUHWND__@@GE@Z 004af77c f   SetDlgButtons.obj
 0001:000ae8e1       ?OnBtn_StatusHorzSep@CSetDlgButtons@@KAXPAUHWND__@@GE@Z 004af8e1 f   SetDlgButtons.obj
 0001:000ae91a       ?OnBtn_StatusSystemColors@CSetDlgButtons@@KAXPAUHWND__@@GE@Z 004af91a f   SetDlgButtons.obj
 0001:000ae972       ?OnBtn_StatusVertPad@CSetDlgButtons@@KAXPAUHWND__@@GE@Z 004af972 f   SetDlgButtons.obj
 0001:000ae9ab       ?OnBtn_StatusVertSep@CSetDlgButtons@@KAXPAUHWND__@@GE@Z 004af9ab f   SetDlgButtons.obj
 0001:000ae9e0       ?OnBtn_SuppressBells@CSetDlgButtons@@KAXPAUHWND__@@GE@Z 004af9e0 f   SetDlgButtons.obj
 0001:000aea01       ?OnBtn_TabsLocationBottom@CSetDlgButtons@@KAXPAUHWND__@@GE@Z 004afa01 f   SetDlgButtons.obj
 0001:000aea3a       ?OnBtn_TabsRadioAuto@CSetDlgButtons@@KAXPAUHWND__@@GE@Z 004afa3a f   SetDlgButtons.obj
 0001:000aeac2       ?OnBtn_TaskbarBtnRadio@CSetDlgButtons@@KAXPAUHWND__@@GE@Z 004afac2 f   SetDlgButtons.obj
 0001:000aeb4f       ?OnBtn_TaskbarOverlay@CSetDlgButtons@@KAXPAUHWND__@@GE@Z 004afb4f f   SetDlgButtons.obj
 0001:000aeb76       ?OnBtn_TaskbarProgress@CSetDlgButtons@@KAXPAUHWND__@@GE@Z 004afb76 f   SetDlgButtons.obj
 0001:000aeb97       ?OnBtn_ThumbBackColors@CSetDlgButtons@@KAXPAUHWND__@@GE@Z 004afb97 f   SetDlgButtons.obj
 0001:000aebe5       ?OnBtn_ThumbLoadFiles@CSetDlgButtons@@KAXPAUHWND__@@GE@Z 004afbe5 f   SetDlgButtons.obj
 0001:000aec1b       ?OnBtn_ThumbPreviewBoxColors@CSetDlgButtons@@KAXPAUHWND__@@GE@Z 004afc1b f   SetDlgButtons.obj
 0001:000aec69       ?OnBtn_ThumbSelectionBoxColors@CSetDlgButtons@@KAXPAUHWND__@@GE@Z 004afc69 f   SetDlgButtons.obj
 0001:000aecb7       ?OnBtn_Transparent@CSetDlgButtons@@KAXPAUHWND__@@GE@Z 004afcb7 f   SetDlgButtons.obj
 0001:000aed49       ?OnBtn_TransparentSeparate@CSetDlgButtons@@KAXPAUHWND__@@GE@Z 004afd49 f   SetDlgButtons.obj
 0001:000aee02       ?OnBtn_TrueColorer@CSetDlgButtons@@KAXPAUHWND__@@GE@Z 004afe02 f   SetDlgButtons.obj
 0001:000aee31       ?OnBtn_TryToCenter@CSetDlgButtons@@KAXPAUHWND__@@GE@Z 004afe31 f   SetDlgButtons.obj
 0001:000aee67       ?OnBtn_UnicodeRangesApply@CSetDlgButtons@@KAXPAUHWND__@@GE@Z 004afe67 f   SetDlgButtons.obj
 0001:000aef77       ?OnBtn_UpdateApplyAndCheck@CSetDlgButtons@@KAXPAUHWND__@@GE@Z 004aff77 f   SetDlgButtons.obj
 0001:000af003       ?OnBtn_UpdateArcCmdLine@CSetDlgButtons@@KAXPAUHWND__@@GE@Z 004b0003 f   SetDlgButtons.obj
 0001:000af112       ?OnBtn_UpdateCheckFast@CSetDlgButtons@@KAXPAUHWND__@@GE@Z 004b0112 f   SetDlgButtons.obj
 0001:000af153       ?OnBtn_UpdateDownloadPath@CSetDlgButtons@@KAXPAUHWND__@@GE@Z 004b0153 f   SetDlgButtons.obj
 0001:000af27e       ?OnBtn_UpdateInetTool@CSetDlgButtons@@KAXPAUHWND__@@GE@Z 004b027e f   SetDlgButtons.obj
 0001:000af309       ?OnBtn_UpdateInetToolCmd@CSetDlgButtons@@KAXPAUHWND__@@GE@Z 004b0309 f   SetDlgButtons.obj
 0001:000af469       ?OnBtn_UpdateTypeRadio@CSetDlgButtons@@KAXPAUHWND__@@GE@Z 004b0469 f   SetDlgButtons.obj
 0001:000af4e8       ?OnBtn_UpdateUseProxy@CSetDlgButtons@@KAXPAUHWND__@@GE@Z 004b04e8 f   SetDlgButtons.obj
 0001:000af574       ?OnBtn_UseClink@CSetDlgButtons@@KAXPAUHWND__@@GE@Z 004b0574 f   SetDlgButtons.obj
 0001:000af613       ?OnBtn_UseCurrentSizePos@CSetDlgButtons@@KAXPAUHWND__@@GE@Z 004b0613 f   SetDlgButtons.obj
 0001:000af6a0       ?OnBtn_UseInjects@CSetDlgButtons@@KAXPAUHWND__@@GE@Z 004b06a0 f   SetDlgButtons.obj
 0001:000af6c1       ?OnBtn_UseWinArrowNumTab@CSetDlgButtons@@KAXPAUHWND__@@GE@Z 004b06c1 f   SetDlgButtons.obj
 0001:000af725       ?OnBtn_UserScreenTransparent@CSetDlgButtons@@KAXPAUHWND__@@GE@Z 004b0725 f   SetDlgButtons.obj
 0001:000af757       ?OnBtn_VividColors@CSetDlgButtons@@KAXPAUHWND__@@GE@Z 004b0757 f   SetDlgButtons.obj
 0001:000af77b       ?OnButtonClicked@CSetDlgButtons@@KAJPAUHWND__@@IJ@Z 004b077b f   SetDlgButtons.obj
 0001:000af7b7       ?OnButtonClicked_Cursor@CSetDlgButtons@@KAXPAUHWND__@@GEPAUAppSettings@@@Z 004b07b7 f   SetDlgButtons.obj
 0001:000af928       ?ProcessButtonClick@CSetDlgButtons@@KA_NPAUHWND__@@GE@Z 004b0928 f   SetDlgButtons.obj
 0001:000b1467       ?ColorBoxProc@CSetDlgColors@@KGJPAUHWND__@@IIJ@Z 004b2467 f   SetDlgColors.obj
 0001:000b16a4       ?ColorCtlStatic@CSetDlgColors@@SAHPAUHWND__@@G0@Z 004b26a4 f   SetDlgColors.obj
 0001:000b17cc       ?ColorEditDialog@CSetDlgColors@@SA_NPAUHWND__@@G@Z 004b27cc f   SetDlgColors.obj
 0001:000b183b       ?ColorSetEdit@CSetDlgColors@@SAXPAUHWND__@@G@Z 004b283b f   SetDlgColors.obj
 0001:000b196d       ?FillBgImageColors@CSetDlgColors@@SAXPAUHWND__@@@Z 004b296d f   SetDlgColors.obj
 0001:000b1a61       ?GetColorById@CSetDlgColors@@SA_NGPAK@Z 004b2a61 f   SetDlgColors.obj
 0001:000b1b1a       ?GetColorRef@CSetDlgColors@@SA_NPAUHWND__@@GPAK@Z 004b2b1a f   SetDlgColors.obj
 0001:000b1b7a       ?OnSettingsLoaded@CSetDlgColors@@SAXABV?$array@K$0BA@@std@@@Z 004b2b7a f   SetDlgColors.obj
 0001:000b1b95       ?ReleaseHandles@CSetDlgColors@@SAXXZ 004b2b95 f   SetDlgColors.obj
 0001:000b1bbe       ?SetColorById@CSetDlgColors@@SA_NGK@Z 004b2bbe f   SetDlgColors.obj
 0001:000b1ce4       ?ShowColorDialog@CSetDlgColors@@SA_NPAUHWND__@@PAK@Z 004b2ce4 f   SetDlgColors.obj
 0001:000b1d3a       ?EnumFamCallBack@CSetDlgFonts@@KGHPAUtagLOGFONTW@@PAUtagNEWTEXTMETRICW@@KPAX@Z 004b2d3a f   SetDlgFonts.obj
 0001:000b1dfc       ?EnumFontCallBackEx@CSetDlgFonts@@KGHPAUtagENUMLOGFONTEXW@@PAUtagNEWTEXTMETRICEXW@@KJ@Z 004b2dfc f   SetDlgFonts.obj
 0001:000b1e47       ?EnumFontsFinished@CSetDlgFonts@@SA_NXZ 004b2e47 f   SetDlgFonts.obj
 0001:000b1e4d       ?EnumFontsThread@CSetDlgFonts@@CGKPAX@Z 004b2e4d f   SetDlgFonts.obj
 0001:000b211d       ?StartEnumFontsThread@CSetDlgFonts@@KA_NXZ 004b311d f   SetDlgFonts.obj
 0001:000b2148       ?EnableDlgItems@CSetDlgLists@@SAXPAUHWND__@@PBKI_N@Z 004b3148 f   SetDlgLists.obj
 0001:000b217a       ?EnableDlgItems@CSetDlgLists@@SAXPAUHWND__@@W4eWordItems@1@_N@Z 004b317a f   SetDlgLists.obj
 0001:000b219e       ?FillCBList@CSetDlgLists@@SAXPAUHWND__@@_NPAPB_WPB_W@Z 004b319e f   SetDlgLists.obj
 0001:000b2231       ?FillListBox@CSetDlgLists@@SAXPAUHWND__@@GW4eFillListBoxItems@1@@Z 004b3231 f   SetDlgLists.obj
 0001:000b2281       ?FillListBoxItems@CSetDlgLists@@SAXPAUHWND__@@W4eFillListBoxItems@1@AAE_N@Z 004b3281 f   SetDlgLists.obj
 0001:000b22b8       ?FillListBoxItems@CSetDlgLists@@SAXPAUHWND__@@W4eFillListBoxItems@1@AAI_N@Z 004b32b8 f   SetDlgLists.obj
 0001:000b237e       ?FillListBoxItems@CSetDlgLists@@SAXPAUHWND__@@W4eFillListBoxItems@1@ABI@Z 004b337e f   SetDlgLists.obj
 0001:000b239f       ?FillListBoxItems@CSetDlgLists@@SAXPAUHWND__@@W4eWordItems@1@AAI_N@Z 004b339f f   SetDlgLists.obj
 0001:000b2472       ?GetListBoxItem@CSetDlgLists@@SA_NPAUHWND__@@GW4eFillListBoxItems@1@AAE@Z 004b3472 f   SetDlgLists.obj
 0001:000b249c       ?GetListBoxItem@CSetDlgLists@@SA_NPAUHWND__@@GW4eFillListBoxItems@1@AAI@Z 004b349c f   SetDlgLists.obj
 0001:000b251d       ?GetListBoxItem@CSetDlgLists@@SA_NPAUHWND__@@GW4eWordItems@1@AAI@Z 004b351d f   SetDlgLists.obj
 0001:000b259e       ?GetListItems@CSetDlgLists@@SAIW4eFillListBoxItems@1@AAPBUListBoxItem@@@Z 004b359e f   SetDlgLists.obj
 0001:000b26ba       ?GetListItems@CSetDlgLists@@SAIW4eWordItems@1@AAPBK@Z 004b36ba f   SetDlgLists.obj
 0001:000b274a       ?GetListboxCurSel@CSetDlgLists@@SAHPAUHWND__@@I_N@Z 004b374a f   SetDlgLists.obj
 0001:000b27c7       ?GetListboxSelection@CSetDlgLists@@SAHPAUHWND__@@IAAPAH@Z 004b37c7 f   SetDlgLists.obj
 0001:000b2879       ?GetSelectedString@CSetDlgLists@@SAHPAUHWND__@@GAAUCEStr@@@Z 004b3879 f   SetDlgLists.obj
 0001:000b2961       ?ListBoxMultiSel@CSetDlgLists@@SAXPAUHWND__@@IH@Z 004b3961 f   SetDlgLists.obj
 0001:000b29b2       ?SelectString@CSetDlgLists@@SAHPAUHWND__@@GPB_W@Z 004b39b2 f   SetDlgLists.obj
 0001:000b29da       ?SelectStringExact@CSetDlgLists@@SAHPAUHWND__@@GPB_W@Z 004b39da f   SetDlgLists.obj
 0001:000b2b49       ??0CSetPgANSI@@QAE@XZ      004b3b49 f   SetPgANSI.obj
 0001:000b2b63       ??_ECSetPgANSI@@UAEPAXI@Z  004b3b63 f i SetPgANSI.obj
 0001:000b2b63       ??_GCSetPgANSI@@UAEPAXI@Z  004b3b63 f i SetPgANSI.obj
 0001:000b2b8b       ?GetPageType@CSetPgANSI@@UAE?AW4TabHwndIndex@@XZ 004b3b8b f i SetPgANSI.obj
 0001:000b2b8f       ?OnEditChanged@CSetPgANSI@@UAEJPAUHWND__@@G@Z 004b3b8f f   SetPgANSI.obj
 0001:000b2c00       ?OnInitDialog@CSetPgANSI@@UAEJPAUHWND__@@_N@Z 004b3c00 f   SetPgANSI.obj
 0001:000b2c74       ?PageDlgProc@CSetPgBase@@UAEHPAUHWND__@@IIJ@Z 004b3c74 f i SetPgANSI.obj
 0001:000b2c79       ?QueryDialogCancel@CSetPgBase@@UAE_NXZ 004b3c79 f i SetPgANSI.obj
 0001:000b2c79       __should_initialize_environment 004b3c79 f i LIBCMT:env_mode.obj
 0001:000b2c79       ___acrt_uninitialize_command_line 004b3c79 f i libucrt:argv_data.obj
 0001:000b2c7c       ??0CSetPgAppear@@QAE@XZ    004b3c7c f   SetPgAppear.obj
 0001:000b2c96       ??_ECSetPgAppear@@UAEPAXI@Z 004b3c96 f i SetPgAppear.obj
 0001:000b2c96       ??_GCSetPgAppear@@UAEPAXI@Z 004b3c96 f i SetPgAppear.obj
 0001:000b2cbe       ?GetPageType@CSetPgAppear@@UAE?AW4TabHwndIndex@@XZ 004b3cbe f i SetPgAppear.obj
 0001:000b2cc2       ?OnEditChanged@CSetPgAppear@@UAEJPAUHWND__@@G@Z 004b3cc2 f   SetPgAppear.obj
 0001:000b2e14       ?OnInitDialog@CSetPgAppear@@UAEJPAUHWND__@@_N@Z 004b3e14 f   SetPgAppear.obj
 0001:000b301e       ??$GetPageObj@VCSetPgApps@@@CSettings@@QAE_NAAPAVCSetPgApps@@@Z 004b401e f i SetPgApps.obj
 0001:000b304d       ??0CSetPgApps@@QAE@XZ      004b404d f   SetPgApps.obj
 0001:000b307a       ??1CSetPgApps@@UAE@XZ      004b407a f   SetPgApps.obj
 0001:000b30e0       ??_GCSetPgApps@@UAEPAXI@Z  004b40e0 f i SetPgApps.obj
 0001:000b30e0       ??_ECSetPgApps@@UAEPAXI@Z  004b40e0 f i SetPgApps.obj
 0001:000b3102       ?CreateChildDlg@CSetPgApps@@IAE_NXZ 004b4102 f   SetPgApps.obj
 0001:000b32cb       ?DoAppAdd@CSetPgApps@@IAEXXZ 004b42cb f   SetPgApps.obj
 0001:000b334f       ?DoAppDel@CSetPgApps@@IAEXXZ 004b434f f   SetPgApps.obj
 0001:000b3425       ?DoAppMove@CSetPgApps@@IAEX_N@Z 004b4425 f   SetPgApps.obj
 0001:000b34e2       ?DoEnableControls@CSetPgApps@@QAEXG@Z 004b44e2 f   SetPgApps.obj
 0001:000b35ee       ?DoFillControls@CSetPgApps@@QAEXPBUAppSettings@@@Z 004b45ee f   SetPgApps.obj
 0001:000b387c       ?DoReloadApps@CSetPgApps@@IAEXXZ 004b487c f   SetPgApps.obj
 0001:000b38c4       ?GetPageType@CSetPgApps@@UAE?AW4TabHwndIndex@@XZ 004b48c4 f i SetPgApps.obj
 0001:000b38c8       ?NotifyVCon@CSetPgApps@@IAEXXZ 004b48c8 f   SetPgApps.obj
 0001:000b38fc       ?OnAppSelectionChanged@CSetPgApps@@IAEXXZ 004b48fc f   SetPgApps.obj
 0001:000b39a4       ?OnButtonClicked@CSetPgApps@@UAEHPAUHWND__@@0G@Z 004b49a4 f   SetPgApps.obj
 0001:000b3e83       ?OnComboBox@CSetPgApps@@UAEHPAUHWND__@@GG@Z 004b4e83 f   SetPgApps.obj
 0001:000b40c1       ?OnEditChanged@CSetPgApps@@UAEJPAUHWND__@@G@Z 004b50c1 f   SetPgApps.obj
 0001:000b41ad       ?OnInitDialog@CSetPgApps@@UAEJPAUHWND__@@_N@Z 004b51ad f   SetPgApps.obj
 0001:000b4353       ?PageDlgProc@CSetPgApps@@UAEHPAUHWND__@@IIJ@Z 004b5353 f   SetPgApps.obj
 0001:000b44ca       ?ProcessDpiChange@CSetPgApps@@UAEXPBVCDpiForDialog@@@Z 004b54ca f   SetPgApps.obj
 0001:000b4571       ?SetListAppName@CSetPgApps@@IAEHPBUAppSettings@@HH@Z 004b5571 f   SetPgApps.obj
 0001:000b466d       ?pageOpProc_AppsChild@CSetPgApps@@SGHPAUHWND__@@IIJ@Z 004b566d f   SetPgApps.obj
 0001:000b4863       ??0CSetPgBackgr@@QAE@XZ    004b5863 f   SetPgBackgr.obj
 0001:000b487d       ??_ECSetPgBackgr@@UAEPAXI@Z 004b587d f i SetPgBackgr.obj
 0001:000b487d       ??_GCSetPgBackgr@@UAEPAXI@Z 004b587d f i SetPgBackgr.obj
 0001:000b48a5       ?GetPageType@CSetPgBackgr@@UAE?AW4TabHwndIndex@@XZ 004b58a5 f i SetPgBackgr.obj
 0001:000b48a9       ?OnComboBox@CSetPgBackgr@@UAEHPAUHWND__@@GG@Z 004b58a9 f   SetPgBackgr.obj
 0001:000b4912       ?OnEditChanged@CSetPgBackgr@@UAEJPAUHWND__@@G@Z 004b5912 f   SetPgBackgr.obj
 0001:000b4b16       ?OnInitDialog@CSetPgBackgr@@UAEJPAUHWND__@@_N@Z 004b5b16 f   SetPgBackgr.obj
 0001:000b4c4a       ??$GetPageObj@VCSetPgFonts@@@CSettings@@QAE_NAAPAVCSetPgFonts@@@Z 004b5c4a f i SetPgBase.obj
 0001:000b4c79       ??0CSetPgBase@@QAE@XZ      004b5c79 f   SetPgBase.obj
 0001:000b4ca6       ??1CSetPgBase@@UAE@XZ      004b5ca6 f   SetPgBase.obj
 0001:000b4d05       ??_ECSetPgBase@@UAEPAXI@Z  004b5d05 f i SetPgBase.obj
 0001:000b4d05       ??_GCSetPgBase@@UAEPAXI@Z  004b5d05 f i SetPgBase.obj
 0001:000b4d27       ?ApplyHotkeyGroupName@CSetPgBase@@SAXAAY0IA@_WPB_W@Z 004b5d27 f   SetPgBase.obj
 0001:000b4d78       ?ApplyHotkeyToTitle@CSetPgBase@@SA?AUCEStr@@AAU2@PB_W11@Z 004b5d78 f   SetPgBase.obj
 0001:000b4e3c       ?CreatePage@CSetPgBase@@SAPAUHWND__@@PAUConEmuSetupPages@@PAU2@IPBVCDpiForDialog@@@Z 004b5e3c f   SetPgBase.obj
 0001:000b4ee4       ?InitObject@CSetPgBase@@UAEXPAUHWND__@@IPBVCDpiForDialog@@PAUConEmuSetupPages@@@Z 004b5ee4 f   SetPgBase.obj
 0001:000b4f20       ?OnButtonClicked@CSetPgBase@@UAEHPAUHWND__@@0G@Z 004b5f20 f   SetPgBase.obj
 0001:000b4f3a       ?OnComboBox@CSetPgComspec@@UAEHPAUHWND__@@GG@Z 004b5f3a f   SetPgComspec.obj
 0001:000b4f3a       ?OnComboBox@CSetPgBase@@UAEHPAUHWND__@@GG@Z 004b5f3a f   SetPgBase.obj
 0001:000b4f3f       ?OnCtlColorStatic@CSetPgBase@@UAEHPAUHWND__@@PAUHDC__@@0G@Z 004b5f3f f   SetPgBase.obj
 0001:000b4fd1       ?OnDpiChanged@CSetPgBase@@UAEXPBVCDpiForDialog@@@Z 004b5fd1 f   SetPgBase.obj
 0001:000b500d       ?OnEditChanged@CSetPgBase@@UAEJPAUHWND__@@G@Z 004b600d f i SetPgBase.obj
 0001:000b5012       ?OnSetCursor@CSetPgBase@@UAEHPAUHWND__@@0GGG@Z 004b6012 f   SetPgBase.obj
 0001:000b5057       ?ProcessDpiChange@CSetPgBase@@UAEXPBVCDpiForDialog@@@Z 004b6057 f   SetPgBase.obj
 0001:000b50d4       ?pageOpProc@CSetPgBase@@SGHPAUHWND__@@IIJ@Z 004b60d4 f   SetPgBase.obj
 0001:000b57cb       ?setCtrlTitleByHotkey@CSetPgBase@@SAXPAUHWND__@@GHPB_W11@Z 004b67cb f   SetPgBase.obj
 0001:000b5931       ??0CSetPgChildGui@@QAE@XZ  004b6931 f   SetPgChildGui.obj
 0001:000b594b       ??_ECSetPgChildGui@@UAEPAXI@Z 004b694b f i SetPgChildGui.obj
 0001:000b594b       ??_GCSetPgChildGui@@UAEPAXI@Z 004b694b f i SetPgChildGui.obj
 0001:000b5973       ?GetPageType@CSetPgChildGui@@UAE?AW4TabHwndIndex@@XZ 004b6973 f i SetPgChildGui.obj
 0001:000b5977       ?OnInitDialog@CSetPgChildGui@@UAEJPAUHWND__@@_N@Z 004b6977 f   SetPgChildGui.obj
 0001:000b59b7       ??0CSetPgColors@@QAE@XZ    004b69b7 f   SetPgColors.obj
 0001:000b59d1       ??_ECSetPgColors@@UAEPAXI@Z 004b69d1 f i SetPgColors.obj
 0001:000b59d1       ??_GCSetPgColors@@UAEPAXI@Z 004b69d1 f i SetPgColors.obj
 0001:000b59f9       ?ColorSchemeSaveDelete@CSetPgColors@@QAEXGE@Z 004b69f9 f   SetPgColors.obj
 0001:000b5ab9       ?GetPageType@CSetPgColors@@UAE?AW4TabHwndIndex@@XZ 004b6ab9 f i SetPgColors.obj
 0001:000b5abd       ?OnComboBox@CSetPgColors@@UAEHPAUHWND__@@GG@Z 004b6abd f   SetPgColors.obj
 0001:000b5d0d       ?OnEditChanged@CSetPgColors@@UAEJPAUHWND__@@G@Z 004b6d0d f   SetPgColors.obj
 0001:000b5e07       ?OnInitDialog@CSetPgColors@@UAEJPAUHWND__@@_N@Z 004b6e07 f   SetPgColors.obj
 0001:000b60b0       ??$swprintf_c@$0BIE@@@YAHAAY0BIE@_WPB_WZZ 004b70b0 f i SetPgComspec.obj
 0001:000b60c9       ??0CSetPgComspec@@QAE@XZ   004b70c9 f   SetPgComspec.obj
 0001:000b60e3       ??_GCSetPgComspec@@UAEPAXI@Z 004b70e3 f i SetPgComspec.obj
 0001:000b60e3       ??_ECSetPgComspec@@UAEPAXI@Z 004b70e3 f i SetPgComspec.obj
 0001:000b610b       ?GetPageType@CSetPgComspec@@UAE?AW4TabHwndIndex@@XZ 004b710b f i SetPgComspec.obj
 0001:000b610f       ?LoadAutorunValue@CSetPgComspec@@QAE?AUCEStr@@PAUHKEY__@@_N@Z 004b710f f   SetPgComspec.obj
 0001:000b62b6       ?OnEditChanged@CSetPgComspec@@UAEJPAUHWND__@@G@Z 004b72b6 f   SetPgComspec.obj
 0001:000b62e2       ?OnInitDialog@CSetPgComspec@@UAEJPAUHWND__@@_N@Z 004b72e2 f   SetPgComspec.obj
 0001:000b63ab       ?RegisterCmdAutorun@CSetPgComspec@@QAEX_N0@Z 004b73ab f   SetPgComspec.obj
 0001:000b6761       ?ReloadAutorun@CSetPgComspec@@QAEXXZ 004b7761 f   SetPgComspec.obj
 0001:000b68a2       ??0CSetPgConfirm@@QAE@XZ   004b78a2 f   SetPgConfirm.obj
 0001:000b68bc       ??_GCSetPgConfirm@@UAEPAXI@Z 004b78bc f i SetPgConfirm.obj
 0001:000b68bc       ??_ECSetPgConfirm@@UAEPAXI@Z 004b78bc f i SetPgConfirm.obj
 0001:000b68e4       ?GetPageType@CSetPgConfirm@@UAE?AW4TabHwndIndex@@XZ 004b78e4 f i SetPgConfirm.obj
 0001:000b68e8       ?OnInitDialog@CSetPgConfirm@@UAEJPAUHWND__@@_N@Z 004b78e8 f   SetPgConfirm.obj
 0001:000b6a08       ??0CSetPgCursor@@QAE@XZ    004b7a08 f   SetPgCursor.obj
 0001:000b6a22       ??_GCSetPgCursor@@UAEPAXI@Z 004b7a22 f i SetPgCursor.obj
 0001:000b6a22       ??_ECSetPgCursor@@UAEPAXI@Z 004b7a22 f i SetPgCursor.obj
 0001:000b6a4a       ?GetPageType@CSetPgCursor@@UAE?AW4TabHwndIndex@@XZ 004b7a4a f i SetPgCursor.obj
 0001:000b6a4e       ?InitCursorCtrls@CSetPgCursor@@SAXPAUHWND__@@PBUAppSettings@@@Z 004b7a4e f   SetPgCursor.obj
 0001:000b6bc4       ?OnEditChanged@CSetPgCursor@@UAEJPAUHWND__@@G@Z 004b7bc4 f   SetPgCursor.obj
 0001:000b6c14       ?OnEditChangedCursor@CSetPgCursor@@SA_NPAUHWND__@@GPAUAppSettings@@@Z 004b7c14 f   SetPgCursor.obj
 0001:000b6d09       ?OnInitDialog@CSetPgCursor@@UAEJPAUHWND__@@_N@Z 004b7d09 f   SetPgCursor.obj
 0001:000b6d27       ??0CSetPgDebug@@QAE@XZ     004b7d27 f   SetPgDebug.obj
 0001:000b6d49       ??_ECSetPgDebug@@UAEPAXI@Z 004b7d49 f i SetPgDebug.obj
 0001:000b6d49       ??_GCSetPgDebug@@UAEPAXI@Z 004b7d49 f i SetPgDebug.obj
 0001:000b6d71       ?GetActivityLoggingType@CSetPgDebug@@SA?AW4GuiLoggingType@@XZ 004b7d71 f   SetPgDebug.obj
 0001:000b6d87       ?GetPageType@CSetPgDebug@@UAE?AW4TabHwndIndex@@XZ 004b7d87 f i SetPgDebug.obj
 0001:000b6d8b       ?OnActivityLogNotify@CSetPgDebug@@QAEJIJ@Z 004b7d8b f   SetPgDebug.obj
 0001:000b6f7e       ?OnInitDialog@CSetPgDebug@@UAEJPAUHWND__@@_N@Z 004b7f7e f   SetPgDebug.obj
 0001:000b7057       ?OnSaveActivityLogFile@CSetPgDebug@@QAEXXZ 004b8057 f   SetPgDebug.obj
 0001:000b7344       ?SetLoggingType@CSetPgDebug@@QAEXW4GuiLoggingType@@@Z 004b8344 f   SetPgDebug.obj
 0001:000b7ae1       ?debugLog@CSetPgDebug@@QAEXIJ@Z 004b8ae1 f   SetPgDebug.obj
 0001:000b7b27       ?debugLogCommand@CSetPgDebug@@QAEXPAULogCommandsData@1@@Z 004b8b27 f   SetPgDebug.obj
 0001:000b7dc1       ?debugLogCommand@CSetPgDebug@@SAXPAUCESERVER_REQ@@HKKPB_W0@Z 004b8dc1 f   SetPgDebug.obj
 0001:000b7f2e       ?debugLogInfo@CSetPgDebug@@QAEXPAUCESERVER_REQ_PEEKREADINFO@@@Z 004b8f2e f   SetPgDebug.obj
 0001:000b85e6       ?debugLogShell@CSetPgDebug@@QAEXPAUDebugLogShellActivity@1@@Z 004b95e6 f   SetPgDebug.obj
 0001:000b8ac4       ?debugLogShell@CSetPgDebug@@SAXKPAUCESERVER_REQ_ONCREATEPROCESS@@@Z 004b9ac4 f   SetPgDebug.obj
 0001:000b8fd5       ?debugLogShellText@CSetPgDebug@@KAXAAUCEStr@@PB_W@Z 004b9fd5 f   SetPgDebug.obj
 0001:000b904d       ?debugLogString@CSetPgDebug@@QAEXPAULogRConString@1@@Z 004ba04d f   SetPgDebug.obj
 0001:000b91c1       ??0CSetPgDefTerm@@QAE@XZ   004ba1c1 f   SetPgDefTerm.obj
 0001:000b91db       ??_GCSetPgDefTerm@@UAEPAXI@Z 004ba1db f i SetPgDefTerm.obj
 0001:000b91db       ??_ECSetPgDefTerm@@UAEPAXI@Z 004ba1db f i SetPgDefTerm.obj
 0001:000b9203       ?GetPageType@CSetPgDefTerm@@UAE?AW4TabHwndIndex@@XZ 004ba203 f i SetPgDefTerm.obj
 0001:000b9207       ?OnEditChanged@CSetPgDefTerm@@UAEJPAUHWND__@@G@Z 004ba207 f   SetPgDefTerm.obj
 0001:000b9286       ?OnInitDialog@CSetPgDefTerm@@UAEJPAUHWND__@@_N@Z 004ba286 f   SetPgDefTerm.obj
 0001:000b93f9       ??0CSetPgEnvironment@@QAE@XZ 004ba3f9 f   SetPgEnvironment.obj
 0001:000b9413       ??_ECSetPgEnvironment@@UAEPAXI@Z 004ba413 f i SetPgEnvironment.obj
 0001:000b9413       ??_GCSetPgEnvironment@@UAEPAXI@Z 004ba413 f i SetPgEnvironment.obj
 0001:000b943b       ?GetPageType@CSetPgEnvironment@@UAE?AW4TabHwndIndex@@XZ 004ba43b f i SetPgEnvironment.obj
 0001:000b943f       ?OnEditChanged@CSetPgEnvironment@@UAEJPAUHWND__@@G@Z 004ba43f f   SetPgEnvironment.obj
 0001:000b94b0       ?OnInitDialog@CSetPgEnvironment@@UAEJPAUHWND__@@_N@Z 004ba4b0 f   SetPgEnvironment.obj
 0001:000b953d       ??0CSetPgFar@@QAE@XZ       004ba53d f   SetPgFar.obj
 0001:000b9557       ??_GCSetPgFar@@UAEPAXI@Z   004ba557 f i SetPgFar.obj
 0001:000b9557       ??_ECSetPgFar@@UAEPAXI@Z   004ba557 f i SetPgFar.obj
 0001:000b957f       ?GetPageType@CSetPgFar@@UAE?AW4TabHwndIndex@@XZ 004ba57f f i SetPgFar.obj
 0001:000b9583       ?OnComboBox@CSetPgFar@@UAEHPAUHWND__@@GG@Z 004ba583 f   SetPgFar.obj
 0001:000b95ca       ?OnEditChanged@CSetPgFar@@UAEJPAUHWND__@@G@Z 004ba5ca f   SetPgFar.obj
 0001:000b971e       ?OnInitDialog@CSetPgFar@@UAEJPAUHWND__@@_N@Z 004ba71e f   SetPgFar.obj
 0001:000b99a1       ??0CSetPgFarMacro@@QAE@XZ  004ba9a1 f   SetPgFarMacro.obj
 0001:000b99bb       ??_GCSetPgFarMacro@@UAEPAXI@Z 004ba9bb f i SetPgFarMacro.obj
 0001:000b99bb       ??_ECSetPgFarMacro@@UAEPAXI@Z 004ba9bb f i SetPgFarMacro.obj
 0001:000b99e3       ?GetPageType@CSetPgFarMacro@@UAE?AW4TabHwndIndex@@XZ 004ba9e3 f i SetPgFarMacro.obj
 0001:000b99e7       ?OnComboBox@CSetPgFarMacro@@UAEHPAUHWND__@@GG@Z 004ba9e7 f   SetPgFarMacro.obj
 0001:000b9a9a       ?OnInitDialog@CSetPgFarMacro@@UAEJPAUHWND__@@_N@Z 004baa9a f   SetPgFarMacro.obj
 0001:000b9c08       ??0CSetPgFeatures@@QAE@XZ  004bac08 f   SetPgFeatures.obj
 0001:000b9c22       ??_GCSetPgFeatures@@UAEPAXI@Z 004bac22 f i SetPgFeatures.obj
 0001:000b9c22       ??_ECSetPgFeatures@@UAEPAXI@Z 004bac22 f i SetPgFeatures.obj
 0001:000b9c4a       ?GetPageType@CSetPgFeatures@@UAE?AW4TabHwndIndex@@XZ 004bac4a f i SetPgFeatures.obj
 0001:000b9c4e       ?OnEditChanged@CSetPgFeatures@@UAEJPAUHWND__@@G@Z 004bac4e f   SetPgFeatures.obj
 0001:000b9cc0       ?OnInitDialog@CSetPgFeatures@@UAEJPAUHWND__@@_N@Z 004bacc0 f   SetPgFeatures.obj
 0001:000b9f55       ?UpdateLogLocation@CSetPgFeatures@@IBEXXZ 004baf55 f   SetPgFeatures.obj
 0001:000b9ff7       ??0CSetPgFonts@@QAE@XZ     004baff7 f   SetPgFonts.obj
 0001:000ba011       ??_ECSetPgFonts@@UAEPAXI@Z 004bb011 f i SetPgFonts.obj
 0001:000ba011       ??_GCSetPgFonts@@UAEPAXI@Z 004bb011 f i SetPgFonts.obj
 0001:000ba039       ?CopyFontsTo@CSetPgFonts@@QAAXPAUHWND__@@HZZ 004bb039 f   SetPgFonts.obj
 0001:000ba24f       ?OnComboBox@CSetPgFonts@@UAEHPAUHWND__@@GG@Z 004bb24f f   SetPgFonts.obj
 0001:000ba3c7       ?OnInitDialog@CSetPgFonts@@UAEJPAUHWND__@@_N@Z 004bb3c7 f   SetPgFonts.obj
 0001:000ba879       ??0CSetPgGeneral@@QAE@XZ   004bb879 f   SetPgGeneral.obj
 0001:000ba8a1       ??1CSetPgGeneral@@UAE@XZ   004bb8a1 f   SetPgGeneral.obj
 0001:000ba8ba       ??_ECSetPgGeneral@@UAEPAXI@Z 004bb8ba f i SetPgGeneral.obj
 0001:000ba8ba       ??_GCSetPgGeneral@@UAEPAXI@Z 004bb8ba f i SetPgGeneral.obj
 0001:000ba8dc       ?ColorBoxProc@CSetPgGeneral@@KGJPAUHWND__@@IIJ@Z 004bb8dc f   SetPgGeneral.obj
 0001:000ba9ab       ?OnComboBox@CSetPgGeneral@@UAEHPAUHWND__@@GG@Z 004bb9ab f   SetPgGeneral.obj
 0001:000bab09       ?OnInitDialog@CSetPgGeneral@@UAEJPAUHWND__@@_N@Z 004bbb09 f   SetPgGeneral.obj
 0001:000bafef       ??0CSetPgHilight@@QAE@XZ   004bbfef f   SetPgHilight.obj
 0001:000bb009       ??_GCSetPgHilight@@UAEPAXI@Z 004bc009 f i SetPgHilight.obj
 0001:000bb009       ??_ECSetPgHilight@@UAEPAXI@Z 004bc009 f i SetPgHilight.obj
 0001:000bb031       ?GetPageType@CSetPgHilight@@UAE?AW4TabHwndIndex@@XZ 004bc031 f i SetPgHilight.obj
 0001:000bb035       ?OnComboBox@CSetPgHilight@@UAEHPAUHWND__@@GG@Z 004bc035 f   SetPgHilight.obj
 0001:000bb0bc       ?OnInitDialog@CSetPgHilight@@UAEJPAUHWND__@@_N@Z 004bc0bc f   SetPgHilight.obj
 0001:000bb1ba       ??0CSetPgInfo@@QAE@XZ      004bc1ba f   SetPgInfo.obj
 0001:000bb1d4       ??_GCSetPgInfo@@UAEPAXI@Z  004bc1d4 f i SetPgInfo.obj
 0001:000bb1d4       ??_ECSetPgInfo@@UAEPAXI@Z  004bc1d4 f i SetPgInfo.obj
 0001:000bb1fc       ?FillConsoleMode@CSetPgInfo@@SAXPAUHWND__@@PAVCRealConsole@@@Z 004bc1fc f   SetPgInfo.obj
 0001:000bb2e2       ?FillCursorInfo@CSetPgInfo@@SAXPAUHWND__@@PBUConsoleInfoArg@@@Z 004bc2e2 f   SetPgInfo.obj
 0001:000bb34f       ?FillFontInfo@CSetPgInfo@@SAXPAUHWND__@@@Z 004bc34f f   SetPgInfo.obj
 0001:000bb440       ?GetPageType@CSetPgInfo@@UAE?AW4TabHwndIndex@@XZ 004bc440 f i SetPgInfo.obj
 0001:000bb444       ?OnInitDialog@CSetPgInfo@@UAEJPAUHWND__@@_N@Z 004bc444 f   SetPgInfo.obj
 0001:000bb4b1       ?OnPostLocalize@CSetPgInfo@@UAEXPAUHWND__@@@Z 004bc4b1 f   SetPgInfo.obj
 0001:000bb514       ??$SafeDelete@USwitch@@@@YAXAAPAUSwitch@@@Z 004bc514 f i SetPgIntegr.obj
 0001:000bb539       ??0CSetPgIntegr@@QAE@XZ    004bc539 f   SetPgIntegr.obj
 0001:000bb553       ??0Switch@@QAE@$$QAPA_W0@Z 004bc553 f i SetPgIntegr.obj
 0001:000bb598       ??0SwitchParser@@QAE@XZ    004bc598 f i SetPgIntegr.obj
 0001:000bb5fd       ??1SwitchParser@@QAE@XZ    004bc5fd f i SetPgIntegr.obj
 0001:000bb62d       ??_ECSetPgIntegr@@UAEPAXI@Z 004bc62d f i SetPgIntegr.obj
 0001:000bb62d       ??_GCSetPgIntegr@@UAEPAXI@Z 004bc62d f i SetPgIntegr.obj
 0001:000bb655       ??_GSwitch@@QAEPAXI@Z      004bc655 f i SetPgIntegr.obj
 0001:000bb681       ?CreateCommand@SwitchParser@@QAEPB_WAAUCEStr@@@Z 004bc681 f i SetPgIntegr.obj
 0001:000bb7ac       ?FillHereValues@CSetPgIntegr@@IBEXG@Z 004bc7ac f   SetPgIntegr.obj
 0001:000bbab7       ?GetNextPair@SwitchParser@@SAPAUSwitch@@AAPB_W@Z 004bcab7 f i SetPgIntegr.obj
 0001:000bbb15       ?GetNextSwitch@SwitchParser@@SAPAUSwitch@@AAPB_WAAUCmdArg@@@Z 004bcb15 f i SetPgIntegr.obj
 0001:000bbbb7       ?GetPageType@CSetPgIntegr@@UAE?AW4TabHwndIndex@@XZ 004bcbb7 f i SetPgIntegr.obj
 0001:000bbbbb       ?IsIgnored@SwitchParser@@SA_NPAUSwitch@@AAV?$MArray@PAUSwitch@@@@@Z 004bcbbb f i SetPgIntegr.obj
 0001:000bbc25       ?IsIgnored@SwitchParser@@SA_NPAUSwitch@@PAPB_W@Z 004bcc25 f i SetPgIntegr.obj
 0001:000bbc59       ?LoadCommand@SwitchParser@@QAEXPB_W@Z 004bcc59 f i SetPgIntegr.obj
 0001:000bbed7       ?OnInitDialog@CSetPgIntegr@@UAEJPAUHWND__@@_N@Z 004bced7 f   SetPgIntegr.obj
 0001:000bc099       ?PageDlgProc@CSetPgIntegr@@UAEHPAUHWND__@@IIJ@Z 004bd099 f   SetPgIntegr.obj
 0001:000bc239       ?ParseStdSwitches@SwitchParser@@QAEXXZ 004bd239 f i SetPgIntegr.obj
 0001:000bc2e0       ?RegisterShell@CSetPgIntegr@@SAXPB_W0000@Z 004bd2e0 f   SetPgIntegr.obj
 0001:000bc6c2       ?ReleaseVectors@SwitchParser@@QAEXXZ 004bd6c2 f i SetPgIntegr.obj
 0001:000bc703       ?ReloadHereList@CSetPgIntegr@@IAE_NPAH0@Z 004bd703 f   SetPgIntegr.obj
 0001:000bcc71       ?ShellIntegration@CSetPgIntegr@@SAXPAUHWND__@@W4ShellIntegrType@1@_N@Z 004bdc71 f   SetPgIntegr.obj
 0001:000bcf15       ?UnregisterShell@CSetPgIntegr@@SAXPB_W@Z 004bdf15 f   SetPgIntegr.obj
 0001:000bcf71       ?UnregisterShellInvalids@CSetPgIntegr@@SAXXZ 004bdf71 f   SetPgIntegr.obj
 0001:000bd21c       ??0CSetPgKeyboard@@QAE@XZ  004be21c f   SetPgKeyboard.obj
 0001:000bd236       ??_GCSetPgKeyboard@@UAEPAXI@Z 004be236 f i SetPgKeyboard.obj
 0001:000bd236       ??_ECSetPgKeyboard@@UAEPAXI@Z 004be236 f i SetPgKeyboard.obj
 0001:000bd25e       ?GetPageType@CSetPgKeyboard@@UAE?AW4TabHwndIndex@@XZ 004be25e f i SetPgKeyboard.obj
 0001:000bd262       ?OnInitDialog@CSetPgKeyboard@@UAEJPAUHWND__@@_N@Z 004be262 f   SetPgKeyboard.obj
 0001:000bd3b3       ?OnPostLocalize@CSetPgKeyboard@@UAEXPAUHWND__@@@Z 004be3b3 f   SetPgKeyboard.obj
 0001:000bd40f       ??$GetPageObj@VCSetPgKeys@@@CSettings@@QAE_NAAPAVCSetPgKeys@@@Z 004be40f f i SetPgKeys.obj
 0001:000bd43e       ??0CSetPgKeys@@QAE@XZ      004be43e f   SetPgKeys.obj
 0001:000bd478       ??1CSetPgKeys@@UAE@XZ      004be478 f   SetPgKeys.obj
 0001:000bd491       ??_ECSetPgKeys@@UAEPAXI@Z  004be491 f i SetPgKeys.obj
 0001:000bd491       ??_GCSetPgKeys@@UAEPAXI@Z  004be491 f i SetPgKeys.obj
 0001:000bd4b3       ?FillHotKeysList@CSetPgKeys@@QAEXPAUHWND__@@_N@Z 004be4b3 f   SetPgKeys.obj
 0001:000bd9e7       ?GetPageType@CSetPgKeys@@UAE?AW4TabHwndIndex@@XZ 004be9e7 f i SetPgKeys.obj
 0001:000bd9eb       ?HotkeysCompare@CSetPgKeys@@SGHJJJ@Z 004be9eb f   SetPgKeys.obj
 0001:000bdb3b       ?OnButtonClicked@CSetPgKeys@@UAEHPAUHWND__@@0G@Z 004beb3b f   SetPgKeys.obj
 0001:000bdb5c       ?OnComboBox@CSetPgKeys@@UAEHPAUHWND__@@GG@Z 004beb5c f   SetPgKeys.obj
 0001:000bde18       ?OnEditChanged@CSetPgKeys@@UAEJPAUHWND__@@G@Z 004bee18 f   SetPgKeys.obj
 0001:000bdf4c       ?OnHotkeysNotify@CSetPgKeys@@QAEJPAUHWND__@@IJ@Z 004bef4c f   SetPgKeys.obj
 0001:000be488       ?OnInitDialog@CSetPgKeys@@UAEJPAUHWND__@@_N@Z 004bf488 f   SetPgKeys.obj
 0001:000be6ab       ?PageDlgProc@CSetPgKeys@@UAEHPAUHWND__@@IIJ@Z 004bf6ab f   SetPgKeys.obj
 0001:000be768       ?QueryDialogCancel@CSetPgKeys@@UAE_NXZ 004bf768 f   SetPgKeys.obj
 0001:000be7b9       ?ReInitHotkeys@CSetPgKeys@@SAXXZ 004bf7b9 f   SetPgKeys.obj
 0001:000be7ef       ?RefilterHotkeys@CSetPgKeys@@QAEX_N@Z 004bf7ef f   SetPgKeys.obj
 0001:000be816       ?SetHotkeyVkMod@CSetPgKeys@@QAEXPAUConEmuHotKey@@K@Z 004bf816 f   SetPgKeys.obj
 0001:000be848       ??$GetPageObj@VCSetPgMarkCopy@@@CSettings@@QAE_NAAPAVCSetPgMarkCopy@@@Z 004bf848 f i SetPgMarkCopy.obj
 0001:000be877       ??0CSetPgMarkCopy@@QAE@XZ  004bf877 f   SetPgMarkCopy.obj
 0001:000be895       ??_ECSetPgMarkCopy@@UAEPAXI@Z 004bf895 f i SetPgMarkCopy.obj
 0001:000be895       ??_GCSetPgMarkCopy@@UAEPAXI@Z 004bf895 f i SetPgMarkCopy.obj
 0001:000be8bd       ?GetPageType@CSetPgMarkCopy@@UAE?AW4TabHwndIndex@@XZ 004bf8bd f i SetPgMarkCopy.obj
 0001:000be8c1       ?MarkCopyPreviewProc@CSetPgMarkCopy@@KGJPAUHWND__@@IIJ@Z 004bf8c1 f   SetPgMarkCopy.obj
 0001:000beb9c       ?OnComboBox@CSetPgMarkCopy@@UAEHPAUHWND__@@GG@Z 004bfb9c f   SetPgMarkCopy.obj
 0001:000bed37       ?OnEditChanged@CSetPgMarkCopy@@UAEJPAUHWND__@@G@Z 004bfd37 f   SetPgMarkCopy.obj
 0001:000bed88       ?OnInitDialog@CSetPgMarkCopy@@UAEJPAUHWND__@@_N@Z 004bfd88 f   SetPgMarkCopy.obj
 0001:000bf17f       ??0CSetPgMouse@@QAE@XZ     004c017f f   SetPgMouse.obj
 0001:000bf199       ??_GCSetPgMouse@@UAEPAXI@Z 004c0199 f i SetPgMouse.obj
 0001:000bf199       ??_ECSetPgMouse@@UAEPAXI@Z 004c0199 f i SetPgMouse.obj
 0001:000bf1c1       ?GetPageType@CSetPgMouse@@UAE?AW4TabHwndIndex@@XZ 004c01c1 f i SetPgMouse.obj
 0001:000bf1c5       ?OnComboBox@CSetPgMouse@@UAEHPAUHWND__@@GG@Z 004c01c5 f   SetPgMouse.obj
 0001:000bf290       ?OnInitDialog@CSetPgMouse@@UAEJPAUHWND__@@_N@Z 004c0290 f   SetPgMouse.obj
 0001:000bf3e3       ?OnPostLocalize@CSetPgMouse@@UAEXPAUHWND__@@@Z 004c03e3 f   SetPgMouse.obj
 0001:000bf408       ??0CSetPgPaste@@QAE@XZ     004c0408 f   SetPgPaste.obj
 0001:000bf422       ??_ECSetPgPaste@@UAEPAXI@Z 004c0422 f i SetPgPaste.obj
 0001:000bf422       ??_GCSetPgPaste@@UAEPAXI@Z 004c0422 f i SetPgPaste.obj
 0001:000bf44a       ?GetPageType@CSetPgPaste@@UAE?AW4TabHwndIndex@@XZ 004c044a f i SetPgPaste.obj
 0001:000bf44e       ?OnBtn_AutoTrimSingleLine@CSetPgPaste@@SAXPAUHWND__@@GE@Z 004c044e f   SetPgPaste.obj
 0001:000bf465       ?OnBtn_ClipConfirmEnter@CSetPgPaste@@SAXPAUHWND__@@GE@Z 004c0465 f   SetPgPaste.obj
 0001:000bf47c       ?OnBtn_ClipConfirmLimit@CSetPgPaste@@SAXPAUHWND__@@GE@Z 004c047c f   SetPgPaste.obj
 0001:000bf4ee       ?OnBtn_ClipCtrlV@CSetPgPaste@@SAXPAUHWND__@@GE@Z 004c04ee f   SetPgPaste.obj
 0001:000bf543       ?OnBtn_ClipPosixCvt@CSetPgPaste@@SAXPAUHWND__@@GE@Z 004c0543 f   SetPgPaste.obj
 0001:000bf587       ?OnBtn_ClipShiftIns@CSetPgPaste@@SAXPAUHWND__@@GE@Z 004c0587 f   SetPgPaste.obj
 0001:000bf5dc       ?OnEditChanged@CSetPgPaste@@UAEJPAUHWND__@@G@Z 004c05dc f   SetPgPaste.obj
 0001:000bf680       ?OnInitDialog@CSetPgPaste@@UAEJPAUHWND__@@_N@Z 004c0680 f   SetPgPaste.obj
 0001:000bf797       ?OnPostLocalize@CSetPgPaste@@UAEXPAUHWND__@@@Z 004c0797 f   SetPgPaste.obj
 0001:000bf7db       ??0CSetPgQuake@@QAE@XZ     004c07db f   SetPgQuake.obj
 0001:000bf7f5       ??_GCSetPgQuake@@UAEPAXI@Z 004c07f5 f i SetPgQuake.obj
 0001:000bf7f5       ??_ECSetPgQuake@@UAEPAXI@Z 004c07f5 f i SetPgQuake.obj
 0001:000bf81d       ?GetPageType@CSetPgQuake@@UAE?AW4TabHwndIndex@@XZ 004c081d f i SetPgQuake.obj
 0001:000bf821       ?OnEditChanged@CSetPgQuake@@UAEJPAUHWND__@@G@Z 004c0821 f   SetPgQuake.obj
 0001:000bf933       ?OnInitDialog@CSetPgQuake@@UAEJPAUHWND__@@_N@Z 004c0933 f   SetPgQuake.obj
 0001:000bfa47       ??0CSetPgSizePos@@QAE@XZ   004c0a47 f   SetPgSizePos.obj
 0001:000bfa61       ??_GCSetPgSizePos@@UAEPAXI@Z 004c0a61 f i SetPgSizePos.obj
 0001:000bfa61       ??_ECSetPgSizePos@@UAEPAXI@Z 004c0a61 f i SetPgSizePos.obj
 0001:000bfa89       ?EnablePosSizeControls@CSetPgSizePos@@QAEXPAUHWND__@@@Z 004c0a89 f   SetPgSizePos.obj
 0001:000bfb3a       ?FillSizeControls@CSetPgSizePos@@QAEXPAUHWND__@@@Z 004c0b3a f   SetPgSizePos.obj
 0001:000bfbe6       ?GetPageType@CSetPgSizePos@@UAE?AW4TabHwndIndex@@XZ 004c0be6 f i SetPgSizePos.obj
 0001:000bfbea       ?OnComboBox@CSetPgSizePos@@UAEHPAUHWND__@@GG@Z 004c0bea f   SetPgSizePos.obj
 0001:000bfc42       ?OnEditChanged@CSetPgSizePos@@UAEJPAUHWND__@@G@Z 004c0c42 f   SetPgSizePos.obj
 0001:000bfe9a       ?OnInitDialog@CSetPgSizePos@@UAEJPAUHWND__@@_N@Z 004c0e9a f   SetPgSizePos.obj
 0001:000c01cc       ?OnPostLocalize@CSetPgSizePos@@UAEXPAUHWND__@@@Z 004c11cc f   SetPgSizePos.obj
 0001:000c026c       ??0CSetPgStartup@@QAE@XZ   004c126c f   SetPgStartup.obj
 0001:000c0286       ??_GCSetPgStartup@@UAEPAXI@Z 004c1286 f i SetPgStartup.obj
 0001:000c0286       ??_ECSetPgStartup@@UAEPAXI@Z 004c1286 f i SetPgStartup.obj
 0001:000c02ae       ?GetPageType@CSetPgStartup@@UAE?AW4TabHwndIndex@@XZ 004c12ae f i SetPgStartup.obj
 0001:000c02b2       ?OnInitDialog@CSetPgStartup@@UAEJPAUHWND__@@_N@Z 004c12b2 f   SetPgStartup.obj
 0001:000c02cf       ?PageDlgProc@CSetPgStartup@@UAEHPAUHWND__@@IIJ@Z 004c12cf f   SetPgStartup.obj
 0001:000c09db       ??0CSetPgStatus@@QAE@XZ    004c19db f   SetPgStatus.obj
 0001:000c09f5       ??_GCSetPgStatus@@UAEPAXI@Z 004c19f5 f i SetPgStatus.obj
 0001:000c09f5       ??_ECSetPgStatus@@UAEPAXI@Z 004c19f5 f i SetPgStatus.obj
 0001:000c0a1d       ?GetPageType@CSetPgStatus@@UAE?AW4TabHwndIndex@@XZ 004c1a1d f i SetPgStatus.obj
 0001:000c0a21       ?OnComboBox@CSetPgStatus@@UAEHPAUHWND__@@GG@Z 004c1a21 f   SetPgStatus.obj
 0001:000c0b59       ?OnEditChanged@CSetPgStatus@@UAEJPAUHWND__@@G@Z 004c1b59 f   SetPgStatus.obj
 0001:000c0bca       ?OnInitDialog@CSetPgStatus@@UAEJPAUHWND__@@_N@Z 004c1bca f   SetPgStatus.obj
 0001:000c0d3c       ?UpdateStatusItems@CSetPgStatus@@QAEXPAUHWND__@@@Z 004c1d3c f   SetPgStatus.obj
 0001:000c0e7d       ??0CSetPgTabs@@QAE@XZ      004c1e7d f   SetPgTabs.obj
 0001:000c0e97       ??_ECSetPgTabs@@UAEPAXI@Z  004c1e97 f i SetPgTabs.obj
 0001:000c0e97       ??_GCSetPgTabs@@UAEPAXI@Z  004c1e97 f i SetPgTabs.obj
 0001:000c0ebf       ?GetPageType@CSetPgTabs@@UAE?AW4TabHwndIndex@@XZ 004c1ebf f i SetPgTabs.obj
 0001:000c0ec3       ?OnComboBox@CSetPgTabs@@UAEHPAUHWND__@@GG@Z 004c1ec3 f   SetPgTabs.obj
 0001:000c1097       ?OnEditChanged@CSetPgTabs@@UAEJPAUHWND__@@G@Z 004c2097 f   SetPgTabs.obj
 0001:000c1294       ?OnInitDialog@CSetPgTabs@@UAEJPAUHWND__@@_N@Z 004c2294 f   SetPgTabs.obj
 0001:000c153f       ??0CSetPgTaskbar@@QAE@XZ   004c253f f   SetPgTaskbar.obj
 0001:000c1559       ??_ECSetPgTaskbar@@UAEPAXI@Z 004c2559 f i SetPgTaskbar.obj
 0001:000c1559       ??_GCSetPgTaskbar@@UAEPAXI@Z 004c2559 f i SetPgTaskbar.obj
 0001:000c1581       ?GetPageType@CSetPgTaskbar@@UAE?AW4TabHwndIndex@@XZ 004c2581 f i SetPgTaskbar.obj
 0001:000c1585       ?OnInitDialog@CSetPgTaskbar@@UAEJPAUHWND__@@_N@Z 004c2585 f   SetPgTaskbar.obj
 0001:000c1876       ??0CSetPgTasks@@QAE@XZ     004c2876 f   SetPgTasks.obj
 0001:000c1896       ??_GCSetPgTasks@@UAEPAXI@Z 004c2896 f i SetPgTasks.obj
 0001:000c1896       ??_ECSetPgTasks@@UAEPAXI@Z 004c2896 f i SetPgTasks.obj
 0001:000c18be       ?GetPageType@CSetPgTasks@@UAE?AW4TabHwndIndex@@XZ 004c28be f i SetPgTasks.obj
 0001:000c18c2       ?OnComboBox@CSetPgTasks@@UAEHPAUHWND__@@GG@Z 004c28c2 f   SetPgTasks.obj
 0001:000c1b3e       ?OnEditChanged@CSetPgTasks@@UAEJPAUHWND__@@G@Z 004c2b3e f   SetPgTasks.obj
 0001:000c1c93       ?OnInitDialog@CSetPgTasks@@UAEJPAUHWND__@@_N@Z 004c2c93 f   SetPgTasks.obj
 0001:000c1e91       ?SelectNextItem@CSetPgTasks@@UAE_N_N0@Z 004c2e91 f   SetPgTasks.obj
 0001:000c1f00       ??0CSetPgTransparent@@QAE@XZ 004c2f00 f   SetPgTransparent.obj
 0001:000c1f1a       ??_ECSetPgTransparent@@UAEPAXI@Z 004c2f1a f i SetPgTransparent.obj
 0001:000c1f1a       ??_GCSetPgTransparent@@UAEPAXI@Z 004c2f1a f i SetPgTransparent.obj
 0001:000c1f42       ?GetPageType@CSetPgTransparent@@UAE?AW4TabHwndIndex@@XZ 004c2f42 f i SetPgTransparent.obj
 0001:000c1f46       ?OnInitDialog@CSetPgTransparent@@UAEJPAUHWND__@@_N@Z 004c2f46 f   SetPgTransparent.obj
 0001:000c20a6       ??0CSetPgUpdate@@QAE@XZ    004c30a6 f   SetPgUpdate.obj
 0001:000c20c0       ??_GCSetPgUpdate@@UAEPAXI@Z 004c30c0 f i SetPgUpdate.obj
 0001:000c20c0       ??_ECSetPgUpdate@@UAEPAXI@Z 004c30c0 f i SetPgUpdate.obj
 0001:000c20e8       ?GetPageType@CSetPgUpdate@@UAE?AW4TabHwndIndex@@XZ 004c30e8 f i SetPgUpdate.obj
 0001:000c20ec       ?OnEditChanged@CSetPgUpdate@@UAEJPAUHWND__@@G@Z 004c30ec f   SetPgUpdate.obj
 0001:000c21d4       ?OnInitDialog@CSetPgUpdate@@UAEJPAUHWND__@@_N@Z 004c31d4 f   SetPgUpdate.obj
 0001:000c241c       ??0CSetPgViews@@QAE@XZ     004c341c f   SetPgViews.obj
 0001:000c2436       ??_GCSetPgViews@@UAEPAXI@Z 004c3436 f i SetPgViews.obj
 0001:000c2436       ??_ECSetPgViews@@UAEPAXI@Z 004c3436 f i SetPgViews.obj
 0001:000c245e       ?GetPageType@CSetPgViews@@UAE?AW4TabHwndIndex@@XZ 004c345e f i SetPgViews.obj
 0001:000c2462       ?OnComboBox@CSetPgViews@@UAEHPAUHWND__@@GG@Z 004c3462 f   SetPgViews.obj
 0001:000c2682       ?OnEditChanged@CSetPgViews@@UAEJPAUHWND__@@G@Z 004c3682 f   SetPgViews.obj
 0001:000c2866       ?OnInitDialog@CSetPgViews@@UAEJPAUHWND__@@_N@Z 004c3866 f   SetPgViews.obj
 0001:000c2c99       ??$SafeDelete@V?$xml_document@D@rapidxml@@@@YAXAAPAV?$xml_document@D@rapidxml@@@Z 004c3c99 f i SettingsStorage.obj
 0001:000c2cbe       ??$_Emplace_reallocate@D@?$vector@DV?$MArrayAllocator@D@@@std@@QAEPADQAD$$QAD@Z 004c3cbe f i SettingsStorage.obj
 0001:000c2e4a       ??$compare@D@internal@rapidxml@@YA_NPBDI0I_N@Z 004c3e4a f i SettingsStorage.obj
 0001:000c3263       ??$emplace_back@D@?$vector@DV?$MArrayAllocator@D@@@std@@QAE?A_T$$QAD@Z 004c4263 f i SettingsStorage.obj
 0001:000c32c9       ??$find_char@D$0CC@@internal@rapidxml@@YA_NPBD0@Z 004c42c9 f i SettingsStorage.obj
 0001:000c32e5       ??$insert_coded_character@$0GA@@?$xml_document@D@rapidxml@@CAXAAPADK@Z 004c42e5 f i SettingsStorage.obj
 0001:000c33b9       ??$parse@$0GA@@?$xml_document@D@rapidxml@@QAEXPAD@Z 004c43b9 f i SettingsStorage.obj
 0001:000c3430       ??$parse_and_append_data@$0GA@@?$xml_document@D@rapidxml@@AAEDPAV?$xml_node@D@1@AAPADPAD@Z 004c4430 f i SettingsStorage.obj
 0001:000c34a9       ??$parse_bom@$0GA@@?$xml_document@D@rapidxml@@AAEXAAPAD@Z 004c44a9 f i SettingsStorage.obj
 0001:000c34cb       ??$parse_cdata@$0GA@@?$xml_document@D@rapidxml@@AAEPAV?$xml_node@D@1@AAPAD@Z 004c44cb f i SettingsStorage.obj
 0001:000c354e       ??$parse_comment@$0GA@@?$xml_document@D@rapidxml@@AAEPAV?$xml_node@D@1@AAPAD@Z 004c454e f i SettingsStorage.obj
 0001:000c35d3       ??$parse_doctype@$0GA@@?$xml_document@D@rapidxml@@AAEPAV?$xml_node@D@1@AAPAD@Z 004c45d3 f i SettingsStorage.obj
 0001:000c363c       ??$parse_element@$0GA@@?$xml_document@D@rapidxml@@AAEPAV?$xml_node@D@1@AAPAD@Z 004c463c f i SettingsStorage.obj
 0001:000c3704       ??$parse_node@$0GA@@?$xml_document@D@rapidxml@@AAEPAV?$xml_node@D@1@AAPAD@Z 004c4704 f i SettingsStorage.obj
 0001:000c3852       ??$parse_node_attributes@$0GA@@?$xml_document@D@rapidxml@@AAEXAAPADPAV?$xml_node@D@1@@Z 004c4852 f i SettingsStorage.obj
 0001:000c3987       ??$parse_node_contents@$0GA@@?$xml_document@D@rapidxml@@AAEXAAPADPAV?$xml_node@D@1@@Z 004c4987 f i SettingsStorage.obj
 0001:000c3a24       ??$parse_pi@$0GA@@?$xml_document@D@rapidxml@@AAEPAV?$xml_node@D@1@AAPAD@Z 004c4a24 f i SettingsStorage.obj
 0001:000c3a70       ??$parse_xml_declaration@$0GA@@?$xml_document@D@rapidxml@@AAEPAV?$xml_node@D@1@AAPAD@Z 004c4a70 f i SettingsStorage.obj
 0001:000c4502       ??$skip@U?$attribute_value_pure_pred@$0CC@@?$xml_document@D@rapidxml@@$0GA@@?$xml_document@D@rapidxml@@CAXAAPAD@Z 004c5502 f i SettingsStorage.obj
 0001:000c451d       ??$skip@U?$attribute_value_pure_pred@$0CH@@?$xml_document@D@rapidxml@@$0GA@@?$xml_document@D@rapidxml@@CAXAAPAD@Z 004c551d f i SettingsStorage.obj
 0001:000c4538       ??$skip@Uattribute_name_pred@?$xml_document@D@rapidxml@@$0GA@@?$xml_document@D@rapidxml@@CAXAAPAD@Z 004c5538 f i SettingsStorage.obj
 0001:000c4553       ??$skip@Unode_name_pred@?$xml_document@D@rapidxml@@$0GA@@?$xml_document@D@rapidxml@@CAXAAPAD@Z 004c5553 f i SettingsStorage.obj
 0001:000c456e       ??$skip@Utext_pure_no_ws_pred@?$xml_document@D@rapidxml@@$0GA@@?$xml_document@D@rapidxml@@CAXAAPAD@Z 004c556e f i SettingsStorage.obj
 0001:000c4589       ??$skip@Uwhitespace_pred@?$xml_document@D@rapidxml@@$0GA@@?$xml_document@D@rapidxml@@CAXAAPAD@Z 004c5589 f i SettingsStorage.obj
 0001:000c45a4       ??$skip_and_expand_character_refs@U?$attribute_value_pred@$0CC@@?$xml_document@D@rapidxml@@U?$attribute_value_pure_pred@$0CC@@23@$0GA@@?$xml_document@D@rapidxml@@CAPADAAPAD@Z 004c55a4 f i SettingsStorage.obj
 0001:000c4738       ??$skip_and_expand_character_refs@U?$attribute_value_pred@$0CH@@?$xml_document@D@rapidxml@@U?$attribute_value_pure_pred@$0CH@@23@$0GA@@?$xml_document@D@rapidxml@@CAPADAAPAD@Z 004c5738 f i SettingsStorage.obj
 0001:000c48cc       ??$skip_and_expand_character_refs@Utext_pred@?$xml_document@D@rapidxml@@Utext_pure_no_ws_pred@23@$0GA@@?$xml_document@D@rapidxml@@CAPADAAPAD@Z 004c58cc f i SettingsStorage.obj
 0001:000c4a60       ??$sprintf_c@$03@@YAHAAY03DPBDZZ 004c5a60 f i SettingsStorage.obj
 0001:000c4a76       ??0?$xml_document@D@rapidxml@@QAE@XZ 004c5a76 f i SettingsStorage.obj
 0001:000c4b8a       ??0SettingsBase@@IAE@ABUSettingsStorage@@@Z 004c5b8a f   SettingsStorage.obj
 0001:000c4bb4       ??0SettingsBase@@IAE@XZ    004c5bb4 f   SettingsStorage.obj
 0001:000c4bd1       ??0SettingsINI@@QAE@ABUSettingsStorage@@@Z 004c5bd1 f   SettingsStorage.obj
 0001:000c4bff       ??0SettingsRegistry@@QAE@XZ 004c5bff f   SettingsStorage.obj
 0001:000c4c3e       ??0SettingsXML@@QAE@ABUSettingsStorage@@@Z 004c5c3e f   SettingsStorage.obj
 0001:000c4c8c       ??0parse_error@rapidxml@@QAE@ABV01@@Z 004c5c8c f i SettingsStorage.obj
 0001:000c4cb6       ??0parse_error@rapidxml@@QAE@PBDPAX@Z 004c5cb6 f i SettingsStorage.obj
 0001:000c4cfb       ??1SettingsBase@@UAE@XZ    004c5cfb f   SettingsStorage.obj
 0001:000c4d02       ??1SettingsINI@@UAE@XZ     004c5d02 f   SettingsStorage.obj
 0001:000c4d4b       ??1SettingsRegistry@@UAE@XZ 004c5d4b f   SettingsStorage.obj
 0001:000c4d61       ??1SettingsXML@@UAE@XZ     004c5d61 f   SettingsStorage.obj
 0001:000c4ded       ??_G?$xml_document@D@rapidxml@@QAEPAXI@Z 004c5ded f i SettingsStorage.obj
 0001:000c4e75       ??_ESettingsBase@@UAEPAXI@Z 004c5e75 f i SettingsStorage.obj
 0001:000c4e75       ??_GSettingsBase@@UAEPAXI@Z 004c5e75 f i SettingsStorage.obj
 0001:000c4e98       ??_GSettingsINI@@UAEPAXI@Z 004c5e98 f i SettingsStorage.obj
 0001:000c4e98       ??_ESettingsINI@@UAEPAXI@Z 004c5e98 f i SettingsStorage.obj
 0001:000c4eba       ??_GSettingsRegistry@@UAEPAXI@Z 004c5eba f i SettingsStorage.obj
 0001:000c4eba       ??_ESettingsRegistry@@UAEPAXI@Z 004c5eba f i SettingsStorage.obj
 0001:000c4edc       ??_ESettingsXML@@UAEPAXI@Z 004c5edc f i SettingsStorage.obj
 0001:000c4edc       ??_GSettingsXML@@UAEPAXI@Z 004c5edc f i SettingsStorage.obj
 0001:000c4efe       ??_Esystem_error@std@@UAEPAXI@Z 004c5efe f i libcpmt:thread0.obj
 0001:000c4efe       ??_Gsystem_error@std@@UAEPAXI@Z 004c5efe f i libcpmt:thread0.obj
 0001:000c4efe       ??_G_System_error@std@@UAEPAXI@Z 004c5efe f i libcpmt:thread0.obj
 0001:000c4efe       ??_Eparse_error@rapidxml@@UAEPAXI@Z 004c5efe f i SettingsStorage.obj
 0001:000c4efe       ??_E_System_error@std@@UAEPAXI@Z 004c5efe f i libcpmt:thread0.obj
 0001:000c4efe       ??_Gparse_error@rapidxml@@UAEPAXI@Z 004c5efe f i SettingsStorage.obj
 0001:000c4f2b       ?ClearChildrenTail@SettingsXML@@IAEXPAV?$xml_node@D@rapidxml@@0PBD@Z 004c5f2b f   SettingsStorage.obj
 0001:000c4f64       ?CloseKey@SettingsINI@@UAEXXZ 004c5f64 f   SettingsStorage.obj
 0001:000c4f7c       ?CloseKey@SettingsRegistry@@UAEXXZ 004c5f7c f   SettingsStorage.obj
 0001:000c4f94       ?CloseKey@SettingsXML@@UAEXXZ 004c5f94 f   SettingsStorage.obj
 0001:000c4fb5       ?CloseStorage@SettingsXML@@IAEXXZ 004c5fb5 f   SettingsStorage.obj
 0001:000c5220       ?ConvertData@SettingsXML@@SA_NPBD0PAEK@Z 004c6220 f   SettingsStorage.obj
 0001:000c544a       ?Delete@SettingsINI@@UAEXPB_W@Z 004c644a f   SettingsStorage.obj
 0001:000c5483       ?Delete@SettingsRegistry@@UAEXPB_W@Z 004c6483 f   SettingsStorage.obj
 0001:000c5496       ?Delete@SettingsXML@@UAEXPB_W@Z 004c6496 f   SettingsStorage.obj
 0001:000c54aa       ?DeleteImpl@SettingsXML@@IAEXPB_W0@Z 004c64aa f   SettingsStorage.obj
 0001:000c551d       ?DeleteKey@SettingsRegistry@@UAEXPB_W@Z 004c651d f   SettingsStorage.obj
 0001:000c5530       ?DeleteKey@SettingsXML@@UAEXPB_W@Z 004c6530 f   SettingsStorage.obj
 0001:000c5544       ?FindItem@SettingsXML@@IAEPAV?$xml_node@D@rapidxml@@PAV23@PB_W1_N@Z 004c6544 f   SettingsStorage.obj
 0001:000c5696       ?GetAttr@SettingsXML@@KAPBDPAV?$xml_node@D@rapidxml@@PBD@Z 004c6696 f   SettingsStorage.obj
 0001:000c56cb       ?Load@SettingsBase@@QAE_NPB_WAAD@Z 004c66cb f   SettingsStorage.obj
 0001:000c56cb       ?Load@SettingsBase@@QAE_NPB_WAAE@Z 004c66cb f   SettingsStorage.obj
 0001:000c56df       ?Load@SettingsBase@@QAE_NPB_WAAJ@Z 004c66df f   SettingsStorage.obj
 0001:000c56df       ?Load@SettingsBase@@QAE_NPB_WAAI@Z 004c66df f   SettingsStorage.obj
 0001:000c56df       ?Load@SettingsBase@@QAE_NPB_WAAH@Z 004c66df f   SettingsStorage.obj
 0001:000c56df       ?Load@SettingsBase@@QAE_NPB_WAAK@Z 004c66df f   SettingsStorage.obj
 0001:000c56f3       ?Load@SettingsBase@@QAE_NPB_WAAUtagRECT@@@Z 004c66f3 f   SettingsStorage.obj
 0001:000c57ee       ?Load@SettingsBase@@QAE_NPB_WAA_N@Z 004c67ee f   SettingsStorage.obj
 0001:000c5818       ?Load@SettingsINI@@UAE_NPB_WPAEK@Z 004c6818 f   SettingsStorage.obj
 0001:000c5818       ?Load@SettingsINI@@UAE_NPB_WPA_WH@Z 004c6818 f   SettingsStorage.obj
 0001:000c581d       ?Load@SettingsRegistry@@UAE_NPB_WPAEK@Z 004c681d f   SettingsStorage.obj
 0001:000c588c       ?Load@SettingsRegistry@@UAE_NPB_WPAPA_W@Z 004c688c f   SettingsStorage.obj
 0001:000c591f       ?Load@SettingsRegistry@@UAE_NPB_WPA_WH@Z 004c691f f   SettingsStorage.obj
 0001:000c598e       ?Load@SettingsXML@@UAE_NPB_WPAEK@Z 004c698e f   SettingsStorage.obj
 0001:000c5a43       ?Load@SettingsXML@@UAE_NPB_WPAPA_W@Z 004c6a43 f   SettingsStorage.obj
 0001:000c5ca3       ?Load@SettingsXML@@UAE_NPB_WPA_WH@Z 004c6ca3 f   SettingsStorage.obj
 0001:000c5d21       ?OpenKey@SettingsINI@@UAE_NPB_WIH@Z 004c6d21 f   SettingsStorage.obj
 0001:000c5ef2       ?OpenKey@SettingsRegistry@@QAE_NPAUHKEY__@@PB_WIH@Z 004c6ef2 f   SettingsStorage.obj
 0001:000c5f3b       ?OpenKey@SettingsRegistry@@UAE_NPB_WIH@Z 004c6f3b f   SettingsStorage.obj
 0001:000c5f54       ?OpenKey@SettingsXML@@UAE_NPB_WIH@Z 004c6f54 f   SettingsStorage.obj
 0001:000c6275       ?OpenStorage@SettingsXML@@IAE_NIAAUCEStr@@@Z 004c7275 f   SettingsStorage.obj
 0001:000c65bf       ?Save@SettingsBase@@QAEXPB_W0@Z 004c75bf f   SettingsStorage.obj
 0001:000c65fe       ?Save@SettingsBase@@QAEXPB_WAB_N@Z 004c75fe f   SettingsStorage.obj
 0001:000c65fe       ?Save@SettingsBase@@QAEXPB_WABE@Z 004c75fe f   SettingsStorage.obj
 0001:000c65fe       ?Save@SettingsBase@@QAEXPB_WABD@Z 004c75fe f   SettingsStorage.obj
 0001:000c661d       ?Save@SettingsBase@@QAEXPB_WABH@Z 004c761d f   SettingsStorage.obj
 0001:000c661d       ?Save@SettingsBase@@QAEXPB_WABJ@Z 004c761d f   SettingsStorage.obj
 0001:000c6636       ?Save@SettingsBase@@QAEXPB_WABI@Z 004c7636 f   SettingsStorage.obj
 0001:000c664f       ?Save@SettingsBase@@QAEXPB_WABK@Z 004c764f f   SettingsStorage.obj
 0001:000c6665       ?Save@SettingsBase@@QAEXPB_WABUtagRECT@@@Z 004c7665 f   SettingsStorage.obj
 0001:000c66c0       ?Save@SettingsINI@@UAEXPB_WPBEKK@Z 004c76c0 f   SettingsStorage.obj
 0001:000c66c3       ?Save@SettingsRegistry@@UAEXPB_WPBEKK@Z 004c76c3 f   SettingsStorage.obj
 0001:000c66f3       ?Save@SettingsXML@@UAEXPB_WPBEKK@Z 004c76f3 f   SettingsStorage.obj
 0001:000c6ae9       ?SaveMSZ@SettingsBase@@QAEXPB_W0K@Z 004c7ae9 f   SettingsStorage.obj
 0001:000c6b15       ?SetAttr@SettingsXML@@IAE_NPAV?$xml_node@D@rapidxml@@PBD1@Z 004c7b15 f   SettingsStorage.obj
 0001:000c6bcb       ?SetAttr@SettingsXML@@IAE_NPAV?$xml_node@D@rapidxml@@PBDPB_W@Z 004c7bcb f   SettingsStorage.obj
 0001:000c6bfd       ?SetMultiLine@SettingsXML@@IAE_NPAV?$xml_node@D@rapidxml@@PB_WJ@Z 004c7bfd f   SettingsStorage.obj
 0001:000c6d0c       ?TouchKey@SettingsXML@@IAEXPAV?$xml_node@D@rapidxml@@@Z 004c7d0c f   SettingsStorage.obj
 0001:000c6e68       ?_Calculate_growth@?$vector@DV?$MArrayAllocator@D@@@std@@ABEII@Z 004c7e68 f i SettingsStorage.obj
 0001:000c6e91       ?_Change_array@?$vector@DV?$MArrayAllocator@D@@@std@@AAEXQADII@Z 004c7e91 f i SettingsStorage.obj
 0001:000c6ebe       ?_Reallocate_exactly@?$vector@DV?$MArrayAllocator@D@@@std@@AAEXI@Z 004c7ebe f i SettingsStorage.obj
 0001:000c6ef9       ?allocate@?$MArrayAllocator@D@@QAEPADI@Z 004c7ef9 f i SettingsStorage.obj
 0001:000c6f27       ?allocate_aligned@?$memory_pool@D@rapidxml@@AAEPAXI@Z 004c7f27 f i SettingsStorage.obj
 0001:000c6f8d       ?allocate_attribute@?$memory_pool@D@rapidxml@@QAEPAV?$xml_attribute@D@2@PBD0II@Z 004c7f8d f i SettingsStorage.obj
 0001:000c6fe6       ?allocate_node@?$memory_pool@D@rapidxml@@QAEPAV?$xml_node@D@2@W4node_type@2@PBD1II@Z 004c7fe6 f i SettingsStorage.obj
 0001:000c704b       ?allocate_raw@?$memory_pool@D@rapidxml@@AAEPADI@Z 004c804b f i SettingsStorage.obj
 0001:000c7069       ?allocate_string@?$memory_pool@D@rapidxml@@QAEPADPBDI@Z 004c8069 f i SettingsStorage.obj
 0001:000c70af       ?append_attribute@?$xml_node@D@rapidxml@@QAEXPAV?$xml_attribute@D@2@@Z 004c80af f i SettingsStorage.obj
 0001:000c70de       ?append_node@?$xml_node@D@rapidxml@@QAEXPAV12@@Z 004c80de f i SettingsStorage.obj
 0001:000c710d       ?clear@?$memory_pool@D@rapidxml@@QAEXXZ 004c810d f i SettingsStorage.obj
 0001:000c715d       ?first_attribute@?$xml_node@D@rapidxml@@QBEPAV?$xml_attribute@D@2@PBDI_N@Z 004c815d f i SettingsStorage.obj
 0001:000c71c3       ?first_node@?$xml_node@D@rapidxml@@QBEPAV12@PBDI_N@Z 004c81c3 f i SettingsStorage.obj
 0001:000c7229       ?insert_node@?$xml_node@D@rapidxml@@QAEXPAV12@0@Z 004c8229 f i SettingsStorage.obj
 0001:000c726c       ?name@?$xml_base@D@rapidxml@@QAEXPBD@Z 004c826c f i SettingsStorage.obj
 0001:000c728a       ?next_sibling@?$xml_node@D@rapidxml@@QBEPAV12@PBDI_N@Z 004c828a f i SettingsStorage.obj
 0001:000c72f0       ?prepend_node@?$xml_node@D@rapidxml@@QAEXPAV12@@Z 004c82f0 f i SettingsStorage.obj
 0001:000c731d       ?remove_all_attributes@?$xml_node@D@rapidxml@@QAEXXZ 004c831d f i SettingsStorage.obj
 0001:000c7331       ?remove_all_nodes@?$xml_node@D@rapidxml@@QAEXXZ 004c8331 f i SettingsStorage.obj
 0001:000c7345       ?remove_attribute@?$xml_node@D@rapidxml@@QAEXPAV?$xml_attribute@D@2@@Z 004c8345 f i SettingsStorage.obj
 0001:000c737d       ?remove_first_attribute@?$xml_node@D@rapidxml@@QAEXXZ 004c837d f i SettingsStorage.obj
 0001:000c739c       ?remove_first_node@?$xml_node@D@rapidxml@@QAEXXZ 004c839c f i SettingsStorage.obj
 0001:000c73bb       ?remove_last_attribute@?$xml_node@D@rapidxml@@QAEXXZ 004c83bb f i SettingsStorage.obj
 0001:000c73da       ?remove_last_node@?$xml_node@D@rapidxml@@QAEXXZ 004c83da f i SettingsStorage.obj
 0001:000c73f9       ?remove_node@?$xml_node@D@rapidxml@@QAEXPAV12@@Z 004c83f9 f i SettingsStorage.obj
 0001:000c7431       ?utf2wcs@SettingsXML@@KAPB_WPBDAAUCEStr@@@Z 004c8431 f   SettingsStorage.obj
 0001:000c7499       ?value@?$xml_base@D@rapidxml@@QAEXPBD@Z 004c8499 f i SettingsStorage.obj
 0001:000c74b8       ?wcs2utf@SettingsXML@@IBEPBDPB_W@Z 004c84b8 f   SettingsStorage.obj
 0001:000c7528       ?wcs2utf@SettingsXML@@KAPBDPB_WAAUCEStrA@@@Z 004c8528 f   SettingsStorage.obj
 0001:000c7592       ?what@parse_error@rapidxml@@UBEPBDXZ 004c8592 f i SettingsStorage.obj
 0001:000c7596       ??0<unnamed-type-m_size>@SizeInfo@@QAE@XZ 004c8596 f i SizeInfo.obj
 0001:000c75be       ??0?$MHandleBase@PAUHRGN__@@@@QAE@$$QAV0@@Z 004c85be f i SizeInfo.obj
 0001:000c75ea       ??0SizeInfo@@QAE@ABV0@@Z   004c85ea f   SizeInfo.obj
 0001:000c7631       ??0SizeInfo@@QAE@PAVCConEmuMain@@@Z 004c8631 f   SizeInfo.obj
 0001:000c7673       ??1SizeInfo@@UAE@XZ        004c8673 f   SizeInfo.obj
 0001:000c7681       ??4?$function@$$A6AXPAX@Z@std@@QAEAAV01@$$QAV01@@Z 004c8681 f i Update.obj
 0001:000c7681       ??4?$function@$$A6AXPAUHRGN__@@@Z@std@@QAEAAV01@$$QAV01@@Z 004c8681 f i SizeInfo.obj
 0001:000c76a2       ??_ESizeInfo@@UAEPAXI@Z    004c86a2 f i SizeInfo.obj
 0001:000c76a2       ??_GSizeInfo@@UAEPAXI@Z    004c86a2 f i SizeInfo.obj
 0001:000c76c7       ?ApiClose@MRgn@@SAXPAUHRGN__@@@Z 004c86c7 f i SizeInfo.obj
 0001:000c76df       ?ClientRect@SizeInfo@@QAE?AUtagRECT@@XZ 004c86df f   SizeInfo.obj
 0001:000c7700       ?CreateSelfFrameRgn@SizeInfo@@QAE?AVMRgn@@XZ 004c8700 f   SizeInfo.obj
 0001:000c782c       ?DoCalculate@SizeInfo@@IAEXXZ 004c882c f   SizeInfo.obj
 0001:000c7c69       ?FrameMargins@SizeInfo@@QAE?AUtagRECT@@XZ 004c8c69 f   SizeInfo.obj
 0001:000c7c87       ?GetDefaultTabbarHeight@SizeInfo@@QBEHXZ 004c8c87 f   SizeInfo.obj
 0001:000c7d16       ?GetRectState@SizeInfo@@QBEABUWindowRectangles@1@XZ 004c8d16 f   SizeInfo.obj
 0001:000c7d1a       ?IsRectMinimized@SizeInfo@@SA_NABUtagRECT@@@Z 004c8d1a f   SizeInfo.obj
 0001:000c7d45       ?IsRectMinimized@SizeInfo@@SA_NHH@Z 004c8d45 f   SizeInfo.obj
 0001:000c7d5f       ?LogRequest@SizeInfo@@IBEXABUtagRECT@@PB_W@Z 004c8d5f f   SizeInfo.obj
 0001:000c7df0       ?LogRequest@SizeInfo@@IBEXHPB_W@Z 004c8df0 f   SizeInfo.obj
 0001:000c7e45       ?LogRequest@SizeInfo@@IBEXPB_W0@Z 004c8e45 f   SizeInfo.obj
 0001:000c7ebf       ?RealClientRect@SizeInfo@@QAE?AUtagRECT@@XZ 004c8ebf f   SizeInfo.obj
 0001:000c7edd       ?RebarRect@SizeInfo@@QAE?AUtagRECT@@XZ 004c8edd f   SizeInfo.obj
 0001:000c7efe       ?RequestDpi@SizeInfo@@QAEXABUDpiValue@@@Z 004c8efe f   SizeInfo.obj
 0001:000c7f54       ?RequestPos@SizeInfo@@QAEXHH@Z 004c8f54 f   SizeInfo.obj
 0001:000c7fd5       ?RequestRecalc@SizeInfo@@QAEXXZ 004c8fd5 f   SizeInfo.obj
 0001:000c7fda       ?RequestRect@SizeInfo@@QAEXABUtagRECT@@@Z 004c8fda f   SizeInfo.obj
 0001:000c7fee       ?RequestRectInt@SizeInfo@@IAEXABUtagRECT@@PB_W@Z 004c8fee f   SizeInfo.obj
 0001:000c8238       ?RequestSize@SizeInfo@@QAEXHH@Z 004c9238 f   SizeInfo.obj
 0001:000c828e       ?StatusRect@SizeInfo@@QAE?AUtagRECT@@XZ 004c928e f   SizeInfo.obj
 0001:000c82af       ?WindowRect@SizeInfo@@QAE?AUtagRECT@@XZ 004c92af f   SizeInfo.obj
 0001:000c82cd       ?WorkspaceRect@SizeInfo@@QAE?AUtagRECT@@XZ 004c92cd f   SizeInfo.obj
 0001:000c82ee       ?_Copy@?$_Func_impl_no_alloc@P6AXPAUHRGN__@@@ZXPAU1@@std@@EBEPAV?$_Func_base@XPAUHRGN__@@@2@PAX@Z 004c92ee f i SizeInfo.obj
 0001:000c82ee       ?_Move@?$_Func_impl_no_alloc@P6AXPAUHRGN__@@@ZXPAU1@@std@@EAEPAV?$_Func_base@XPAUHRGN__@@@2@PAX@Z 004c92ee f i SizeInfo.obj
 0001:000c8304       ?_Target_type@?$_Func_impl_no_alloc@P6AXPAUHRGN__@@@ZXPAU1@@std@@EBEABVtype_info@@XZ 004c9304 f i SizeInfo.obj
 0001:000c830a       ?isCalculated@SizeInfo@@QBE_NXZ 004c930a f   SizeInfo.obj
 0001:000c830e       ?Transparent_IsMenuChecked@CStatus@@SAHHPAH@Z 004c930e f   Status.obj
 0001:000c83ae       ?Zoom_IsMenuChecked@CStatus@@SAHHPAH@Z 004c93ae f   Status.obj
 0001:000c83e9       ?TermMode_IsMenuChecked@CStatus@@SAHHPAH@Z 004c93e9 f   Status.obj
 0001:000c846f       ??0CStatus@@QAE@PAVCConEmuMain@@@Z 004c946f f   Status.obj
 0001:000c8695       ??1CStatus@@UAE@XZ         004c9695 f   Status.obj
 0001:000c86cf       ??_ECStatus@@UAEPAXI@Z     004c96cf f i Status.obj
 0001:000c86cf       ??_GCStatus@@UAEPAXI@Z     004c96cf f i Status.obj
 0001:000c86f4       ?CreateStatusMenu@CStatus@@IAEPAUHMENU__@@PAUStatusMenuOptions@1@I@Z 004c96f4 f   Status.obj
 0001:000c87c9       ?GetAllStatusCols@CStatus@@SAIPAPAUStatusColInfo@@@Z 004c97c9 f   Status.obj
 0001:000c87de       ?GetSettingName@CStatus@@QAEPB_WW4CEStatusItems@@@Z 004c97de f   Status.obj
 0001:000c8805       ?GetStatusBarClientRect@CStatus@@QAE_NAAUtagRECT@@@Z 004c9805 f   Status.obj
 0001:000c8859       ?GetStatusBarItemRect@CStatus@@QAE_NW4CEStatusItems@@PAUtagRECT@@@Z 004c9859 f   Status.obj
 0001:000c88bc       ?GetStatusMenuItem@CStatus@@IAEPAUStatusMenuOptions@1@GPAU21@I@Z 004c98bc f   Status.obj
 0001:000c88f2       ?InvalidateStatusBar@CStatus@@QAEXPAUtagRECT@@@Z 004c98f2 f   Status.obj
 0001:000c8968       ?IsCursorOverResizeMark@CStatus@@QAE_NABUtagPOINT@@@Z 004c9968 f   Status.obj
 0001:000c899e       ?IsKeyboardChanged@CStatus@@AAE_NXZ 004c999e f   Status.obj
 0001:000c8b3c       ?IsResizeAllowed@CStatus@@QAE_NXZ 004c9b3c f   Status.obj
 0001:000c8b7a       ?IsTimeChanged@CStatus@@AAE_NXZ 004c9b7a f   Status.obj
 0001:000c8c1d       ?IsWindowChanged@CStatus@@AAE_NXZ 004c9c1d f   Status.obj
 0001:000c8ddf       ?LoadActiveProcess@CStatus@@AAE_NPAVCRealConsole@@PA_WH@Z 004c9ddf f   Status.obj
 0001:000c8e3a       ?OnActiveVConChanged@CStatus@@QAEXHPAVCRealConsole@@@Z 004c9e3a f   Status.obj
 0001:000c8fe1       ?OnConsoleBufferChanged@CStatus@@QAEXPAVCRealConsole@@@Z 004c9fe1 f   Status.obj
 0001:000c90b8       ?OnConsoleChanged@CStatus@@QAEXPBU_CONSOLE_SCREEN_BUFFER_INFO@@PBU_CONSOLE_CURSOR_INFO@@PBUTOPLEFTCOORD@@_N@Z 004ca0b8 f   Status.obj
 0001:000c93b6       ?OnCursorChanged@CStatus@@QAEXPBU_COORD@@PBU_CONSOLE_CURSOR_INFO@@HH@Z 004ca3b6 f   Status.obj
 0001:000c95d1       ?OnDataChanged@CStatus@@AAE_NPAW4CEStatusItems@@I_N@Z 004ca5d1 f   Status.obj
 0001:000c9650       ?OnKeyboardChanged@CStatus@@QAEXXZ 004ca650 f   Status.obj
 0001:000c9669       ?OnServerChanged@CStatus@@QAEXKK@Z 004ca669 f   Status.obj
 0001:000c96f9       ?OnTimer@CStatus@@QAEXXZ   004ca6f9 f   Status.obj
 0001:000c97f5       ?OnTransparency@CStatus@@QAEXXZ 004ca7f5 f   Status.obj
 0001:000c987b       ?OnWindowReposition@CStatus@@QAEXPBUtagRECT@@@Z 004ca87b f   Status.obj
 0001:000c9b56       ?PaintStatus@CStatus@@QAEXPAUHDC__@@PAUtagRECT@@@Z 004cab56 f   Status.obj
 0001:000cab7d       ?ProcessMenuHighlight@CStatus@@QAEXPAUHMENU__@@GG@Z 004cbb7d f   Status.obj
 0001:000cabe5       ?ProcessStatusMessage@CStatus@@QAE_NPAUHWND__@@IIJUtagPOINT@@AAJ@Z 004cbbe5 f   Status.obj
 0001:000cb05b       ?ProcessTermModeMenuId@CStatus@@AAE_NG@Z 004cc05b f   Status.obj
 0001:000cb0de       ?ProcessTransparentMenuId@CStatus@@AAE_NG_N@Z 004cc0de f   Status.obj
 0001:000cb1a4       ?ProcessZoomMenuId@CStatus@@AAE_NG@Z 004cc1a4 f   Status.obj
 0001:000cb1d4       ?SetClickedItemDesc@CStatus@@AAEXW4CEStatusItems@@@Z 004cc1d4 f   Status.obj
 0001:000cb20d       ?SetStatus@CStatus@@QAEXPB_W@Z 004cc20d f   Status.obj
 0001:000cb289       ?ShowStatusBarMenu@CStatus@@IAEHUtagPOINT@@PAUHMENU__@@W4CEStatusItems@@@Z 004cc289 f   Status.obj
 0001:000cb338       ?ShowStatusSetupMenu@CStatus@@AAEXXZ 004cc338 f   Status.obj
 0001:000cb66b       ?ShowTermModeMenu@CStatus@@AAEXUtagPOINT@@@Z 004cc66b f   Status.obj
 0001:000cb6b7       ?ShowTransparencyMenu@CStatus@@AAEXUtagPOINT@@@Z 004cc6b7 f   Status.obj
 0001:000cb765       ?ShowVConMenu@CStatus@@AAEXUtagPOINT@@@Z 004cc765 f   Status.obj
 0001:000cb79a       ?ShowZoomMenu@CStatus@@AAEXUtagPOINT@@@Z 004cc79a f   Status.obj
 0001:000cb81d       ?UpdateStatusBar@CStatus@@QAEX_N0@Z 004cc81d f   Status.obj
 0001:000cb8b2       ?isSettingsOpened@CStatus@@AAE_NI@Z 004cc8b2 f   Status.obj
 0001:000cb905       ??$?0ABUpiecewise_construct_t@std@@V?$tuple@ABV?$basic_string@_WU?$char_traits@_W@std@@V?$allocator@_W@2@@std@@@1@V?$tuple@$$V@1@@?$_List_node_emplace_op2@V?$allocator@U?$_List_node@U?$pair@$$CBV?$basic_string@_WU?$char_traits@_W@std@@V?$allocator@_W@2@@std@@UVariableData@SystemEnvironment@@@std@@PAX@std@@@std@@@std@@QAE@AAV?$allocator@U?$_List_node@U?$pair@$$CBV?$basic_string@_WU?$char_traits@_W@std@@V?$allocator@_W@2@@std@@UVariableData@SystemEnvironment@@@std@@PAX@std@@@1@ABUpiecewise_construct_t@1@$$QAV?$tuple@ABV?$basic_string@_WU?$char_traits@_W@std@@V?$allocator@_W@2@@std@@@1@$$QAV?$tuple@$$V@1@@Z 004cc905 f i SystemEnvironment.obj
 0001:000cb94e       ??$?0ABV?$basic_string@_WU?$char_traits@_W@std@@V?$allocator@_W@2@@std@@@?$_Tree_temp_node@V?$allocator@U?$_Tree_node@V?$basic_string@_WU?$char_traits@_W@std@@V?$allocator@_W@2@@std@@PAX@std@@@std@@@std@@QAE@AAV?$allocator@U?$_Tree_node@V?$basic_string@_WU?$char_traits@_W@std@@V?$allocator@_W@2@@std@@PAX@std@@@1@PAU?$_Tree_node@V?$basic_string@_WU?$char_traits@_W@std@@V?$allocator@_W@2@@std@@PAX@1@ABV?$basic_string@_WU?$char_traits@_W@std@@V?$allocator@_W@2@@1@@Z 004cc94e f i SystemEnvironment.obj
 0001:000cb9ac       ??$?0V?$tuple@ABV?$basic_string@_WU?$char_traits@_W@std@@V?$allocator@_W@2@@std@@@std@@V?$tuple@$$V@1@$0A@$$Z$S@?$pair@$$CBV?$basic_string@_WU?$char_traits@_W@std@@V?$allocator@_W@2@@std@@UVariableData@SystemEnvironment@@@std@@QAE@AAV?$tuple@ABV?$basic_string@_WU?$char_traits@_W@std@@V?$allocator@_W@2@@std@@@1@AAV?$tuple@$$V@1@U?$integer_sequence@I$0A@@1@U?$integer_sequence@I$S@1@@Z 004cc9ac f i SystemEnvironment.obj
 0001:000cb9fa       ??$_Buyheadnode@V?$allocator@U?$_Tree_node@V?$basic_string@_WU?$char_traits@_W@std@@V?$allocator@_W@2@@std@@PAX@std@@@std@@@?$_Tree_node@V?$basic_string@_WU?$char_traits@_W@std@@V?$allocator@_W@2@@std@@PAX@std@@SAPAU01@AAV?$allocator@U?$_Tree_node@V?$basic_string@_WU?$char_traits@_W@std@@V?$allocator@_W@2@@std@@PAX@std@@@1@@Z 004cc9fa f i SystemEnvironment.obj
 0001:000cba11       ??$_Emplace@ABV?$basic_string@_WU?$char_traits@_W@std@@V?$allocator@_W@2@@std@@@?$_Tree@V?$_Tset_traits@V?$basic_string@_WU?$char_traits@_W@std@@V?$allocator@_W@2@@std@@U?$less@V?$basic_string@_WU?$char_traits@_W@std@@V?$allocator@_W@2@@std@@@2@V?$allocator@V?$basic_string@_WU?$char_traits@_W@std@@V?$allocator@_W@2@@std@@@2@$0A@@std@@@std@@IAE?AU?$pair@PAU?$_Tree_node@V?$basic_string@_WU?$char_traits@_W@std@@V?$allocator@_W@2@@std@@PAX@std@@_N@1@ABV?$basic_string@_WU?$char_traits@_W@std@@V?$allocator@_W@2@@1@@Z 004cca11 f i SystemEnvironment.obj
 0001:000cba99       ??$_Find_lower_bound@V?$basic_string@_WU?$char_traits@_W@std@@V?$allocator@_W@2@@std@@@?$_Tree@V?$_Tset_traits@V?$basic_string@_WU?$char_traits@_W@std@@V?$allocator@_W@2@@std@@U?$less@V?$basic_string@_WU?$char_traits@_W@std@@V?$allocator@_W@2@@std@@@2@V?$allocator@V?$basic_string@_WU?$char_traits@_W@std@@V?$allocator@_W@2@@std@@@2@$0A@@std@@@std@@IBE?AU?$_Tree_find_result@PAU?$_Tree_node@V?$basic_string@_WU?$char_traits@_W@std@@V?$allocator@_W@2@@std@@PAX@std@@@1@ABV?$basic_string@_WU?$char_traits@_W@std@@V?$allocator@_W@2@@1@@Z 004cca99 f i SystemEnvironment.obj
 0001:000cbae9       ??$_Lower_bound_duplicate@V?$basic_string@_WU?$char_traits@_W@std@@V?$allocator@_W@2@@std@@@?$_Tree@V?$_Tset_traits@V?$basic_string@_WU?$char_traits@_W@std@@V?$allocator@_W@2@@std@@U?$less@V?$basic_string@_WU?$char_traits@_W@std@@V?$allocator@_W@2@@std@@@2@V?$allocator@V?$basic_string@_WU?$char_traits@_W@std@@V?$allocator@_W@2@@std@@@2@$0A@@std@@@std@@IBE_NQAU?$_Tree_node@V?$basic_string@_WU?$char_traits@_W@std@@V?$allocator@_W@2@@std@@PAX@1@ABV?$basic_string@_WU?$char_traits@_W@std@@V?$allocator@_W@2@@1@@Z 004ccae9 f i SystemEnvironment.obj
 0001:000cbb0f       ??$_Reallocate_grow_by@V<lambda_38fb7828f6004e9a4c6a38bfc6df7f44>@@_W@?$basic_string@_WU?$char_traits@_W@std@@V?$allocator@_W@2@@std@@AAEAAV01@IV<lambda_38fb7828f6004e9a4c6a38bfc6df7f44>@@_W@Z 004ccb0f f i SystemEnvironment.obj
 0001:000cbbd1       ??$_Traits_compare@U?$char_traits@_W@std@@@std@@YAHQB_WI0I@Z 004ccbd1 f i SystemEnvironment.obj
 0001:000cbc04       ??$_Try_emplace@ABV?$basic_string@_WU?$char_traits@_W@std@@V?$allocator@_W@2@@std@@$$V@?$_Hash@V?$_Umap_traits@V?$basic_string@_WU?$char_traits@_W@std@@V?$allocator@_W@2@@std@@UVariableData@SystemEnvironment@@V?$_Uhash_compare@V?$basic_string@_WU?$char_traits@_W@std@@V?$allocator@_W@2@@std@@U?$hash@V?$basic_string@_WU?$char_traits@_W@std@@V?$allocator@_W@2@@std@@@2@U?$equal_to@V?$basic_string@_WU?$char_traits@_W@std@@V?$allocator@_W@2@@std@@@2@@2@V?$allocator@U?$pair@$$CBV?$basic_string@_WU?$char_traits@_W@std@@V?$allocator@_W@2@@std@@UVariableData@SystemEnvironment@@@std@@@2@$0A@@std@@@std@@IAE?AU?$pair@PAU?$_List_node@U?$pair@$$CBV?$basic_string@_WU?$char_traits@_W@std@@V?$allocator@_W@2@@std@@UVariableData@SystemEnvironment@@@std@@PAX@std@@_N@1@ABV?$basic_string@_WU?$char_traits@_W@std@@V?$allocator@_W@2@@1@@Z 004ccc04 f i SystemEnvironment.obj
 0001:000cbcbb       ??$construct@U?$pair@$$CBV?$basic_string@_WU?$char_traits@_W@std@@V?$allocator@_W@2@@std@@UVariableData@SystemEnvironment@@@std@@ABUpiecewise_construct_t@2@V?$tuple@ABV?$basic_string@_WU?$char_traits@_W@std@@V?$allocator@_W@2@@std@@@2@V?$tuple@$$V@2@@?$_Default_allocator_traits@V?$allocator@U?$_List_node@U?$pair@$$CBV?$basic_string@_WU?$char_traits@_W@std@@V?$allocator@_W@2@@std@@UVariableData@SystemEnvironment@@@std@@PAX@std@@@std@@@std@@SAXAAV?$allocator@U?$_List_node@U?$pair@$$CBV?$basic_string@_WU?$char_traits@_W@std@@V?$allocator@_W@2@@std@@UVariableData@SystemEnvironment@@@std@@PAX@std@@@1@QAU?$pair@$$CBV?$basic_string@_WU?$char_traits@_W@std@@V?$allocator@_W@2@@std@@UVariableData@SystemEnvironment@@@1@ABUpiecewise_construct_t@1@$$QAV?$tuple@ABV?$basic_string@_WU?$char_traits@_W@std@@V?$allocator@_W@2@@std@@@1@$$QAV?$tuple@$$V@1@@Z 004cccbb f i SystemEnvironment.obj
 0001:000cbce8       ??$insert@$0A@$0A@@?$_Tree@V?$_Tset_traits@V?$basic_string@_WU?$char_traits@_W@std@@V?$allocator@_W@2@@std@@U?$less@V?$basic_string@_WU?$char_traits@_W@std@@V?$allocator@_W@2@@std@@@2@V?$allocator@V?$basic_string@_WU?$char_traits@_W@std@@V?$allocator@_W@2@@std@@@2@$0A@@std@@@std@@QAE?AU?$pair@V?$_Tree_const_iterator@V?$_Tree_val@U?$_Tree_simple_types@V?$basic_string@_WU?$char_traits@_W@std@@V?$allocator@_W@2@@std@@@std@@@std@@@std@@_N@1@ABV?$basic_string@_WU?$char_traits@_W@std@@V?$allocator@_W@2@@1@@Z 004ccce8 f i SystemEnvironment.obj
 0001:000cbd0b       ??0?$_Tree_temp_node_alloc@V?$allocator@U?$_Tree_node@V?$basic_string@_WU?$char_traits@_W@std@@V?$allocator@_W@2@@std@@PAX@std@@@std@@@std@@QAE@AAV?$allocator@U?$_Tree_node@V?$basic_string@_WU?$char_traits@_W@std@@V?$allocator@_W@2@@std@@PAX@std@@@1@@Z 004ccd0b f i SystemEnvironment.obj
 0001:000cbd3e       ??1?$_Alloc_construct_ptr@V?$allocator@U?$_List_node@U?$pair@$$CBV?$basic_string@_WU?$char_traits@_W@std@@V?$allocator@_W@2@@std@@UVariableData@SystemEnvironment@@@std@@PAX@std@@@std@@@std@@QAE@XZ 004ccd3e f i SystemEnvironment.obj
 0001:000cbd51       ??1?$_Tree_temp_node_alloc@V?$allocator@U?$_Tree_node@V?$basic_string@_WU?$char_traits@_W@std@@V?$allocator@_W@2@@std@@PAX@std@@@std@@@std@@QAE@XZ 004ccd51 f i SystemEnvironment.obj
 0001:000cbd51       ??1?$_Alloc_construct_ptr@V?$allocator@U?$_Tree_node@V?$basic_string@_WU?$char_traits@_W@std@@V?$allocator@_W@2@@std@@PAX@std@@@std@@@std@@QAE@XZ 004ccd51 f i SystemEnvironment.obj
 0001:000cbd64       ??1?$_List_node_emplace_op2@V?$allocator@U?$_List_node@U?$pair@$$CBV?$basic_string@_WU?$char_traits@_W@std@@V?$allocator@_W@2@@std@@UVariableData@SystemEnvironment@@@std@@PAX@std@@@std@@@std@@QAE@XZ 004ccd64 f i SystemEnvironment.obj
 0001:000cbd8a       ??1?$_Tree_temp_node@V?$allocator@U?$_Tree_node@V?$basic_string@_WU?$char_traits@_W@std@@V?$allocator@_W@2@@std@@PAX@std@@@std@@@std@@QAE@XZ 004ccd8a f i SystemEnvironment.obj
 0001:000cbdb0       ?GetKeys@SystemEnvironment@@QBE?AV?$set@V?$basic_string@_WU?$char_traits@_W@std@@V?$allocator@_W@2@@std@@U?$less@V?$basic_string@_WU?$char_traits@_W@std@@V?$allocator@_W@2@@std@@@2@V?$allocator@V?$basic_string@_WU?$char_traits@_W@std@@V?$allocator@_W@2@@std@@@2@@std@@XZ 004ccdb0 f   SystemEnvironment.obj
 0001:000cbe07       ?LoadFromRegistry@SystemEnvironment@@QAEXXZ 004cce07 f   SystemEnvironment.obj
 0001:000cbe41       ?MakeEnvName@SystemEnvironment@@SA?AV?$basic_string@_WU?$char_traits@_W@std@@V?$allocator@_W@2@@std@@ABV23@@Z 004cce41 f   SystemEnvironment.obj
 0001:000cbecc       ?SysEnvValueCallback@SystemEnvironment@@SG_NPAUHKEY__@@PB_WKJ@Z 004ccecc f   SystemEnvironment.obj
 0001:000cc0d6       ?_Bump_erased@_Range_eraser@?$_Hash@V?$_Umap_traits@V?$basic_string@_WU?$char_traits@_W@std@@V?$allocator@_W@2@@std@@UVariableData@SystemEnvironment@@V?$_Uhash_compare@V?$basic_string@_WU?$char_traits@_W@std@@V?$allocator@_W@2@@std@@U?$hash@V?$basic_string@_WU?$char_traits@_W@std@@V?$allocator@_W@2@@std@@@2@U?$equal_to@V?$basic_string@_WU?$char_traits@_W@std@@V?$allocator@_W@2@@std@@@2@@2@V?$allocator@U?$pair@$$CBV?$basic_string@_WU?$char_traits@_W@std@@V?$allocator@_W@2@@std@@UVariableData@SystemEnvironment@@@std@@@2@$0A@@std@@@std@@QAEXXZ 004cd0d6 f i SystemEnvironment.obj
 0001:000cc0f2       ?_Check_max_size@?$_Hash@V?$_Umap_traits@V?$basic_string@_WU?$char_traits@_W@std@@V?$allocator@_W@2@@std@@UVariableData@SystemEnvironment@@V?$_Uhash_compare@V?$basic_string@_WU?$char_traits@_W@std@@V?$allocator@_W@2@@std@@U?$hash@V?$basic_string@_WU?$char_traits@_W@std@@V?$allocator@_W@2@@std@@@2@U?$equal_to@V?$basic_string@_WU?$char_traits@_W@std@@V?$allocator@_W@2@@std@@@2@@2@V?$allocator@U?$pair@$$CBV?$basic_string@_WU?$char_traits@_W@std@@V?$allocator@_W@2@@std@@UVariableData@SystemEnvironment@@@std@@@2@$0A@@std@@@std@@IBEXXZ 004cd0f2 f i SystemEnvironment.obj
 0001:000cc107       ?_Construct_lv_contents@?$basic_string@_WU?$char_traits@_W@std@@V?$allocator@_W@2@@std@@AAEXABV12@@Z 004cd107 f i SystemEnvironment.obj
 0001:000cc16f       ?_Equal@?$basic_string@_WU?$char_traits@_W@std@@V?$allocator@_W@2@@std@@QBE_NQB_W@Z 004cd16f f i SystemEnvironment.obj
 0001:000cc1a7       ?_Forced_rehash@?$_Hash@V?$_Umap_traits@V?$basic_string@_WU?$char_traits@_W@std@@V?$allocator@_W@2@@std@@UVariableData@SystemEnvironment@@V?$_Uhash_compare@V?$basic_string@_WU?$char_traits@_W@std@@V?$allocator@_W@2@@std@@U?$hash@V?$basic_string@_WU?$char_traits@_W@std@@V?$allocator@_W@2@@std@@@2@U?$equal_to@V?$basic_string@_WU?$char_traits@_W@std@@V?$allocator@_W@2@@std@@@2@@2@V?$allocator@U?$pair@$$CBV?$basic_string@_WU?$char_traits@_W@std@@V?$allocator@_W@2@@std@@UVariableData@SystemEnvironment@@@std@@@2@$0A@@std@@@std@@IAEXI@Z 004cd1a7 f i SystemEnvironment.obj
 0001:000cc2ee       ?_Rehash_for_1@?$_Hash@V?$_Umap_traits@V?$basic_string@_WU?$char_traits@_W@std@@V?$allocator@_W@2@@std@@UVariableData@SystemEnvironment@@V?$_Uhash_compare@V?$basic_string@_WU?$char_traits@_W@std@@V?$allocator@_W@2@@std@@U?$hash@V?$basic_string@_WU?$char_traits@_W@std@@V?$allocator@_W@2@@std@@@2@U?$equal_to@V?$basic_string@_WU?$char_traits@_W@std@@V?$allocator@_W@2@@std@@@2@@2@V?$allocator@U?$pair@$$CBV?$basic_string@_WU?$char_traits@_W@std@@V?$allocator@_W@2@@std@@UVariableData@SystemEnvironment@@@std@@@2@$0A@@std@@@std@@IAEXXZ 004cd2ee f i SystemEnvironment.obj
 0001:000cc305       ?_Unchecked_erase@?$_Hash@V?$_Umap_traits@V?$basic_string@_WU?$char_traits@_W@std@@V?$allocator@_W@2@@std@@UVariableData@SystemEnvironment@@V?$_Uhash_compare@V?$basic_string@_WU?$char_traits@_W@std@@V?$allocator@_W@2@@std@@U?$hash@V?$basic_string@_WU?$char_traits@_W@std@@V?$allocator@_W@2@@std@@@2@U?$equal_to@V?$basic_string@_WU?$char_traits@_W@std@@V?$allocator@_W@2@@std@@@2@@2@V?$allocator@U?$pair@$$CBV?$basic_string@_WU?$char_traits@_W@std@@V?$allocator@_W@2@@std@@UVariableData@SystemEnvironment@@@std@@@2@$0A@@std@@@std@@AAEPAU?$_List_node@U?$pair@$$CBV?$basic_string@_WU?$char_traits@_W@std@@V?$allocator@_W@2@@std@@UVariableData@SystemEnvironment@@@std@@PAX@2@PAU32@QAU32@@Z 004cd305 f i SystemEnvironment.obj
 0001:000cc421       ?clear@?$_Hash@V?$_Umap_traits@V?$basic_string@_WU?$char_traits@_W@std@@V?$allocator@_W@2@@std@@UVariableData@SystemEnvironment@@V?$_Uhash_compare@V?$basic_string@_WU?$char_traits@_W@std@@V?$allocator@_W@2@@std@@U?$hash@V?$basic_string@_WU?$char_traits@_W@std@@V?$allocator@_W@2@@std@@@2@U?$equal_to@V?$basic_string@_WU?$char_traits@_W@std@@V?$allocator@_W@2@@std@@@2@@2@V?$allocator@U?$pair@$$CBV?$basic_string@_WU?$char_traits@_W@std@@V?$allocator@_W@2@@std@@UVariableData@SystemEnvironment@@@std@@@2@$0A@@std@@@std@@QAEXXZ 004cd421 f i SystemEnvironment.obj
 0001:000cc46b       ?clear@?$list@U?$pair@$$CBV?$basic_string@_WU?$char_traits@_W@std@@V?$allocator@_W@2@@std@@UVariableData@SystemEnvironment@@@std@@V?$allocator@U?$pair@$$CBV?$basic_string@_WU?$char_traits@_W@std@@V?$allocator@_W@2@@std@@UVariableData@SystemEnvironment@@@std@@@2@@std@@QAEXXZ 004cd46b f i SystemEnvironment.obj
 0001:000cc487       ?compare@?$basic_string@_WU?$char_traits@_W@std@@V?$allocator@_W@2@@std@@QBEHABV12@@Z 004cd487 f i SystemEnvironment.obj
 0001:000cc4b7       ?push_back@?$basic_string@_WU?$char_traits@_W@std@@V?$allocator@_W@2@@std@@QAEX_W@Z 004cd4b7 f i SystemEnvironment.obj
 0001:000cc4f7       ??0CTabBarClass@@QAE@XZ    004cd4f7 f   TabBar.obj
 0001:000cc5fd       ??1CTabBarClass@@UAE@XZ    004cd5fd f   TabBar.obj
 0001:000cc6b1       ??_GCTabBarClass@@UAEPAXI@Z 004cd6b1 f i TabBar.obj
 0001:000cc6b1       ??_ECTabBarClass@@UAEPAXI@Z 004cd6b1 f i TabBar.obj
 0001:000cc6d6       ?Activate@CTabBarClass@@QAEXH@Z 004cd6d6 f   TabBar.obj
 0001:000cc7a3       ?ActivateSearchPane@CTabBarClass@@QAEPAUHWND__@@_N@Z 004cd7a3 f   TabBar.obj
 0001:000cc7c5       ?ActivateTabByPoint@CTabBarClass@@QAEHPAUtagPOINT@@_N1@Z 004cd7c5 f   TabBar.obj
 0001:000cc810       ?ActiveTabByName@CTabBarClass@@QAEHHPB_WPAVCVConGuard@@@Z 004cd810 f   TabBar.obj
 0001:000cc9a4       ?AddStack@CTabBarClass@@IAE_NAAVCTab@@@Z 004cd9a4 f   TabBar.obj
 0001:000cca3c       ?CanActivateTab@CTabBarClass@@AAE_NH@Z 004cda3c f   TabBar.obj
 0001:000cca9a       ?CheckRebarCreated@CTabBarClass@@QAEXXZ 004cda9a f   TabBar.obj
 0001:000ccafa       ?CheckStack@CTabBarClass@@IAE_NXZ 004cdafa f   TabBar.obj
 0001:000ccc1a       ?CountActiveTabs@CTabBarClass@@AAEHH@Z 004cdc1a f   TabBar.obj
 0001:000cccae       ?CreateTabIcon@CTabBarClass@@QAEHPB_W_N0@Z 004cdcae f   TabBar.obj
 0001:000ccccf       ?Deactivate@CTabBarClass@@QAEXH@Z 004cdccf f   TabBar.obj
 0001:000ccd07       ?DeleteItem@CTabBarClass@@AAEXH@Z 004cdd07 f   TabBar.obj
 0001:000ccd55       ?GetActiveTabRect@CTabBarClass@@QAE_NPAUtagRECT@@@Z 004cdd55 f   TabBar.obj
 0001:000ccd85       ?GetCurSel@CTabBarClass@@QAEHXZ 004cdd85 f   TabBar.obj
 0001:000ccda6       ?GetFirstLastVConTab@CTabBarClass@@IAEHPAVCVirtualConsole@@_NH@Z 004cdda6 f   TabBar.obj
 0001:000cce4f       ?GetItemCount@CTabBarClass@@AAEHXZ 004cde4f f   TabBar.obj
 0001:000cce73       ?GetNextTab@CTabBarClass@@AAEH_N0@Z 004cde73 f   TabBar.obj
 0001:000ccf6b       ?GetNextTabHelper@CTabBarClass@@AAEHH_N0@Z 004cdf6b f   TabBar.obj
 0001:000cd10c       ?GetTabFromPoint@CTabBarClass@@QAEHPAUtagPOINT@@_N1@Z 004ce10c f   TabBar.obj
 0001:000cd16a       ?GetTabIcon@CTabBarClass@@QAEH_N@Z 004ce16a f   TabBar.obj
 0001:000cd176       ?GetTabIconByIndex@CTabBarClass@@QAEPAUHICON__@@H@Z 004ce176 f   TabBar.obj
 0001:000cd182       ?GetTabIcons@CTabBarClass@@QAEPAU_IMAGELIST@@H@Z 004ce182 f   TabBar.obj
 0001:000cd1aa       ?GetVConFromTab@CTabBarClass@@QAE_NHPAVCVConGuard@@PAK@Z 004ce1aa f   TabBar.obj
 0001:000cd25d       ?HighlightTab@CTabBarClass@@QAEXPBVCTabID@@_N@Z 004ce25d f   TabBar.obj
 0001:000cd2cd       ?Invalidate@CTabBarClass@@QBEXXZ 004ce2cd f   TabBar.obj
 0001:000cd2ec       ?IsInSwitch@CTabBarClass@@QAE_NXZ 004ce2ec f   TabBar.obj
 0001:000cd2f3       ?IsSearchShown@CTabBarClass@@QAE_N_N@Z 004ce2f3 f   TabBar.obj
 0001:000cd319       ?IsTabsActive@CTabBarClass@@QBE_NXZ 004ce319 f   TabBar.obj
 0001:000cd324       ?NeedPostUpdate@CTabBarClass@@QAE_NXZ 004ce324 f   TabBar.obj
 0001:000cd33c       ?OnAlternative@CTabBarClass@@QAEXH@Z 004ce33c f   TabBar.obj
 0001:000cd36b       ?OnBufferHeight@CTabBarClass@@QAEXH@Z 004ce36b f   TabBar.obj
 0001:000cd39a       ?OnCaptionHidden@CTabBarClass@@QAEXXZ 004ce39a f   TabBar.obj
 0001:000cd3c7       ?OnChooseTabPopup@CTabBarClass@@QAEXXZ 004ce3c7 f   TabBar.obj
 0001:000cd40e       ?OnCommand@CTabBarClass@@QAEXIJ@Z 004ce40e f   TabBar.obj
 0001:000cd735       ?OnConsoleActivated@CTabBarClass@@QAEXH@Z 004ce735 f   TabBar.obj
 0001:000cd756       ?OnKeyboard@CTabBarClass@@QAE_NIIJ@Z 004ce756 f   TabBar.obj
 0001:000cd80a       ?OnNotify@CTabBarClass@@QAE_NPAUtagNMHDR@@AAJ@Z 004ce80a f   TabBar.obj
 0001:000cdb16       ?OnShowButtonsChanged@CTabBarClass@@QAEXXZ 004ceb16 f   TabBar.obj
 0001:000cdb53       ?OnTimer@CTabBarClass@@QAE_NI@Z 004ceb53 f   TabBar.obj
 0001:000cdb6c       ?OnWindowStateChanged@CTabBarClass@@QAEXXZ 004ceb6c f   TabBar.obj
 0001:000cdb94       ?PrepareTab@CTabBarClass@@AAEHAAVCTab@@PAVCVirtualConsole@@@Z 004ceb94 f   TabBar.obj
 0001:000ce399       ?RePaint@CTabBarClass@@QAEXXZ 004cf399 f   TabBar.obj
 0001:000ce3a1       ?Recreate@CTabBarClass@@QAEXXZ 004cf3a1 f   TabBar.obj
 0001:000ce40d       ?Reposition@CTabBarClass@@QAEXXZ 004cf40d f   TabBar.obj
 0001:000ce426       ?RequestPostUpdate@CTabBarClass@@AAEXXZ 004cf426 f   TabBar.obj
 0001:000ce477       ?Reset@CTabBarClass@@QAEXXZ 004cf477 f   TabBar.obj
 0001:000ce485       ?Retrieve@CTabBarClass@@QAEXXZ 004cf485 f   TabBar.obj
 0001:000ce4ac       ?SelectTab@CTabBarClass@@AAEXH@Z 004cf4ac f   TabBar.obj
 0001:000ce53e       ?SetRedraw@CTabBarClass@@QAEX_N@Z 004cf53e f   TabBar.obj
 0001:000ce550       ?ShowSearchPane@CTabBarClass@@QAE_N_N0@Z 004cf550 f   TabBar.obj
 0001:000ce55f       ?ShowTabError@CTabBarClass@@QAEXPB_WH@Z 004cf55f f   TabBar.obj
 0001:000ce56b       ?Switch@CTabBarClass@@QAEX_N0@Z 004cf56b f   TabBar.obj
 0001:000ce5f2       ?SwitchCommit@CTabBarClass@@QAEXXZ 004cf5f2 f   TabBar.obj
 0001:000ce635       ?SwitchNext@CTabBarClass@@QAEX_N@Z 004cf635 f   TabBar.obj
 0001:000ce646       ?SwitchPrev@CTabBarClass@@QAEX_N@Z 004cf646 f   TabBar.obj
 0001:000ce657       ?SwitchRollback@CTabBarClass@@QAEXXZ 004cf657 f   TabBar.obj
 0001:000ce66f       ?Toolbar_GetBtnRect@CTabBarClass@@QAE_NHPAUtagRECT@@@Z 004cf66f f   TabBar.obj
 0001:000ce68c       ?Update@CTabBarClass@@QAEXH@Z 004cf68c f   TabBar.obj
 0001:000ceb16       ?UpdateAddTab@CTabBarClass@@AAEHPAXAAH1AA_NPAVCVirtualConsole@@K@Z 004cfb16 f   TabBar.obj
 0001:000cecdc       ?UpdatePosition@CTabBarClass@@QAEXXZ 004cfcdc f   TabBar.obj
 0001:000ced61       ?UpdateToolConsoles@CTabBarClass@@QAEX_N@Z 004cfd61 f   TabBar.obj
 0001:000ced87       ??0CTabPanelBase@@QAE@PAVCTabBarClass@@@Z 004cfd87 f   TabCtrlBase.obj
 0001:000cedf6       ??1CTabPanelBase@@UAE@XZ   004cfdf6 f   TabCtrlBase.obj
 0001:000cee1a       ??_GCTabPanelBase@@UAEPAXI@Z 004cfe1a f i TabCtrlBase.obj
 0001:000cee1a       ??_ECTabPanelBase@@UAEPAXI@Z 004cfe1a f i TabCtrlBase.obj
 0001:000cee3f       ?DoTabDrag@CTabPanelBase@@IAEXI@Z 004cfe3f f   TabCtrlBase.obj
 0001:000cf0ac       ?EndTabDrag@CTabPanelBase@@IAEXXZ 004d00ac f   TabCtrlBase.obj
 0001:000cf0d0       ?FarSendChangeTab@CTabPanelBase@@QAE_NHPAVCVConGuard@@@Z 004d00d0 f   TabCtrlBase.obj
 0001:000cf2ca       ?InitTooltips@CTabPanelBase@@IAEXPAUHWND__@@@Z 004d02ca f   TabCtrlBase.obj
 0001:000cf3e2       ?OnMouseRebar@CTabPanelBase@@QAEJIHH@Z 004d03e2 f   TabCtrlBase.obj
 0001:000cf589       ?OnMouseTabbar@CTabPanelBase@@QAEJIHHH@Z 004d0589 f   TabCtrlBase.obj
 0001:000cf952       ?OnMouseToolbar@CTabPanelBase@@QAEJIHHH@Z 004d0952 f   TabCtrlBase.obj
 0001:000cfa43       ?OnSetCursorRebar@CTabPanelBase@@QAE_NXZ 004d0a43 f   TabCtrlBase.obj
 0001:000cfadc       ?OnTimerInt@CTabPanelBase@@UAE_NI@Z 004d0adc f   TabCtrlBase.obj
 0001:000cfb2a       ?ShowTabErrorInt@CTabPanelBase@@QAEXPB_WH@Z 004d0b2a f   TabCtrlBase.obj
 0001:000cfc14       ?UpdateTabFontInt@CTabPanelBase@@QAEXXZ 004d0c14 f   TabCtrlBase.obj
 0001:000cfd03       ??$SafeDelete@VCFindPanel@@@@YAXAAPAVCFindPanel@@@Z 004d0d03 f i TabCtrlWin.obj
 0001:000cfd34       ??0CTabPanelWin@@QAE@PAVCTabBarClass@@@Z 004d0d34 f   TabCtrlWin.obj
 0001:000cfdae       ??1CTabPanelWin@@UAE@XZ    004d0dae f   TabCtrlWin.obj
 0001:000cfdd9       ??_GCTabPanelWin@@UAEPAXI@Z 004d0dd9 f i TabCtrlWin.obj
 0001:000cfdd9       ??_ECTabPanelWin@@UAEPAXI@Z 004d0dd9 f i TabCtrlWin.obj
 0001:000cfdfe       ?ActivateSearchPaneInt@CTabPanelWin@@UAEPAUHWND__@@_N@Z 004d0dfe f   TabCtrlWin.obj
 0001:000cfe26       ?AddTabInt@CTabPanelWin@@UAEXPB_WHIH@Z 004d0e26 f   TabCtrlWin.obj
 0001:000d0003       ?CreateRebar@CTabPanelWin@@UAEXXZ 004d1003 f   TabCtrlWin.obj
 0001:000d0184       ?CreateTabbar@CTabPanelWin@@AAEPAUHWND__@@XZ 004d1184 f   TabCtrlWin.obj
 0001:000d034c       ?CreateToolbar@CTabPanelWin@@AAEPAUHWND__@@XZ 004d134c f   TabCtrlWin.obj
 0001:000d0794       ?DeleteItemInt@CTabPanelWin@@UAEXH@Z 004d1794 f   TabCtrlWin.obj
 0001:000d07b6       ?DestroyRebar@CTabPanelWin@@UAEXXZ 004d17b6 f   TabCtrlWin.obj
 0001:000d081a       ?GetCurSelInt@CTabPanelWin@@UAEHXZ 004d181a f   TabCtrlWin.obj
 0001:000d0838       ?GetItemCountInt@CTabPanelWin@@UAEHXZ 004d1838 f   TabCtrlWin.obj
 0001:000d084e       ?GetRebarClientRect@CTabPanelWin@@UAE_NPAUtagRECT@@@Z 004d184e f   TabCtrlWin.obj
 0001:000d0894       ?GetRect@CTabPanelWin@@AAE?AUtagRECT@@XZ 004d1894 f   TabCtrlWin.obj
 0001:000d0960       ?GetTabBarClientRect@CTabPanelWin@@UAE_NPAUtagRECT@@@Z 004d1960 f   TabCtrlWin.obj
 0001:000d0981       ?GetTabFromPoint@CTabPanelWin@@UAEHUtagPOINT@@_N1@Z 004d1981 f   TabCtrlWin.obj
 0001:000d0a92       ?GetTabRect@CTabPanelWin@@UAE_NHPAUtagRECT@@@Z 004d1a92 f   TabCtrlWin.obj
 0001:000d0b51       ?GetTabText@CTabPanelWin@@UAE_NHPA_WH@Z 004d1b51 f   TabCtrlWin.obj
 0001:000d0bab       ?GetToolBtnChecked@CTabPanelWin@@UAE_NW4ToolbarCommandIdx@@@Z 004d1bab f   TabCtrlWin.obj
 0001:000d0bca       ?GetToolBtnRect@CTabPanelWin@@UAE_NHPAUtagRECT@@@Z 004d1bca f   TabCtrlWin.obj
 0001:000d0c16       ?HighlightTab@CTabPanelWin@@UAEXH_N@Z 004d1c16 f   TabCtrlWin.obj
 0001:000d0c4f       ?InvalidateBar@CTabPanelWin@@UAEXXZ 004d1c4f f   TabCtrlWin.obj
 0001:000d0c7d       ?IsCreated@CTabPanelWin@@UAE_NXZ 004d1c7d f   TabCtrlWin.obj
 0001:000d0c8e       ?IsSearchShownInt@CTabPanelWin@@UAE_N_N@Z 004d1c8e f   TabCtrlWin.obj
 0001:000d0ce5       ?IsTabbarCreated@CTabPanelWin@@UAE_NXZ 004d1ce5 f   TabCtrlWin.obj
 0001:000d0cf6       ?IsTabbarNotify@CTabPanelWin@@UAE_NPAUtagNMHDR@@@Z 004d1cf6 f   TabCtrlWin.obj
 0001:000d0d1b       ?IsToolbarCommand@CTabPanelWin@@UAE_NIJ@Z 004d1d1b f   TabCtrlWin.obj
 0001:000d0d37       ?IsToolbarCreated@CTabPanelWin@@UAE_NXZ 004d1d37 f   TabCtrlWin.obj
 0001:000d0d48       ?IsToolbarNotify@CTabPanelWin@@UAE_NPAUtagNMHDR@@@Z 004d1d48 f   TabCtrlWin.obj
 0001:000d0d66       ?OnCaptionHiddenChanged@CTabPanelWin@@UAEX_N@Z 004d1d66 f   TabCtrlWin.obj
 0001:000d0e15       ?OnConsoleActivatedInt@CTabPanelWin@@UAEXH@Z 004d1e15 f   TabCtrlWin.obj
 0001:000d0ef9       ?OnNotifyInt@CTabPanelWin@@UAE_NPAUtagNMHDR@@AAJ@Z 004d1ef9 f   TabCtrlWin.obj
 0001:000d1040       ?OnWindowStateChanged@CTabPanelWin@@UAEXW4ConEmuWindowMode@@@Z 004d2040 f   TabCtrlWin.obj
 0001:000d1090       ?QueryTabbarHeight@CTabPanelWin@@UAEHXZ 004d2090 f   TabCtrlWin.obj
 0001:000d110a       ?ReBarProc@CTabPanelWin@@AAEJPAUHWND__@@IIJP6GJ0IIJ@Z@Z 004d210a f   TabCtrlWin.obj
 0001:000d1294       ?RePaintInt@CTabPanelWin@@UAEXXZ 004d2294 f   TabCtrlWin.obj
 0001:000d1329       ?RepositionInt@CTabPanelWin@@UAEXXZ 004d2329 f   TabCtrlWin.obj
 0001:000d1735       ?SelectTabInt@CTabPanelWin@@UAEHH@Z 004d2735 f   TabCtrlWin.obj
 0001:000d17d7       ?SetTabbarFont@CTabPanelWin@@UAEXPAUHFONT__@@@Z 004d27d7 f   TabCtrlWin.obj
 0001:000d17fe       ?SetToolBtnChecked@CTabPanelWin@@UAEXW4ToolbarCommandIdx@@_N@Z 004d27fe f   TabCtrlWin.obj
 0001:000d1823       ?ShowBar@CTabPanelWin@@UAEX_N@Z 004d2823 f   TabCtrlWin.obj
 0001:000d185a       ?ShowSearchPane@CTabPanelWin@@UAE_N_N0@Z 004d285a f   TabCtrlWin.obj
 0001:000d1a66       ?ShowTabsPane@CTabPanelWin@@UAEX_N@Z 004d2a66 f   TabCtrlWin.obj
 0001:000d1b2c       ?ShowToolsPane@CTabPanelWin@@UAEX_N@Z 004d2b2c f   TabCtrlWin.obj
 0001:000d1ce7       ?TabHitTest@CTabPanelWin@@AAEJ_NPAH@Z 004d2ce7 f   TabCtrlWin.obj
 0001:000d1d6c       ?TabProc@CTabPanelWin@@AAEJPAUHWND__@@IIJP6GJ0IIJ@Z@Z 004d2d6c f   TabCtrlWin.obj
 0001:000d1eba       ?ToolProc@CTabPanelWin@@AAEJPAUHWND__@@IIJP6GJ0IIJ@Z@Z 004d2eba f   TabCtrlWin.obj
 0001:000d207e       ?UpdateToolbarPos@CTabPanelWin@@AAEXXZ 004d307e f   TabCtrlWin.obj
 0001:000d21e9       ?_ReBarProc@CTabPanelWin@@CGJPAUHWND__@@IIJ@Z 004d31e9 f   TabCtrlWin.obj
 0001:000d2246       ?_TabProc@CTabPanelWin@@CGJPAUHWND__@@IIJ@Z 004d3246 f   TabCtrlWin.obj
 0001:000d22a3       ?_ToolProc@CTabPanelWin@@CGJPAUHWND__@@IIJ@Z 004d32a3 f   TabCtrlWin.obj
 0001:000d2300       ??0CTab@@QAE@PBDH@Z        004d3300 f   TabID.obj
 0001:000d2308       ??0CTabID@@QAE@PAVCVirtualConsole@@PB_WIHHH@Z 004d3308 f   TabID.obj
 0001:000d238b       ??0CTabStack@@QAE@XZ       004d338b f   TabID.obj
 0001:000d23e1       ??0TabDrawInfo@@QAE@XZ     004d33e1 f i TabID.obj
 0001:000d2406       ??1CTab@@QAE@XZ            004d3406 f   TabID.obj
 0001:000d2445       ??1CTabID@@MAE@XZ          004d3445 f   TabID.obj
 0001:000d2471       ??1CTabStack@@QAE@XZ       004d3471 f   TabID.obj
 0001:000d24ca       ??_ECTabID@@MAEPAXI@Z      004d34ca f i TabID.obj
 0001:000d24ca       ??_GCTabID@@MAEPAXI@Z      004d34ca f i TabID.obj
 0001:000d24ef       ?AddRef@CTab@@QAEPAVCTabID@@PBDH@Z 004d34ef f   TabID.obj
 0001:000d2508       ?AppendInt@CTabStack@@IAEHPAVCTabID@@HPAUMSectionLockSimple@@@Z 004d3508 f   TabID.obj
 0001:000d2578       ?CleanNulls@CTabStack@@IAEXXZ 004d3578 f   TabID.obj
 0001:000d25c2       ?GetCount@CTabStack@@QAEHXZ 004d35c2 f   TabID.obj
 0001:000d25c2       ?GetHandle@TempFile@@QBEPAXXZ 004d35c2 f   TempFile.obj
 0001:000d25c6       ?GetIndexByTab@CTabStack@@QAEHPBVCTabID@@@Z 004d35c6 f   TabID.obj
 0001:000d262b       ?GetLabel@CTabID@@QAEPB_WXZ 004d362b f   TabID.obj
 0001:000d2641       ?GetName@CTabID@@QAEPB_WXZ 004d3641 f   TabID.obj
 0001:000d2660       ?GetTabByIndex@CTabStack@@QAE_NHAAVCTab@@@Z 004d3660 f   TabID.obj
 0001:000d26dd       ?GetTabInfoByIndex@CTabStack@@QAE_NHAAUTabInfo@@@Z 004d36dd f   TabID.obj
 0001:000d274a       ?GetVisualToRealIndex@CTabStack@@IAEHH@Z 004d374a f   TabID.obj
 0001:000d277d       ?Init@CTab@@QAEXAAV1@@Z    004d377d f   TabID.obj
 0001:000d278e       ?Init@CTab@@QAEXPAVCTabID@@@Z 004d378e f   TabID.obj
 0001:000d27bd       ?IsEmpty@TabName@@QBE_NXZ  004d37bd f   TabID.obj
 0001:000d27c6       ?IsEqual@CTabID@@QAE_NPAVCVirtualConsole@@PB_WIHHI@Z 004d37c6 f   TabID.obj
