 ConEmu.x64

 Timestamp is 613e7376 (Sun Sep 12 23:39:02 2021)

 Preferred load address is 0000000180000000

 Start         Length     Name                   Class
 0001:00000000 00000010H .text$di                CODE
 0001:00000010 00031830H .text$mn                CODE
 0001:00031840 00000040H .text$mn$00             CODE
 0001:00031880 000006c0H .text$x                 CODE
 0001:00031f40 0000003dH .text$yd                CODE
 0002:00000000 00000660H .idata$5                DATA
 0002:00000660 00000028H .00cfg                  DATA
 0002:00000688 00000008H .CRT$XCA                DATA
 0002:00000690 00000008H .CRT$XCU                DATA
 0002:00000698 00000008H .CRT$XCZ                DATA
 0002:000006a0 00000008H .CRT$XIA                DATA
 0002:000006a8 00000020H .CRT$XIC                DATA
 0002:000006c8 00000008H .CRT$XIZ                DATA
 0002:000006d0 00000008H .CRT$XLA                DATA
 0002:000006d8 00000008H .CRT$XLZ                DATA
 0002:000006e0 00000008H .CRT$XPA                DATA
 0002:000006e8 00000010H .CRT$XPX                DATA
 0002:000006f8 00000008H .CRT$XPXA               DATA
 0002:00000700 00000008H .CRT$XPZ                DATA
 0002:00000708 00000008H .CRT$XTA                DATA
 0002:00000710 00000010H .CRT$XTZ                DATA
 0002:00000718 00000000H .gehcont$y              DATA
 0002:00000718 00000000H .gfids$y                DATA
 0002:00000720 0000cee0H .rdata                  DATA
 0002:0000d600 00000000H .rdata$CastGuardVftablesA DATA
 0002:0000d600 00000000H .rdata$CastGuardVftablesC DATA
 0002:0000d600 00000028H .rdata$T                DATA
 0002:0000d628 0000097cH .rdata$r                DATA
 0002:0000dfa4 0000016cH .rdata$voltmd           DATA
 0002:0000e110 00000410H .rdata$zzzdbg           DATA
 0002:0000e520 00000008H .rtc$IAA                DATA
 0002:0000e528 00000008H .rtc$IZZ                DATA
 0002:0000e530 00000008H .rtc$TAA                DATA
 0002:0000e538 00000008H .rtc$TZZ                DATA
 0002:0000e540 00000004H .tls                    DATA
 0002:0000e544 00000004H .tls$                   DATA
 0002:0000e548 00000008H .tls$ZZZ                DATA
 0002:0000e550 000028b0H .xdata                  DATA
 0002:00010e00 00000260H .xdata$x                DATA
 0002:00011060 000002e4H .edata                  DATA
 0002:00011344 00000064H .idata$2                DATA
 0002:000113a8 00000018H .idata$3                DATA
 0002:000113c0 00000660H .idata$4                DATA
 0002:00011a20 00000e82H .idata$6                DATA
 0003:00000000 00000c80H .data                   DATA
 0003:00000c80 000001b0H .data$r                 DATA
 0003:00000e30 000002e0H .data$rs                DATA
 0003:00001110 0000bc30H .bss                    DATA
 0004:00000000 000028c8H .pdata                  DATA
 0005:00000000 000000f4H _RDATA                  DATA
 0006:00000000 000000a0H .rsrc$01                DATA
 0006:000000a0 00000490H .rsrc$02                DATA

  Address         Publics by Value              Rva+Base               Lib:Object

 0000:00000000       ___safe_se_handler_table   0000000000000000     <absolute>
 0000:00000000       __arm64x_redirection_metadata 0000000000000000     <absolute>
 0000:00000000       __guard_iat_table          0000000000000000     <absolute>
 0000:00000000       __guard_longjmp_table      0000000000000000     <absolute>
 0000:00000000       __x64_code_ranges_to_entry_points 0000000000000000     <absolute>
 0000:00000000       __guard_iat_count          0000000000000000     <absolute>
 0000:00000000       __guard_longjmp_count      0000000000000000     <absolute>
 0000:00000000       __guard_fids_count         0000000000000000     <absolute>
 0000:00000000       __dynamic_value_reloc_table 0000000000000000     <absolute>
 0000:00000000       __x64_code_ranges_to_entry_points_count 0000000000000000     <absolute>
 0000:00000000       __arm64x_extra_rfe_table   0000000000000000     <absolute>
 0000:00000000       __hybrid_auxiliary_iat     0000000000000000     <absolute>
 0000:00000000       __hybrid_auxiliary_iat_copy 0000000000000000     <absolute>
 0000:00000000       __hybrid_code_map          0000000000000000     <absolute>
 0000:00000000       __arm64x_extra_rfe_table_size 0000000000000000     <absolute>
 0000:00000000       ___safe_se_handler_count   0000000000000000     <absolute>
 0000:00000000       __AbsoluteZero             0000000000000000     <absolute>
 0000:00000000       __guard_check_icall_a64n_fptr 0000000000000000     <absolute>
 0000:00000000       __guard_fids_table         0000000000000000     <absolute>
 0000:00000000       __guard_eh_cont_count      0000000000000000     <absolute>
 0000:00000000       __arm64x_redirection_metadata_count 0000000000000000     <absolute>
 0000:00000000       __enclave_config           0000000000000000     <absolute>
 0000:00000000       __guard_eh_cont_table      0000000000000000     <absolute>
 0000:00000000       __arm64x_native_entrypoint 0000000000000000     <absolute>
 0000:00000000       __hybrid_code_map_count    0000000000000000     <absolute>
 0000:00000100       __guard_flags              0000000000000100     <absolute>
 0000:00000000       __ImageBase                0000000180000000     <linker-defined>
 0001:00000010       ??$swprintf_c@$0EA@@@YAHAEAY0EA@_WPEB_WZZ 0000000180001010 f i ConEmuInjects.obj
 0001:0000003c       ??$swprintf_c@$0IA@@@YAHAEAY0IA@_WPEB_WZZ 000000018000103c f i ConEmuInjects.obj
 0001:00000068       ??$swprintf_c@$0PP@@@YAHAEAY0PP@_WPEB_WZZ 0000000180001068 f i ConEmuInjects.obj
 0001:00000094       ?ShutdownHooks@@YAXXZ      0000000180001094 f   ConEmuInjects.obj
 0001:00000284       ?StartupConsoleHooks@@YAXXZ 0000000180001284 f   ConEmuInjects.obj
 0001:00000310       ?StartupHooks@@YA_NPEAUHINSTANCE__@@@Z 0000000180001310 f   ConEmuInjects.obj
 0001:000006f8       ?StringCchVPrintfW@@YAJPEA_W_KPEB_WPEAD@Z 00000001800016f8 f i ConEmuInjects.obj
 0001:0000079c       __local_stdio_printf_options 000000018000179c f i ConEmuInjects.obj
 0001:000007a4       ?ProcessSynchroEventW3@@YA_JPEAX@Z 00000001800017a4 f   ConEmuPlugin.obj
 0001:000007cc       ?ProcessEditorEventW3@@YA_JPEAX@Z 00000001800017cc f   ConEmuPlugin.obj
 0001:000007f4       ?ProcessViewerEventW3@@YA_JPEAX@Z 00000001800017f4 f   ConEmuPlugin.obj
 0001:0000081c       ?ExitFARW3@@YAXPEAX@Z      000000018000181c f   ConEmuPlugin.obj
 0001:00000874       ExitFARW                   0000000180001874 f   ConEmuPlugin.obj
 0001:000008cc       ?ProcessEditorEvent@@YAHHPEAX@Z 00000001800018cc f   ConEmuPlugin.obj
 0001:000008cc       ProcessEditorEventW        00000001800018cc f   ConEmuPlugin.obj
 0001:000008ec       ProcessSynchroEventW       00000001800018ec f   ConEmuPlugin.obj
 0001:00000918       ?ProcessViewerEvent@@YAHHPEAX@Z 0000000180001918 f   ConEmuPlugin.obj
 0001:00000918       ProcessViewerEventW        0000000180001918 f   ConEmuPlugin.obj
 0001:00000938       ?ActivateConsole@@YAHXZ    0000000180001938 f   ConEmuPlugin.obj
 0001:000009c8       ?ExitFAR@@YAXXZ            00000001800019c8 f   ConEmuPlugin.obj
 0001:00000a20       ?GetFarHWND2@@YAPEAUHWND__@@H@Z 0000000180001a20 f   ConEmuPlugin.obj
 0001:00000a8c       ?GetFarHWND@@YAPEAUHWND__@@XZ 0000000180001a8c f   ConEmuPlugin.obj
 0001:00000a94       ?GetFarVersion@@YAXPEAUFarVersion@@@Z 0000000180001a94 f   ConEmuPlugin.obj
 0001:00000ab0       ?GetMinFarVersion@@YAHXZ   0000000180001ab0 f   ConEmuPlugin.obj
 0001:00000ad8       ?GetPluginInfo@@YAXPEAX@Z  0000000180001ad8 f   ConEmuPlugin.obj
 0001:00000b24       ?GetPluginInfoW@@YAXPEAX@Z 0000000180001b24 f   ConEmuPlugin.obj
 0001:00000b44       ?IsConsoleActive@@YAHXZ    0000000180001b44 f   ConEmuPlugin.obj
 0001:00000b9c       ?IsTerminalMode@@YAHXZ     0000000180001b9c f   ConEmuPlugin.obj
 0001:00000ba4       ?OpenPlugin@@YAPEAXH_J@Z   0000000180001ba4 f   ConEmuPlugin.obj
 0001:00000bd4       ?OpenW@@YAPEAXPEBX@Z       0000000180001bd4 f   ConEmuPlugin.obj
 0001:00000bf8       ?ProcessEditorInput@@YAHPEBU_INPUT_RECORD@@@Z 0000000180001bf8 f   ConEmuPlugin.obj
 0001:00000c1c       ?RegisterBackground@@YAHPEAURegisterBackgroundArg@@@Z 0000000180001c1c f   ConEmuPlugin.obj
 0001:00000c98       ?RegisterPanelView@@YAHPEAUPanelViewInit@@@Z 0000000180001c98 f   ConEmuPlugin.obj
 0001:00000e00       ?SetStartupInfo@@YAXPEAX@Z 0000000180001e00 f   ConEmuPlugin.obj
 0001:00000e5c       ?SetupExportsFar3@@YAXXZ   0000000180001e5c f   ConEmuPlugin.obj
 0001:00000fcc       ?SyncExecute@@YAHPEAUHINSTANCE__@@P6AX_J@Z1@Z 0000000180001fcc f   ConEmuPlugin.obj
 0001:00001018       DllMain                    0000000180002018 f   ConEmuPlugin.obj
 0001:0000103c       GetMinFarVersionW          000000018000203c f   ConEmuPlugin.obj
 0001:00001044       OpenPluginW                0000000180002044 f   ConEmuPlugin.obj
 0001:00001084       ProcessEditorInputW        0000000180002084 f   ConEmuPlugin.obj
 0001:000010a8       SetStartupInfoW            00000001800020a8 f   ConEmuPlugin.obj
 0001:000010d8       ??0CPluginW1900@@QEAA@XZ   00000001800020d8 f   ConEmuPlugin1900.obj
 0001:0000127c       ??_GCPluginW1900@@UEAAPEAXI@Z 000000018000227c f i ConEmuPlugin1900.obj
 0001:0000127c       ??_ECPluginW1900@@UEAAPEAXI@Z 000000018000227c f i ConEmuPlugin1900.obj
 0001:00001784       ?CheckPanelExist@CPluginW1900@@UEAA_NXZ 0000000180002784 f   ConEmuPlugin1900.obj
 0001:000017c0       ?Color2BgIndex@Far3Color@@SAXKHAEAGPEBK@Z 00000001800027c0 f i ConEmuPlugin1900.obj
 0001:000018d4       ?Color2FgIndex@Far3Color@@SAXKAEAGPEBK@Z 00000001800028d4 f i ConEmuPlugin1900.obj
 0001:000019c4       ?ExecuteSynchroApi@CPluginW1900@@UEAA_NXZ 00000001800029c4 f   ConEmuPlugin1900.obj
 0001:000019f8       ?ExitFar@CPluginW1900@@UEAAXXZ 00000001800029f8 f   ConEmuPlugin1900.obj
 0001:00001a80       ?FarColor_3_2@@YAEAEBUFarColor@@_N@Z 0000000180002a80 f i ConEmuPlugin1900.obj
 0001:00001b40       ?GetActiveWindowType@CPluginW1900@@UEAAHXZ 0000000180002b40 f   ConEmuPlugin1900.obj
 0001:00001c0c       ?GetEditorModifiedState@CPluginW1900@@UEAAKXZ 0000000180002c0c f   ConEmuPlugin1900.obj
 0001:00001c68       ?GetFarRect@CPluginW1900@@UEAA_NAEAU_SMALL_RECT@@@Z 0000000180002c68 f   ConEmuPlugin1900.obj
 0001:00001d14       ?GetMacroArea@CPluginW1900@@UEAAHXZ 0000000180002d14 f   ConEmuPlugin1900.obj
 0001:00001d34       ?GetMsg@CPluginW1900@@UEAAPEB_WHPEA_W_K@Z 0000000180002d34 f   ConEmuPlugin1900.obj
 0001:00001da8       ?GetPanelDir@CPluginW1900@@UEAAPEA_WKPEA_WH@Z 0000000180002da8 f   ConEmuPlugin1900.obj
 0001:00001f24       ?GetPanelInfo@CPluginW1900@@UEAA_NKPEAUCEPanelInfo@@@Z 0000000180002f24 f   ConEmuPlugin1900.obj
 0001:000021c4       ?GetPanelItemInfo@CPluginW1900@@UEAA_NAEBUCEPanelInfo@@_N_JAEAU_WIN32_FIND_DATAW@@PEAPEA_W@Z 00000001800031c4 f   ConEmuPlugin1900.obj
 0001:00002394       ?GetPluginInfoPtr@CPluginW1900@@UEAAXPEAX@Z 0000000180003394 f   ConEmuPlugin1900.obj
 0001:000023f0       ?GetWindowCount@CPluginW1900@@UEAAHXZ 00000001800033f0 f   ConEmuPlugin1900.obj
 0001:00002420       ?GetWindowTypeName@CPluginAnsi@@UEAAPEB_WH@Z 0000000180003420 f   ConEmuPluginA.obj
 0001:00002420       ?GetWindowTypeName@CPluginW995@@UEAAPEB_WH@Z 0000000180003420 f   ConEmuPlugin995.obj
 0001:00002420       ?GetWindowTypeName@CPluginW2800@@UEAAPEB_WH@Z 0000000180003420 f   ConEmuPlugin2800.obj
 0001:00002420       ?GetWindowTypeName@CPluginW1900@@UEAAPEB_WH@Z 0000000180003420 f   ConEmuPlugin1900.obj
 0001:00002478       ?GuiMacroDlg@CPluginW1900@@UEAAXXZ 0000000180003478 f   ConEmuPlugin1900.obj
 0001:00002480       ?InputBox@CPluginW1900@@UEAA_NPEB_W000AEAPEA_W@Z 0000000180003480 f   ConEmuPlugin1900.obj
 0001:00002548       ?IsMacroActive@CPluginW1900@@UEAA_NXZ 0000000180003548 f   ConEmuPlugin1900.obj
 0001:0000258c       ?LoadFarColors@CPluginW1900@@UEAAXAEAY0BAA@E@Z 000000018000358c f   ConEmuPlugin1900.obj
 0001:00002720       ?LoadFarSettings@CPluginW1900@@UEAAXPEAUCEFarInterfaceSettings@@PEAUCEFarPanelSettings@@@Z 0000000180003720 f   ConEmuPlugin1900.obj
 0001:00002860       ?Open@CPluginW1900@@UEAAPEAXPEBX@Z 0000000180003860 f   ConEmuPlugin1900.obj
 0001:0000293c       ?OpenEditor@CPluginW1900@@UEAA_NPEB_W_N11HH@Z 000000018000393c f   ConEmuPlugin1900.obj
 0001:00002a50       ?PanelControlApi@CPluginW1900@@UEAA_JPEAXH_J0@Z 0000000180003a50 f   ConEmuPlugin1900.obj
 0001:00002a88       ?PostMacroApi@CPluginW1900@@UEAAXPEB_WPEAU_INPUT_RECORD@@_N@Z 0000000180003a88 f   ConEmuPlugin1900.obj
 0001:00003060       ?ProcessEditorEventPtr@CPluginW1900@@UEAAHPEAX@Z 0000000180004060 f   ConEmuPlugin1900.obj
 0001:00003060       ?ProcessEditorEventPtr@CPluginW2800@@UEAAHPEAX@Z 0000000180004060 f   ConEmuPlugin2800.obj
 0001:0000306c       ?ProcessEditorInputPtr@CPluginW1900@@UEAAHPEBX@Z 000000018000406c f   ConEmuPlugin1900.obj
 0001:0000308c       ?ProcessSynchroEventPtr@CPluginW2800@@UEAAHPEAX@Z 000000018000408c f   ConEmuPlugin2800.obj
 0001:0000308c       ?ProcessSynchroEventPtr@CPluginW1900@@UEAAHPEAX@Z 000000018000408c f   ConEmuPlugin1900.obj
 0001:000030b0       ?ProcessViewerEventPtr@CPluginW2800@@UEAAHPEAX@Z 00000001800040b0 f   ConEmuPlugin2800.obj
 0001:000030b0       ?ProcessViewerEventPtr@CPluginW1900@@UEAAHPEAX@Z 00000001800040b0 f   ConEmuPlugin1900.obj
 0001:000030bc       ?RedrawAll@CPluginW1900@@UEAAXXZ 00000001800040bc f   ConEmuPlugin1900.obj
 0001:000030f4       ?SetStartupInfoPtr@CPluginW1900@@UEAAXPEAX@Z 00000001800040f4 f   ConEmuPlugin1900.obj
 0001:00003248       ?SetWindow@CPluginW1900@@UEAAXH@Z 0000000180004248 f   ConEmuPlugin1900.obj
 0001:000032a0       ?ShowMessage@CPluginW1900@@UEAAHPEB_WH_N@Z 00000001800042a0 f   ConEmuPlugin1900.obj
 0001:00003308       ?ShowPluginMenu@CPluginW1900@@UEAAHPEAUConEmuPluginMenuItem@@HH@Z 0000000180004308 f   ConEmuPlugin1900.obj
 0001:00003458       ?ShowUserScreen@CPluginW1900@@UEAAX_N@Z 0000000180004458 f   ConEmuPlugin1900.obj
 0001:00003484       _guard_check_icall_nop     0000000180004484 f   LIBCMT:guard_support.obj
 0001:00003484       ?StopWaitEndSynchro@CPluginW1900@@UEAAXXZ 0000000180004484 f   ConEmuPlugin1900.obj
 0001:00003484       ?_Doraise@exception@stdext@@MEBAXXZ 0000000180004484 f   common-kernel64:CEStr.obj
 0001:00003484       ?PlugServerInit@@YAXXZ     0000000180004484 f   PluginSrv.obj
 0001:00003484       ?WaitEndSynchro@CPluginW2800@@UEAAXXZ 0000000180004484 f   ConEmuPlugin2800.obj
 0001:00003484       ?WaitEndSynchro@CPluginW1900@@UEAAXXZ 0000000180004484 f   ConEmuPlugin1900.obj
 0001:00003484       ?StopWaitEndSynchro@CPluginAnsi@@UEAAXXZ 0000000180004484 f   ConEmuPluginA.obj
 0001:00003484       ?ShutdownPluginStep@CPluginBase@@SAXPEB_WHHHH@Z 0000000180004484 f   ConEmuPluginBase.obj
 0001:00003484       ?WaitEndSynchro@CPluginAnsi@@UEAAXXZ 0000000180004484 f   ConEmuPluginA.obj
 0001:00003484       ?StopWaitEndSynchro@CPluginW2800@@UEAAXXZ 0000000180004484 f   ConEmuPlugin2800.obj
 0001:00003488       ?UpdateConEmuTabsApi@CPluginW1900@@UEAA_NH@Z 0000000180004488 f   ConEmuPlugin1900.obj
 0001:00003958       ??$_Emplace_reallocate@AEBUWindowInfo@@@?$vector@UWindowInfo@@V?$MArrayAllocator@UWindowInfo@@@@@std@@QEAAPEAUWindowInfo@@QEAU2@AEBU2@@Z 0000000180004958 f i ConEmuPlugin2800.obj
 0001:00003afc       ??0CPluginW2800@@QEAA@XZ   0000000180004afc f   ConEmuPlugin2800.obj
 0001:00003ca0       ??0bad_alloc@std@@QEAA@AEBV01@@Z 0000000180004ca0 f i ConEmuPlugin2800.obj
 0001:00003cdc       ??0bad_alloc@std@@QEAA@XZ  0000000180004cdc f i ConEmuPlugin2800.obj
 0001:00003cfc       ??0exception@std@@QEAA@AEBV01@@Z 0000000180004cfc f i ConEmuPlugin2800.obj
 0001:00003d30       ??1?$MArray@UWindowInfo@@@@QEAA@XZ 0000000180004d30 f i ConEmuPlugin2800.obj
 0001:00003d5c       ??1bad_function_call@std@@UEAA@XZ 0000000180004d5c f i libcpmt:xthrow.obj
 0001:00003d5c       ??1bad_exception@std@@UEAA@XZ 0000000180004d5c f i libvcruntime:frame.obj
 0001:00003d5c       ??1bad_alloc@std@@UEAA@XZ  0000000180004d5c f i ConEmuPlugin2800.obj
 0001:00003d5c       ??1length_error@std@@UEAA@XZ 0000000180004d5c f i libcpmt:xthrow.obj
 0001:00003d70       ??_GCPluginW2800@@UEAAPEAXI@Z 0000000180004d70 f i ConEmuPlugin2800.obj
 0001:00003d70       ??_ECPluginW2800@@UEAAPEAXI@Z 0000000180004d70 f i ConEmuPlugin2800.obj
 0001:00003db0       ??_Elength_error@std@@UEAAPEAXI@Z 0000000180004db0 f i libcpmt:xthrow.obj
 0001:00003db0       ??_Glogic_error@std@@UEAAPEAXI@Z 0000000180004db0 f i libcpmt:xthrow.obj
 0001:00003db0       ??_Gexception@std@@UEAAPEAXI@Z 0000000180004db0 f i ConEmuPlugin2800.obj
 0001:00003db0       ??_Glength_error@std@@UEAAPEAXI@Z 0000000180004db0 f i libcpmt:xthrow.obj
 0001:00003db0       ??_Gbad_alloc@std@@UEAAPEAXI@Z 0000000180004db0 f i ConEmuPlugin2800.obj
 0001:00003db0       ??_Ebad_exception@std@@UEAAPEAXI@Z 0000000180004db0 f i libvcruntime:frame.obj
 0001:00003db0       ??_Ebad_function_call@std@@UEAAPEAXI@Z 0000000180004db0 f i libcpmt:xthrow.obj
 0001:00003db0       ??_Gbad_function_call@std@@UEAAPEAXI@Z 0000000180004db0 f i libcpmt:xthrow.obj
 0001:00003db0       ??_Eexception@std@@UEAAPEAXI@Z 0000000180004db0 f i ConEmuPlugin2800.obj
 0001:00003db0       ??_Gbad_exception@std@@UEAAPEAXI@Z 0000000180004db0 f i libvcruntime:frame.obj
 0001:00003db0       ??_Ebad_alloc@std@@UEAAPEAXI@Z 0000000180004db0 f i ConEmuPlugin2800.obj
 0001:00003db0       ??_Elogic_error@std@@UEAAPEAXI@Z 0000000180004db0 f i libcpmt:xthrow.obj
 0001:00004340       ?CheckPanelExist@CPluginW2800@@UEAA_NXZ 0000000180005340 f   ConEmuPlugin2800.obj
 0001:0000437c       ?ExecuteSynchroApi@CPluginW2800@@UEAA_NXZ 000000018000537c f   ConEmuPlugin2800.obj
 0001:000043b0       ?ExitFar@CPluginW2800@@UEAAXXZ 00000001800053b0 f   ConEmuPlugin2800.obj
 0001:00004444       ?GetActiveWindowType@CPluginW2800@@UEAAHXZ 0000000180005444 f   ConEmuPlugin2800.obj
 0001:00004518       ?GetEditorModifiedState@CPluginW2800@@UEAAKXZ 0000000180005518 f   ConEmuPlugin2800.obj
 0001:00004578       ?GetFarRect@CPluginW2800@@UEAA_NAEAU_SMALL_RECT@@@Z 0000000180005578 f   ConEmuPlugin2800.obj
 0001:0000462c       ?GetMacroArea@CPluginW2800@@UEAAHXZ 000000018000562c f   ConEmuPlugin2800.obj
 0001:0000464c       ?GetMsg@CPluginW2800@@UEAAPEB_WHPEA_W_K@Z 000000018000564c f   ConEmuPlugin2800.obj
 0001:000046c4       ?GetPanelDir@CPluginW2800@@UEAAPEA_WKPEA_WH@Z 00000001800056c4 f   ConEmuPlugin2800.obj
 0001:00004840       ?GetPanelInfo@CPluginW2800@@UEAA_NKPEAUCEPanelInfo@@@Z 0000000180005840 f   ConEmuPlugin2800.obj
 0001:00004ae0       ?GetPanelItemInfo@CPluginW2800@@UEAA_NAEBUCEPanelInfo@@_N_JAEAU_WIN32_FIND_DATAW@@PEAPEA_W@Z 0000000180005ae0 f   ConEmuPlugin2800.obj
 0001:00004cc0       ?GetPluginInfoPtr@CPluginW2800@@UEAAXPEAX@Z 0000000180005cc0 f   ConEmuPlugin2800.obj
 0001:00004d1c       ?GetWindowCount@CPluginW2800@@UEAAHXZ 0000000180005d1c f   ConEmuPlugin2800.obj
 0001:00004d4c       ?GuiMacroDlg@CPluginW2800@@UEAAXXZ 0000000180005d4c f   ConEmuPlugin2800.obj
 0001:00004d54       ?InputBox@CPluginW2800@@UEAA_NPEB_W000AEAPEA_W@Z 0000000180005d54 f   ConEmuPlugin2800.obj
 0001:00004e20       ?IsMacroActive@CPluginW2800@@UEAA_NXZ 0000000180005e20 f   ConEmuPlugin2800.obj
 0001:00004e64       ?LoadFarColors@CPluginW2800@@UEAAXAEAY0BAA@E@Z 0000000180005e64 f   ConEmuPlugin2800.obj
 0001:00004ff8       ?LoadFarSettings@CPluginW2800@@UEAAXPEAUCEFarInterfaceSettings@@PEAUCEFarPanelSettings@@@Z 0000000180005ff8 f   ConEmuPlugin2800.obj
 0001:00005138       ?Open@CPluginW2800@@UEAAPEAXPEBX@Z 0000000180006138 f   ConEmuPlugin2800.obj
 0001:000052b0       ?OpenEditor@CPluginW2800@@UEAA_NPEB_W_N11HH@Z 00000001800062b0 f   ConEmuPlugin2800.obj
 0001:000053d4       ?PanelControlApi@CPluginW2800@@UEAA_JPEAXH_J0@Z 00000001800063d4 f   ConEmuPlugin2800.obj
 0001:0000540c       ?PostMacroApi@CPluginW2800@@UEAAXPEB_WPEAU_INPUT_RECORD@@_N@Z 000000018000640c f   ConEmuPlugin2800.obj
 0001:00005784       ?ProcessEditorInputPtr@CPluginW2800@@UEAAHPEBX@Z 0000000180006784 f   ConEmuPlugin2800.obj
 0001:000057a4       ?RedrawAll@CPluginW2800@@UEAAXXZ 00000001800067a4 f   ConEmuPlugin2800.obj
 0001:000057dc       ?SetStartupInfoPtr@CPluginW2800@@UEAAXPEAX@Z 00000001800067dc f   ConEmuPlugin2800.obj
 0001:00005930       ?SetWindow@CPluginW2800@@UEAAXH@Z 0000000180006930 f   ConEmuPlugin2800.obj
 0001:00005a68       ?ShowMessage@CPluginW2800@@UEAAHPEB_WH_N@Z 0000000180006a68 f   ConEmuPlugin2800.obj
 0001:00005ad0       ?ShowPluginMenu@CPluginW2800@@UEAAHPEAUConEmuPluginMenuItem@@HH@Z 0000000180006ad0 f   ConEmuPlugin2800.obj
 0001:00005c24       ?ShowUserScreen@CPluginW2800@@UEAAX_N@Z 0000000180006c24 f   ConEmuPlugin2800.obj
 0001:00005c50       ?UpdateConEmuTabsApi@CPluginW2800@@UEAA_NH@Z 0000000180006c50 f   ConEmuPlugin2800.obj
 0001:000065c8       ?_Getal@?$vector@UWindowInfo@@V?$MArrayAllocator@UWindowInfo@@@@@std@@AEAAAEAV?$MArrayAllocator@UWindowInfo@@@@XZ 00000001800075c8 f i ConEmuPlugin2800.obj
 0001:000065cc       ?_Xlength@?$vector@UtagPROCESSENTRY32W@@V?$MArrayAllocator@UtagPROCESSENTRY32W@@@@@std@@CAXXZ 00000001800075cc f i common-kernel64:MProcess.obj
 0001:000065cc       ?_Xlength@?$vector@UWindowInfo@@V?$MArrayAllocator@UWindowInfo@@@@@std@@CAXXZ 00000001800075cc f i ConEmuPlugin2800.obj
 0001:000065e0       ?deallocate@?$MArrayAllocator@UWindowInfo@@@@QEAAXPEAUWindowInfo@@_K@Z 00000001800075e0 f i ConEmuPlugin2800.obj
 0001:000065f8       ?erase@?$MArray@UWindowInfo@@@@QEAAX_J0@Z 00000001800075f8 f i ConEmuPlugin2800.obj
 0001:00006688       ?insert@?$MArray@UWindowInfo@@@@QEAA_J_JAEBUWindowInfo@@0@Z 0000000180007688 f i ConEmuPlugin2800.obj
 0001:00006724       ?insert@?$vector@UWindowInfo@@V?$MArrayAllocator@UWindowInfo@@@@@std@@QEAA?AV?$_Vector_iterator@V?$_Vector_val@U?$_Simple_types@UWindowInfo@@@std@@@std@@@2@V?$_Vector_const_iterator@V?$_Vector_val@U?$_Simple_types@UWindowInfo@@@std@@@std@@@2@_KAEBUWindowInfo@@@Z 0000000180007724 f i ConEmuPlugin2800.obj
 0001:00006b78       ?push_back@?$MArray@UWindowInfo@@@@QEAA_JAEBUWindowInfo@@@Z 0000000180007b78 f i ConEmuPlugin2800.obj
 0001:00006bfc       ?what@exception@std@@UEBAPEBDXZ 0000000180007bfc f i ConEmuPlugin2800.obj
 0001:00006c10       GetGlobalInfoW             0000000180007c10 f   ConEmuPlugin2800.obj
 0001:00006ca8       ??0CPluginW995@@QEAA@XZ    0000000180007ca8 f   ConEmuPlugin995.obj
 0001:00006e40       ??_GCPluginW995@@UEAAPEAXI@Z 0000000180007e40 f i ConEmuPlugin995.obj
 0001:00006e40       ??_ECPluginW995@@UEAAPEAXI@Z 0000000180007e40 f i ConEmuPlugin995.obj
 0001:000072c0       ?CheckPanelExist@CPluginW995@@UEAA_NXZ 00000001800082c0 f   ConEmuPlugin995.obj
 0001:000072f8       ?ExecuteSynchroApi@CPluginW995@@UEAA_NXZ 00000001800082f8 f   ConEmuPlugin995.obj
 0001:00007328       ?ExitFar@CPluginW995@@UEAAXXZ 0000000180008328 f   ConEmuPlugin995.obj
 0001:000073b0       ?GetActiveWindowType@CPluginW995@@UEAAHXZ 00000001800083b0 f   ConEmuPlugin995.obj
 0001:000074a8       ?GetEditorModifiedState@CPluginW995@@UEAAKXZ 00000001800084a8 f   ConEmuPlugin995.obj
 0001:00007500       ?GetFarRect@CPluginW995@@UEAA_NAEAU_SMALL_RECT@@@Z 0000000180008500 f   ConEmuPlugin995.obj
 0001:00007558       ?GetMacroArea@CPluginW995@@UEAAHXZ 0000000180008558 f   ConEmuPlugin995.obj
 0001:000075b0       ?GetMsg@CPluginW995@@UEAAPEB_WHPEA_W_K@Z 00000001800085b0 f   ConEmuPlugin995.obj
 0001:00007620       ?GetPanelDir@CPluginW995@@UEAAPEA_WKPEA_WH@Z 0000000180008620 f   ConEmuPlugin995.obj
 0001:00007744       ?GetPanelInfo@CPluginW995@@UEAA_NKPEAUCEPanelInfo@@@Z 0000000180008744 f   ConEmuPlugin995.obj
 0001:00007984       ?GetPanelItemInfo@CPluginW995@@UEAA_NAEBUCEPanelInfo@@_N_JAEAU_WIN32_FIND_DATAW@@PEAPEA_W@Z 0000000180008984 f   ConEmuPlugin995.obj
 0001:00007b3c       ?GetPluginInfoPtr@CPluginW995@@UEAAXPEAX@Z 0000000180008b3c f   ConEmuPlugin995.obj
 0001:00007ba8       ?GetWindowCount@CPluginW995@@UEAAHXZ 0000000180008ba8 f   ConEmuPlugin995.obj
 0001:00007bd4       ?GuiMacroDlg@CPluginW995@@UEAAXXZ 0000000180008bd4 f   ConEmuPlugin995.obj
 0001:00007bdc       ?InputBox@CPluginW995@@UEAA_NPEB_W000AEAPEA_W@Z 0000000180008bdc f   ConEmuPlugin995.obj
 0001:00007ca4       ?IsMacroActive@CPluginW995@@UEAA_NXZ 0000000180008ca4 f   ConEmuPlugin995.obj
 0001:00007d14       ?LoadFarColors@CPluginW995@@UEAAXAEAY0BAA@E@Z 0000000180008d14 f   ConEmuPlugin995.obj
 0001:00007dd0       ?LoadFarSettings@CPluginW995@@UEAAXPEAUCEFarInterfaceSettings@@PEAUCEFarPanelSettings@@@Z 0000000180008dd0 f   ConEmuPlugin995.obj
 0001:00007e2c       ?Open@CPluginAnsi@@UEAAPEAXPEBX@Z 0000000180008e2c f i ConEmuPluginA.obj
 0001:00007e2c       ?Open@CPluginW995@@UEAAPEAXPEBX@Z 0000000180008e2c f i ConEmuPlugin995.obj
 0001:00007e34       ?OpenEditor@CPluginW995@@UEAA_NPEB_W_N11HH@Z 0000000180008e34 f   ConEmuPlugin995.obj
 0001:00007f3c       ?PanelControlApi@CPluginW995@@UEAA_JPEAXH_J0@Z 0000000180008f3c f   ConEmuPlugin995.obj
 0001:00007f80       ?PostMacroApi@CPluginW995@@UEAAXPEB_WPEAU_INPUT_RECORD@@_N@Z 0000000180008f80 f   ConEmuPlugin995.obj
 0001:00008028       ?ProcessEditorEventPtr@CPluginW995@@UEAAHPEAX@Z 0000000180009028 f i ConEmuPlugin995.obj
 0001:00008028       ?ProcessEditorInputPtr@CPluginAnsi@@UEAAHPEBX@Z 0000000180009028 f i ConEmuPluginA.obj
 0001:00008028       ?ProcessViewerEventPtr@CPluginAnsi@@UEAAHPEAX@Z 0000000180009028 f i ConEmuPluginA.obj
 0001:00008028       ?ProcessSynchroEventPtr@CPluginAnsi@@UEAAHPEAX@Z 0000000180009028 f i ConEmuPluginA.obj
 0001:00008028       ?ProcessEditorEventPtr@CPluginAnsi@@UEAAHPEAX@Z 0000000180009028 f i ConEmuPluginA.obj
 0001:00008028       ?ProcessViewerEventPtr@CPluginW995@@UEAAHPEAX@Z 0000000180009028 f i ConEmuPlugin995.obj
 0001:00008028       ?ProcessSynchroEventPtr@CPluginW995@@UEAAHPEAX@Z 0000000180009028 f i ConEmuPlugin995.obj
 0001:0000802c       ?ProcessEditorInputPtr@CPluginW995@@UEAAHPEBX@Z 000000018000902c f   ConEmuPlugin995.obj
 0001:00008048       ?RedrawAll@CPluginW995@@UEAAXXZ 0000000180009048 f   ConEmuPlugin995.obj
 0001:00008078       ?SetStartupInfoPtr@CPluginW995@@UEAAXPEAX@Z 0000000180009078 f   ConEmuPlugin995.obj
 0001:000081d4       ?SetWindow@CPluginW995@@UEAAXH@Z 00000001800091d4 f   ConEmuPlugin995.obj
 0001:00008220       ?ShowMessage@CPluginW995@@UEAAHPEB_WH_N@Z 0000000180009220 f   ConEmuPlugin995.obj
 0001:00008280       ?ShowPluginMenu@CPluginW995@@UEAAHPEAUConEmuPluginMenuItem@@HH@Z 0000000180009280 f   ConEmuPlugin995.obj
 0001:000083bc       ?ShowUserScreen@CPluginW995@@UEAAX_N@Z 00000001800093bc f   ConEmuPlugin995.obj
 0001:000083e8       ?StopWaitEndSynchro@CPluginW995@@UEAAXXZ 00000001800093e8 f   ConEmuPlugin995.obj
 0001:00008418       ?UpdateConEmuTabsApi@CPluginW995@@UEAA_NH@Z 0000000180009418 f   ConEmuPlugin995.obj
 0001:00008690       ?WaitEndSynchro@CPluginW995@@UEAAXXZ 0000000180009690 f   ConEmuPlugin995.obj
 0001:00008828       ??0CPluginAnsi@@QEAA@XZ    0000000180009828 f   ConEmuPluginA.obj
 0001:0000898c       ??_ECPluginAnsi@@UEAAPEAXI@Z 000000018000998c f i ConEmuPluginA.obj
 0001:0000898c       ??_GCPluginAnsi@@UEAAPEAXI@Z 000000018000998c f i ConEmuPluginA.obj
 0001:00008f44       ?CheckPanelExist@CPluginAnsi@@UEAA_NXZ 0000000180009f44 f   ConEmuPluginA.obj
 0001:00008f7c       ?ExecuteSynchroApi@CPluginAnsi@@UEAA_NXZ 0000000180009f7c f i ConEmuPluginA.obj
 0001:00008f7c       ?GetFarRect@CPluginAnsi@@UEAA_NAEAU_SMALL_RECT@@@Z 0000000180009f7c f i ConEmuPluginA.obj
 0001:00008f80       ?ExitFar@CPluginAnsi@@UEAAXXZ 0000000180009f80 f   ConEmuPluginA.obj
 0001:00008fc4       ?GetActiveWindowType@CPluginAnsi@@UEAAHXZ 0000000180009fc4 f   ConEmuPluginA.obj
 0001:00009048       ?GetEditorModifiedState@CPluginAnsi@@UEAAKXZ 000000018000a048 f   ConEmuPluginA.obj
 0001:000090a0       ?GetMacroArea@CPluginAnsi@@UEAAHXZ 000000018000a0a0 f   ConEmuPluginA.obj
 0001:000090a0       _get_startup_argv_mode     000000018000a0a0 f   LIBCMT:argv_mode.obj
 0001:000090a8       ?GetMsg@CPluginAnsi@@UEAAPEB_WHPEA_W_K@Z 000000018000a0a8 f   ConEmuPluginA.obj
 0001:00009148       ?GetPanelDir@CPluginAnsi@@UEAAPEA_WKPEA_WH@Z 000000018000a148 f   ConEmuPluginA.obj
 0001:00009240       ?GetPanelInfo@CPluginAnsi@@UEAA_NKPEAUCEPanelInfo@@@Z 000000018000a240 f   ConEmuPluginA.obj
 0001:00009498       ?GetPanelItemInfo@CPluginAnsi@@UEAA_NAEBUCEPanelInfo@@_N_JAEAU_WIN32_FIND_DATAW@@PEAPEA_W@Z 000000018000a498 f   ConEmuPluginA.obj
 0001:000095d0       ?GetPluginInfoPtr@CPluginAnsi@@UEAAXPEAX@Z 000000018000a5d0 f   ConEmuPluginA.obj
 0001:0000965c       ?GetWindowCount@CPluginAnsi@@UEAAHXZ 000000018000a65c f   ConEmuPluginA.obj
 0001:00009688       ?GuiMacroDlg@CPluginAnsi@@UEAAXXZ 000000018000a688 f   ConEmuPluginA.obj
 0001:00009690       ?InputBox@CPluginAnsi@@UEAA_NPEB_W000AEAPEA_W@Z 000000018000a690 f   ConEmuPluginA.obj
 0001:000097f0       ?IsMacroActive@CPluginAnsi@@UEAA_NXZ 000000018000a7f0 f   ConEmuPluginA.obj
 0001:00009864       ?LoadFarColors@CPluginAnsi@@UEAAXAEAY0BAA@E@Z 000000018000a864 f   ConEmuPluginA.obj
 0001:00009924       ?LoadFarSettings@CPluginAnsi@@UEAAXPEAUCEFarInterfaceSettings@@PEAUCEFarPanelSettings@@@Z 000000018000a924 f   ConEmuPluginA.obj
 0001:00009984       ?OpenEditor@CPluginAnsi@@UEAA_NPEB_W_N11HH@Z 000000018000a984 f   ConEmuPluginA.obj
 0001:00009ac0       ?PanelControlApi@CPluginAnsi@@UEAA_JPEAXH_J0@Z 000000018000aac0 f   ConEmuPluginA.obj
 0001:00009afc       ?PostMacroApi@CPluginAnsi@@UEAAXPEB_WPEAU_INPUT_RECORD@@_N@Z 000000018000aafc f   ConEmuPluginA.obj
 0001:00009bc0       ?RedrawAll@CPluginAnsi@@UEAAXXZ 000000018000abc0 f   ConEmuPluginA.obj
 0001:00009bf4       ?SetStartupInfoPtr@CPluginAnsi@@UEAAXPEAX@Z 000000018000abf4 f   ConEmuPluginA.obj
 0001:00009d38       ?SetWindow@CPluginAnsi@@UEAAXH@Z 000000018000ad38 f   ConEmuPluginA.obj
 0001:00009d8c       ?ShowMessage@CPluginAnsi@@UEAAHPEB_WH_N@Z 000000018000ad8c f   ConEmuPluginA.obj
 0001:00009e68       ?ShowPluginMenu@CPluginAnsi@@UEAAHPEAUConEmuPluginMenuItem@@HH@Z 000000018000ae68 f   ConEmuPluginA.obj
 0001:0000a004       ?ShowUserScreen@CPluginAnsi@@UEAAX_N@Z 000000018000b004 f   ConEmuPluginA.obj
 0001:0000a030       ?UpdateConEmuTabsApi@CPluginAnsi@@UEAA_NH@Z 000000018000b030 f   ConEmuPluginA.obj
 0001:0000a2ec       ??$swprintf_c@$0BAE@@@YAHAEAY0BAE@_WPEB_WZZ 000000018000b2ec f i ConEmuPluginBase.obj
 0001:0000a318       ??$swprintf_c@$0DAM@@@YAHAEAY0DAM@_WPEB_WZZ 000000018000b318 f i ConEmuPluginBase.obj
 0001:0000a344       ??$swprintf_c@$0EAA@@@YAHAEAY0EAA@_WPEB_WZZ 000000018000b344 f i ConEmuPluginBase.obj
 0001:0000a370       ??$swprintf_c@$0MI@@@YAHAEAY0MI@_WPEB_WZZ 000000018000b370 f i ConEmuPluginBase.obj
 0001:0000a39c       ??$wcscpy_c@$0BBE@@@YAHAEAY0BBE@_WPEB_W@Z 000000018000b39c f i ConEmuPluginBase.obj
 0001:0000a3e8       ??$wcscpy_c@$0CAI@@@YAHAEAY0CAI@_WPEB_W@Z 000000018000b3e8 f i ConEmuPluginBase.obj
 0001:0000a434       ??0CPluginBase@@QEAA@XZ    000000018000b434 f   ConEmuPluginBase.obj
 0001:0000a550       ??0MWow64Disable@@QEAA@XZ  000000018000b550 f i ConEmuPluginBase.obj
 0001:0000a5c4       ??1?$MFileMapping@UPanelViewSetMapping@@@@QEAA@XZ 000000018000b5c4 f i PluginBackground.obj
 0001:0000a5c4       ??1?$MFileMapping@UConEmuGuiMapping@@@@QEAA@XZ 000000018000b5c4 f i common-user64:ConEmuCheckEx.obj
 0001:0000a5c4       ??1?$MFileMapping@UCESERVER_CONSOLE_MAPPING_HDR@@@@QEAA@XZ 000000018000b5c4 f i ConEmuPluginBase.obj
 0001:0000a5d8       ??1CPluginBase@@UEAA@XZ    000000018000b5d8 f   ConEmuPluginBase.obj
 0001:0000a5e4       ??1MWow64Disable@@QEAA@XZ  000000018000b5e4 f i ConEmuPluginBase.obj
 0001:0000a608       ??_ECPluginBase@@UEAAPEAXI@Z 000000018000b608 f i ConEmuPluginBase.obj
 0001:0000a608       ??_GCPluginBase@@UEAAPEAXI@Z 000000018000b608 f i ConEmuPluginBase.obj
 0001:0000a634       ?ActivatePlugin@CPluginBase@@QEAA_NKPEAXK@Z 000000018000b634 f   ConEmuPluginBase.obj
 0001:0000a7f0       ?AddTab@CPluginBase@@QEAA_NAEAHH_N1HPEB_W2HHHH@Z 000000018000b7f0 f   ConEmuPluginBase.obj
 0001:0000ab54       ?AddTabFinish@CPluginBase@@QEAAXH@Z 000000018000bb54 f   ConEmuPluginBase.obj
 0001:0000ab60       ?Attach2Gui@CPluginBase@@QEAA_N_N@Z 000000018000bb60 f   ConEmuPluginBase.obj
 0001:0000af88       ?BackgroundMacroError@CPluginBase@@SAKPEAX@Z 000000018000bf88 f   ConEmuPluginBase.obj
 0001:0000afb0       ?CheckBufferEnabled@CPluginBase@@QEAA_NXZ 000000018000bfb0 f   ConEmuPluginBase.obj
 0001:0000b014       ?CheckConEmuDetached@CPluginBase@@SAXXZ 000000018000c014 f   ConEmuPluginBase.obj
 0001:0000b204       ?CheckResources@CPluginBase@@QEAAX_N@Z 000000018000c204 f   ConEmuPluginBase.obj
 0001:0000b3e4       ?CloseMap@?$MFileMapping@UPanelViewSetMapping@@@@QEAAXXZ 000000018000c3e4 f i PluginBackground.obj
 0001:0000b3e4       ?CloseMap@?$MFileMapping@UCESERVER_CONSOLE_MAPPING_HDR@@@@QEAAXXZ 000000018000c3e4 f i ConEmuPluginBase.obj
 0001:0000b3e4       ?CloseMap@?$MFileMapping@UConEmuGuiMapping@@@@QEAAXXZ 000000018000c3e4 f i common-kernel64:ConEmuCheck.obj
 0001:0000b448       ?CloseMapHeader@CPluginBase@@SAXXZ 000000018000c448 f   ConEmuPluginBase.obj
 0001:0000b46c       ?CloseTabs@CPluginBase@@SAXXZ 000000018000c46c f   ConEmuPluginBase.obj
 0001:0000b50c       ?CommonPluginStartup@CPluginBase@@QEAAXXZ 000000018000c50c f   ConEmuPluginBase.obj
 0001:0000b618       ?CreateTabs@CPluginBase@@SA_NH@Z 000000018000c618 f   ConEmuPluginBase.obj
 0001:0000b6d8       ?DllCheckUnique@CPluginBase@@KA_N_N@Z 000000018000c6d8 f   ConEmuPluginBase.obj
 0001:0000b90c       ?DllMain_ProcessAttach@CPluginBase@@KAXPEAUHINSTANCE__@@@Z 000000018000c90c f   ConEmuPluginBase.obj
 0001:0000b9f4       ?DllMain_ProcessDetach@CPluginBase@@KAXXZ 000000018000c9f4 f   ConEmuPluginBase.obj
 0001:0000badc       ?EditViewConsoleOutput@CPluginBase@@QEAAX_N@Z 000000018000cadc f   ConEmuPluginBase.obj
 0001:0000bba8       ?EmergencyShow@CPluginBase@@KAXXZ 000000018000cba8 f   ConEmuPluginBase.obj
 0001:0000bc04       ?ExecuteSynchro@CPluginBase@@QEAAXXZ 000000018000cc04 f   ConEmuPluginBase.obj
 0001:0000bc84       ?ExitFarCommon@CPluginBase@@QEAAX_N@Z 000000018000cc84 f   ConEmuPluginBase.obj
 0001:0000bcb0       ?FarSetConsoleSize@CPluginBase@@SA_NFF@Z 000000018000ccb0 f   ConEmuPluginBase.obj
 0001:0000bdbc       ?FillLoadedParm@CPluginBase@@SAXPEAUConEmuLoadedArg@@PEAUHINSTANCE__@@H@Z 000000018000cdbc f   ConEmuPluginBase.obj
 0001:0000be94       ?FillUpdateBackground@CPluginBase@@QEAAXPEAUPaintBackgroundArg@@@Z 000000018000ce94 f   ConEmuPluginBase.obj
 0001:0000c010       ?FindServerCmd@CPluginBase@@QEAA_NKAEAK_N@Z 000000018000d010 f   ConEmuPluginBase.obj
 0001:0000c10c       ?GetMainThreadId@CPluginBase@@SAKXZ 000000018000d10c f   ConEmuPluginBase.obj
 0001:0000c1bc       ?GetPanelInfo@CPluginBase@@QEAA_NKPEAUBkPanelInfo@@@Z 000000018000d1bc f   ConEmuPluginBase.obj
 0001:0000c260       ?InitHWND@CPluginBase@@SAXXZ 000000018000d260 f   ConEmuPluginBase.obj
 0001:0000c4f0       ?InitResources@CPluginBase@@QEAAXXZ 000000018000d4f0 f   ConEmuPluginBase.obj
 0001:0000c714       ?InitRootRegKey@CPluginBase@@IEAAXXZ 000000018000d714 f   ConEmuPluginBase.obj
 0001:0000c848       ?InternalOpenCreate@?$MFileMapping@UPanelViewSetMapping@@@@IEAAPEAUPanelViewSetMapping@@_N0H@Z 000000018000d848 f i PluginBackground.obj
 0001:0000c848       ?InternalOpenCreate@?$MFileMapping@UConEmuGuiMapping@@@@IEAAPEAUConEmuGuiMapping@@_N0H@Z 000000018000d848 f i common-kernel64:ConEmuCheck.obj
 0001:0000c848       ?InternalOpenCreate@?$MFileMapping@UCESERVER_CONSOLE_MAPPING_HDR@@@@IEAAPEAUCESERVER_CONSOLE_MAPPING_HDR@@_N0H@Z 000000018000d848 f i ConEmuPluginBase.obj
 0001:0000cafc       ?IsCurrentTabModal@CPluginBase@@QEAA_NXZ 000000018000dafc f   ConEmuPluginBase.obj
 0001:0000ccb8       ?LoadFarVersion@CPluginBase@@SA_NXZ 000000018000dcb8 f   ConEmuPluginBase.obj
 0001:0000cf60       ?LoadPanelTabsFromRegistry@CPluginBase@@IEAAXXZ 000000018000df60 f   ConEmuPluginBase.obj
 0001:0000d0ac       ?MonitorThreadProcW@CPluginBase@@SAKPEAX@Z 000000018000e0ac f   ConEmuPluginBase.obj
 0001:0000d4b0       ?NotifyConEmuUnloaded@CPluginBase@@SAXXZ 000000018000e4b0 f   ConEmuPluginBase.obj
 0001:0000d5d4       ?OnConsoleDetaching@CPluginBase@@SAHPEAUHookCallbackArg@@@Z 000000018000e5d4 f   ConEmuPluginBase.obj
 0001:0000d718       ?OnConsolePeekInput@CPluginBase@@SAHPEAUHookCallbackArg@@@Z 000000018000e718 f   ConEmuPluginBase.obj
 0001:0000d780       ?OnConsolePeekInputPost@CPluginBase@@SAHPEAUHookCallbackArg@@@Z 000000018000e780 f   ConEmuPluginBase.obj
 0001:0000d7b0       ?OnConsolePeekReadInput@CPluginBase@@SAX_N@Z 000000018000e7b0 f   ConEmuPluginBase.obj
 0001:0000d9d0       ?OnConsoleReadInput@CPluginBase@@SAHPEAUHookCallbackArg@@@Z 000000018000e9d0 f   ConEmuPluginBase.obj
 0001:0000d9d8       ?OnConsoleReadInputPost@CPluginBase@@SAHPEAUHookCallbackArg@@@Z 000000018000e9d8 f   ConEmuPluginBase.obj
 0001:0000db88       ?OnConsoleReadInputWork@CPluginBase@@SAHPEAUHookCallbackArg@@@Z 000000018000eb88 f   ConEmuPluginBase.obj
 0001:0000dbfc       ?OnConsoleWasAttached@CPluginBase@@SAHPEAUHookCallbackArg@@@Z 000000018000ebfc f   ConEmuPluginBase.obj
 0001:0000dc64       ?OnCurDirChanged@CPluginBase@@SAXXZ 000000018000ec64 f   ConEmuPluginBase.obj
 0001:0000dcc0       ?OnGetNumberOfConsoleInputEventsPost@CPluginBase@@SAHPEAUHookCallbackArg@@@Z 000000018000ecc0 f   ConEmuPluginBase.obj
 0001:0000dcf4       ?OnLibraryLoaded@CPluginBase@@SAXPEAUHINSTANCE__@@@Z 000000018000ecf4 f   ConEmuPluginBase.obj
 0001:0000dd94       ?OnMainThreadActivated@CPluginBase@@QEAAXXZ 000000018000ed94 f   ConEmuPluginBase.obj
 0001:0000df3c       ?OnPanelViewCallbacks@CPluginBase@@SA_NPEAUHookCallbackArg@@P6AHPEAXPEAU_INPUT_RECORD@@KPEAKPEAH@Z5@Z 000000018000ef3c f   ConEmuPluginBase.obj
 0001:0000e014       ?OnPostWriteConsoleOutput@CPluginBase@@SAHPEAUHookCallbackArg@@@Z 000000018000f014 f   ConEmuPluginBase.obj
 0001:0000e020       ?OnShellExecuteExW_Except@CPluginBase@@SAHPEAUHookCallbackArg@@@Z 000000018000f020 f   ConEmuPluginBase.obj
 0001:0000e060       ?OnWriteConsoleOutput@CPluginBase@@SAHPEAUHookCallbackArg@@@Z 000000018000f060 f   ConEmuPluginBase.obj
 0001:0000e134       ?OpenMapHeader@CPluginBase@@SAHXZ 000000018000f134 f   ConEmuPluginBase.obj
 0001:0000e2f0       ?OpenPluginCommon@CPluginBase@@QEAAPEAXH_J_N@Z 000000018000f2f0 f   ConEmuPluginBase.obj
 0001:0000e5d8       ?OutDataAlloc@CPluginBase@@SA_NK@Z 000000018000f5d8 f   ConEmuPluginBase.obj
 0001:0000e638       ?OutDataRealloc@CPluginBase@@SA_NK@Z 000000018000f638 f   ConEmuPluginBase.obj
 0001:0000e700       ?OutDataWrite@CPluginBase@@SA_NPEAXK@Z 000000018000f700 f   ConEmuPluginBase.obj
 0001:0000e7a0       ?PanelControl@CPluginBase@@QEAA_JPEAXH_J0@Z 000000018000f7a0 f   ConEmuPluginBase.obj
 0001:0000e838       ?Plugin@@YAPEAVCPluginBase@@XZ 000000018000f838 f   ConEmuPluginBase.obj
 0001:0000e910       ?PrintText@CPluginBase@@QEAA_NPEB_W@Z 000000018000f910 f   ConEmuPluginBase.obj
 0001:0000ea2c       ?ProcessCommand@CPluginBase@@QEAA_NKHPEAXPEAPEAUCESERVER_REQ@@_N@Z 000000018000fa2c f   ConEmuPluginBase.obj
 0001:0000eecc       ?ProcessCommandLine@CPluginBase@@QEAA_NPEA_W@Z 000000018000fecc f   ConEmuPluginBase.obj
 0001:0000ef18       ?ProcessDragFrom@CPluginBase@@QEAAXXZ 000000018000ff18 f   ConEmuPluginBase.obj
 0001:0000f39c       ?ProcessDragTo@CPluginBase@@QEAAXXZ 000000018001039c f   ConEmuPluginBase.obj
 0001:0000f6ac       ?ProcessEditorInputInternal@CPluginBase@@QEAAXAEBU_INPUT_RECORD@@@Z 00000001800106ac f   ConEmuPluginBase.obj
 0001:0000f6d8       ?ProcessEditorViewerEvent@CPluginBase@@QEAAHHH@Z 00000001800106d8 f   ConEmuPluginBase.obj
 0001:0000f78c       ?ProcessSetWindowCommand@CPluginBase@@QEAAXXZ 000000018001078c f   ConEmuPluginBase.obj
 0001:0000f8b4       ?ProcessSynchroEvent@CPluginBase@@QEAAHHPEAX@Z 00000001800108b4 f   ConEmuPluginBase.obj
 0001:0000f938       ?ReloadFarInfo@CPluginBase@@QEAA_N_N@Z 0000000180010938 f   ConEmuPluginBase.obj
 0001:0000fbb4       ?ReloadFarInfoApi@CPluginBase@@IEAA_NXZ 0000000180010bb4 f   ConEmuPluginBase.obj
 0001:0000fd88       ?RunExternalProgram@CPluginBase@@QEAA_NPEA_W@Z 0000000180010d88 f   ConEmuPluginBase.obj
 0001:0000ff18       ?RunExternalProgramW@CPluginBase@@SA_NPEA_W0_N@Z 0000000180010f18 f   ConEmuPluginBase.obj
 0001:0001017c       ?SendTabs@CPluginBase@@SAXH_N@Z 000000018001117c f   ConEmuPluginBase.obj
 0001:00010338       ?SetRootRegKey@CPluginBase@@IEAAXPEA_W@Z 0000000180011338 f   ConEmuPluginBase.obj
 0001:000103d4       ?ShowConsoleInfo@CPluginBase@@QEAAXXZ 00000001800113d4 f   ConEmuPluginBase.obj
 0001:000105d8       ?ShowMessage@CPluginBase@@QEAAHHH@Z 00000001800115d8 f   ConEmuPluginBase.obj
 0001:00010654       ?ShowMessageBox@CPluginBase@@KAHPEB_WI@Z 0000000180011654 f   ConEmuPluginBase.obj
 0001:00010738       ?ShowMessageGui@CPluginBase@@QEAAHHH@Z 0000000180011738 f   ConEmuPluginBase.obj
 0001:000107c0       ?ShowPanelsList@CPluginBase@@QEAAXXZ 00000001800117c0 f   ConEmuPluginBase.obj
 0001:0001090c       ?ShowPluginMenu@CPluginBase@@QEAAXW4PluginCallCommands@@@Z 000000018001190c f   ConEmuPluginBase.obj
 0001:00010b14       ?ShowProtocolWarning@CPluginBase@@KAXXZ 0000000180011b14 f   ConEmuPluginBase.obj
 0001:00010c84       ?ShowTabsList@CPluginBase@@QEAAXXZ 0000000180011c84 f   ConEmuPluginBase.obj
 0001:00010f0c       ?StartDebugger@CPluginBase@@QEAA_NXZ 0000000180011f0c f   ConEmuPluginBase.obj
 0001:000111c0       ?StopThread@CPluginBase@@QEAAX_N@Z 00000001800121c0 f   ConEmuPluginBase.obj
 0001:00011424       ?StorePanelDirs@CPluginBase@@QEAA_NPEB_W0@Z 0000000180012424 f   ConEmuPluginBase.obj
 0001:00011594       ?StringCchCatW@@YAJPEA_W_KPEB_W@Z 0000000180012594 f i ConEmuPluginBase.obj
 0001:00011650       ?StringCchCopyW@@YAJPEA_W_KPEB_W@Z 0000000180012650 f i ConEmuPluginBase.obj
 0001:000116bc       ?SwitchTabCommand@CPluginBase@@QEAAXW4PluginMenuCommands@@@Z 00000001800126bc f   ConEmuPluginBase.obj
 0001:00011740       ?ToOem@CPluginBase@@SAPEADPEB_W@Z 0000000180012740 f   ConEmuPluginBase.obj
 0001:0001179c       ?ToOem@CPluginBase@@SAXPEB_WPEAD_J@Z 000000018001279c f   ConEmuPluginBase.obj
 0001:000117dc       ?ToUnicode@CPluginBase@@SAPEA_WPEBD@Z 00000001800127dc f   ConEmuPluginBase.obj
 0001:00011844       ?TouchReadPeekConsoleInputs@CPluginBase@@SAXH@Z 0000000180012844 f   ConEmuPluginBase.obj
 0001:00011890       ?UngetDummyMouseEvent@CPluginBase@@SA_N_NPEAUHookCallbackArg@@@Z 0000000180012890 f   ConEmuPluginBase.obj
 0001:00011a3c       ?UpdateConEmuTabs@CPluginBase@@QEAA_N_N@Z 0000000180012a3c f   ConEmuPluginBase.obj
 0001:00011cbc       ?UpdatePanelDirs@CPluginBase@@QEAAXXZ 0000000180012cbc f   ConEmuPluginBase.obj
 0001:00011e8c       ?WaitPluginActivation@CPluginBase@@SAKKPEAPEAXHK@Z 0000000180012e8c f   ConEmuPluginBase.obj
 0001:00011f94       ?cmd_CloseQSearch@CPluginBase@@QEAAXXZ 0000000180012f94 f   ConEmuPluginBase.obj
 0001:00011fcc       ?cmd_ConSetFont@CPluginBase@@QEAAXPEAX@Z 0000000180012fcc f   ConEmuPluginBase.obj
 0001:00012020       ?cmd_EMenu@CPluginBase@@QEAAXPEAX@Z 0000000180013020 f   ConEmuPluginBase.obj
 0001:0001213c       ?cmd_ExternalCallback@CPluginBase@@QEAA_NPEAX@Z 000000018001313c f   ConEmuPluginBase.obj
 0001:000121a0       ?cmd_GuiChanged@CPluginBase@@QEAAXPEAX@Z 00000001800131a0 f   ConEmuPluginBase.obj
 0001:0001222c       ?cmd_LeftClickSync@CPluginBase@@QEAAXPEAX@Z 000000018001322c f   ConEmuPluginBase.obj
 0001:00012318       ?cmd_OpenEditorLine@CPluginBase@@QEAA_NPEAUCESERVER_REQ_FAREDITOR@@@Z 0000000180013318 f   ConEmuPluginBase.obj
 0001:000123e4       ?cmd_RedrawFarCall@CPluginBase@@QEAA_NAEAPEAUCESERVER_REQ@@PEAPEAU2@@Z 00000001800133e4 f   ConEmuPluginBase.obj
 0001:000124b8       ?cmd_SetWindow@CPluginBase@@QEAA_NPEAX_N@Z 00000001800134b8 f   ConEmuPluginBase.obj
 0001:00012544       ?isMacroActive@CPluginBase@@QEAA_NAEAH@Z 0000000180013544 f   ConEmuPluginBase.obj
 0001:00012580       ?isModalEditorViewer@CPluginBase@@QEAA_NXZ 0000000180013580 f   ConEmuPluginBase.obj
 0001:000125ac       ?pcc_Disabled@CPluginBase@@SA_NW4PluginMenuCommands@@@Z 00000001800135ac f   ConEmuPluginBase.obj
 0001:0001262c       ?pcc_Selected@CPluginBase@@SA_NW4PluginMenuCommands@@@Z 000000018001362c f   ConEmuPluginBase.obj
 0001:00012688       ??0CPluginBackground@@QEAA@XZ 0000000180013688 f   PluginBackground.obj
 0001:00012840       ??1CPluginBackground@@QEAA@XZ 0000000180013840 f   PluginBackground.obj
 0001:000129a8       ?CheckPanelFolders@CPluginBackground@@IEAAXH@Z 00000001800139a8 f   PluginBackground.obj
 0001:00012a78       ?GetTo@?$MFileMapping@UPanelViewSetMapping@@@@QEAA_NPEAUPanelViewSetMapping@@H@Z 0000000180013a78 f i PluginBackground.obj
 0001:00012b48       ?IsParmChanged@CPluginBackground@@IEAA_NPEAUPaintBackgroundArg@@0@Z 0000000180013b48 f   PluginBackground.obj
 0001:00012dc0       ?LoadThSet@CPluginBackground@@IEAAHH@Z 0000000180013dc0 f   PluginBackground.obj
 0001:00013134       ?MonitorBackground@CPluginBackground@@QEAAXXZ 0000000180014134 f   PluginBackground.obj
 0001:0001319c       ?OnMainThreadActivated@CPluginBackground@@QEAAXHH@Z 000000018001419c f   PluginBackground.obj
 0001:00013260       ?ReallocItems@CPluginBackground@@IEAAXH@Z 0000000180014260 f   PluginBackground.obj
 0001:000132c8       ?RegisterSubplugin@CPluginBackground@@QEAAHPEAURegisterBackgroundArg@@@Z 00000001800142c8 f   PluginBackground.obj
 0001:0001355c       ?SetDcPanelRect@CPluginBackground@@IEAAXPEAUtagRECT@@PEAUBkPanelInfo@@PEAUPaintBackgroundArg@@@Z 000000018001455c f   PluginBackground.obj
 0001:00013630       ?SetForceThLoad@CPluginBackground@@QEAAXXZ 0000000180014630 f   PluginBackground.obj
 0001:00013648       ?SetForceUpdate@CPluginBackground@@QEAAX_N@Z 0000000180014648 f   PluginBackground.obj
 0001:00013668       ?UpdateBackground@CPluginBackground@@IEAAXXZ 0000000180014668 f   PluginBackground.obj
 0001:00013edc       ?UpdateBackground_Exec@CPluginBackground@@KAXPEAURegisterBackgroundArg@@PEAUPaintBackgroundArg@@@Z 0000000180014edc f   PluginBackground.obj
 0001:00013f20       ??$swprintf_c@$09@@YAHAEAY09_WPEB_WZZ 0000000180014f20 f i PluginSrv.obj
 0001:00013f4c       ??$wcscpy_c@$0BAE@@@YAHAEAY0BAE@_WPEB_W@Z 0000000180014f4c f i PluginSrv.obj
 0001:00013f98       ?DumpError@?$PipeServer@UCESERVER_REQ@@@@IEAAXPEAUPipeInst@1@PEB_WH@Z 0000000180014f98 f i PluginSrv.obj
 0001:000140ac       ?PipeServerRead@?$PipeServer@UCESERVER_REQ@@@@IEAAHPEAUPipeInst@1@@Z 00000001800150ac f i PluginSrv.obj
 0001:0001433c       ?PipeServerThread@?$PipeServer@UCESERVER_REQ@@@@IEAAKPEAUPipeInst@1@@Z 000000018001533c f i PluginSrv.obj
 0001:0001460c       ?PipeServerWrite@?$PipeServer@UCESERVER_REQ@@@@IEAAHPEAUPipeInst@1@PEBXKPEAKH@Z 000000018001560c f i PluginSrv.obj
 0001:00014738       ?PlugServerCommand@@YAHPEAXPEAUCESERVER_REQ@@AEAPEAU1@AEAK3_J@Z 0000000180015738 f   PluginSrv.obj
 0001:00014c44       ?PlugServerFree@@YAXPEAUCESERVER_REQ@@_J@Z 0000000180015c44 f   PluginSrv.obj
 0001:00014c5c       ?PlugServerStart@@YA_NXZ   0000000180015c5c f   PluginSrv.obj
 0001:00014d70       ?PlugServerStop@@YAX_N@Z   0000000180015d70 f   PluginSrv.obj
 0001:00014db8       ?StartPipeInstance@?$PipeServer@UCESERVER_REQ@@@@IEAA_NPEAUPipeInst@1@@Z 0000000180015db8 f i PluginSrv.obj
 0001:00014f48       ?StartPipeServer@?$PipeServer@UCESERVER_REQ@@@@QEAA_N_NPEB_W_JPEAU_SECURITY_ATTRIBUTES@@P6AHPEAXPEAUCESERVER_REQ@@AEAPEAU3@AEAK72@ZP6AX52@ZP6AH42@ZP6AH42@ZP6AH42@Z@Z 0000000180015f48 f i PluginSrv.obj
 0001:000150cc       ?StopPipeServer@?$PipeServer@UCESERVER_REQ@@@@QEAAX_NAEA_N@Z 00000001800160cc f i PluginSrv.obj
 0001:00015454       ?WaitForClient@?$PipeServer@UCESERVER_REQ@@@@IEAA_NPEAUPipeInst@1@AEAH1@Z 0000000180016454 f i PluginSrv.obj
 0001:0001576c       ?WaitOverlapped@?$PipeServer@UCESERVER_REQ@@@@IEAAHPEAUPipeInst@1@PEAK@Z 000000018001676c f i PluginSrv.obj
 0001:00015940       ?WriteDummyAnswer@?$PipeServer@UCESERVER_REQ@@@@IEAAHPEAUPipeInst@1@@Z 0000000180016940 f i PluginSrv.obj
 0001:000159c0       ?_PipeServerThread@?$PipeServer@UCESERVER_REQ@@@@KAKPEAX@Z 00000001800169c0 f i PluginSrv.obj
 0001:00015a1c       ?cmd_FarSetChanged@@YAXPEAUFAR_REQ_FARSETCHANGED@@@Z 0000000180016a1c f   PluginSrv.obj
 0001:00015a76       GetFileVersionInfoSizeW    0000000180016a76 f   version:VERSION.dll
 0001:00015a7c       GetFileVersionInfoW        0000000180016a7c f   version:VERSION.dll
 0001:00015a82       VerQueryValueW             0000000180016a82 f   version:VERSION.dll
 0001:00015a88       CreateToolhelp32Snapshot   0000000180016a88 f   kernel32:KERNEL32.dll
 0001:00015a8e       Thread32First              0000000180016a8e f   kernel32:KERNEL32.dll
 0001:00015a94       Thread32Next               0000000180016a94 f   kernel32:KERNEL32.dll
 0001:00015a9a       Module32FirstW             0000000180016a9a f   kernel32:KERNEL32.dll
 0001:00015aa0       Module32NextW              0000000180016aa0 f   kernel32:KERNEL32.dll
 0001:00015aa8       ??2@YAPEAX_K@Z             0000000180016aa8 f   common-kernel64:Memory.obj
 0001:00015ad0       ??3@YAXPEAX@Z              0000000180016ad0 f   common-kernel64:Memory.obj
 0001:00015ad0       ??_V@YAXPEAX@Z             0000000180016ad0 f   common-kernel64:Memory.obj
 0001:00015ad8       ??_U@YAPEAX_K@Z            0000000180016ad8 f   common-kernel64:Memory.obj
 0001:00015ae0       ?HeapDeinitialize@@YAXXZ   0000000180016ae0 f   common-kernel64:Memory.obj
 0001:00015b44       ?HeapInitialize@@YA_NXZ    0000000180016b44 f   common-kernel64:Memory.obj
 0001:00015b80       ?xf_calloc@@YAPEAX_K0@Z    0000000180016b80 f   common-kernel64:Memory.obj
 0001:00015bb0       ?xf_free@@YAXPEAX@Z        0000000180016bb0 f   common-kernel64:Memory.obj
 0001:00015c28       ?xf_malloc@@YAPEAX_K@Z     0000000180016c28 f   common-kernel64:Memory.obj
 0001:00015c50       ?xf_realloc@@YAPEAXPEAX_K@Z 0000000180016c50 f   common-kernel64:Memory.obj
 0001:00015c78       ??$wcscpy_c@$0CA@@@YAHAEAY0CA@_WPEB_W@Z 0000000180016c78 f i common-kernel64:ConEmuCheck.obj
 0001:00015cc4       ?ExecuteCmd@@YAPEAUCESERVER_REQ@@PEB_WPEAU1@KPEAUHWND__@@HKH@Z 0000000180016cc4 f   common-kernel64:ConEmuCheck.obj
 0001:00015eac       ?ExecuteFreeResult@@YAXAEAPEAUCESERVER_REQ@@@Z 0000000180016eac f   common-kernel64:ConEmuCheck.obj
 0001:00015ecc       ?ExecuteGuiCmd@@YAPEAUCESERVER_REQ@@PEAUHWND__@@PEAU1@0H@Z 0000000180016ecc f   common-kernel64:ConEmuCheck.obj
 0001:00015f8c       ?ExecuteNewCmd@@YAPEAUCESERVER_REQ@@K_K@Z 0000000180016f8c f   common-kernel64:ConEmuCheck.obj
 0001:00015ff0       ?ExecuteNewCmd@@YA_NAEAPEAUCESERVER_REQ@@AEAKK_K@Z 0000000180016ff0 f   common-kernel64:ConEmuCheck.obj
 0001:000160e4       ?ExecuteOpenPipe@@YAPEAXPEB_WAEAY0CAI@_W0KKHPEAXH@Z 00000001800170e4 f   common-kernel64:ConEmuCheck.obj
 0001:00016294       ?ExecutePrepareCmd@@YAXPEAUCESERVER_REQ@@K_K@Z 0000000180017294 f   common-kernel64:ConEmuCheck.obj
 0001:000162d0       ?ExecutePrepareCmd@@YAXPEAUCESERVER_REQ_HDR@@K_K@Z 00000001800172d0 f   common-kernel64:ConEmuCheck.obj
 0001:00016340       ?ExecuteSrvCmd@@YAPEAUCESERVER_REQ@@KPEAU1@PEAUHWND__@@HKH@Z 0000000180017340 f   common-kernel64:ConEmuCheck.obj
 0001:00016414       ?GetConEmuHWND@@YAPEAUHWND__@@W4ConEmuWndType@@@Z 0000000180017414 f   common-kernel64:ConEmuCheck.obj
 0001:000164bc       ?GetConEmuWindows@@YA?AUConEmuWindows@@PEAUHWND__@@@Z 00000001800174bc f   common-kernel64:ConEmuCheck.obj
 0001:000165d8       ?GetConEmuWindowsFromEnv@@YA?AUConEmuWindows@@XZ 00000001800175d8 f   common-kernel64:ConEmuCheck.obj
 0001:00016768       ?GuiMessageBox@@YAHPEAUHWND__@@PEB_W1H@Z 0000000180017768 f   common-kernel64:ConEmuCheck.obj
 0001:000168d0       ?IsConsoleClass@@YA_NPEB_W@Z 00000001800178d0 f   common-kernel64:ConEmuCheck.obj
 0001:00016920       ?IsConsoleWindow@@YA_NPEAUHWND__@@@Z 0000000180017920 f   common-kernel64:ConEmuCheck.obj
 0001:00016a10       ?IsPseudoConsoleWindow@@YA_NPEAUHWND__@@@Z 0000000180017a10 f   common-kernel64:ConEmuCheck.obj
 0001:00016a94       ?LoadGuiMapping@@YAHKAEAUConEmuGuiMapping@@@Z 0000000180017a94 f   common-kernel64:ConEmuCheck.obj
 0001:00016c64       ?LoadSrvMapping@@YAHPEAUHWND__@@AEAUCESERVER_CONSOLE_MAPPING_HDR@@@Z 0000000180017c64 f   common-kernel64:ConEmuCheck.obj
 0001:00016e34       ?ModuleName@@YAPEB_WPEB_W@Z 0000000180017e34 f   common-kernel64:ConEmuCheck.obj
 0001:00016ef4       ?myGetConsoleWindow@@YAPEAUHWND__@@XZ 0000000180017ef4 f   common-kernel64:ConEmuCheck.obj
 0001:00016fd0       ?StringCchVPrintfA@@YAJPEAD_KPEBD0@Z 0000000180017fd0 f i common-kernel64:MStrSafe.obj
 0001:00017078       ?lstrcmpni@@YAHPEB_W0H@Z   0000000180018078 f   common-kernel64:MStrSafe.obj
 0001:00017198       ?msprintf@@YAPEB_WPEA_W_KPEB_WZZ 0000000180018198 f   common-kernel64:MStrSafe.obj
 0001:000171b8       ?mvsprintf@@YAPEB_WPEA_W_KPEB_WPEAD@Z 00000001800181b8 f   common-kernel64:MStrSafe.obj
 0001:00017658       ?sprintf_c@@YAHPEAD_JPEBDZZ 0000000180018658 f   common-kernel64:MStrSafe.obj
 0001:00017698       ?swprintf_c@@YAHPEA_W_JPEB_WZZ 0000000180018698 f   common-kernel64:MStrSafe.obj
 0001:000176d8       ??0CEStr@@QEAA@$$QEAU0@@Z  00000001800186d8 f   common-kernel64:CEStr.obj
 0001:00017700       ??0CEStr@@QEAA@PEB_W00000000@Z 0000000180018700 f   common-kernel64:CEStr.obj
 0001:00017874       ??0CEStr@@QEAA@XZ          0000000180018874 f   common-kernel64:CEStr.obj
 0001:00017884       ??0bad_alloc@stdext@@QEAA@AEBV01@@Z 0000000180018884 f i common-kernel64:CEStr.obj
 0001:000178a4       ??0bad_alloc@stdext@@QEAA@XZ 00000001800188a4 f i common-kernel64:CEStr.obj
 0001:000178c0       ??0exception@stdext@@QEAA@AEBV01@@Z 00000001800188c0 f i common-kernel64:CEStr.obj
 0001:000178d8       ??1CEStr@@QEAA@XZ          00000001800188d8 f   common-kernel64:CEStr.obj
 0001:000178e0       ??1bad_alloc@stdext@@UEAA@XZ 00000001800188e0 f i common-kernel64:CEStr.obj
 0001:000178ec       ??4CEStr@@QEAAAEAU0@$$QEAU0@@Z 00000001800188ec f   common-kernel64:CEStr.obj
 0001:00017938       ??4CEStr@@QEAAAEAU0@PEB_W@Z 0000000180018938 f   common-kernel64:CEStr.obj
 0001:00017958       ?data@CEStr@@QEBAPEA_WXZ   0000000180018958 f   common-kernel64:CEStr.obj
 0001:00017958       ??BCEStr@@QEBAPEB_WXZ      0000000180018958 f   common-kernel64:CEStr.obj
 0001:0001795c       ??BCEStr@@QEBA_NXZ         000000018001895c f   common-kernel64:CEStr.obj
 0001:00017970       ??_Gexception@stdext@@UEAAPEAXI@Z 0000000180018970 f i common-kernel64:CEStr.obj
 0001:00017970       ??_Eexception@stdext@@UEAAPEAXI@Z 0000000180018970 f i common-kernel64:CEStr.obj
 0001:00017970       ??_Gbad_alloc@stdext@@UEAAPEAXI@Z 0000000180018970 f i common-kernel64:CEStr.obj
 0001:00017970       ??_Ebad_alloc@stdext@@UEAAPEAXI@Z 0000000180018970 f i common-kernel64:CEStr.obj
 0001:0001799c       ?Append@CEStr@@QEAAPEB_WPEB_W0000000@Z 000000018001899c f   common-kernel64:CEStr.obj
 0001:00017a30       ?Clear@CEStr@@QEAAXXZ      0000000180018a30 f   common-kernel64:CEStr.obj
 0001:00017a4c       ?Compare@CEStr@@QEBAHPEB_W_N@Z 0000000180018a4c f   common-kernel64:CEStr.obj
 0001:00017a7c       ?Detach@CEStr@@QEAAPEA_WXZ 0000000180018a7c f   common-kernel64:CEStr.obj
 0001:00017a8c       ?GetBuffer@CEStr@@QEAAPEA_W_J@Z 0000000180018a8c f   common-kernel64:CEStr.obj
 0001:00017b5c       ?GetLen@CEStr@@QEBA_JXZ    0000000180018b5c f   common-kernel64:CEStr.obj
 0001:00017b80       ?GetMaxCount@CEStr@@QEAA_JXZ 0000000180018b80 f   common-kernel64:CEStr.obj
 0001:00017bac       ?Release@CEStr@@QEAAXXZ    0000000180018bac f   common-kernel64:CEStr.obj
 0001:00017bd0       ?Set@CEStr@@QEAAPEB_WPEB_W_J@Z 0000000180018bd0 f   common-kernel64:CEStr.obj
 0001:00017cac       ?SetAt@CEStr@@QEAA_W_J_W@Z 0000000180018cac f   common-kernel64:CEStr.obj
 0001:00017d04       ?StringCchCopyNW@@YAJPEA_W_KPEB_W1@Z 0000000180018d04 f i common-kernel64:CEStr.obj
 0001:00017d78       ?_Doraise@bad_alloc@stdext@@MEBAXXZ 0000000180018d78 f i common-kernel64:CEStr.obj
 0001:00017d94       ?c_str@CEStr@@QEBAPEB_WPEB_W@Z 0000000180018d94 f   common-kernel64:CEStr.obj
 0001:00017da0       ?what@exception@stdext@@UEBAPEBDXZ 0000000180018da0 f i common-kernel64:CEStr.obj
 0001:00017db4       ?IsFilePath@@YA_NPEB_W_N@Z 0000000180018db4 f   common-kernel64:CmdLine.obj
 0001:00017f54       ?PointToExt@@YAPEB_WPEB_W@Z 0000000180018f54 f   common-kernel64:CmdLine.obj
 0001:00017f78       ?PointToName@@YAPEB_WPEB_W@Z 0000000180018f78 f   common-kernel64:CmdLine.obj
 0001:00017fd4       ?Unquote@@YAPEB_WPEA_W_N@Z 0000000180018fd4 f   common-kernel64:CmdLine.obj
 0001:0001803c       ??$sprintf_c@$0CI@@@YAHAEAY0CI@DPEBDZZ 000000018001903c f i common-kernel64:WThreads.obj
 0001:00018068       ?SetThreadName@@YAXKPEAD@Z 0000000180019068 f   common-kernel64:WThreads.obj
 0001:000180a0       ?apiCreateThread@@YAPEAXP6AKPEAX@Z0PEAKPEBDH@Z 00000001800190a0 f   common-kernel64:WThreads.obj
 0001:000181e8       ?apiTerminateThreadEx@@YAHPEAXKPEBDH@Z 00000001800191e8 f   common-kernel64:WThreads.obj
 0001:000182f0       ?apiThreadHelper@@YAKPEAX@Z 00000001800192f0 f   common-kernel64:WThreads.obj
 0001:000184fc       ?lstrdup@@YA?AUCEStr@@PEB_W_K@Z 00000001800194fc f   common-kernel64:MStrDup.obj
 0001:00018570       ?lstrdupW@@YA?AUCEStr@@PEBDI@Z 0000000180019570 f   common-kernel64:MStrDup.obj
 0001:00018614       ??0CEnvStrings@@QEAA@PEA_W@Z 0000000180019614 f   common-kernel64:EnvVar.obj
 0001:00018668       ??1CEnvStrings@@QEAA@XZ    0000000180019668 f   common-kernel64:EnvVar.obj
 0001:0001868c       ?Clear@CEnvRestorer@@QEAAXXZ 000000018001968c f   common-kernel64:EnvVar.obj
 0001:000186b0       ?ExpandEnvStr@@YA?AUCEStr@@PEB_W@Z 00000001800196b0 f   common-kernel64:EnvVar.obj
 0001:00018868       ?GetEnvVar@@YA?AUCEStr@@PEB_W@Z 0000000180019868 f   common-kernel64:EnvVar.obj
 0001:00018980       ?SavePathVar@CEnvRestorer@@QEAAXPEB_W@Z 0000000180019980 f   common-kernel64:EnvVar.obj
 0001:000189b4       ?CommonShutdown@@YAXXZ     00000001800199b4 f   common-kernel64:Common.obj
 0001:000189c4       ?IsEnvBlockVariableValid@@YA_NPEB_W@Z 00000001800199c4 f   common-kernel64:Common.obj
 0001:000189f8       ?IsEnvBlockVariableValid@@YA_NPEB_WAEAPEB_W@Z 00000001800199f8 f   common-kernel64:Common.obj
 0001:00018a4c       ?SetCommand@CESERVER_REQ_NEWCMD@@QEAAXPEB_W@Z 0000000180019a4c f   common-kernel64:Common.obj
 0001:00018ab0       ?SetEnvStrings@CESERVER_REQ_NEWCMD@@QEAAXPEB_WK@Z 0000000180019ab0 f   common-kernel64:Common.obj
 0001:00018bc8       ??_GMNullDesc@@QEAAPEAXI@Z 0000000180019bc8 f i common-kernel64:MSecurity.obj
 0001:00018c3c       ?LoadAdvApi@MNullDesc@@IEAAHXZ 0000000180019c3c f i common-kernel64:MSecurity.obj
 0001:00018d64       ?LocalSecurity@@YAPEAU_SECURITY_ATTRIBUTES@@XZ 0000000180019d64 f   common-kernel64:MSecurity.obj
 0001:00018dbc       ?LocalSecurity@MNullDesc@@QEAAPEAU_SECURITY_ATTRIBUTES@@XZ 0000000180019dbc f i common-kernel64:MSecurity.obj
 0001:00018f38       ?ShutdownSecurity@@YAXXZ   0000000180019f38 f   common-kernel64:MSecurity.obj
 0001:00018f60       ??0?$MHandleBase@PEAX@@QEAA@PEAXV?$function@$$A6AXPEAX@Z@std@@@Z 0000000180019f60 f i common-kernel64:WObjects.obj
 0001:00018fd4       ??0MHandle@@QEAA@PEAXV?$function@$$A6AXPEAX@Z@std@@@Z 0000000180019fd4 f i common-kernel64:WObjects.obj
 0001:00019074       ??4?$function@$$A6AXPEAX@Z@std@@QEAAAEAV01@$$QEAV01@@Z 000000018001a074 f i common-kernel64:WObjects.obj
 0001:000190ec       ?Close@?$MHandleBase@PEAX@@QEAAXXZ 000000018001a0ec f i common-kernel64:WObjects.obj
 0001:00019150       ?FileExists@@YA_NPEB_WPEA_K@Z 000000018001a150 f   common-kernel64:WObjects.obj
 0001:000193ec       ?IsWin6@@YA_NXZ            000000018001a3ec f   common-kernel64:WObjects.obj
 0001:00019420       ?IsWin7@@YA_NXZ            000000018001a420 f   common-kernel64:WObjects.obj
 0001:00019454       ?IsWinVerOrHigher@@YA_NG@Z 000000018001a454 f   common-kernel64:WObjects.obj
 0001:0001956c       ?IsWindows64@@YA_NXZ       000000018001a56c f   common-kernel64:WObjects.obj
 0001:00019590       ?SetHandle@?$MHandleBase@PEAX@@QEAA_NPEAXV?$function@$$A6AXPEAX@Z@std@@@Z 000000018001a590 f i common-kernel64:WObjects.obj
 0001:000195fc       ?_Move@?$_Func_impl_no_alloc@P6AHPEAX@ZXPEAX@std@@EEAAPEAV?$_Func_base@XPEAX@2@PEAX@Z 000000018001a5fc f i common-kernel64:WObjects.obj
 0001:000195fc       ?_Copy@?$_Func_impl_no_alloc@P6AHPEAX@ZXPEAX@std@@EEBAPEAV?$_Func_base@XPEAX@2@PEAX@Z 000000018001a5fc f i common-kernel64:WObjects.obj
 0001:00019614       ?_Delete_this@?$_Func_impl_no_alloc@P6AHPEAX@ZXPEAX@std@@EEAAX_N@Z 000000018001a614 f i common-kernel64:WObjects.obj
 0001:00019614       ?_Delete_this@?$_Func_impl_no_alloc@V<lambda_217d18733db987cb8fc0adfd68028951>@@_NAEBUtagPROCESSENTRY32W@@@std@@EEAAX_N@Z 000000018001a614 f i common-kernel64:MProcess.obj
 0001:0001962c       ?_Do_call@?$_Func_impl_no_alloc@P6AHPEAX@ZXPEAX@std@@EEAAX$$QEAPEAX@Z 000000018001a62c f i common-kernel64:WObjects.obj
 0001:00019638       ?_Get@?$_Func_impl_no_alloc@V<lambda_217d18733db987cb8fc0adfd68028951>@@_NAEBUtagPROCESSENTRY32W@@@std@@EEBAPEBXXZ 000000018001a638 f i common-kernel64:MProcess.obj
 0001:00019638       ?_Get@?$_Func_impl_no_alloc@P6AHPEAX@ZXPEAX@std@@EEBAPEBXXZ 000000018001a638 f i common-kernel64:WObjects.obj
 0001:00019640       ?_Target_type@?$_Func_impl_no_alloc@P6AHPEAX@ZXPEAX@std@@EEBAAEBVtype_info@@XZ 000000018001a640 f i common-kernel64:WObjects.obj
 0001:00019648       ?_VerifyVersionInfo@@YA_NPEAU_OSVERSIONINFOEXW@@K_K@Z 000000018001a648 f   common-kernel64:WObjects.obj
 0001:00019718       ?Init@HkFunc@@QEAA_NPEB_WPEAUHINSTANCE__@@@Z 000000018001a718 f   common-kernel64:HkFunc.obj
 0001:000197a8       ?isConEmuHk@HkFunc@@QEAA_NXZ 000000018001a7a8 f   common-kernel64:HkFunc.obj
 0001:000197b0       ??$_Emplace_reallocate@AEBUtagPROCESSENTRY32W@@@?$vector@UtagPROCESSENTRY32W@@V?$MArrayAllocator@UtagPROCESSENTRY32W@@@@@std@@QEAAPEAUtagPROCESSENTRY32W@@QEAU2@AEBU2@@Z 000000018001a7b0 f i common-kernel64:MProcess.obj
 0001:000199a0       ??$emplace_back@AEBUtagPROCESSENTRY32W@@@?$vector@UtagPROCESSENTRY32W@@V?$MArrayAllocator@UtagPROCESSENTRY32W@@@@@std@@QEAA?A_TAEBUtagPROCESSENTRY32W@@@Z 000000018001a9a0 f i common-kernel64:MProcess.obj
 0001:00019a3c       ??0?$MToolHelp@UtagPROCESSENTRY32W@@$1?Process32FirstW@@YAHPEAXPEAU1@@Z$1?Process32NextW@@YAH01@Z@@QEAA@KK@Z 000000018001aa3c f i common-kernel64:MProcess.obj
 0001:00019ac4       ??_G?$MToolHelp@UtagPROCESSENTRY32W@@$1?Process32FirstW@@YAHPEAXPEAU1@@Z$1?Process32NextW@@YAH01@Z@@UEAAPEAXI@Z 000000018001aac4 f i common-kernel64:MProcess.obj
 0001:00019ac4       ??_EMToolHelpProcess@@UEAAPEAXI@Z 000000018001aac4 f i common-kernel64:MProcess.obj
 0001:00019ac4       ??_GMToolHelpProcess@@UEAAPEAXI@Z 000000018001aac4 f i common-kernel64:MProcess.obj
 0001:00019ac4       ??_E?$MToolHelp@UtagPROCESSENTRY32W@@$1?Process32FirstW@@YAHPEAXPEAU1@@Z$1?Process32NextW@@YAH01@Z@@UEAAPEAXI@Z 000000018001aac4 f i common-kernel64:MProcess.obj
 0001:00019b2c       ?Close@?$MToolHelp@UtagPROCESSENTRY32W@@$1?Process32FirstW@@YAHPEAXPEAU1@@Z$1?Process32NextW@@YAH01@Z@@QEAAXXZ 000000018001ab2c f i common-kernel64:MProcess.obj
 0001:00019bac       __acrt_uninitialize_command_line 000000018001abac f i libucrt:argv_data.obj
 0001:00019bac       ?Filter@?$MToolHelp@UtagPROCESSENTRY32W@@$1?Process32FirstW@@YAHPEAXPEAU1@@Z$1?Process32NextW@@YAH01@Z@@MEAA_NAEBUtagPROCESSENTRY32W@@@Z 000000018001abac f i common-kernel64:MProcess.obj
 0001:00019bb0       ?Find@?$MToolHelp@UtagPROCESSENTRY32W@@$1?Process32FirstW@@YAHPEAXPEAU1@@Z$1?Process32NextW@@YAH01@Z@@QEAA_NAEBV?$function@$$A6A_NAEBUtagPROCESSENTRY32W@@@Z@std@@AEAUtagPROCESSENTRY32W@@@Z 000000018001abb0 f i common-kernel64:MProcess.obj
 0001:00019cc4       ?Find@MToolHelpProcess@@QEAA_NKAEAUtagPROCESSENTRY32W@@@Z 000000018001acc4 f i common-kernel64:MProcess.obj
 0001:00019d30       ?Next@?$MToolHelp@UtagPROCESSENTRY32W@@$1?Process32FirstW@@YAHPEAXPEAU1@@Z$1?Process32NextW@@YAH01@Z@@QEAA_NAEAUtagPROCESSENTRY32W@@@Z 000000018001ad30 f i common-kernel64:MProcess.obj
 0001:00019e18       ?Open@?$MToolHelp@UtagPROCESSENTRY32W@@$1?Process32FirstW@@YAHPEAXPEAU1@@Z$1?Process32NextW@@YAH01@Z@@QEAA_NXZ 000000018001ae18 f i common-kernel64:MProcess.obj
 0001:00019e88       ?_Move@?$_Func_impl_no_alloc@V<lambda_217d18733db987cb8fc0adfd68028951>@@_NAEBUtagPROCESSENTRY32W@@@std@@EEAAPEAV?$_Func_base@_NAEBUtagPROCESSENTRY32W@@@2@PEAX@Z 000000018001ae88 f i common-kernel64:MProcess.obj
 0001:00019e88       ?_Copy@?$_Func_impl_no_alloc@V<lambda_217d18733db987cb8fc0adfd68028951>@@_NAEBUtagPROCESSENTRY32W@@@std@@EEBAPEAV?$_Func_base@_NAEBUtagPROCESSENTRY32W@@@2@PEAX@Z 000000018001ae88 f i common-kernel64:MProcess.obj
 0001:00019e9c       ?_Do_call@?$_Func_impl_no_alloc@V<lambda_217d18733db987cb8fc0adfd68028951>@@_NAEBUtagPROCESSENTRY32W@@@std@@EEAA_NAEBUtagPROCESSENTRY32W@@@Z 000000018001ae9c f i common-kernel64:MProcess.obj
 0001:00019ea8       ?_Target_type@?$_Func_impl_no_alloc@V<lambda_217d18733db987cb8fc0adfd68028951>@@_NAEBUtagPROCESSENTRY32W@@@std@@EEBAAEBVtype_info@@XZ 000000018001aea8 f i common-kernel64:MProcess.obj
 0001:00019eb0       ?getNext@?$MToolHelp@UtagPROCESSENTRY32W@@$1?Process32FirstW@@YAHPEAXPEAU1@@Z$1?Process32NextW@@YAH01@Z@@IEAA_NXZ 000000018001aeb0 f i common-kernel64:MProcess.obj
 0001:00019f50       ?isTerminalMode@@YA_NXZ    000000018001af50 f   common-kernel64:MProcess.obj
 0001:0001a08c       ??0MSection@@QEAA@XZ       000000018001b08c f   common-kernel64:MSection.obj
 0001:0001a114       ??0MSectionLock@@QEAA@XZ   000000018001b114 f   common-kernel64:MSection.obj
 0001:0001a124       ??0MSectionThread@@QEAA@PEAVMSection@@@Z 000000018001b124 f   common-kernel64:MSection.obj
 0001:0001a144       ??1MSection@@QEAA@XZ       000000018001b144 f   common-kernel64:MSection.obj
 0001:0001a1ac       ??1MSectionLock@@QEAA@XZ   000000018001b1ac f   common-kernel64:MSection.obj
 0001:0001a1d0       ??1MSectionThread@@QEAA@XZ 000000018001b1d0 f   common-kernel64:MSection.obj
 0001:0001a20c       ?AddRef@MSection@@IEAAXK@Z 000000018001b20c f   common-kernel64:MSection.obj
 0001:0001a2a0       ?Lock@MSection@@IEAAHHK@Z  000000018001b2a0 f   common-kernel64:MSection.obj
 0001:0001a39c       ?Lock@MSectionLock@@QEAAHPEAVMSection@@HK@Z 000000018001b39c f   common-kernel64:MSection.obj
 0001:0001a3f0       ?MyEnterCriticalSection@MSection@@IEAA_NK@Z 000000018001b3f0 f   common-kernel64:MSection.obj
 0001:0001a51c       ?ReleaseRef@MSection@@IEAAHK@Z 000000018001b51c f   common-kernel64:MSection.obj
 0001:0001a5bc       ?Unlock@MSection@@IEAAXH@Z 000000018001b5bc f   common-kernel64:MSection.obj
 0001:0001a614       ?Unlock@MSectionLock@@QEAAXXZ 000000018001b614 f   common-kernel64:MSection.obj
 0001:0001a640       ?WaitUnlocked@MSection@@IEAAXKK@Z 000000018001b640 f   common-kernel64:MSection.obj
 0001:0001a6d4       ?CheckCallbackPtr@@YA_NPEAUHINSTANCE__@@_KPEAP6A_JXZHHH@Z 000000018001b6d4 f   common-kernel64:WModuleCheck.obj
 0001:0001a7dc       ?IsModuleValid@@YA_NPEAUHINSTANCE__@@H@Z 000000018001b7dc f   common-kernel64:WModuleCheck.obj
 0001:0001a8e4       ??0MModule@@QEAA@PEAUHINSTANCE__@@@Z 000000018001b8e4 f   common-kernel64:MModule.obj
 0001:0001a8f4       ??1MModule@@QEAA@XZ        000000018001b8f4 f   common-kernel64:MModule.obj
 0001:0001a8fc       ?Free@MModule@@QEAAXXZ     000000018001b8fc f   common-kernel64:MModule.obj
 0001:0001a934       ??0MSectionSimple@@QEAA@_N@Z 000000018001b934 f   common-kernel64:MSectionSimple.obj
 0001:0001a96c       ??1MSectionSimple@@QEAA@XZ 000000018001b96c f   common-kernel64:MSectionSimple.obj
 0001:0001a96c       ?Close@MSectionSimple@@QEAAXXZ 000000018001b96c f   common-kernel64:MSectionSimple.obj
 0001:0001a98c       ?Enter@MSectionSimple@@QEAAXXZ 000000018001b98c f   common-kernel64:MSectionSimple.obj
 0001:0001a994       ?Init@MSectionSimple@@QEAAXXZ 000000018001b994 f   common-kernel64:MSectionSimple.obj
 0001:0001a9b4       ?Leave@MSectionSimple@@QEAAXXZ 000000018001b9b4 f   common-kernel64:MSectionSimple.obj
 0001:0001a9bc       ?RecreateAndLock@MSectionSimple@@QEAA_NXZ 000000018001b9bc f   common-kernel64:MSectionSimple.obj
 0001:0001aa2c       ?TryEnter@MSectionSimple@@QEAA_NXZ 000000018001ba2c f   common-kernel64:MSectionSimple.obj
 0001:0001aa54       ?SetConEmuEnvHWND@@YAXPEB_WPEAUHWND__@@@Z 000000018001ba54 f   common-user64:SetEnvVar.obj
 0001:0001aaac       ?SetConEmuEnvVar@@YAXPEAUHWND__@@@Z 000000018001baac f   common-user64:SetEnvVar.obj
 0001:0001ab30       ?SetConEmuEnvVarChild@@YAXPEAUHWND__@@0@Z 000000018001bb30 f   common-user64:SetEnvVar.obj
 0001:0001ab5c       ??$wcscpy_c@$0BAF@@@YAHAEAY0BAF@_WPEB_W@Z 000000018001bb5c f i common-user64:ConEmuCheckEx.obj
 0001:0001aba8       ?FindConEmuBaseDir@@YAHAEAY0BAF@_W0PEAUHINSTANCE__@@@Z 000000018001bba8 f   common-user64:ConEmuCheckEx.obj
 0001:0001b254       ?IsConEmuExeExist@@YAHPEB_WAEAY0BAF@_W@Z 000000018001c254 f   common-user64:ConEmuCheckEx.obj
 0001:0001b2fc       ??$swprintf_c@$0FA@@@YAHAEAY0FA@_WPEB_WZZ 000000018001c2fc f i common-user64:EmergencyShow.obj
 0001:0001b328       ?CorrectConsolePos@@YAXPEAUHWND__@@@Z 000000018001c328 f   common-user64:EmergencyShow.obj
 0001:0001b444       ?EmergencyShow@@YAXPEAUHWND__@@HH@Z 000000018001c444 f   common-user64:EmergencyShow.obj
 0001:0001b584       ?EvaluateDefaultFontWidth@@YAHHPEB_W@Z 000000018001c584 f   common-user64:EmergencyShow.obj
 0001:0001b6a4       ?SetUserFriendlyFont@@YAXPEAUHWND__@@HH@Z 000000018001c6a4 f   common-user64:EmergencyShow.obj
 0001:0001ba04       ??0MSetter@@QEAA@PEAJ@Z    000000018001ca04 f   common-user64:MSetter.obj
 0001:0001ba1c       ??1MSetter@@QEAA@XZ        000000018001ca1c f   common-user64:MSetter.obj
 0001:0001ba24       ?Unlock@MSetter@@QEAAXXZ   000000018001ca24 f   common-user64:MSetter.obj
 0001:0001ba84       ?IsDotsName@@YA_NPEB_W@Z   000000018001ca84 f   common-user64:WFiles.obj
 0001:0001baa8       ?SearchAppPaths@@YA_NPEB_WAEAUCEStr@@_NPEAVCEnvRestorer@@@Z 000000018001caa8 f   common-user64:WFiles.obj
 0001:0001bf34       ?GetConsoleSizeInfo@@YAXPEAUCONSOLE_INFO@@@Z 000000018001cf34 f   common-user64:WConsoleEx.obj
 0001:0001bfc0       ?SetConsoleFontSizeTo@@YAXPEAUHWND__@@HHPEB_WGG@Z 000000018001cfc0 f   common-user64:WConsoleEx.obj
 0001:0001c3a8       ?SetConsoleInfo@@YAHPEAUHWND__@@PEAUCONSOLE_INFO@@@Z 000000018001d3a8 f   common-user64:WConsoleEx.obj
 0001:0001c5b0       ?SetEnvVarExpanded@@YAXPEB_W0@Z 000000018001d5b0 f   common-user64:WUser.obj
 0001:0001c694       ?UpdateComspec@@YAXPEAUConEmuComspec@@_N@Z 000000018001d694 f   common-user64:WUser.obj
 0001:0001c9dc       ?apiShowWindow@@YA_NPEAUHWND__@@H@Z 000000018001d9dc f   common-user64:WUser.obj
 0001:0001c9f0       ?apiShowWindowAsync@@YA_NPEAUHWND__@@H@Z 000000018001d9f0 f   common-user64:WUser.obj
 0001:0001ca04       ?RegGetStringValue@@YAHPEAUHKEY__@@PEB_W1AEAUCEStr@@K@Z 000000018001da04 f   common-user64:WRegistry.obj
 0001:0001cbc8       ?FindMonitorsWorkspace@@YAHPEAUHMONITOR__@@PEAUHDC__@@PEAUtagRECT@@_J@Z 000000018001dbc8 f   common-user64:Monitors.obj
 0001:0001cc04       ?GetAllMonitorsWorkspace@@YA?AUtagRECT@@XZ 000000018001dc04 f   common-user64:Monitors.obj
 0001:0001cc64       ??0bad_function_call@std@@QEAA@AEBV01@@Z 000000018001dc64 f i libcpmt:xthrow.obj
 0001:0001cca0       ??0bad_function_call@std@@QEAA@XZ 000000018001dca0 f i libcpmt:xthrow.obj
 0001:0001ccb8       ??0length_error@std@@QEAA@AEBV01@@Z 000000018001dcb8 f i libcpmt:xthrow.obj
 0001:0001ccf4       ??0length_error@std@@QEAA@PEBD@Z 000000018001dcf4 f i libcpmt:xthrow.obj
 0001:0001cd3c       ??0logic_error@std@@QEAA@AEBV01@@Z 000000018001dd3c f i libcpmt:xthrow.obj
 0001:0001cd78       ?_Xbad_function_call@std@@YAXXZ 000000018001dd78 f   libcpmt:xthrow.obj
 0001:0001cd98       ?_Xlength_error@std@@YAXPEBD@Z 000000018001dd98 f   libcpmt:xthrow.obj
 0001:0001cdbc       ?what@bad_function_call@std@@UEBAPEBDXZ 000000018001ddbc f i libcpmt:xthrow.obj
 0001:0001cdc4       __GSHandlerCheck           000000018001ddc4 f   LIBCMT:gshandler.obj
 0001:0001cde4       __GSHandlerCheckCommon     000000018001dde4 f   LIBCMT:gshandler.obj
 0001:0001ce50       __security_check_cookie    000000018001de50 f   LIBCMT:amdsecgs.obj
 0001:0001ce70       ??3@YAXPEAX_K@Z            000000018001de70 f   LIBCMT:delete_scalar_size.obj
 0001:0001ce90       _alloca_probe              000000018001de90 f   LIBCMT:chkstk.obj
 0001:0001ce90       __chkstk                   000000018001de90 f   LIBCMT:chkstk.obj
 0001:0001cee0       __GSHandlerCheck_EH4       000000018001dee0 f   LIBCMT:gshandlereh4.obj
 0001:0001cf60       ??_Etype_info@@UEAAPEAXI@Z 000000018001df60 f i LIBCMT:std_type_info_static.obj
 0001:0001cf60       ??_Gtype_info@@UEAAPEAXI@Z 000000018001df60 f i LIBCMT:std_type_info_static.obj
 0001:0001d084       _Init_thread_footer        000000018001e084 f   LIBCMT:thread_safe_statics.obj
 0001:0001d0e4       _Init_thread_header        000000018001e0e4 f   LIBCMT:thread_safe_statics.obj
 0001:0001d14c       _Init_thread_notify        000000018001e14c f   LIBCMT:thread_safe_statics.obj
 0001:0001d190       _Init_thread_wait          000000018001e190 f   LIBCMT:thread_safe_statics.obj
 0001:0001d514       _DllMainCRTStartup         000000018001e514 f   LIBCMT:dll_dllmain.obj
 0001:0001d554       __scrt_acquire_startup_lock 000000018001e554 f   LIBCMT:utility.obj
 0001:0001d590       __scrt_dllmain_after_initialize_c 000000018001e590 f   LIBCMT:utility.obj
 0001:0001d5c4       __scrt_dllmain_before_initialize_c 000000018001e5c4 f   LIBCMT:utility.obj
 0001:0001d5dc       __scrt_dllmain_crt_thread_attach 000000018001e5dc f   LIBCMT:utility.obj
 0001:0001d604       __scrt_dllmain_crt_thread_detach 000000018001e604 f   LIBCMT:utility.obj
 0001:0001d61c       __scrt_dllmain_exception_filter 000000018001e61c f   LIBCMT:utility.obj
 0001:0001d67c       __scrt_dllmain_uninitialize_c 000000018001e67c f   LIBCMT:utility.obj
 0001:0001d6ac       __scrt_dllmain_uninitialize_critical 000000018001e6ac f   LIBCMT:utility.obj
 0001:0001d6c0       __scrt_initialize_crt      000000018001e6c0 f   LIBCMT:utility.obj
 0001:0001d70c       __scrt_initialize_onexit_tables 000000018001e70c f   LIBCMT:utility.obj
 0001:0001d798       __scrt_is_nonwritable_in_current_image 000000018001e798 f   LIBCMT:utility.obj
 0001:0001d830       __scrt_release_startup_lock 000000018001e830 f   LIBCMT:utility.obj
 0001:0001d854       __scrt_uninitialize_crt    000000018001e854 f   LIBCMT:utility.obj
 0001:0001d880       _onexit                    000000018001e880 f   LIBCMT:utility.obj
 0001:0001d8bc       atexit                     000000018001e8bc f   LIBCMT:utility.obj
 0001:0001d8d4       __raise_securityfailure    000000018001e8d4 f   LIBCMT:gs_report.obj
 0001:0001d908       __report_gsfailure         000000018001e908 f   LIBCMT:gs_report.obj
 0001:0001d9dc       __report_rangecheckfailure 000000018001e9dc f   LIBCMT:gs_report.obj
 0001:0001d9f0       __report_securityfailure   000000018001e9f0 f   LIBCMT:gs_report.obj
 0001:0001db70       __crt_debugger_hook        000000018001eb70 f   LIBCMT:utility_desktop.obj
 0001:0001db78       __scrt_fastfail            000000018001eb78 f   LIBCMT:utility_desktop.obj
 0001:0001dcc4       __security_init_cookie     000000018001ecc4 f   LIBCMT:gs_support.obj
 0001:0001dd70       ?__scrt_initialize_type_info@@YAXXZ 000000018001ed70 f   LIBCMT:tncleanup.obj
 0001:0001dd80       ?__scrt_uninitialize_type_info@@YAXXZ 000000018001ed80 f   LIBCMT:tncleanup.obj
 0001:0001dd8c       __local_stdio_scanf_options 000000018001ed8c f i LIBCMT:default_local_stdio_options.obj
 0001:0001dd94       __scrt_initialize_default_local_stdio_options 000000018001ed94 f   LIBCMT:default_local_stdio_options.obj
 0001:0001ddb0       __scrt_get_dyn_tls_init_callback 000000018001edb0 f   LIBCMT:dyn_tls_init.obj
 0001:0001ddb8       _RTC_Initialize            000000018001edb8 f   LIBCMT:initsect.obj
 0001:0001ddf4       _RTC_Terminate             000000018001edf4 f   LIBCMT:initsect.obj
 0001:0001de30       __isa_available_init       000000018001ee30 f   LIBCMT:cpu_disp.obj
 0001:0001dfd4       __scrt_is_ucrt_dll_in_use  000000018001efd4 f   LIBCMT:ucrt_detection.obj
 0001:0001dfe0       ??$_CallSETranslator@V__FrameHandler4@@@@YAHPEAUEHExceptionRecord@@PEA_KPEAU_CONTEXT@@PEAU_xDISPATCHER_CONTEXT@@PEAUFuncInfo4@FH4@@K1H@Z 000000018001efe0 f i libvcruntime:risctrnsctrl.obj
 0001:0001e034       ?DecompFuncInfo@FH4@@YA_JPEAEAEAUFuncInfo4@1@_KH_N@Z 000000018001f034 f i libvcruntime:risctrnsctrl.obj
 0001:0001e158       ?ExecutionInCatch@__FrameHandler4@@SA_NPEAU_xDISPATCHER_CONTEXT@@PEAUFuncInfo4@FH4@@@Z 000000018001f158 f   libvcruntime:risctrnsctrl.obj
 0001:0001e160       ?FrameUnwindToEmptyState@__FrameHandler4@@SAXPEA_KPEAU_xDISPATCHER_CONTEXT@@PEAUFuncInfo4@FH4@@@Z 000000018001f160 f   libvcruntime:risctrnsctrl.obj
 0001:0001e194       ?GetEstablisherFrame@__FrameHandler4@@SAPEA_KPEA_KPEAU_xDISPATCHER_CONTEXT@@PEAUFuncInfo4@FH4@@0@Z 000000018001f194 f   libvcruntime:risctrnsctrl.obj
 0001:0001e1b8       ?GetRangeOfTrysToCheck@__FrameHandler4@@SA?AU?$pair@Viterator@TryBlockMap4@FH4@@V123@@std@@AEAVTryBlockMap4@FH4@@HPEAU_xDISPATCHER_CONTEXT@@PEAUFuncInfo4@5@H@Z 000000018001f1b8 f   libvcruntime:risctrnsctrl.obj
 0001:0001e320       ?UnwindNestedFrames@__FrameHandler4@@SAXPEA_KPEAUEHExceptionRecord@@PEAU_CONTEXT@@0PEAXPEAUFuncInfo4@FH4@@HHPEAUHandlerType4@5@PEAU_xDISPATCHER_CONTEXT@@E@Z 000000018001f320 f   libvcruntime:risctrnsctrl.obj
 0001:0001e440       ?setBuffer@TryBlockMap4@FH4@@QEAAXViterator@12@@Z 000000018001f440 f i libvcruntime:risctrnsctrl.obj
 0001:0001e600       _CreateFrameInfo           000000018001f600 f   libvcruntime:risctrnsctrl.obj
 0001:0001e63c       _FindAndUnlinkFrame        000000018001f63c f   libvcruntime:risctrnsctrl.obj
 0001:0001e690       _GetImageBase              000000018001f690 f   libvcruntime:risctrnsctrl.obj
 0001:0001e6a4       _GetThrowImageBase         000000018001f6a4 f   libvcruntime:risctrnsctrl.obj
 0001:0001e6b8       _SetImageBase              000000018001f6b8 f   libvcruntime:risctrnsctrl.obj
 0001:0001e6d0       _SetThrowImageBase         000000018001f6d0 f   libvcruntime:risctrnsctrl.obj
 0001:0001e6e8       __CxxFrameHandler4         000000018001f6e8 f   libvcruntime:risctrnsctrl.obj
 0001:0001e7c0       memcpy_repmovs             000000018001f7c0 f   libvcruntime:memcpy.obj
 0001:0001e7e0       memcpy                     000000018001f7e0 f   libvcruntime:memcpy.obj
 0001:0001e7e0       memmove                    000000018001f7e0 f   libvcruntime:memcpy.obj
 0001:0001ee58       wcschr                     000000018001fe58 f   libvcruntime:wcschr.obj
 0001:0001eed4       wcsstr                     000000018001fed4 f   libvcruntime:wcsstr.obj
 0001:0001f100       memset_repmovs             0000000180020100 f   libvcruntime:memset.obj
 0001:0001f120       memset                     0000000180020120 f   libvcruntime:memset.obj
 0001:0001f2b0       __DestructExceptionObject  00000001800202b0 f   libvcruntime:ehhelpers.obj
 0001:0001f320       ?_CallMemberFunction0@@YAXQEAX0@Z 0000000180020320 f i libvcruntime:ehhelpers.obj
 0001:0001f324       _IsExceptionObjectToBeDestroyed 0000000180020324 f   libvcruntime:ehhelpers.obj
 0001:0001f354       __AdjustPointer            0000000180020354 f   libvcruntime:ehhelpers.obj
 0001:0001f378       __FrameUnwindFilter        0000000180020378 f   libvcruntime:ehhelpers.obj
 0001:0001f3e0       __std_terminate            00000001800203e0 f   libvcruntime:ehhelpers.obj
 0001:0001f3ec       __std_exception_copy       00000001800203ec f   libvcruntime:std_exception.obj
 0001:0001f47c       __std_exception_destroy    000000018002047c f   libvcruntime:std_exception.obj
 0001:0001f4a4       _CxxThrowException         00000001800204a4 f   libvcruntime:throw.obj
 0001:0001f544       _get_purecall_handler      0000000180020544 f   libvcruntime:purevirt.obj
 0001:0001f550       _purecall                  0000000180020550 f   libvcruntime:purevirt.obj
 0001:0001f56c       wcsrchr                    000000018002056c f   libvcruntime:wcsrchr.obj
 0001:0001f630       memcmp                     0000000180020630 f   libvcruntime:memcmp.obj
 0001:0001f6f8       __C_specific_handler       00000001800206f8 f   libvcruntime:riscchandler.obj
 0001:0001f904       strrchr                    0000000180020904 f   libvcruntime:strrchr.obj
 0001:0001fa30       strchr                     0000000180020a30 f   libvcruntime:strchr.obj
 0001:0001fab0       __vcrt_initialize          0000000180020ab0 f   libvcruntime:initialization.obj
 0001:0001fad8       __vcrt_thread_attach       0000000180020ad8 f   libvcruntime:initialization.obj
 0001:0001faec       __vcrt_thread_detach       0000000180020aec f   libvcruntime:initialization.obj
 0001:0001fb00       __vcrt_uninitialize        0000000180020b00 f   libvcruntime:initialization.obj
 0001:0001fb1c       __vcrt_uninitialize_critical 0000000180020b1c f   libvcruntime:initialization.obj
 0001:0001fb2c       __std_type_info_compare    0000000180020b2c f   libvcruntime:std_type_info.obj
 0001:0001fb54       __std_type_info_destroy_list 0000000180020b54 f   libvcruntime:std_type_info.obj
 0001:0001fb80       __vcrt_freefls             0000000180020b80 f   libvcruntime:per_thread_data.obj
 0001:0001fba0       __vcrt_freeptd             0000000180020ba0 f   libvcruntime:per_thread_data.obj
 0001:0001fbf0       __vcrt_getptd              0000000180020bf0 f   libvcruntime:per_thread_data.obj
 0001:0001fc0c       __vcrt_getptd_noexit       0000000180020c0c f   libvcruntime:per_thread_data.obj
 0001:0001fccc       __vcrt_initialize_ptd      0000000180020ccc f   libvcruntime:per_thread_data.obj
 0001:0001fd14       __vcrt_uninitialize_ptd    0000000180020d14 f   libvcruntime:per_thread_data.obj
 0001:0001fd38       ?StateFromControlPc@__FrameHandler4@@SAHPEAUFuncInfo4@FH4@@PEAU_xDISPATCHER_CONTEXT@@@Z 0000000180020d38 f   libvcruntime:ehstate.obj
 0001:0001fd40       ?StateFromIp@__FrameHandler4@@SAHPEAUFuncInfo4@FH4@@PEAU_xDISPATCHER_CONTEXT@@_K@Z 0000000180020d40 f   libvcruntime:ehstate.obj
 0001:000209b0       ??$TypeMatchHelper@V__FrameHandler3@@@@YAHPEBU_s_HandlerType@@PEBU_s_CatchableType@@PEBU_s_ThrowInfo@@@Z 00000001800219b0 f i libvcruntime:frame.obj
 0001:00020af0       ??$TypeMatchHelper@V__FrameHandler4@@@@YAHPEAUHandlerType4@FH4@@PEBU_s_CatchableType@@PEBU_s_ThrowInfo@@@Z 0000000180021af0 f i libvcruntime:frame.obj
 0001:00020c34       ??$__InternalCxxFrameHandler@V__FrameHandler4@@@@YA?AW4_EXCEPTION_DISPOSITION@@PEAUEHExceptionRecord@@PEA_KPEAU_CONTEXT@@PEAU_xDISPATCHER_CONTEXT@@PEAUFuncInfo4@FH4@@H1E@Z 0000000180021c34 f i libvcruntime:frame.obj
 0001:00020ec8       ??0HandlerMap4@FH4@@QEAA@PEBUTryBlockMapEntry4@1@_KH@Z 0000000180021ec8 f i libvcruntime:frame.obj
 0001:00020f44       ??0TryBlockMap4@FH4@@QEAA@PEBUFuncInfo4@1@_K@Z 0000000180021f44 f i libvcruntime:frame.obj
 0001:0002101c       ??0bad_exception@std@@QEAA@AEBV01@@Z 000000018002201c f i libvcruntime:frame.obj
 0001:00021058       ??0bad_exception@std@@QEAA@XZ 0000000180022058 f i libvcruntime:frame.obj
 0001:00021078       ?CxxCallCatchBlock@__FrameHandler4@@SAPEAXPEAU_EXCEPTION_RECORD@@@Z 0000000180022078 f   libvcruntime:frame.obj
 0001:000212c8       ?DecompHandler@HandlerMap4@FH4@@AEAAXXZ 00000001800222c8 f i libvcruntime:frame.obj
 0001:00021508       ?FrameUnwindToState@__FrameHandler4@@SAXPEA_KPEAU_xDISPATCHER_CONTEXT@@PEAUFuncInfo4@FH4@@H@Z 0000000180022508 f   libvcruntime:frame.obj
 0001:00021968       ?ReadEntry@UWMap4@FH4@@AEAAXPEAPEAE@Z 0000000180022968 f i libvcruntime:frame.obj
 0001:00021a08       ?_CallMemberFunction1@@YAXQEAX00@Z 0000000180022a08 f i libvcruntime:frame.obj
 0001:00021a14       ?_CallMemberFunction2@@YAXQEAX00H@Z 0000000180022a14 f i libvcruntime:frame.obj
 0001:00021a24       ?getStartStop@UWMap4@FH4@@QEAAXHHAEAViterator@12@0@Z 0000000180022a24 f i libvcruntime:frame.obj
 0001:00021af4       ?getStateFromIterators@UWMap4@FH4@@SAHAEBViterator@12@H0H0@Z 0000000180022af4 f i libvcruntime:frame.obj
 0001:00021bd0       _NLG_Notify                0000000180022bd0 f   libvcruntime:notify.obj
 0001:00021bf0       __NLG_Dispatch2            0000000180022bf0 f   libvcruntime:notify.obj
 0001:00021c00       __NLG_Return2              0000000180022c00 f   libvcruntime:notify.obj
 0001:00021c04       __except_validate_context_record 0000000180022c04 f   libvcruntime:jbcxrval.obj
 0001:00021c3c       __vcrt_initialize_locks    0000000180022c3c f   libvcruntime:locks.obj
 0001:00021c70       __vcrt_uninitialize_locks  0000000180022c70 f   libvcruntime:locks.obj
 0001:00021df8       __vcrt_FlsAlloc            0000000180022df8 f   libvcruntime:winapi_downlevel.obj
 0001:00021e40       __vcrt_FlsFree             0000000180022e40 f   libvcruntime:winapi_downlevel.obj
 0001:00021e88       __vcrt_FlsGetValue         0000000180022e88 f   libvcruntime:winapi_downlevel.obj
 0001:00021ed0       __vcrt_FlsSetValue         0000000180022ed0 f   libvcruntime:winapi_downlevel.obj
 0001:00021f24       __vcrt_InitializeCriticalSectionEx 0000000180022f24 f   libvcruntime:winapi_downlevel.obj
 0001:00021fa0       _CallSettingFrame          0000000180022fa0 f   libvcruntime:handlers.obj
 0001:00021ff0       _CallSettingFrame_LookupContinuationIndex 0000000180022ff0 f   libvcruntime:handlers.obj
 0001:00022020       _CallSettingFrame_NotifyContinuationAddr 0000000180023020 f   libvcruntime:handlers.obj
 0001:00022050       _CallSettingFrameEncoded   0000000180023050 f   libvcruntime:handlers.obj
 0001:00022438       ??$ensure_buffer_is_big_enough@D@formatting_buffer@__crt_stdio_output@@QEAA_N_K@Z 0000000180023438 f i libucrt:output.obj
 0001:000224e0       ??$ensure_buffer_is_big_enough@_W@formatting_buffer@__crt_stdio_output@@QEAA_N_K@Z 00000001800234e0 f i libucrt:output.obj
 0001:0002258c       ??$is_wide_character_specifier@_W@__crt_stdio_output@@YA_N_K_WW4length_modifier@0@@Z 000000018002358c f i libucrt:output.obj
 0001:000225cc       ??$type_case_integer_parse_into_buffer@I@?$output_processor@DV?$string_output_adapter@D@__crt_stdio_output@@V?$standard_base@DV?$string_output_adapter@D@__crt_stdio_output@@@2@@__crt_stdio_output@@AEAAXII_N@Z 00000001800235cc f i libucrt:output.obj
 0001:00022654       ??$type_case_integer_parse_into_buffer@I@?$output_processor@_WV?$string_output_adapter@_W@__crt_stdio_output@@V?$standard_base@_WV?$string_output_adapter@_W@__crt_stdio_output@@@2@@__crt_stdio_output@@AEAAXII_N@Z 0000000180023654 f i libucrt:output.obj
 0001:000226f8       ??$type_case_integer_parse_into_buffer@_K@?$output_processor@DV?$string_output_adapter@D@__crt_stdio_output@@V?$standard_base@DV?$string_output_adapter@D@__crt_stdio_output@@@2@@__crt_stdio_output@@AEAAX_KI_N@Z 00000001800236f8 f i libucrt:output.obj
 0001:00022788       ??$type_case_integer_parse_into_buffer@_K@?$output_processor@_WV?$string_output_adapter@_W@__crt_stdio_output@@V?$standard_base@_WV?$string_output_adapter@_W@__crt_stdio_output@@@2@@__crt_stdio_output@@AEAAX_KI_N@Z 0000000180023788 f i libucrt:output.obj
 0001:0002282c       ??$write_multiple_characters@V?$string_output_adapter@D@__crt_stdio_output@@D@__crt_stdio_output@@YAXAEBV?$string_output_adapter@D@0@DHQEAH@Z 000000018002382c f i libucrt:output.obj
 0001:000228a4       ??$write_multiple_characters@V?$string_output_adapter@_W@__crt_stdio_output@@D@__crt_stdio_output@@YAXAEBV?$string_output_adapter@_W@0@DHQEAH@Z 00000001800238a4 f i libucrt:output.obj
 0001:0002291c       ??0_LocaleUpdate@@QEAA@QEAU__crt_locale_pointers@@@Z 000000018002391c f i libucrt:output.obj
 0001:000229c0       ?crop_zeroes@__crt_stdio_output@@YAXPEADQEAU__crt_locale_pointers@@@Z 00000001800239c0 f i libucrt:output.obj
 0001:00022a60       ?force_decimal_point@__crt_stdio_output@@YAXPEADQEAU__crt_locale_pointers@@@Z 0000000180023a60 f i libucrt:output.obj
 0001:00022ad8       ?parse_int_from_format_string@?$output_processor@DV?$string_output_adapter@D@__crt_stdio_output@@V?$standard_base@DV?$string_output_adapter@D@__crt_stdio_output@@@2@@__crt_stdio_output@@AEAA_NQEAH@Z 0000000180023ad8 f i libucrt:output.obj
 0001:00022b7c       ?parse_int_from_format_string@?$output_processor@_WV?$string_output_adapter@_W@__crt_stdio_output@@V?$standard_base@_WV?$string_output_adapter@_W@__crt_stdio_output@@@2@@__crt_stdio_output@@AEAA_NQEAH@Z 0000000180023b7c f i libucrt:output.obj
 0001:00022c20       ?process@?$output_processor@DV?$string_output_adapter@D@__crt_stdio_output@@V?$standard_base@DV?$string_output_adapter@D@__crt_stdio_output@@@2@@__crt_stdio_output@@QEAAHXZ 0000000180023c20 f i libucrt:output.obj
 0001:00022e28       ?process@?$output_processor@_WV?$string_output_adapter@_W@__crt_stdio_output@@V?$standard_base@_WV?$string_output_adapter@_W@__crt_stdio_output@@@2@@__crt_stdio_output@@QEAAHXZ 0000000180023e28 f i libucrt:output.obj
 0001:00023094       ?state_case_normal@?$output_processor@DV?$string_output_adapter@D@__crt_stdio_output@@V?$standard_base@DV?$string_output_adapter@D@__crt_stdio_output@@@2@@__crt_stdio_output@@AEAA_NXZ 0000000180024094 f i libucrt:output.obj
 0001:00023108       ?state_case_normal_tchar@?$output_processor@DV?$string_output_adapter@D@__crt_stdio_output@@V?$standard_base@DV?$string_output_adapter@D@__crt_stdio_output@@@2@@__crt_stdio_output@@AEAA_ND@Z 0000000180024108 f i libucrt:output.obj
 0001:000231b0       ?state_case_size@?$output_processor@DV?$string_output_adapter@D@__crt_stdio_output@@V?$standard_base@DV?$string_output_adapter@D@__crt_stdio_output@@@2@@__crt_stdio_output@@AEAA_NXZ 00000001800241b0 f i libucrt:output.obj
 0001:00023320       ?state_case_size@?$output_processor@_WV?$string_output_adapter@_W@__crt_stdio_output@@V?$standard_base@_WV?$string_output_adapter@_W@__crt_stdio_output@@@2@@__crt_stdio_output@@AEAA_NXZ 0000000180024320 f i libucrt:output.obj
 0001:000234b4       ?state_case_type@?$output_processor@DV?$string_output_adapter@D@__crt_stdio_output@@V?$standard_base@DV?$string_output_adapter@D@__crt_stdio_output@@@2@@__crt_stdio_output@@AEAA_NXZ 00000001800244b4 f i libucrt:output.obj
 0001:0002371c       ?state_case_type@?$output_processor@_WV?$string_output_adapter@_W@__crt_stdio_output@@V?$standard_base@_WV?$string_output_adapter@_W@__crt_stdio_output@@@2@@__crt_stdio_output@@AEAA_NXZ 000000018002471c f i libucrt:output.obj
 0001:000239f0       ?to_integer_size@__crt_stdio_output@@YA_KW4length_modifier@1@@Z 00000001800249f0 f i libucrt:output.obj
 0001:00023a58       ?type_case_Z@?$output_processor@DV?$string_output_adapter@D@__crt_stdio_output@@V?$standard_base@DV?$string_output_adapter@D@__crt_stdio_output@@@2@@__crt_stdio_output@@AEAA_NXZ 0000000180024a58 f i libucrt:output.obj
 0001:00023acc       ?type_case_Z@?$output_processor@_WV?$string_output_adapter@_W@__crt_stdio_output@@V?$standard_base@_WV?$string_output_adapter@_W@__crt_stdio_output@@@2@@__crt_stdio_output@@AEAA_NXZ 0000000180024acc f i libucrt:output.obj
 0001:00023b48       ?type_case_a@?$output_processor@DV?$string_output_adapter@D@__crt_stdio_output@@V?$standard_base@DV?$string_output_adapter@D@__crt_stdio_output@@@2@@__crt_stdio_output@@AEAA_NXZ 0000000180024b48 f i libucrt:output.obj
 0001:00023d04       ?type_case_a@?$output_processor@_WV?$string_output_adapter@_W@__crt_stdio_output@@V?$standard_base@_WV?$string_output_adapter@_W@__crt_stdio_output@@@2@@__crt_stdio_output@@AEAA_NXZ 0000000180024d04 f i libucrt:output.obj
 0001:00023ee4       ?type_case_c_tchar@?$output_processor@DV?$string_output_adapter@D@__crt_stdio_output@@V?$standard_base@DV?$string_output_adapter@D@__crt_stdio_output@@@2@@__crt_stdio_output@@AEAA_ND@Z 0000000180024ee4 f i libucrt:output.obj
 0001:00023fac       ?type_case_c_tchar@?$output_processor@_WV?$string_output_adapter@_W@__crt_stdio_output@@V?$standard_base@_WV?$string_output_adapter@_W@__crt_stdio_output@@@2@@__crt_stdio_output@@AEAA_N_W@Z 0000000180024fac f i libucrt:output.obj
 0001:00024054       ?type_case_integer@?$output_processor@DV?$string_output_adapter@D@__crt_stdio_output@@V?$standard_base@DV?$string_output_adapter@D@__crt_stdio_output@@@2@@__crt_stdio_output@@AEAA_NI_N@Z 0000000180025054 f i libucrt:output.obj
 0001:000241d4       ?type_case_integer@?$output_processor@_WV?$string_output_adapter@_W@__crt_stdio_output@@V?$standard_base@_WV?$string_output_adapter@_W@__crt_stdio_output@@@2@@__crt_stdio_output@@AEAA_NI_N@Z 00000001800251d4 f i libucrt:output.obj
 0001:0002435c       ?type_case_n@?$output_processor@DV?$string_output_adapter@D@__crt_stdio_output@@V?$standard_base@DV?$string_output_adapter@D@__crt_stdio_output@@@2@@__crt_stdio_output@@AEAA_NXZ 000000018002535c f i libucrt:output.obj
 0001:0002435c       ?type_case_n@?$output_processor@_WV?$string_output_adapter@_W@__crt_stdio_output@@V?$standard_base@_WV?$string_output_adapter@_W@__crt_stdio_output@@@2@@__crt_stdio_output@@AEAA_NXZ 000000018002535c f i libucrt:output.obj
 0001:000243e4       ?type_case_s@?$output_processor@DV?$string_output_adapter@D@__crt_stdio_output@@V?$standard_base@DV?$string_output_adapter@D@__crt_stdio_output@@@2@@__crt_stdio_output@@AEAA_NXZ 00000001800253e4 f i libucrt:output.obj
 0001:0002447c       ?type_case_s@?$output_processor@_WV?$string_output_adapter@_W@__crt_stdio_output@@V?$standard_base@_WV?$string_output_adapter@_W@__crt_stdio_output@@@2@@__crt_stdio_output@@AEAA_NXZ 000000018002547c f i libucrt:output.obj
 0001:00024544       ?write_stored_string_tchar@?$output_processor@DV?$string_output_adapter@D@__crt_stdio_output@@V?$standard_base@DV?$string_output_adapter@D@__crt_stdio_output@@@2@@__crt_stdio_output@@AEAA_ND@Z 0000000180025544 f i libucrt:output.obj
 0001:00024620       ?write_stored_string_tchar@?$output_processor@_WV?$string_output_adapter@_W@__crt_stdio_output@@V?$standard_base@_WV?$string_output_adapter@_W@__crt_stdio_output@@@2@@__crt_stdio_output@@AEAA_N_W@Z 0000000180025620 f i libucrt:output.obj
 0001:00024708       ?write_string@?$string_output_adapter@D@__crt_stdio_output@@QEBAXQEBDHQEAHAEAV__crt_deferred_errno_cache@@@Z 0000000180025708 f i libucrt:output.obj
 0001:000247ac       ?write_string@?$string_output_adapter@_W@__crt_stdio_output@@QEBAXQEB_WHQEAHAEAV__crt_deferred_errno_cache@@@Z 00000001800257ac f i libucrt:output.obj
 0001:00024854       __stdio_common_vsprintf    0000000180025854 f   libucrt:output.obj
 0001:0002485c       __stdio_common_vswprintf   000000018002585c f   libucrt:output.obj
 0001:00024864       ??$parse_integer@KV?$c_string_character_source@D@__crt_strtox@@@__crt_strtox@@YAKQEAU__crt_locale_pointers@@V?$c_string_character_source@D@0@H_N@Z 0000000180025864 f i libucrt:strtox.obj
 0001:00024b68       ??$parse_integer@KV?$c_string_character_source@_W@__crt_strtox@@@__crt_strtox@@YAKQEAU__crt_locale_pointers@@V?$c_string_character_source@_W@0@H_N@Z 0000000180025b68 f i libucrt:strtox.obj
 0001:00025210       _ischartype_l              0000000180026210 f i libucrt:strtox.obj
 0001:00025288       strtol                     0000000180026288 f   libucrt:strtox.obj
 0001:000252b4       wcstol                     00000001800262b4 f   libucrt:strtox.obj
 0001:000252e0       wcstoul                    00000001800262e0 f   libucrt:strtox.obj
 0001:0002530c       wcsncmp                    000000018002630c f   libucrt:wcsncmp.obj
 0001:00025338       __acrt_call_reportfault    0000000180026338 f   libucrt:invalid_parameter.obj
 0001:00025494       __acrt_initialize_invalid_parameter_handler 0000000180026494 f   libucrt:invalid_parameter.obj
 0001:0002549c       _invalid_parameter         000000018002649c f   libucrt:invalid_parameter.obj
 0001:0002554c       _invalid_parameter_noinfo  000000018002654c f   libucrt:invalid_parameter.obj
 0001:0002556c       _invoke_watson             000000018002656c f   libucrt:invalid_parameter.obj
 0001:000255b4       __acrt_errno_from_os_error 00000001800265b4 f   libucrt:errno.obj
 0001:000255fc       __acrt_errno_map_os_error  00000001800265fc f   libucrt:errno.obj
 0001:0002564c       __doserrno                 000000018002664c f   libucrt:errno.obj
 0001:0002566c       _errno                     000000018002666c f   libucrt:errno.obj
 0001:0002568c       _initterm                  000000018002668c f   libucrt:initterm.obj
 0001:000256f0       _initterm_e                00000001800266f0 f   libucrt:initterm.obj
 0001:00025730       _seh_filter_dll            0000000180026730 f   libucrt:exception_filter.obj
 0001:00025744       _seh_filter_exe            0000000180026744 f   libucrt:exception_filter.obj
 0001:00025b34       __acrt_initialize_thread_local_exit_callback 0000000180026b34 f   libucrt:exit.obj
 0001:00025b3c       _cexit                     0000000180026b3c f   libucrt:exit.obj
 0001:00025b4c       _exit                      0000000180026b4c f   libucrt:exit.obj
 0001:00025b58       _is_c_termination_complete 0000000180026b58 f   libucrt:exit.obj
 0001:00025d20       __acrt_allocate_buffer_for_argv 0000000180026d20 f   libucrt:argv_parsing.obj
 0001:00025d80       _configure_narrow_argv     0000000180026d80 f   libucrt:argv_parsing.obj
 0001:000260f8       __dcrt_uninitialize_environments_nolock 00000001800270f8 f   libucrt:environment_initialization.obj
 0001:00026130       _initialize_narrow_environment 0000000180027130 f   libucrt:environment_initialization.obj
 0001:00026478       _crt_atexit                0000000180027478 f   libucrt:onexit.obj
 0001:00026488       _execute_onexit_table      0000000180027488 f   libucrt:onexit.obj
 0001:000264c4       _initialize_onexit_table   00000001800274c4 f   libucrt:onexit.obj
 0001:000264ec       _register_onexit_function  00000001800274ec f   libucrt:onexit.obj
 0001:00026660       __acrt_initialize          0000000180027660 f   libucrt:initialization.obj
 0001:00026674       __acrt_thread_attach       0000000180027674 f   libucrt:initialization.obj
 0001:00026688       __acrt_thread_detach       0000000180027688 f   libucrt:initialization.obj
 0001:00026698       __acrt_uninitialize        0000000180027698 f   libucrt:initialization.obj
 0001:000266d0       __acrt_uninitialize_critical 00000001800276d0 f   libucrt:initialization.obj
 0001:000266e0       terminate                  00000001800276e0 f   libucrt:terminate.obj
 0001:00026700       abort                      0000000180027700 f   libucrt:abort.obj
 0001:00026758       free                       0000000180027758 f   libucrt:free.obj
 0001:0002676c       malloc                     000000018002776c f   libucrt:malloc.obj
 0001:00026774       strcpy_s                   0000000180027774 f   libucrt:strcpy_s.obj
 0001:000267d4       calloc                     00000001800277d4 f   libucrt:calloc.obj
 0001:000267f0       strncmp                    00000001800277f0 f   libucrt:strncmp.obj
 0001:00026870       _free_base                 0000000180027870 f   libucrt:free_base.obj
 0001:000268b0       _malloc_base               00000001800278b0 f   libucrt:malloc_base.obj
 0001:00026910       _mbtowc_l                  0000000180027910 f   libucrt:mbtowc.obj
 0001:00026a90       mbtowc                     0000000180027a90 f   libucrt:mbtowc.obj
 0001:00026a98       _wctomb_s_l                0000000180027a98 f   libucrt:wctomb.obj
 0001:00026c34       strnlen                    0000000180027c34 f   libucrt:strnlen.obj
 0001:00026d84       wcsnlen                    0000000180027d84 f   libucrt:strnlen.obj
 0001:000272d4       __acrt_freeptd             00000001800282d4 f   libucrt:per_thread_data.obj
 0001:00027318       __acrt_getptd              0000000180028318 f   libucrt:per_thread_data.obj
 0001:000273ec       __acrt_getptd_head         00000001800283ec f   libucrt:per_thread_data.obj
 0001:00027494       __acrt_getptd_noexit       0000000180028494 f   libucrt:per_thread_data.obj
 0001:00027560       __acrt_initialize_ptd      0000000180028560 f   libucrt:per_thread_data.obj
 0001:0002759c       __acrt_uninitialize_ptd    000000018002859c f   libucrt:per_thread_data.obj
 0001:000275c0       __acrt_update_locale_info  00000001800285c0 f   libucrt:locale_update.obj
 0001:000275f4       __acrt_update_multibyte_info 00000001800285f4 f   libucrt:locale_update.obj
 0001:00028034       __acrt_fp_format           0000000180029034 f   libucrt:cvt.obj
 0001:0002836c       _fileno                    000000018002936c f   libucrt:fileno.obj
 0001:00028394       __acrt_initialize_stdio    0000000180029394 f   libucrt:_file.obj
 0001:000284b4       __acrt_uninitialize_stdio  00000001800294b4 f   libucrt:_file.obj
 0001:00028510       _lock_file                 0000000180029510 f   libucrt:_file.obj
 0001:0002851c       _unlock_file               000000018002951c f   libucrt:_file.obj
 0001:00028528       _get_printf_count_output   0000000180029528 f   libucrt:printf_count_output.obj
 0001:000285b0       __acrt_set_locale_changed  00000001800295b0 f   libucrt:wsetlocale.obj
 0001:000285bc       __acrt_uninitialize_locale 00000001800295bc f   libucrt:wsetlocale.obj
 0001:000287e8       __acrt_initialize_lowio    00000001800297e8 f   libucrt:ioinit.obj
 0001:00028824       __acrt_uninitialize_lowio  0000000180029824 f   libucrt:ioinit.obj
 0001:00028864       __pctype_func              0000000180029864 f   libucrt:ctype.obj
 0001:00028894       iswctype                   0000000180029894 f   libucrt:iswctype.obj
 0001:00028900       _isctype_l                 0000000180029900 f   libucrt:isctype.obj
 0001:00028a08       __acrt_initialize_locks    0000000180029a08 f   libucrt:locks.obj
 0001:00028a50       __acrt_lock                0000000180029a50 f   libucrt:locks.obj
 0001:00028a6c       __acrt_uninitialize_locks  0000000180029a6c f   libucrt:locks.obj
 0001:00028aa4       __acrt_unlock              0000000180029aa4 f   libucrt:locks.obj
 0001:00028ac0       __acrt_get_process_end_policy 0000000180029ac0 f   libucrt:win_policies.obj
 0001:00028afc       _calloc_base               0000000180029afc f   libucrt:calloc_base.obj
 0001:00028b88       ??$__acrt_mbs_to_wcs_cp@U__crt_win32_buffer_internal_dynamic_resizing@@@@YAHQEBDAEAV?$__crt_win32_buffer@_WU__crt_win32_buffer_internal_dynamic_resizing@@@@I@Z 0000000180029b88 f i libucrt:argv_wildcards.obj
 0001:00028d00       ??$__acrt_wcs_to_mbs_cp@U__crt_win32_buffer_internal_dynamic_resizing@@@@YAHQEB_WAEAV?$__crt_win32_buffer@DU__crt_win32_buffer_internal_dynamic_resizing@@@@I@Z 0000000180029d00 f i libucrt:argv_wildcards.obj
 0001:00029530       __acrt_expand_narrow_argv_wildcards 000000018002a530 f   libucrt:argv_wildcards.obj
 0001:00029538       ??$__acrt_wcs_to_mbs_cp@U__crt_win32_buffer_no_resizing@@@@YAHQEB_WAEAV?$__crt_win32_buffer@DU__crt_win32_buffer_no_resizing@@@@I@Z 000000018002a538 f i libucrt:getmodulefilenamea.obj
 0001:0002964c       __acrt_GetModuleFileNameA  000000018002a64c f   libucrt:getmodulefilenamea.obj
 0001:00029e94       __acrt_initialize_multibyte 000000018002ae94 f   libucrt:mbctype.obj
 0001:00029ef4       __acrt_update_thread_multibyte_data 000000018002aef4 f   libucrt:mbctype.obj
 0001:00029f10       _setmbcp_nolock            000000018002af10 f   libucrt:mbctype.obj
 0001:0002a244       _ismbblead                 000000018002b244 f   libucrt:ismbbyte.obj
 0001:0002a258       __acrt_initialize_command_line 000000018002b258 f   libucrt:argv_data.obj
 0001:0002a280       __acrt_MultiByteToWideChar 000000018002b280 f   libucrt:multibytetowidechar.obj
 0001:0002a2dc       __acrt_WideCharToMultiByte 000000018002b2dc f   libucrt:widechartomultibyte.obj
 0001:0002a38c       __dcrt_get_narrow_environment_from_os 000000018002b38c f   libucrt:get_environment_from_os.obj
 0001:0002a490       _recalloc_base             000000018002b490 f   libucrt:recalloc.obj
 0001:0002a700       __acrt_AppPolicyGetProcessTerminationMethodInternal 000000018002b700 f   libucrt:winapi_thunks.obj
 0001:0002a750       __acrt_AreFileApisANSI     000000018002b750 f   libucrt:winapi_thunks.obj
 0001:0002a78c       __acrt_FlsAlloc            000000018002b78c f   libucrt:winapi_thunks.obj
 0001:0002a7d4       __acrt_FlsFree             000000018002b7d4 f   libucrt:winapi_thunks.obj
 0001:0002a81c       __acrt_FlsGetValue         000000018002b81c f   libucrt:winapi_thunks.obj
 0001:0002a864       __acrt_FlsSetValue         000000018002b864 f   libucrt:winapi_thunks.obj
 0001:0002a8b8       __acrt_InitializeCriticalSectionEx 000000018002b8b8 f   libucrt:winapi_thunks.obj
 0001:0002a91c       __acrt_LCMapStringEx       000000018002b91c f   libucrt:winapi_thunks.obj
 0001:0002a9f8       __acrt_LocaleNameToLCID    000000018002b9f8 f   libucrt:winapi_thunks.obj
 0001:0002aa48       __acrt_initialize_winapi_thunks 000000018002ba48 f   libucrt:winapi_thunks.obj
 0001:0002aa7c       __acrt_uninitialize_winapi_thunks 000000018002ba7c f   libucrt:winapi_thunks.obj
 0001:0002aac0       __acrt_initialize_heap     000000018002bac0 f   libucrt:heap_handle.obj
 0001:0002aadc       __acrt_uninitialize_heap   000000018002badc f   libucrt:heap_handle.obj
 0001:0002aae8       __acrt_execute_initializers 000000018002bae8 f   libucrt:shared_initialization.obj
 0001:0002ab68       __acrt_execute_uninitializers 000000018002bb68 f   libucrt:shared_initialization.obj
 0001:0002aba4       __acrt_initialize_new_handler 000000018002bba4 f   libucrt:new_handler.obj
 0001:0002abac       _callnewh                  000000018002bbac f   libucrt:new_handler.obj
 0001:0002abdc       _query_new_handler         000000018002bbdc f   libucrt:new_handler.obj
 0001:0002ac58       __acrt_get_sigabrt_handler 000000018002bc58 f   libucrt:signal.obj
 0001:0002ac88       __acrt_initialize_signal_handlers 000000018002bc88 f   libucrt:signal.obj
 0001:0002aca8       raise                      000000018002bca8 f   libucrt:signal.obj
 0001:0002af14       __acrt_has_user_matherr    000000018002bf14 f   libucrt:matherr.obj
 0001:0002af34       __acrt_initialize_user_matherr 000000018002bf34 f   libucrt:matherr.obj
 0001:0002af3c       __acrt_invoke_user_matherr 000000018002bf3c f   libucrt:matherr.obj
 0001:0002b148       __acrt_stdio_flush_nolock  000000018002c148 f   libucrt:fflush.obj
 0001:0002b1c4       _fflush_nolock             000000018002c1c4 f   libucrt:fflush.obj
 0001:0002b210       _flushall                  000000018002c210 f   libucrt:fflush.obj
 0001:0002b218       _query_new_mode            000000018002c218 f   libucrt:new_mode.obj
 0001:0002b220       _isleadbyte_l              000000018002c220 f i libucrt:_wctype.obj
 0001:0002b26c       ?__mbrtowc_utf8@__crt_mbstring@@YA_KPEA_WPEBD_KPEAU_Mbstatet@@@Z 000000018002c26c f   libucrt:mbrtowc.obj
 0001:0002b2a8       ?__mbsrtowcs_utf8@__crt_mbstring@@YA_KPEA_WPEAPEBD_KPEAU_Mbstatet@@@Z 000000018002c2a8 f   libucrt:mbrtowc.obj
 0001:0002b420       ?__c32rtomb_utf8@__crt_mbstring@@YA_KPEAD_UPEAU_Mbstatet@@@Z 000000018002c420 f   libucrt:c32rtomb.obj
 0001:0002b4d4       __acrt_add_locale_ref      000000018002c4d4 f   libucrt:locale_refcounting.obj
 0001:0002b560       __acrt_free_locale         000000018002c560 f   libucrt:locale_refcounting.obj
 0001:0002b6d8       __acrt_locale_add_lc_time_reference 000000018002c6d8 f   libucrt:locale_refcounting.obj
 0001:0002b700       __acrt_locale_free_lc_time_if_unreferenced 000000018002c700 f   libucrt:locale_refcounting.obj
 0001:0002b738       __acrt_locale_release_lc_time_reference 000000018002c738 f   libucrt:locale_refcounting.obj
 0001:0002b760       __acrt_release_locale_ref  000000018002c760 f   libucrt:locale_refcounting.obj
 0001:0002b808       __acrt_update_thread_locale_data 000000018002c808 f   libucrt:locale_refcounting.obj
 0001:0002b878       _updatetlocinfoEx_nolock   000000018002c878 f   libucrt:locale_refcounting.obj
 0001:0002b8e0       __acrt_fp_strflt_to_string 000000018002c8e0 f   libucrt:_fptostr.obj
 0001:0002ba40       ?divide@__crt_strtox@@YA_KAEAUbig_integer@1@AEBU21@@Z 000000018002ca40 f i libucrt:cfout.obj
 0001:0002be6c       __acrt_fltout              000000018002ce6c f   libucrt:cfout.obj
 0001:0002d138       fegetround                 000000018002e138 f   libucrt:fegetround.obj
 0001:0002d14c       _fcloseall                 000000018002e14c f   libucrt:closeall.obj
 0001:0002d200       __acrt_stdio_free_buffer_nolock 000000018002e200 f   libucrt:_freebuf.obj
 0001:0002d240       _isatty                    000000018002e240 f   libucrt:isatty.obj
 0001:0002d2a0       __acrt_locale_free_monetary 000000018002e2a0 f   libucrt:initmon.obj
 0001:0002d3ac       __acrt_locale_free_numeric 000000018002e3ac f   libucrt:initnum.obj
 0001:0002d470       __acrt_locale_free_time    000000018002e470 f   libucrt:inittime.obj
 0001:0002d578       __acrt_GetStringTypeA      000000018002e578 f   libucrt:getstringtypea.obj
 0001:0002d708       __acrt_lowio_create_handle_array 000000018002e708 f   libucrt:osfinfo.obj
 0001:0002d7b0       __acrt_lowio_destroy_handle_array 000000018002e7b0 f   libucrt:osfinfo.obj
 0001:0002d800       __acrt_lowio_ensure_fh_exists 000000018002e800 f   libucrt:osfinfo.obj
 0001:0002d8a8       __acrt_lowio_lock_fh       000000018002e8a8 f   libucrt:osfinfo.obj
 0001:0002d8d0       __acrt_lowio_unlock_fh     000000018002e8d0 f   libucrt:osfinfo.obj
 0001:0002d8f8       _free_osfhnd               000000018002e8f8 f   libucrt:osfinfo.obj
 0001:0002d9b4       _get_osfhandle             000000018002e9b4 f   libucrt:osfinfo.obj
 0001:0002da2c       __acrt_GetStringTypeW      000000018002ea2c f   libucrt:getstringtypew.obj
 0001:0002da40       qsort                      000000018002ea40 f   libucrt:qsort.obj
 0001:0002dde0       strncpy_s                  000000018002ede0 f   libucrt:strncpy_s.obj
 0001:0002df60       strpbrk                    000000018002ef60 f   libucrt:strpbrk.obj
 0001:0002e328       _mbsdec                    000000018002f328 f   libucrt:mbsdec.obj
 0001:0002e330       _mbsdec_l                  000000018002f330 f   libucrt:mbsdec.obj
 0001:0002e6dc       __acrt_LCMapStringA        000000018002f6dc f   libucrt:lcmapstringa.obj
 0001:0002e78c       _msize_base                000000018002f78c f   libucrt:msize.obj
 0001:0002e7c8       _realloc_base              000000018002f7c8 f   libucrt:realloc_base.obj
 0001:0002e844       __acrt_DownlevelLocaleNameToLCID 000000018002f844 f   libucrt:lcidtoname_downlevel.obj
 0001:0002e980       _commit                    000000018002f980 f   libucrt:commit.obj
 0001:0002f290       _write                     0000000180030290 f   libucrt:write.obj
 0001:0002f37c       _write_nolock              000000018003037c f   libucrt:write.obj
 0001:0002f660       ?__mbrtoc32_utf8@__crt_mbstring@@YA_KPEA_UPEBD_KPEAU_Mbstatet@@@Z 0000000180030660 f   libucrt:mbrtoc32.obj
 0001:0002f838       _controlfp_s               0000000180030838 f   libucrt:contrlfp.obj
 0001:0002f89c       fegetenv                   000000018003089c f   libucrt:fegetenv.obj
 0001:0002f8bc       fesetenv                   00000001800308bc f   libucrt:fesetenv.obj
 0001:0002f908       feholdexcept               0000000180030908 f   libucrt:feholdexcept.obj
 0001:0002f958       ceil                       0000000180030958 f   libucrt:ceil.obj
 0001:0002fa20       log10                      0000000180030a20 f   libucrt:log10.obj
 0001:0002ffcc       __acrt_fenv_get_common_round_control 0000000180030fcc f   libucrt:_fenvutils.obj
 0001:0002ffd8       __acrt_fenv_get_control    0000000180030fd8 f   libucrt:_fenvutils.obj
 0001:000300cc       __acrt_fenv_get_status     00000001800310cc f   libucrt:_fenvutils.obj
 0001:00030120       __acrt_fenv_set_control    0000000180031120 f   libucrt:_fenvutils.obj
 0001:00030268       __acrt_fenv_set_status     0000000180031268 f   libucrt:_fenvutils.obj
 0001:00030388       _lseeki64_nolock           0000000180031388 f   libucrt:lseek.obj
 0001:00030390       _fclose_nolock             0000000180031390 f   libucrt:fclose.obj
 0001:00030414       fclose                     0000000180031414 f   libucrt:fclose.obj
 0001:00030478       __ascii_wcsnicmp           0000000180031478 f   libucrt:wcsnicmp.obj
 0001:000304c4       _query_app_type            00000001800314c4 f   libucrt:report_runtime_error.obj
 0001:000304cc       __strncnt                  00000001800314cc f   libucrt:strncnt.obj
 0001:000304e4       _putwch_nolock             00000001800314e4 f   libucrt:putwch.obj
 0001:00030520       _clearfp                   0000000180031520 f   libucrt:ieee.obj
 0001:00030590       _control87                 0000000180031590 f   libucrt:ieee.obj
 0001:0003097c       _handle_error              000000018003197c f   libucrt:libm_error.obj
 0001:00030aa4       _handle_nan                0000000180031aa4 f   libucrt:libm_error.obj
 0001:00030ac0       __acrt_initialize_fma3     0000000180031ac0 f   libucrt:fma3_available.obj
 0001:00030b30       _log10_special             0000000180031b30 f   libucrt:log_special.obj
 0001:00030c5c       _close                     0000000180031c5c f   libucrt:close.obj
 0001:00030d00       _close_nolock              0000000180031d00 f   libucrt:close.obj
 0001:00030dc0       ?__acrt_stdio_free_stream@@YAXV__crt_stdio_stream@@@Z 0000000180031dc0 f   libucrt:stream.obj
 0001:00030ddc       __dcrt_lowio_ensure_console_output_initialized 0000000180031ddc f   libucrt:initcon.obj
 0001:00030e30       __dcrt_terminate_console_output 0000000180031e30 f   libucrt:initcon.obj
 0001:00030e4c       __dcrt_write_console       0000000180031e4c f   libucrt:initcon.obj
 0001:00030f20       _get_fpsr                  0000000180031f20 f   libucrt:fpsr.obj
 0001:00030f30       _set_fpsr                  0000000180031f30 f   libucrt:fpsr.obj
 0001:00030f3a       _fclrf                     0000000180031f3a f   libucrt:fpsr.obj
 0001:00030f4e       _frnd                      0000000180031f4e f   libucrt:fpsr.obj
 0001:00030f70       _raise_exc                 0000000180031f70 f   libucrt:fpexcept.obj
 0001:00030f98       _raise_exc_ex              0000000180031f98 f   libucrt:fpexcept.obj
 0001:000312a8       _set_errno_from_matherr    00000001800322a8 f   libucrt:fpexcept.obj
 0001:000312d8       _clrfp                     00000001800322d8 f   libucrt:fpctrl.obj
 0001:000312f8       _ctrlfp                    00000001800322f8 f   libucrt:fpctrl.obj
 0001:00031374       _set_statfp                0000000180032374 f   libucrt:fpctrl.obj
 0001:00031394       _statfp                    0000000180032394 f   libucrt:fpctrl.obj
 0001:000313a5       Process32FirstW            00000001800323a5 f   kernel32:KERNEL32.dll
 0001:000313ab       Process32NextW             00000001800323ab f   kernel32:KERNEL32.dll
 0001:000313b4       ?apiGetConsoleFontSize@@YAHPEAXAEAH1AEAY0CA@_W@Z 00000001800323b4 f   common-kernel64:WConsole.obj
 0001:0003147c       ?apiGetCurrentConsoleFontEx@@YAHPEAXHPEAUMY_CONSOLE_FONT_INFOEX@@@Z 000000018003247c f   common-kernel64:WConsole.obj
 0001:000314f8       ?apiSetConsoleFontSize@@YAHPEAXHHPEB_W@Z 00000001800324f8 f   common-kernel64:WConsole.obj
 0001:00031664       ?apiSetCurrentConsoleFontEx@@YAHPEAXHPEAUMY_CONSOLE_FONT_INFOEX@@@Z 0000000180032664 f   common-kernel64:WConsole.obj
 0001:000316e0       _FindPESection             00000001800326e0 f   LIBCMT:pesect.obj
 0001:00031730       _IsNonwritableInCurrentImage 0000000180032730 f   LIBCMT:pesect.obj
 0001:00031780       _ValidateImageBase         0000000180032780 f   LIBCMT:pesect.obj
 0001:000317b0       __GSHandlerCheck_SEH       00000001800327b0 f   LIBCMT:gshandlerseh.obj
 0001:00031850       _guard_dispatch_icall_nop  0000000180032850 f   LIBCMT:guard_dispatch.obj
 0001:00031870       _guard_xfg_dispatch_icall_nop 0000000180032870 f   LIBCMT:guard_xfg_dispatch.obj
 0002:00000000       __imp_RegQueryValueExW     0000000180033000     advapi32:ADVAPI32.dll
 0002:00000008       __imp_RegOpenKeyExW        0000000180033008     advapi32:ADVAPI32.dll
 0002:00000010       __imp_RegCloseKey          0000000180033010     advapi32:ADVAPI32.dll
 0002:00000018       __imp_RegCreateKeyExW      0000000180033018     advapi32:ADVAPI32.dll
 0002:00000020       \177ADVAPI32_NULL_THUNK_DATA 0000000180033020     advapi32:ADVAPI32.dll
 0002:00000028       __imp_GdiFlush             0000000180033028     gdi32:GDI32.dll
 0002:00000030       __imp_GetEnhMetaFileBits   0000000180033030     gdi32:GDI32.dll
 0002:00000038       __imp_DeleteEnhMetaFile    0000000180033038     gdi32:GDI32.dll
 0002:00000040       __imp_CreateEnhMetaFileW   0000000180033040     gdi32:GDI32.dll
 0002:00000048       __imp_CloseEnhMetaFile     0000000180033048     gdi32:GDI32.dll
 0002:00000050       __imp_GetDeviceCaps        0000000180033050     gdi32:GDI32.dll
 0002:00000058       __imp_DeleteObject         0000000180033058     gdi32:GDI32.dll
 0002:00000060       __imp_CreateSolidBrush     0000000180033060     gdi32:GDI32.dll
 0002:00000068       __imp_CreateCompatibleDC   0000000180033068     gdi32:GDI32.dll
 0002:00000070       __imp_CreateFontIndirectW  0000000180033070     gdi32:GDI32.dll
 0002:00000078       __imp_DeleteDC             0000000180033078     gdi32:GDI32.dll
 0002:00000080       __imp_SelectObject         0000000180033080     gdi32:GDI32.dll
 0002:00000088       __imp_GetTextMetricsW      0000000180033088     gdi32:GDI32.dll
 0002:00000090       \177GDI32_NULL_THUNK_DATA  0000000180033090     gdi32:GDI32.dll
 0002:00000098       __imp_CreateEventW         0000000180033098     kernel32:KERNEL32.dll
 0002:000000a0       __imp_Sleep                00000001800330a0     kernel32:KERNEL32.dll
 0002:000000a8       __imp_WaitForMultipleObjects 00000001800330a8     kernel32:KERNEL32.dll
 0002:000000b0       __imp_CreateSemaphoreW     00000001800330b0     kernel32:KERNEL32.dll
 0002:000000b8       __imp_GetCurrentProcess    00000001800330b8     kernel32:KERNEL32.dll
 0002:000000c0       __imp_TerminateProcess     00000001800330c0     kernel32:KERNEL32.dll
 0002:000000c8       __imp_GetExitCodeProcess   00000001800330c8     kernel32:KERNEL32.dll
 0002:000000d0       __imp_GetCurrentThreadId   00000001800330d0     kernel32:KERNEL32.dll
 0002:000000d8       __imp_SuspendThread        00000001800330d8     kernel32:KERNEL32.dll
 0002:000000e0       __imp_ResumeThread         00000001800330e0     kernel32:KERNEL32.dll
 0002:000000e8       __imp_CreateProcessW       00000001800330e8     kernel32:KERNEL32.dll
 0002:000000f0       __imp_GetTickCount         00000001800330f0     kernel32:KERNEL32.dll
 0002:000000f8       __imp_VirtualQuery         00000001800330f8     kernel32:KERNEL32.dll
 0002:00000100       __imp_CreateFileMappingW   0000000180033100     kernel32:KERNEL32.dll
 0002:00000108       __imp_OpenFileMappingW     0000000180033108     kernel32:KERNEL32.dll
 0002:00000110       __imp_MapViewOfFile        0000000180033110     kernel32:KERNEL32.dll
 0002:00000118       __imp_UnmapViewOfFile      0000000180033118     kernel32:KERNEL32.dll
 0002:00000120       __imp_GetModuleFileNameW   0000000180033120     kernel32:KERNEL32.dll
 0002:00000128       __imp_lstrcmpW             0000000180033128     kernel32:KERNEL32.dll
 0002:00000130       __imp_lstrcmpiW            0000000180033130     kernel32:KERNEL32.dll
 0002:00000138       __imp_lstrcatW             0000000180033138     kernel32:KERNEL32.dll
 0002:00000140       __imp_IsBadStringPtrW      0000000180033140     kernel32:KERNEL32.dll
 0002:00000148       __imp_GetConsoleMode       0000000180033148     kernel32:KERNEL32.dll
 0002:00000150       __imp_SetConsoleMode       0000000180033150     kernel32:KERNEL32.dll
 0002:00000158       __imp_GetNumberOfConsoleInputEvents 0000000180033158     kernel32:KERNEL32.dll
 0002:00000160       __imp_ReadConsoleInputW    0000000180033160     kernel32:KERNEL32.dll
 0002:00000168       __imp_lstrcpynA            0000000180033168     kernel32:KERNEL32.dll
 0002:00000170       __imp_GetConsoleCursorInfo 0000000180033170     kernel32:KERNEL32.dll
 0002:00000178       __imp_GetConsoleScreenBufferInfo 0000000180033178     kernel32:KERNEL32.dll
 0002:00000180       __imp_WriteConsoleInputW   0000000180033180     kernel32:KERNEL32.dll
 0002:00000188       __imp_GetConsoleTitleW     0000000180033188     kernel32:KERNEL32.dll
 0002:00000190       __imp_SetConsoleTitleW     0000000180033190     kernel32:KERNEL32.dll
 0002:00000198       __imp_WaitForSingleObject  0000000180033198     kernel32:KERNEL32.dll
 0002:000001a0       __imp_Thread32First        00000001800331a0     kernel32:KERNEL32.dll
 0002:000001a8       __imp_Thread32Next         00000001800331a8     kernel32:KERNEL32.dll
 0002:000001b0       __imp_Module32FirstW       00000001800331b0     kernel32:KERNEL32.dll
 0002:000001b8       __imp_Module32NextW        00000001800331b8     kernel32:KERNEL32.dll
 0002:000001c0       __imp_FlushFileBuffers     00000001800331c0     kernel32:KERNEL32.dll
 0002:000001c8       __imp_ReadFile             00000001800331c8     kernel32:KERNEL32.dll
 0002:000001d0       __imp_WriteFile            00000001800331d0     kernel32:KERNEL32.dll
 0002:000001d8       __imp_ConnectNamedPipe     00000001800331d8     kernel32:KERNEL32.dll
 0002:000001e0       __imp_DisconnectNamedPipe  00000001800331e0     kernel32:KERNEL32.dll
 0002:000001e8       __imp_CreateNamedPipeW     00000001800331e8     kernel32:KERNEL32.dll
 0002:000001f0       __imp_GetOverlappedResult  00000001800331f0     kernel32:KERNEL32.dll
 0002:000001f8       __imp_SetThreadPriority    00000001800331f8     kernel32:KERNEL32.dll
 0002:00000200       __imp_GetExitCodeThread    0000000180033200     kernel32:KERNEL32.dll
 0002:00000208       __imp_lstrlenW             0000000180033208     kernel32:KERNEL32.dll
 0002:00000210       __imp_lstrcpyW             0000000180033210     kernel32:KERNEL32.dll
 0002:00000218       __imp_lstrcpynW            0000000180033218     kernel32:KERNEL32.dll
 0002:00000220       __imp_CloseHandle          0000000180033220     kernel32:KERNEL32.dll
 0002:00000228       __imp_SetEnvironmentVariableW 0000000180033228     kernel32:KERNEL32.dll
 0002:00000230       __imp_VirtualProtect       0000000180033230     kernel32:KERNEL32.dll
 0002:00000238       __imp_LoadLibraryW         0000000180033238     kernel32:KERNEL32.dll
 0002:00000240       __imp_GetProcAddress       0000000180033240     kernel32:KERNEL32.dll
 0002:00000248       __imp_GetModuleHandleW     0000000180033248     kernel32:KERNEL32.dll
 0002:00000250       __imp_GetCurrentProcessId  0000000180033250     kernel32:KERNEL32.dll
 0002:00000258       __imp_GetLastError         0000000180033258     kernel32:KERNEL32.dll
 0002:00000260       __imp_ReleaseSemaphore     0000000180033260     kernel32:KERNEL32.dll
 0002:00000268       __imp_ResetEvent           0000000180033268     kernel32:KERNEL32.dll
 0002:00000270       __imp_SetEvent             0000000180033270     kernel32:KERNEL32.dll
 0002:00000278       __imp_SetLastError         0000000180033278     kernel32:KERNEL32.dll
 0002:00000280       __imp_IsDebuggerPresent    0000000180033280     kernel32:KERNEL32.dll
 0002:00000288       __imp_DeleteFileW          0000000180033288     kernel32:KERNEL32.dll
 0002:00000290       __imp_GetEnvironmentVariableW 0000000180033290     kernel32:KERNEL32.dll
 0002:00000298       __imp_GetEnvironmentStringsW 0000000180033298     kernel32:KERNEL32.dll
 0002:000002a0       __imp_GetStdHandle         00000001800332a0     kernel32:KERNEL32.dll
 0002:000002a8       __imp_WideCharToMultiByte  00000001800332a8     kernel32:KERNEL32.dll
 0002:000002b0       __imp_MultiByteToWideChar  00000001800332b0     kernel32:KERNEL32.dll
 0002:000002b8       __imp_lstrlenA             00000001800332b8     kernel32:KERNEL32.dll
 0002:000002c0       __imp_CreateToolhelp32Snapshot 00000001800332c0     kernel32:KERNEL32.dll
 0002:000002c8       __imp_lstrcpyA             00000001800332c8     kernel32:KERNEL32.dll
 0002:000002d0       __imp_PeekConsoleInputW    00000001800332d0     kernel32:KERNEL32.dll
 0002:000002d8       __imp_FreeLibrary          00000001800332d8     kernel32:KERNEL32.dll
 0002:000002e0       __imp_HeapCreate           00000001800332e0     kernel32:KERNEL32.dll
 0002:000002e8       __imp_HeapDestroy          00000001800332e8     kernel32:KERNEL32.dll
 0002:000002f0       __imp_HeapAlloc            00000001800332f0     kernel32:KERNEL32.dll
 0002:000002f8       __imp_HeapReAlloc          00000001800332f8     kernel32:KERNEL32.dll
 0002:00000300       __imp_HeapFree             0000000180033300     kernel32:KERNEL32.dll
 0002:00000308       __imp_CreateFileW          0000000180033308     kernel32:KERNEL32.dll
 0002:00000310       __imp_SetNamedPipeHandleState 0000000180033310     kernel32:KERNEL32.dll
 0002:00000318       __imp_TransactNamedPipe    0000000180033318     kernel32:KERNEL32.dll
 0002:00000320       __imp_WaitNamedPipeW       0000000180033320     kernel32:KERNEL32.dll
 0002:00000328       __imp_GetConsoleWindow     0000000180033328     kernel32:KERNEL32.dll
 0002:00000330       __imp_DebugBreak           0000000180033330     kernel32:KERNEL32.dll
 0002:00000338       __imp_RaiseException       0000000180033338     kernel32:KERNEL32.dll
 0002:00000340       __imp_CreateThread         0000000180033340     kernel32:KERNEL32.dll
 0002:00000348       __imp_TerminateThread      0000000180033348     kernel32:KERNEL32.dll
 0002:00000350       __imp_FreeEnvironmentStringsW 0000000180033350     kernel32:KERNEL32.dll
 0002:00000358       __imp_ExpandEnvironmentStringsW 0000000180033358     kernel32:KERNEL32.dll
 0002:00000360       __imp_WriteConsoleW        0000000180033360     kernel32:KERNEL32.dll
 0002:00000368       __imp_LocalAlloc           0000000180033368     kernel32:KERNEL32.dll
 0002:00000370       __imp_LocalFree            0000000180033370     kernel32:KERNEL32.dll
 0002:00000378       __imp_VerSetConditionMask  0000000180033378     kernel32:KERNEL32.dll
 0002:00000380       __imp_FindClose            0000000180033380     kernel32:KERNEL32.dll
 0002:00000388       __imp_FindFirstFileW       0000000180033388     kernel32:KERNEL32.dll
 0002:00000390       __imp_FindNextFileW        0000000180033390     kernel32:KERNEL32.dll
 0002:00000398       __imp_GetFileInformationByHandle 0000000180033398     kernel32:KERNEL32.dll
 0002:000003a0       __imp_VerifyVersionInfoW   00000001800333a0     kernel32:KERNEL32.dll
 0002:000003a8       __imp_Process32FirstW      00000001800333a8     kernel32:KERNEL32.dll
 0002:000003b0       __imp_Process32NextW       00000001800333b0     kernel32:KERNEL32.dll
 0002:000003b8       __imp_OpenThread           00000001800333b8     kernel32:KERNEL32.dll
 0002:000003c0       __imp_GetSystemInfo        00000001800333c0     kernel32:KERNEL32.dll
 0002:000003c8       __imp_VirtualAlloc         00000001800333c8     kernel32:KERNEL32.dll
 0002:000003d0       __imp_VirtualFree          00000001800333d0     kernel32:KERNEL32.dll
 0002:000003d8       __imp_IsBadReadPtr         00000001800333d8     kernel32:KERNEL32.dll
 0002:000003e0       __imp_InitializeCriticalSection 00000001800333e0     kernel32:KERNEL32.dll
 0002:000003e8       __imp_EnterCriticalSection 00000001800333e8     kernel32:KERNEL32.dll
 0002:000003f0       __imp_LeaveCriticalSection 00000001800333f0     kernel32:KERNEL32.dll
 0002:000003f8       __imp_TryEnterCriticalSection 00000001800333f8     kernel32:KERNEL32.dll
 0002:00000400       __imp_DeleteCriticalSection 0000000180033400     kernel32:KERNEL32.dll
 0002:00000408       __imp_ReleaseMutex         0000000180033408     kernel32:KERNEL32.dll
 0002:00000410       __imp_CreateMutexW         0000000180033410     kernel32:KERNEL32.dll
 0002:00000418       __imp_GetConsoleOutputCP   0000000180033418     kernel32:KERNEL32.dll
 0002:00000420       __imp_GetStartupInfoW      0000000180033420     kernel32:KERNEL32.dll
 0002:00000428       __imp_InitializeCriticalSectionAndSpinCount 0000000180033428     kernel32:KERNEL32.dll
 0002:00000430       __imp_WaitForSingleObjectEx 0000000180033430     kernel32:KERNEL32.dll
 0002:00000438       __imp_RtlCaptureContext    0000000180033438     kernel32:KERNEL32.dll
 0002:00000440       __imp_RtlLookupFunctionEntry 0000000180033440     kernel32:KERNEL32.dll
 0002:00000448       __imp_RtlVirtualUnwind     0000000180033448     kernel32:KERNEL32.dll
 0002:00000450       __imp_UnhandledExceptionFilter 0000000180033450     kernel32:KERNEL32.dll
 0002:00000458       __imp_SetUnhandledExceptionFilter 0000000180033458     kernel32:KERNEL32.dll
 0002:00000460       __imp_IsProcessorFeaturePresent 0000000180033460     kernel32:KERNEL32.dll
 0002:00000468       __imp_QueryPerformanceCounter 0000000180033468     kernel32:KERNEL32.dll
 0002:00000470       __imp_GetSystemTimeAsFileTime 0000000180033470     kernel32:KERNEL32.dll
 0002:00000478       __imp_InitializeSListHead  0000000180033478     kernel32:KERNEL32.dll
 0002:00000480       __imp_RtlUnwindEx          0000000180033480     kernel32:KERNEL32.dll
 0002:00000488       __imp_RtlPcToFileHeader    0000000180033488     kernel32:KERNEL32.dll
 0002:00000490       __imp_InterlockedFlushSList 0000000180033490     kernel32:KERNEL32.dll
 0002:00000498       __imp_EncodePointer        0000000180033498     kernel32:KERNEL32.dll
 0002:000004a0       __imp_TlsAlloc             00000001800334a0     kernel32:KERNEL32.dll
 0002:000004a8       __imp_TlsGetValue          00000001800334a8     kernel32:KERNEL32.dll
 0002:000004b0       __imp_TlsSetValue          00000001800334b0     kernel32:KERNEL32.dll
 0002:000004b8       __imp_TlsFree              00000001800334b8     kernel32:KERNEL32.dll
 0002:000004c0       __imp_LoadLibraryExW       00000001800334c0     kernel32:KERNEL32.dll
 0002:000004c8       __imp_ExitProcess          00000001800334c8     kernel32:KERNEL32.dll
 0002:000004d0       __imp_GetModuleHandleExW   00000001800334d0     kernel32:KERNEL32.dll
 0002:000004d8       __imp_GetFileType          00000001800334d8     kernel32:KERNEL32.dll
 0002:000004e0       __imp_FindFirstFileExW     00000001800334e0     kernel32:KERNEL32.dll
 0002:000004e8       __imp_IsValidCodePage      00000001800334e8     kernel32:KERNEL32.dll
 0002:000004f0       __imp_GetACP               00000001800334f0     kernel32:KERNEL32.dll
 0002:000004f8       __imp_GetOEMCP             00000001800334f8     kernel32:KERNEL32.dll
 0002:00000500       __imp_GetCPInfo            0000000180033500     kernel32:KERNEL32.dll
 0002:00000508       __imp_GetCommandLineA      0000000180033508     kernel32:KERNEL32.dll
 0002:00000510       __imp_GetCommandLineW      0000000180033510     kernel32:KERNEL32.dll
 0002:00000518       __imp_LCMapStringW         0000000180033518     kernel32:KERNEL32.dll
 0002:00000520       __imp_GetProcessHeap       0000000180033520     kernel32:KERNEL32.dll
 0002:00000528       __imp_SetFilePointerEx     0000000180033528     kernel32:KERNEL32.dll
 0002:00000530       __imp_GetStringTypeW       0000000180033530     kernel32:KERNEL32.dll
 0002:00000538       __imp_SetStdHandle         0000000180033538     kernel32:KERNEL32.dll
 0002:00000540       __imp_HeapSize             0000000180033540     kernel32:KERNEL32.dll
 0002:00000548       \177KERNEL32_NULL_THUNK_DATA 0000000180033548     kernel32:KERNEL32.dll
 0002:00000550       __imp_GetSystemMetrics     0000000180033550     user32:USER32.dll
 0002:00000558       __imp_FindWindowW          0000000180033558     user32:USER32.dll
 0002:00000560       __imp_SetWindowPos         0000000180033560     user32:USER32.dll
 0002:00000568       __imp_EnableWindow         0000000180033568     user32:USER32.dll
 0002:00000570       __imp_IsWindowEnabled      0000000180033570     user32:USER32.dll
 0002:00000578       __imp_GetWindowRect        0000000180033578     user32:USER32.dll
 0002:00000580       __imp_MonitorFromWindow    0000000180033580     user32:USER32.dll
 0002:00000588       __imp_GetMonitorInfoW      0000000180033588     user32:USER32.dll
 0002:00000590       __imp_SendMessageW         0000000180033590     user32:USER32.dll
 0002:00000598       __imp_ShowWindow           0000000180033598     user32:USER32.dll
 0002:000005a0       __imp_ShowWindowAsync      00000001800335a0     user32:USER32.dll
 0002:000005a8       __imp_IsRectEmpty          00000001800335a8     user32:USER32.dll
 0002:000005b0       __imp_EnumDisplayMonitors  00000001800335b0     user32:USER32.dll
 0002:000005b8       __imp_ActivateKeyboardLayout 00000001800335b8     user32:USER32.dll
 0002:000005c0       __imp_LoadKeyboardLayoutW  00000001800335c0     user32:USER32.dll
 0002:000005c8       __imp_FillRect             00000001800335c8     user32:USER32.dll
 0002:000005d0       __imp_ReleaseDC            00000001800335d0     user32:USER32.dll
 0002:000005d8       __imp_GetDC                00000001800335d8     user32:USER32.dll
 0002:000005e0       __imp_GetWindowThreadProcessId 00000001800335e0     user32:USER32.dll
 0002:000005e8       __imp_IsWindowVisible      00000001800335e8     user32:USER32.dll
 0002:000005f0       __imp_PostMessageW         00000001800335f0     user32:USER32.dll
 0002:000005f8       __imp_RegisterWindowMessageW 00000001800335f8     user32:USER32.dll
 0002:00000600       __imp_wsprintfW            0000000180033600     user32:USER32.dll
 0002:00000608       __imp_CharUpperBuffW       0000000180033608     user32:USER32.dll
 0002:00000610       __imp_GetParent            0000000180033610     user32:USER32.dll
 0002:00000618       __imp_GetWindowLongPtrW    0000000180033618     user32:USER32.dll
 0002:00000620       __imp_IsWindow             0000000180033620     user32:USER32.dll
 0002:00000628       __imp_MessageBoxW          0000000180033628     user32:USER32.dll
 0002:00000630       __imp_GetClassNameW        0000000180033630     user32:USER32.dll
 0002:00000638       \177USER32_NULL_THUNK_DATA 0000000180033638     user32:USER32.dll
 0002:00000640       __imp_VerQueryValueW       0000000180033640     version:VERSION.dll
 0002:00000648       __imp_GetFileVersionInfoW  0000000180033648     version:VERSION.dll
 0002:00000650       __imp_GetFileVersionInfoSizeW 0000000180033650     version:VERSION.dll
 0002:00000658       \177VERSION_NULL_THUNK_DATA 0000000180033658     version:VERSION.dll
 0002:00000660       __guard_check_icall_fptr   0000000180033660     LIBCMT:guard_support.obj
 0002:00000668       __guard_xfg_check_icall_fptr 0000000180033668     LIBCMT:guard_support.obj
 0002:00000670       __guard_dispatch_icall_fptr 0000000180033670     LIBCMT:guard_support.obj
 0002:00000678       __guard_xfg_dispatch_icall_fptr 0000000180033678     LIBCMT:guard_support.obj
 0002:00000680       __guard_xfg_table_dispatch_icall_fptr 0000000180033680     LIBCMT:guard_support.obj
 0002:00000688       __xc_a                     0000000180033688     LIBCMT:initializers.obj
 0002:00000698       __xc_z                     0000000180033698     LIBCMT:initializers.obj
 0002:000006a0       __xi_a                     00000001800336a0     LIBCMT:initializers.obj
 0002:000006b0       __acrt_stdio_initializer   00000001800336b0     libucrt:stdio_initializer.obj
 0002:000006b8       __acrt_multibyte_initializer 00000001800336b8     libucrt:multibyte_initializer.obj
 0002:000006c0       __acrt_tran_fma3_initializer 00000001800336c0     libucrt:fma3_initializer.obj
 0002:000006c8       __xi_z                     00000001800336c8     LIBCMT:initializers.obj
 0002:000006d0       __xl_a                     00000001800336d0     LIBCMT:tlssup.obj
 0002:000006d8       __xl_z                     00000001800336d8     LIBCMT:tlssup.obj
 0002:000006e0       __xp_a                     00000001800336e0     LIBCMT:initializers.obj
 0002:000006e8       __acrt_locale_terminator   00000001800336e8     libucrt:locale_initializer.obj
 0002:000006f0       __dcrt_console_output_terminator 00000001800336f0     libucrt:console_output_initializer.obj
 0002:000006f8       __acrt_stdio_terminator    00000001800336f8     libucrt:stdio_initializer.obj
 0002:00000700       __xp_z                     0000000180033700     LIBCMT:initializers.obj
 0002:00000708       __xt_a                     0000000180033708     LIBCMT:initializers.obj
 0002:00000710       __xt_z                     0000000180033710     LIBCMT:initializers.obj
 0002:00000720       ??_C@_1BO@MLCHEAGG@?$AAC?$AAo?$AAn?$AAE?$AAm?$AAu?$AAH?$AAk?$AA6?$AA4?$AA?4?$AAd?$AAl?$AAl@ 0000000180033720     ConEmuInjects.obj
 0002:00000740       ??_C@_1IM@IDJBHJMA@?$AAC?$AAo?$AAn?$AAE?$AAm?$AAu?$AAH?$AAk?$AA?5?$AAw?$AAa?$AAs?$AA?5?$AAn?$AAo@ 0000000180033740     ConEmuInjects.obj
 0002:000007d0       ??_C@_1BM@LHLFCECN@?$AAC?$AAo?$AAn?$AAE?$AAm?$AAu?$AA?5?$AAp?$AAl?$AAu?$AAg?$AAi?$AAn@ 00000001800337d0     ConEmuInjects.obj
 0002:000007f0       ??_C@_0BB@OPFPFOCM@SetHookCallbacks@ 00000001800337f0     ConEmuInjects.obj
 0002:00000808       ??_C@_0BH@HLKHEPME@SetLoadLibraryCallback@ 0000000180033808     ConEmuInjects.obj
 0002:00000820       ??_C@_0P@JOHNNMGG@SetFarHookMode@ 0000000180033820     ConEmuInjects.obj
 0002:00000830       ??_C@_1CM@DEPCLAGE@?$AAC?$AAo?$AAn?$AAE?$AAm?$AAu?$AA?5?$AAp?$AAl?$AAu?$AAg?$AAi?$AAn?$AA?0?$AA?5@ 0000000180033830     ConEmuInjects.obj
 0002:00000860       ??_C@_1CC@JNEFFKJH@?$AAS?$AAe?$AAt?$AAH?$AAo?$AAo?$AAk?$AAC?$AAa?$AAl?$AAl?$AAb?$AAa?$AAc?$AAk@ 0000000180033860     ConEmuInjects.obj
 0002:00000888       ??_C@_1CO@HHOFMBDD@?$AAS?$AAe?$AAt?$AAL?$AAo?$AAa?$AAd?$AAL?$AAi?$AAb?$AAr?$AAa?$AAr?$AAy?$AAC@ 0000000180033888     ConEmuInjects.obj
 0002:000008b8       ??_C@_1BO@OGOEDKED@?$AAS?$AAe?$AAt?$AAF?$AAa?$AAr?$AAH?$AAo?$AAo?$AAk?$AAM?$AAo?$AAd?$AAe@ 00000001800338b8     ConEmuInjects.obj
 0002:000008e0       ??_C@_1FG@GKBMDCCM@?$AAC?$AAo?$AAn?$AAE?$AAm?$AAu?$AAH?$AAk?$AA?5?$AAi?$AAs?$AA?5?$AAb?$AAr?$AAo@ 00000001800338e0     ConEmuInjects.obj
 0002:00000938       ??_C@_1BK@MGMFAEKH@?$AAk?$AAe?$AAr?$AAn?$AAe?$AAl?$AA3?$AA2?$AA?4?$AAd?$AAl?$AAl@ 0000000180033938     ConEmuInjects.obj
 0002:00000958       ??_C@_0M@LAGCIMKJ@FreeConsole@ 0000000180033958     ConEmuInjects.obj
 0002:00000968       ??_C@_0N@MOGGHBHN@AllocConsole@ 0000000180033968     ConEmuInjects.obj
 0002:00000978       ??_C@_0BC@BINPJBNK@PeekConsoleInputA@ 0000000180033978     ConEmuInjects.obj
 0002:00000990       ??_C@_0BC@EEHCEAN@PeekConsoleInputW@ 0000000180033990     ConEmuInjects.obj
 0002:000009a8       ??_C@_0BC@JNLCHFED@ReadConsoleInputA@ 00000001800339a8     ConEmuInjects.obj
 0002:000009c0       ??_C@_0BC@IBCKMAJE@ReadConsoleInputW@ 00000001800339c0     ConEmuInjects.obj
 0002:000009d8       ??_C@_0BE@PKLMIEOM@WriteConsoleOutputA@ 00000001800339d8     ConEmuInjects.obj
 0002:000009f0       ??_C@_0BE@OGCEDBDL@WriteConsoleOutputW@ 00000001800339f0     ConEmuInjects.obj
 0002:00000a08       ??_C@_0BO@HCPBIAL@GetNumberOfConsoleInputEvents@ 0000000180033a08     ConEmuInjects.obj
 0002:00000a28       ??_C@_1BI@BNFKGMFK@?$AAs?$AAh?$AAe?$AAl?$AAl?$AA3?$AA2?$AA?4?$AAd?$AAl?$AAl@ 0000000180033a28     ConEmuInjects.obj
 0002:00000a40       ??_C@_0BA@LIPPODFA@ShellExecuteExW@ 0000000180033a40     ConEmuInjects.obj
 0002:00000a50       ??_C@_1CM@NELFNPDE@?$AAE?$AAx?$AAt?$AAe?$AAn?$AAd?$AAe?$AAd?$AAC?$AAo?$AAn?$AAs?$AAo?$AAl?$AAe@ 0000000180033a50     ConEmuInjects.obj
 0002:00000a80       ??_C@_0BE@MFLNGBIK@SetConsoleCallbacks@ 0000000180033a80     ConEmuInjects.obj
 0002:00000a98       ??_C@_08BCACMCCB@ExitFARW@ 0000000180033a98     ConEmuPlugin.obj
 0002:00000aa8       ??_C@_0BE@PJBDJPG@ProcessEditorEventW@ 0000000180033aa8     ConEmuPlugin.obj
 0002:00000ac0       ??_C@_0BE@OMPAFBFG@ProcessViewerEventW@ 0000000180033ac0     ConEmuPlugin.obj
 0002:00000ad8       ??_C@_0BF@NLPJFAHE@ProcessSynchroEventW@ 0000000180033ad8     ConEmuPlugin.obj
 0002:00000af0       ??_C@_1BA@JOPOJEME@?$AAE?$AAx?$AAi?$AAt?$AAF?$AAA?$AAR@ 0000000180033af0     ConEmuPlugin.obj
 0002:00000b00       ??_C@_1BO@LDDOEOAL@?$AAE?$AAx?$AAi?$AAt?$AAF?$AAA?$AAR?$AA?5?$AA?9?$AA?5?$AAd?$AAo?$AAn?$AAe@ 0000000180033b00     ConEmuPlugin.obj
 0002:00000b20       ??_C@_1BC@OCOOMPC@?$AAE?$AAx?$AAi?$AAt?$AAF?$AAA?$AAR?$AAW@ 0000000180033b20     ConEmuPlugin.obj
 0002:00000b38       ??_C@_1CA@IFHGCKFI@?$AAE?$AAx?$AAi?$AAt?$AAF?$AAA?$AAR?$AAW?$AA?5?$AA?9?$AA?5?$AAd?$AAo?$AAn?$AAe@ 0000000180033b38     ConEmuPlugin.obj
 0002:00000b58       ??_C@_1BE@GNKIHEAN@?$AAE?$AAx?$AAi?$AAt?$AAF?$AAA?$AAR?$AAW?$AA3@ 0000000180033b58     ConEmuPlugin.obj
 0002:00000b70       ??_C@_1CC@LCFMKIJA@?$AAE?$AAx?$AAi?$AAt?$AAF?$AAA?$AAR?$AAW?$AA3?$AA?5?$AA?9?$AA?5?$AAd?$AAo?$AAn@ 0000000180033b70     ConEmuPlugin.obj
 0002:00000b94       ??_C@_11LOCGONAA@@         0000000180033b94     ConEmuPlugin1900.obj
 0002:00000ba0       ??_7CPluginW1900@@6B@      0000000180033ba0     ConEmuPlugin1900.obj
 0002:00000cc8       ??_C@_1O@PICBDAL@?$AAC?$AAo?$AAn?$AAE?$AAm?$AAu@ 0000000180033cc8     ConEmuPlugin1900.obj
 0002:00000cd8       ??_C@_1BK@BCDKFLCP@?$AAE?$AAx?$AAi?$AAt?$AAF?$AAA?$AAR?$AAW?$AA1?$AA9?$AA0?$AA0@ 0000000180033cd8     ConEmuPlugin1900.obj
 0002:00000cf8       ??_C@_1CI@OHGGDAJD@?$AAE?$AAx?$AAi?$AAt?$AAF?$AAA?$AAR?$AAW?$AA1?$AA9?$AA0?$AA0?$AA?5?$AA?9?$AA?5@ 0000000180033cf8     ConEmuPlugin1900.obj
 0002:00000d20       ??_C@_1M@OKCNCBMD@?$AA$?$AAT?$AAE?$AAX?$AAT@ 0000000180033d20     ConEmuPlugin1900.obj
 0002:00000d30       ??_C@_1O@BBPMHPCD@?$AAp?$AAr?$AAi?$AAn?$AAt?$AA?$CI@ 0000000180033d30     ConEmuPlugin1900.obj
 0002:00000d40       ??_C@_19JPEEHMMI@?$AA?5?$AA?7?$AA?$AN?$AA?6@ 0000000180033d40     ConEmuPlugin1900.obj
 0002:00000d50       ??_C@_1BC@OLJIBFPH@?$AA?0?$AA?5?$AAH?$AAi?$AAn?$AAt?$AA?3?$AA?5@ 0000000180033d50     ConEmuPlugin1900.obj
 0002:00000d70       ??_C@_1BCK@MAAKAKN@?$AAE?$AAr?$AAr?$AAo?$AAr?$AA?5?$AAi?$AAn?$AA?5?$AAM?$AAa?$AAc?$AAr?$AAo?$AA?4@ 0000000180033d70     ConEmuPlugin1900.obj
 0002:00000ea0       ??_C@_1OK@GOJADEAC@?$AAE?$AAr?$AAr?$AAo?$AAr?$AA?5?$AAi?$AAn?$AA?5?$AAM?$AAa?$AAc?$AAr?$AAo?$AA?4@ 0000000180033ea0     ConEmuPlugin1900.obj
 0002:00000f90       ??_C@_0BF@MFOIGNA@BackgroundMacroError@ 0000000180033f90     ConEmuPlugin1900.obj
 0002:00000fa8       ??_C@_1BI@EKLHEFDO@?$AAS?$AAh?$AAo?$AAw?$AAM?$AAe?$AAn?$AAu?$AAB?$AAa?$AAr@ 0000000180033fa8     ConEmuPlugin1900.obj
 0002:00000fc0       ??_C@_1O@PDEOIOBG@?$AAK?$AAe?$AAy?$AAB?$AAa?$AAr@ 0000000180033fc0     ConEmuPlugin1900.obj
 0002:00000fd0       ??_C@_1BK@MBFACEDG@?$AAC?$AAo?$AAl?$AAu?$AAm?$AAn?$AAT?$AAi?$AAt?$AAl?$AAe?$AAs@ 0000000180033fd0     ConEmuPlugin1900.obj
 0002:00000ff0       ??_C@_1BG@MHMKAABO@?$AAS?$AAt?$AAa?$AAt?$AAu?$AAs?$AAL?$AAi?$AAn?$AAe@ 0000000180033ff0     ConEmuPlugin1900.obj
 0002:00001008       ??_C@_1BC@IALIJCAM@?$AAS?$AAo?$AAr?$AAt?$AAM?$AAo?$AAd?$AAe@ 0000000180034008     ConEmuPlugin1900.obj
 0002:00001020       ??_C@_1BK@BKCACCAI@?$AAW?$AAT?$AAY?$AAP?$AAE?$AA_?$AAP?$AAA?$AAN?$AAE?$AAL?$AAS@ 0000000180034020     ConEmuPlugin1900.obj
 0002:00001040       ??_C@_1BK@LNCDOEEM@?$AAW?$AAT?$AAY?$AAP?$AAE?$AA_?$AAV?$AAI?$AAE?$AAW?$AAE?$AAR@ 0000000180034040     ConEmuPlugin1900.obj
 0002:00001060       ??_C@_1BK@MHHDIBO@?$AAW?$AAT?$AAY?$AAP?$AAE?$AA_?$AAE?$AAD?$AAI?$AAT?$AAO?$AAR@ 0000000180034060     ConEmuPlugin1900.obj
 0002:00001080       ??_C@_1BK@NEJJBFEB@?$AAW?$AAT?$AAY?$AAP?$AAE?$AA_?$AAD?$AAI?$AAA?$AAL?$AAO?$AAG@ 0000000180034080     ConEmuPlugin1900.obj
 0002:000010a0       ??_C@_1BI@IHGDMIGH@?$AAW?$AAT?$AAY?$AAP?$AAE?$AA_?$AAV?$AAM?$AAE?$AAN?$AAU@ 00000001800340a0     ConEmuPlugin1900.obj
 0002:000010b8       ??_C@_1BG@LKGDBHML@?$AAW?$AAT?$AAY?$AAP?$AAE?$AA_?$AAH?$AAE?$AAL?$AAP@ 00000001800340b8     ConEmuPlugin1900.obj
 0002:000010d0       ??_C@_1BA@LEPJIIOK@?$AAU?$AAn?$AAk?$AAn?$AAo?$AAw?$AAn@ 00000001800340d0     ConEmuPlugin1900.obj
 0002:000010e0       ??_C@_1CE@PEOBLGJK@?$AAC?$AAo?$AAn?$AAE?$AAm?$AAu?$AAM?$AAa?$AAc?$AAr?$AAo?$AAR?$AAe?$AAs?$AAu@ 00000001800340e0     ConEmuPlugin1900.obj
 0002:00001108       ??_C@_1BO@HNJMHBAE@?$AAC?$AAo?$AAn?$AAE?$AAm?$AAu?$AAG?$AAu?$AAi?$AAM?$AAa?$AAc?$AAr?$AAo@ 0000000180034108     ConEmuPlugin1900.obj
 0002:00001130       __xmm@00000000000000020000000500000000 0000000180034130     ConEmuPlugin1900.obj
 0002:00001140       __xmm@00000000000000040000000500000000 0000000180034140     ConEmuPlugin1900.obj
 0002:00001150       __xmm@00000000000000070000000000000007 0000000180034150     ConEmuPlugin1900.obj
 0002:00001160       __xmm@00000046000000030000000500000004 0000000180034160     ConEmuPlugin1900.obj
 0002:00001170       __xmm@00000046000000050000000500000004 0000000180034170     ConEmuPlugin1900.obj
 0002:00001180       __xmm@00000048000000010000000300000003 0000000180034180     ConEmuPlugin1900.obj
 0002:000011a0       ??_7exception@std@@6B@     00000001800341a0     ConEmuPlugin2800.obj
 0002:000011b0       ??_C@_0BC@EOODALEL@Unknown?5exception@ 00000001800341b0     ConEmuPlugin2800.obj
 0002:000011d0       ??_7bad_alloc@std@@6B@     00000001800341d0     ConEmuPlugin2800.obj
 0002:000011e0       ??_C@_0P@GHFPNOJB@bad?5allocation@ 00000001800341e0     ConEmuPlugin2800.obj
 0002:000011f8       ??_7CPluginW2800@@6B@      00000001800341f8     ConEmuPlugin2800.obj
 0002:00001320       ??_C@_1DO@JIOAOHCJ@?$AAC?$AAo?$AAn?$AAE?$AAm?$AAu?$AA?5?$AAs?$AAu?$AAp?$AAp?$AAo?$AAr?$AAt?$AA?5@ 0000000180034320     ConEmuPlugin2800.obj
 0002:00001360       ??_C@_1DE@DJEAMLPH@?$AAC?$AAo?$AAn?$AAE?$AAm?$AAu?$AA?4?$AAM?$AAa?$AAx?$AAi?$AAm?$AAu?$AAs?$AA5@ 0000000180034360     ConEmuPlugin2800.obj
 0002:00001398       ??_C@_17IOMHDNEC@?$AAf?$AAa?$AAr@ 0000000180034398     ConEmuPlugin2800.obj
 0002:000013a0       ??_C@_1BK@DFKHOALC@?$AAE?$AAx?$AAi?$AAt?$AAF?$AAA?$AAR?$AAW?$AA2?$AA8?$AA0?$AA0@ 00000001800343a0     ConEmuPlugin2800.obj
 0002:000013c0       ??_C@_1CI@KIFAPNHL@?$AAE?$AAx?$AAi?$AAt?$AAF?$AAA?$AAR?$AAW?$AA2?$AA8?$AA0?$AA0?$AA?5?$AA?9?$AA?5@ 00000001800343c0     ConEmuPlugin2800.obj
 0002:000013f0       ??_C@_1BCK@KGGLGNDM@?$AAE?$AAr?$AAr?$AAo?$AAr?$AA?5?$AAi?$AAn?$AA?5?$AAM?$AAa?$AAc?$AAr?$AAo?$AA?4@ 00000001800343f0     ConEmuPlugin2800.obj
 0002:00001520       ??_C@_1OK@MGLNOED@?$AAE?$AAr?$AAr?$AAo?$AAr?$AA?5?$AAi?$AAn?$AA?5?$AAM?$AAa?$AAc?$AAr?$AAo?$AA?4@ 0000000180034520     ConEmuPlugin2800.obj
 0002:00001610       ??_C@_0BA@FOIKENOD@vector?5too?5long@ 0000000180034610     ConEmuPlugin2800.obj
 0002:00001620       __xmm@00000000000000000000000000000002 0000000180034620     ConEmuPlugin2800.obj
 0002:00001630       __xmm@00000000000000000000000000000004 0000000180034630     ConEmuPlugin2800.obj
 0002:00001640       __xmm@00000000000000000000000000000007 0000000180034640     ConEmuPlugin2800.obj
 0002:00001650       __xmm@00000000000000460000000000000003 0000000180034650     ConEmuPlugin2800.obj
 0002:00001660       __xmm@00000000000000460000000000000005 0000000180034660     ConEmuPlugin2800.obj
 0002:00001670       __xmm@00000000000000480000000000000001 0000000180034670     ConEmuPlugin2800.obj
 0002:00001688       ??_7CPluginW995@@6B@       0000000180034688     ConEmuPlugin995.obj
 0002:000017b0       ??_C@_1BI@IBAPHBGL@?$AAE?$AAx?$AAi?$AAt?$AAF?$AAA?$AAR?$AAW?$AA9?$AA9?$AA5@ 00000001800347b0     ConEmuPlugin995.obj
 0002:000017c8       ??_C@_1CG@PKCNLDOL@?$AAE?$AAx?$AAi?$AAt?$AAF?$AAA?$AAR?$AAW?$AA9?$AA9?$AA5?$AA?5?$AA?9?$AA?5?$AAd@ 00000001800347c8     ConEmuPlugin995.obj
 0002:000017f0       __xmm@00000001000000000000000000000002 00000001800347f0     ConEmuPlugin995.obj
 0002:00001800       __xmm@00000033000000010000000300000003 0000000180034800     ConEmuPlugin995.obj
 0002:00001810       ??_C@_00CNPNBAHC@@         0000000180034810     ConEmuPluginA.obj
 0002:00001820       ??_7CPluginAnsi@@6B@       0000000180034820     ConEmuPluginA.obj
 0002:00001948       ??_C@_1O@BKFLFFPA@?$AAP?$AAl?$AAu?$AAg?$AAi?$AAn@ 0000000180034948     ConEmuPluginA.obj
 0002:00001958       ??_C@_06HGFNEGAJ@ConEmu@   0000000180034958     ConEmuPluginA.obj
 0002:00001960       ??_C@_0P@DFGMHJNG@ConEmuGuiMacro@ 0000000180034960     ConEmuPluginA.obj
 0002:00001978       ??_7CPluginBase@@6B@       0000000180034978     ConEmuPluginBase.obj
 0002:00001aa0       ??_C@_13FPGAJAPJ@?$AA?2@   0000000180034aa0     ConEmuPluginBase.obj
 0002:00001ab0       ??_C@_1FG@DPPGENBC@?$AAL?$AAo?$AAa?$AAd?$AAA?$AAp?$AAp?$AAV?$AAe?$AAr?$AAs?$AAi?$AAo?$AAn?$AA?4@ 0000000180034ab0     ConEmuPluginBase.obj
 0002:00001b10       ??_C@_1FK@HILEEFML@?$AAL?$AAo?$AAa?$AAd?$AAA?$AAp?$AAp?$AAV?$AAe?$AAr?$AAs?$AAi?$AAo?$AAn?$AA?4@ 0000000180034b10     ConEmuPluginBase.obj
 0002:00001b70       ??_C@_1GC@BINFLBDC@?$AAL?$AAo?$AAa?$AAd?$AAA?$AAp?$AAp?$AAV?$AAe?$AAr?$AAs?$AAi?$AAo?$AAn?$AA?5@ 0000000180034b70     ConEmuPluginBase.obj
 0002:00001be0       ??_C@_1GC@CPPHDKJK@?$AAL?$AAo?$AAa?$AAd?$AAA?$AAp?$AAp?$AAV?$AAe?$AAr?$AAs?$AAi?$AAo?$AAn?$AA?4@ 0000000180034be0     ConEmuPluginBase.obj
 0002:00001c50       ??_C@_1EG@IINOBDEG@?$AAI?$AAn?$AAv?$AAa?$AAl?$AAi?$AAd?$AA?5?$AAa?$AAs?$AAM?$AAo?$AAd?$AAu?$AAl@ 0000000180034c50     ConEmuPluginBase.obj
 0002:00001c98       ??_C@_1CA@GGFPMHLH@?$AA?6?$AAE?$AAr?$AAr?$AAC?$AAo?$AAd?$AAe?$AA?$DN?$AA0?$AAx?$AA?$CF?$AA0?$AA8?$AAX@ 0000000180034c98     ConEmuPluginBase.obj
 0002:00001cc0       ??_C@_1FG@LNADFPCE@?$AAL?$AAo?$AAa?$AAd?$AAF?$AAa?$AAr?$AAV?$AAe?$AAr?$AAs?$AAi?$AAo?$AAn?$AA?4@ 0000000180034cc0     ConEmuPluginBase.obj
 0002:00001d18       ??_C@_0BP@OODKCJPP@Wow64DisableWow64FsRedirection@ 0000000180034d18     ConEmuPluginBase.obj
 0002:00001d38       ??_C@_0BO@KOCOEJCM@Wow64RevertWow64FsRedirection@ 0000000180034d38     ConEmuPluginBase.obj
 0002:00001d58       ??_C@_1BO@ONHPLONP@?$AAC?$AAo?$AAn?$AAE?$AAm?$AAu?$AA?4?$AAx?$AA6?$AA4?$AA?4?$AAd?$AAl?$AAl@ 0000000180034d58     ConEmuPluginBase.obj
 0002:00001d80       ??_C@_1IA@EGLJCBKE@?$AAS?$AAy?$AAn?$AAc?$AAh?$AAo?$AA?5?$AAe?$AAv?$AAe?$AAn?$AAt?$AAs?$AA?5?$AAa@ 0000000180034d80     ConEmuPluginBase.obj
 0002:00001e00       ??_C@_1BG@NBIHKCLP@?$AAC?$AAo?$AAn?$AAE?$AAm?$AAu?$AA?4?$AAd?$AAl?$AAl@ 0000000180034e00     ConEmuPluginBase.obj
 0002:00001e18       ??_C@_13LBAGMAIH@?$AA?6@   0000000180034e18     ConEmuPluginBase.obj
 0002:00001e20       ??_C@_1PO@CKPDODMD@?$AAS?$AAe?$AAv?$AAe?$AAr?$AAa?$AAl?$AA?5?$AAi?$AAn?$AAs?$AAt?$AAa?$AAn?$AAc@ 0000000180034e20     ConEmuPluginBase.obj
 0002:00001f20       ??_C@_13IMODFHAA@?$AA?9@   0000000180034f20     ConEmuPluginBase.obj
 0002:00001f30       ??_C@_1FI@CBKBKFFI@?$AAC?$AAo?$AAn?$AAE?$AAm?$AAu?$AA?5?$AAp?$AAl?$AAu?$AAg?$AAi?$AAn?$AA?5?$AA?$CF@ 0000000180034f30     ConEmuPluginBase.obj
 0002:00001f88       ??_C@_1BG@DILNIJHK@?$AA?$DM?$AAM?$AAs?$AAg?$AAI?$AAD?$AA?$DN?$AA?$CF?$AAi?$AA?$DO@ 0000000180034f88     ConEmuPluginBase.obj
 0002:00001fa0       ??_C@_1PO@DJAPICLP@?$AA$?$AAi?$AAf?$AA?5?$AA?$CI?$AA?$CB?$AAE?$AAd?$AAi?$AAt?$AAo?$AAr?$AA?5?$AA?$CG?$AA?$CG@ 0000000180034fa0     ConEmuPluginBase.obj
 0002:000020a0       ??_C@_1EK@LJEKIKEG@?$AA4?$AAb?$AA6?$AA7?$AA5?$AAd?$AA8?$AA0?$AA?9?$AA1?$AAd?$AA4?$AAa?$AA?9?$AA4@ 00000001800350a0     ConEmuPluginBase.obj
 0002:000020f0       ??_C@_1BBO@FBOKPEBF@?$AA$?$AAi?$AAf?$AA?5?$AA?$CI?$AAA?$AAP?$AAa?$AAn?$AAe?$AAl?$AA?4?$AAP?$AAl?$AAu@ 00000001800350f0     ConEmuPluginBase.obj
 0002:00002210       ??_C@_1LO@GJMEBJHL@?$AAP?$AAl?$AAu?$AAg?$AAi?$AAn?$AA?4?$AAC?$AAa?$AAl?$AAl?$AA?$CI?$AA?$CC?$AA?$CF?$AAs@ 0000000180035210     ConEmuPluginBase.obj
 0002:000022d0       ??_C@_1BA@CMKDJLHG@?$AA?$HN?$AA?5?$AA?9?$AA?5?$AAF?$AAa?$AAr@ 00000001800352d0     ConEmuPluginBase.obj
 0002:000022e0       ??_C@_17MEJHPLBO@?$AAc?$AAm?$AAd@ 00000001800352e0     ConEmuPluginBase.obj
 0002:000022e8       ??_C@_1CK@KEKIDABI@?$AAC?$AAo?$AAn?$AAE?$AAm?$AAu?$AA?4?$AAC?$AAr?$AAe?$AAa?$AAt?$AAe?$AAP?$AAr@ 00000001800352e8     ConEmuPluginBase.obj
 0002:00002318       ??_C@_1CM@MHCEHIEP@?$AAS?$AAt?$AAa?$AAr?$AAt?$AA?5?$AAc?$AAo?$AAn?$AAs?$AAo?$AAl?$AAe?$AA?5?$AAp@ 0000000180035318     ConEmuPluginBase.obj
 0002:00002348       ??_C@_17BJPFHBEJ@?$AAC?$AA?3?$AA?2@ 0000000180035348     ConEmuPluginBase.obj
 0002:00002350       ??_C@_1BK@NEALEMPH@?$AA?9?$AAn?$AAe?$AAw?$AA_?$AAc?$AAo?$AAn?$AAs?$AAo?$AAl?$AAe@ 0000000180035350     ConEmuPluginBase.obj
 0002:00002370       ??_C@_19KHBBCLDH@?$AAr?$AAu?$AAn?$AA?3@ 0000000180035370     ConEmuPluginBase.obj
 0002:0000237c       ??_C@_13DANNHAJN@?$AAV@    000000018003537c     ConEmuPluginBase.obj
 0002:00002380       ??_C@_13IABLFADB@?$AAH@    0000000180035380     ConEmuPluginBase.obj
 0002:00002388       ??_C@_17PBAHFJOA@?$AAY?$AAe?$AAs@ 0000000180035388     ConEmuPluginBase.obj
 0002:00002390       ??_C@_15BICKNCBF@?$AAN?$AAo@ 0000000180035390     ConEmuPluginBase.obj
 0002:000023a0       ??_C@_1BPK@LEDPNENO@?$AAC?$AAo?$AAn?$AAE?$AAm?$AAu?$AA?5?$AAC?$AAo?$AAn?$AAs?$AAo?$AAl?$AAe?$AA?5@ 00000001800353a0     ConEmuPluginBase.obj
 0002:000025a0       ??_C@_1BM@MGPNCPCE@?$AAC?$AAo?$AAn?$AAE?$AAm?$AAu?$AAB?$AAa?$AAs?$AAe?$AAD?$AAi?$AAr@ 00000001800355a0     ConEmuPluginBase.obj
 0002:000025c0       ??_C@_1BK@PCAIPEAH@?$AA?2?$AAC?$AAo?$AAn?$AAE?$AAm?$AAu?$AAC?$AA?4?$AAe?$AAx?$AAe@ 00000001800355c0     ConEmuPluginBase.obj
 0002:000025e0       ??_C@_1CI@DIEJPMOK@?$AA?2?$AAC?$AAo?$AAn?$AAE?$AAm?$AAu?$AA?2?$AAC?$AAo?$AAn?$AAE?$AAm?$AAu?$AAC@ 00000001800355e0     ConEmuPluginBase.obj
 0002:00002610       ??_C@_1HE@BLMGMKID@?$AA?$CC?$AA?$CF?$AAs?$AA?$CC?$AA?5?$AA?1?$AAA?$AAT?$AAT?$AAA?$AAC?$AAH?$AA?5?$AA?1?$AAR@ 0000000180035610     ConEmuPluginBase.obj
 0002:00002690       ??_C@_1EO@CCMHHKOG@?$AA?$CC?$AA?$CF?$AAs?$AA?$CC?$AA?5?$AA?1?$AAD?$AAE?$AAB?$AAU?$AAG?$AAP?$AAI?$AAD?$AA?$DN@ 0000000180035690     ConEmuPluginBase.obj
 0002:000026e0       ??_C@_1CA@CIILNAEN@?$AA?2?$AAC?$AAo?$AAn?$AAE?$AAm?$AAu?$AAH?$AAk?$AA6?$AA4?$AA?4?$AAd?$AAl?$AAl@ 00000001800356e0     ConEmuPluginBase.obj
 0002:00002700       ??_C@_1BM@DIGKKBBA@?$AAC?$AAo?$AAn?$AAE?$AAm?$AAu?$AAC?$AA6?$AA4?$AA?4?$AAe?$AAx?$AAe@ 0000000180035700     ConEmuPluginBase.obj
 0002:00002720       ??_C@_1BI@OPBAAHCM@?$AAC?$AAo?$AAn?$AAE?$AAm?$AAu?$AAC?$AA?4?$AAe?$AAx?$AAe@ 0000000180035720     ConEmuPluginBase.obj
 0002:00002738       ??_C@_1BE@FFPCKGKG@?$AA?1?$AAC?$AAO?$AAN?$AAF?$AAI?$AAR?$AAM?$AA?5@ 0000000180035738     ConEmuPluginBase.obj
 0002:00002750       ??_C@_1DA@LLHOBAFM@?$AA?$CC?$AA?5?$AA?1?$AAA?$AAT?$AAT?$AAA?$AAC?$AAH?$AA?5?$AA?1?$AAF?$AAA?$AAR?$AAP@ 0000000180035750     ConEmuPluginBase.obj
 0002:00002780       ??_C@_1BA@JLPJLFMH@?$AA?1?$AAG?$AAI?$AAD?$AA?$DN?$AA?$CF?$AAi@ 0000000180035780     ConEmuPluginBase.obj
 0002:00002790       ??_C@_1CI@EIEAGHGL@?$AAC?$AAo?$AAn?$AAE?$AAm?$AAu?$AAS?$AAr?$AAv?$AAS?$AAt?$AAa?$AAr?$AAt?$AAe@ 0000000180035790     ConEmuPluginBase.obj
 0002:000027b8       ??_C@_0BD@DHBGKFD@RequestLocalServer@ 00000001800357b8     ConEmuPluginBase.obj
 0002:000027d0       ??_C@_17LCEPOKH@?$AAC?$AAE?$AAM@ 00000001800357d0     ConEmuPluginBase.obj
 0002:000027d8       ??_C@_19LKKOIHJI@?$AA?4?$AAt?$AAm?$AAp@ 00000001800357d8     ConEmuPluginBase.obj
 0002:000027f0       ??_C@_1BFI@CAKBMDAF@?$AAW?$AAr?$AAo?$AAn?$AAg?$AA?5?$AAp?$AAl?$AAu?$AAg?$AAi?$AAn?$AA?5?$AAv?$AAe@ 00000001800357f0     ConEmuPluginBase.obj
 0002:00002948       ??_C@_1BA@DAHNNHGF@?$AAF?$AAA?$AAR?$AAL?$AAA?$AAN?$AAG@ 0000000180035948     ConEmuPluginBase.obj
 0002:00002960       ??_C@_1EA@BFFHMENH@?$AAC?$AAo?$AAn?$AAE?$AAm?$AAu?$AAC?$AA?3?$AA?5?$AAC?$AAh?$AAe?$AAc?$AAk?$AAR@ 0000000180035960     ConEmuPluginBase.obj
 0002:000029a0       ??_C@_19LELMJPKF@?$AAe?$AAd?$AAi?$AAt@ 00000001800359a0     ConEmuPluginBase.obj
 0002:000029b0       ??_C@_19IGFHNPAK@?$AAv?$AAi?$AAe?$AAw@ 00000001800359b0     ConEmuPluginBase.obj
 0002:000029c0       ??_C@_1CC@IHNECLD@?$AA?$HL?$AAT?$AAe?$AAm?$AAp?$AAo?$AAr?$AAa?$AAr?$AAy?$AA?5?$AAp?$AAa?$AAn?$AAe@ 00000001800359c0     ConEmuPluginBase.obj
 0002:000029e8       ??_C@_1CO@ELKEEMPJ@?$AAC?$AAo?$AAn?$AAE?$AAm?$AAu?$AAF?$AAi?$AAl?$AAe?$AAM?$AAa?$AAp?$AAp?$AAi@ 00000001800359e8     ConEmuPluginBase.obj
 0002:00002a18       ??_C@_1BI@ENONIIIC@?$AAF?$AAa?$AAr?$AA?5?$AAM?$AAa?$AAn?$AAa?$AAg?$AAe?$AAr@ 0000000180035a18     ConEmuPluginBase.obj
 0002:00002a30       ??_C@_19HBICLLML@?$AAF?$AAA?$AAR?$AA2@ 0000000180035a30     ConEmuPluginBase.obj
 0002:00002a40       ??_C@_17NACPPFBM@?$AAF?$AAA?$AAR@ 0000000180035a40     ConEmuPluginBase.obj
 0002:00002a48       ??_C@_1BA@NIFIBMHP@?$AAF?$AAA?$AAR?$AAU?$AAS?$AAE?$AAR@ 0000000180035a48     ConEmuPluginBase.obj
 0002:00002a58       ??_C@_1BA@FJJFMPFO@?$AA?2?$AAU?$AAs?$AAe?$AAr?$AAs?$AA?2@ 0000000180035a58     ConEmuPluginBase.obj
 0002:00002a68       ??_C@_1BE@FLHKCJKF@?$AAS?$AAo?$AAf?$AAt?$AAw?$AAa?$AAr?$AAe?$AA?2@ 0000000180035a68     ConEmuPluginBase.obj
 0002:00002a80       ??_C@_1CG@HOMCPCN@?$AA?2?$AAP?$AAl?$AAu?$AAg?$AAi?$AAn?$AAs?$AA?2?$AAP?$AAa?$AAn?$AAe?$AAl?$AAT@ 0000000180035a80     ConEmuPluginBase.obj
 0002:00002aa8       ??_C@_1BK@NFAPLMGI@?$AAS?$AAe?$AAp?$AAa?$AAr?$AAa?$AAt?$AAe?$AAT?$AAa?$AAb?$AAs@ 0000000180035aa8     ConEmuPluginBase.obj
 0002:00002ac8       ??_C@_1BI@GILFJGEK@?$AAB?$AAu?$AAt?$AAt?$AAo?$AAn?$AAC?$AAo?$AAl?$AAo?$AAr@ 0000000180035ac8     ConEmuPluginBase.obj
 0002:00002ae0       ??_C@_1DE@DBNFJOHM@?$AAC?$AAo?$AAn?$AAs?$AAo?$AAl?$AAe?$AA2?$AA_?$AAc?$AAo?$AAn?$AAs?$AAo?$AAl@ 0000000180035ae0     ConEmuPluginBase.obj
 0002:00002b18       ??_C@_1CK@EANOIBDN@?$AAC?$AAo?$AAn?$AAE?$AAm?$AAu?$AAC?$AAt?$AAr?$AAl?$AAP?$AAr?$AAe?$AAs?$AAs@ 0000000180035b18     ConEmuPluginBase.obj
 0002:00002b48       ??_C@_1CM@JBFABNEO@?$AAC?$AAo?$AAn?$AAE?$AAm?$AAu?$AAS?$AAh?$AAi?$AAf?$AAt?$AAP?$AAr?$AAe?$AAs@ 0000000180035b48     ConEmuPluginBase.obj
 0002:00002b78       ??_C@_1CE@DLFCKCF@?$AAC?$AAo?$AAn?$AAE?$AAm?$AAu?$AAT?$AAa?$AAb?$AAs?$AAC?$AAh?$AAa?$AAn?$AAg@ 0000000180035b78     ConEmuPluginBase.obj
 0002:00002ba0       ??_C@_0BG@HFNJBNKJ@Plugin?3?3MonitorThread@ 0000000180035ba0     ConEmuPluginBase.obj
 0002:00002bb8       ??_C@_1BG@OILDLIOJ@?$AAu?$AAs?$AAe?$AAr?$AA3?$AA2?$AA?4?$AAd?$AAl?$AAl@ 0000000180035bb8     ConEmuPluginBase.obj
 0002:00002bd0       ??_C@_0BJ@GFJHAGKD@AllowSetForegroundWindow@ 0000000180035bd0     ConEmuPluginBase.obj
 0002:00002bf0       ??_C@_1BO@KPCFCPEP@?$AAC?$AAo?$AAn?$AAE?$AAm?$AAu?$AAC?$AAD?$AA6?$AA4?$AA?4?$AAd?$AAl?$AAl@ 0000000180035bf0     ConEmuPluginBase.obj
 0002:00002c10       ??_C@_1HO@CHHOFADM@?$AAC?$AAo?$AAn?$AAs?$AAo?$AAl?$AAe?$AA?5?$AAw?$AAa?$AAs?$AA?5?$AAa?$AAb?$AAn@ 0000000180035c10     ConEmuPluginBase.obj
 0002:00002c90       ??_C@_1NC@MNABBPPB@?$AA$?$AAi?$AAf?$AA?5?$AA?$CI?$AAS?$AAe?$AAa?$AAr?$AAc?$AAh?$AA?$CJ?$AA?5?$AAE?$AAs@ 0000000180035c90     ConEmuPluginBase.obj
 0002:00002d70       ??_C@_1MK@EDFFIGHJ@?$AA$?$AAi?$AAf?$AA?5?$AA?$CI?$AAS?$AAe?$AAa?$AAr?$AAc?$AAh?$AA?$CJ?$AA?5?$AAE?$AAs@ 0000000180035d70     ConEmuPluginBase.obj
 0002:00002e40       ??_C@_1BBA@LKLGFJB@?$AAi?$AAf?$AA?5?$AAA?$AAr?$AAe?$AAa?$AA?4?$AAS?$AAe?$AAa?$AAr?$AAc?$AAh?$AA?5@ 0000000180035e40     ConEmuPluginBase.obj
 0002:00002f50       ??_C@_0P@LNKHCDND@OnConEmuLoaded@ 0000000180035f50     ConEmuPluginBase.obj
 0002:00002f60       ??_C@_0BA@IDLLFCLM@SetStartupInfoW@ 0000000180035f60     ConEmuPluginBase.obj
 0002:00002f70       ??_C@_0P@JNNILPEA@SetStartupInfo@ 0000000180035f70     ConEmuPluginBase.obj
 0002:00002f80       ??_C@_0EB@EJJEIDNB@C?3?2Users?2conemu?2SRC?2conemu?2src?2@ 0000000180035f80     ConEmuPluginBase.obj
 0002:00002fc8       ??_C@_1BC@GNOFNJJG@?$AAM?$AAs?$AAL?$AAC?$AAl?$AAi?$AAc?$AAk@ 0000000180035fc8     ConEmuPluginBase.obj
 0002:00002fe0       ??_C@_1CC@DFJIOIPL@?$AAK?$AAe?$AAy?$AAs?$AA?$CI?$AA?8?$AAM?$AAs?$AAL?$AAC?$AAl?$AAi?$AAc?$AAk?$AA?8@ 0000000180035fe0     ConEmuPluginBase.obj
 0002:00003008       ??_C@_1CM@IICFOBPI@?$AA$?$AAi?$AAf?$AA?5?$AA?$CI?$AAS?$AAe?$AAa?$AAr?$AAc?$AAh?$AA?$CJ?$AA?5?$AAE?$AAs@ 0000000180036008     ConEmuPluginBase.obj
 0002:00003038       ??_C@_1DO@LEFBPADB@?$AAi?$AAf?$AA?5?$AAA?$AAr?$AAe?$AAa?$AA?4?$AAS?$AAe?$AAa?$AAr?$AAc?$AAh?$AA?5@ 0000000180036038     ConEmuPluginBase.obj
 0002:00003080       ??_C@_1CCO@OMFPMNEO@?$AA?$EA?$AAi?$AAf?$AA?5?$AAn?$AAo?$AAt?$AA?5?$AAC?$AAm?$AAd?$AAL?$AAi?$AAn?$AAe@ 0000000180036080     ConEmuPluginBase.obj
 0002:000032b0       ??_C@_1CAM@BBLMGMFK@?$AA?$EA?$AA$?$AAI?$AAf?$AA?5?$AA?$CI?$AA?$CB?$AAC?$AAm?$AAd?$AAL?$AAi?$AAn?$AAe?$AA?4@ 00000001800362b0     ConEmuPluginBase.obj
 0002:000034c0       ??_C@_1CG@OILEFJJN@?$AAC?$AAo?$AAn?$AAE?$AAm?$AAu?$AAT?$AAh?$AA?3?$AA?3?$AAS?$AAe?$AAt?$AAt?$AAi@ 00000001800364c0     ConEmuPluginBase.obj
 0002:000034e8       ??_C@_1CI@MBMLEGFG@?$AAC?$AAo?$AAn?$AAE?$AAm?$AAu?$AAF?$AAa?$AAr?$AAM?$AAa?$AAp?$AAp?$AAi?$AAn@ 00000001800364e8     ConEmuPluginBase.obj
 0002:00003510       ??_C@_1CO@INAJPHBH@?$AAC?$AAo?$AAn?$AAE?$AAm?$AAu?$AAF?$AAa?$AAr?$AAA?$AAl?$AAi?$AAv?$AAe?$AAE@ 0000000180036510     ConEmuPluginBase.obj
 0002:00003540       ??_C@_1BE@GLIABAAK@?$AA?$EA?$AA?$FO?$AA$?$AAT?$AAE?$AAX?$AAT?$AA?5?$AA?$CC@ 0000000180036540     ConEmuPluginBase.obj
 0002:00003558       ??_C@_1BE@CPLNCDLK@?$AA?$EA?$AA?$FO?$AAp?$AAr?$AAi?$AAn?$AAt?$AA?$CI?$AA?$CC@ 0000000180036558     ConEmuPluginBase.obj
 0002:0000356c       ??_C@_13NEIAEHFG@?$AA?$CC@ 000000018003656c     ConEmuPluginBase.obj
 0002:00003570       ??_C@_15NJGDBKNF@?$AA?$CC?$AA?$CJ@ 0000000180036570     ConEmuPluginBase.obj
 0002:00003580       ??_C@_1GK@OGACKIKJ@?$AAI?$AAn?$AAt?$AAe?$AAr?$AAn?$AAa?$AAl?$AA?5?$AAe?$AAr?$AAr?$AAo?$AAr?$AA?4@ 0000000180036580     ConEmuPluginBase.obj
 0002:000035f0       ??_C@_1O@KBENBEFG@?$AAc?$AAr?$AAe?$AAa?$AAt?$AAe@ 00000001800365f0     ConEmuPluginBase.obj
 0002:00003600       ??_C@_19BDAJEHDN@?$AAo?$AAp?$AAe?$AAn@ 0000000180036600     ConEmuPluginBase.obj
 0002:00003610       ??_C@_1GM@LGOLGABE@?$AAC?$AAa?$AAn?$AA?8?$AAt?$AA?5?$AA?$CF?$AAs?$AA?5?$AAc?$AAo?$AAn?$AAs?$AAo?$AAl@ 0000000180036610     ConEmuPluginBase.obj
 0002:00003680       ??_C@_1BE@HADLJAO@?$AAR?$AAe?$AAa?$AAd?$AAW?$AAr?$AAi?$AAt?$AAe@ 0000000180036680     ConEmuPluginBase.obj
 0002:00003698       ??_C@_19EOHDNDII@?$AAR?$AAe?$AAa?$AAd@ 0000000180036698     ConEmuPluginBase.obj
 0002:000036b0       ??_C@_1FO@BGAPBIGG@?$AAC?$AAa?$AAn?$AA?8?$AAt?$AA?5?$AAm?$AAa?$AAp?$AA?5?$AAc?$AAo?$AAn?$AAs?$AAo@ 00000001800366b0     ConEmuPluginBase.obj
 0002:00003710       ??_C@_1II@OIMPCJAG@?$AAC?$AAa?$AAn?$AA?8?$AAt?$AA?5?$AAm?$AAa?$AAp?$AA?5?$AAc?$AAo?$AAn?$AAs?$AAo@ 0000000180036710     ConEmuPluginBase.obj
 0002:000037a0       ??_C@_1JM@IDPBKCIF@?$AAC?$AAa?$AAn?$AA?8?$AAt?$AA?5?$AAm?$AAa?$AAp?$AA?5?$AAc?$AAo?$AAn?$AAs?$AAo@ 00000001800367a0     ConEmuPluginBase.obj
 0002:00003840       ??_C@_1DA@OEIAGFIH@?$AAC?$AAo?$AAn?$AAE?$AAm?$AAu?$AA?$AA?$AAF?$AAa?$AAr?$AA?5?$AAB?$AAa?$AAc?$AAk@ 0000000180036840     PluginBackground.obj
 0002:00003870       ??_C@_1DA@BMIFHIMF@?$AAC?$AAo?$AAn?$AAE?$AAm?$AAu?$AAV?$AAi?$AAe?$AAw?$AAS?$AAe?$AAt?$AAM?$AAa@ 0000000180036870     PluginBackground.obj
 0002:000038a0       ??_C@_1GA@OEMDGAOF@?$AAI?$AAn?$AAt?$AAe?$AAr?$AAn?$AAa?$AAl?$AA?5?$AAe?$AAr?$AAr?$AAo?$AAr?$AA?4@ 00000001800368a0     PluginBackground.obj
 0002:00003900       ??_C@_13JOFGPIOO@?$AA?4@   0000000180036900     PluginSrv.obj
 0002:00003908       ??_C@_1DC@PFNEMDKA@?$AA?2?$AA?2?$AA?$CF?$AAs?$AA?2?$AAp?$AAi?$AAp?$AAe?$AA?2?$AAC?$AAo?$AAn?$AAE?$AAm@ 0000000180036908     PluginSrv.obj
 0002:00003940       ??_C@_19HGGOABND@?$AA?$CF?$AA0?$AA8?$AAx@ 0000000180036940     PluginSrv.obj
 0002:00003950       ??_C@_1FM@LPOPCJG@?$AAS?$AAt?$AAa?$AAr?$AAt?$AAP?$AAi?$AAp?$AAe?$AAS?$AAe?$AAr?$AAv?$AAe?$AAr@ 0000000180036950     PluginSrv.obj
 0002:000039b0       ??_C@_0DD@GBHPPKJE@C?3?2Users?2conemu?2SRC?2conemu?2src?2@ 00000001800369b0     PluginSrv.obj
 0002:000039f0       ??_C@_1GC@MCEAIMAO@?$AAS?$AAt?$AAa?$AAr?$AAt?$AAP?$AAi?$AAp?$AAe?$AAI?$AAn?$AAs?$AAt?$AAa?$AAn@ 00000001800369f0     PluginSrv.obj
 0002:00003a58       ??_C@_0BB@MDGFLNIP@PipeServerThread@ 0000000180036a58     PluginSrv.obj
 0002:00003a70       ??_C@_1GG@PAGGIEEF@?$AAS?$AAt?$AAa?$AAr?$AAt?$AAP?$AAi?$AAp?$AAe?$AAI?$AAn?$AAs?$AAt?$AAa?$AAn@ 0000000180036a70     PluginSrv.obj
 0002:00003ad8       ??_C@_1M@KGONCMNM@?$AA?$CF?$AAs?$AA?6?$AA?$CF?$AAs@ 0000000180036ad8     PluginSrv.obj
 0002:00003af0       ??_C@_1EA@JFONKNJK@?$AAP?$AAi?$AAp?$AAe?$AAS?$AAe?$AAr?$AAv?$AAe?$AAr?$AAE?$AAr?$AAr?$AAo?$AAr@ 0000000180036af0     PluginSrv.obj
 0002:00003b30       ??_C@_1FG@DJFPBHJF@?$AAP?$AAi?$AAp?$AAe?$AAS?$AAe?$AAr?$AAv?$AAe?$AAr?$AAE?$AAr?$AAr?$AAo?$AAr@ 0000000180036b30     PluginSrv.obj
 0002:00003b90       ??_C@_1GK@OLPCHMBE@?$AAP?$AAi?$AAp?$AAe?$AAS?$AAe?$AAr?$AAv?$AAe?$AAr?$AAT?$AAh?$AAr?$AAe?$AAa@ 0000000180036b90     PluginSrv.obj
 0002:00003c00       ??_C@_1HA@EGHGJDPG@?$AAP?$AAi?$AAp?$AAe?$AAS?$AAe?$AAr?$AAv?$AAe?$AAr?$AAT?$AAh?$AAr?$AAe?$AAa@ 0000000180036c00     PluginSrv.obj
 0002:00003c70       ??_C@_1HG@LHMKOAMG@?$AAP?$AAi?$AAp?$AAe?$AAS?$AAe?$AAr?$AAv?$AAe?$AAr?$AAT?$AAh?$AAr?$AAe?$AAa@ 0000000180036c70     PluginSrv.obj
 0002:00003cf0       ??_C@_1EM@INHGIPLC@?$AA?$CF?$AAs?$AA?4?$AA?$CF?$AAu?$AA?3?$AA?5?$AAC?$AAr?$AAe?$AAa?$AAt?$AAe?$AAF?$AAi@ 0000000180036cf0     common-kernel64:ConEmuCheck.obj
 0002:00003d40       ??_C@_1DA@LCPELGGN@?$AAC?$AAo?$AAn?$AAE?$AAm?$AAu?$AAG?$AAu?$AAi?$AAI?$AAn?$AAf?$AAo?$AAM?$AAa@ 0000000180036d40     common-kernel64:ConEmuCheck.obj
 0002:00003d70       ??_C@_1DC@MJLCOFMA@?$AA?2?$AA?2?$AA?$CF?$AAs?$AA?2?$AAp?$AAi?$AAp?$AAe?$AA?2?$AAC?$AAo?$AAn?$AAE?$AAm@ 0000000180036d70     common-kernel64:ConEmuCheck.obj
 0002:00003da8       ??_C@_1CM@OPJKOFLA@?$AA?2?$AA?2?$AA?$CF?$AAs?$AA?2?$AAp?$AAi?$AAp?$AAe?$AA?2?$AAC?$AAo?$AAn?$AAE?$AAm@ 0000000180036da8     common-kernel64:ConEmuCheck.obj
 0002:00003dd8       ??_C@_1CG@FFFCCLIF@?$AAC?$AAo?$AAn?$AAs?$AAo?$AAl?$AAe?$AAW?$AAi?$AAn?$AAd?$AAo?$AAw?$AAC?$AAl@ 0000000180036dd8     common-kernel64:ConEmuCheck.obj
 0002:00003e00       ??_C@_1CC@LMJBOHFL@?$AAW?$AAi?$AAn?$AAe?$AAC?$AAo?$AAn?$AAs?$AAo?$AAl?$AAe?$AAC?$AAl?$AAa?$AAs@ 0000000180036e00     common-kernel64:ConEmuCheck.obj
 0002:00003e28       ??_C@_1CI@LOFINFNK@?$AAP?$AAs?$AAe?$AAu?$AAd?$AAo?$AAC?$AAo?$AAn?$AAs?$AAo?$AAl?$AAe?$AAW?$AAi@ 0000000180036e28     common-kernel64:ConEmuCheck.obj
 0002:00003e50       ??_C@_1BE@GIIMEDBE@?$AAC?$AAo?$AAn?$AAE?$AAm?$AAu?$AAP?$AAI?$AAD@ 0000000180036e50     common-kernel64:ConEmuCheck.obj
 0002:00003e68       ??_C@_1CA@COEOBCOP@?$AAC?$AAo?$AAn?$AAE?$AAm?$AAu?$AAS?$AAe?$AAr?$AAv?$AAe?$AAr?$AAP?$AAI?$AAD@ 0000000180036e68     common-kernel64:ConEmuCheck.obj
 0002:00003e88       ??_C@_1BC@LMIJMNIA@?$AA0?$AA0?$AA0?$AA0?$AA0?$AA0?$AA0?$AA0@ 0000000180036e88     common-kernel64:MStrSafe.obj
 0002:00003ea8       ??_7exception@stdext@@6B@  0000000180036ea8     common-kernel64:CEStr.obj
 0002:00003ec0       ??_C@_0BC@BDKFLDHL@unknown?5exception@ 0000000180036ec0     common-kernel64:CEStr.obj
 0002:00003ee0       ??_7bad_alloc@stdext@@6B@  0000000180036ee0     common-kernel64:CEStr.obj
 0002:00004220       ??_C@_1BC@DDAIKLEO@?$AAA?$AAC?$AAT?$AAI?$AAV?$AAA?$AAT?$AAE@ 0000000180037220     common-kernel64:CmdLine.obj
 0002:00004238       ??_C@_1M@IAAEIFGC@?$AAA?$AAL?$AAI?$AAA?$AAS@ 0000000180037238     common-kernel64:CmdLine.obj
 0002:00004248       ??_C@_1M@NBMJEEAL@?$AAA?$AAS?$AAS?$AAO?$AAC@ 0000000180037248     common-kernel64:CmdLine.obj
 0002:00004258       ??_C@_1O@HDDJOIFH@?$AAA?$AAT?$AAT?$AAR?$AAI?$AAB@ 0000000180037258     common-kernel64:CmdLine.obj
 0002:00004268       ??_C@_19HDNPBIOA@?$AAB?$AAE?$AAE?$AAP@ 0000000180037268     common-kernel64:CmdLine.obj
 0002:00004278       ??_C@_1M@MPPIMPG@?$AAB?$AAR?$AAE?$AAA?$AAK@ 0000000180037278     common-kernel64:CmdLine.obj
 0002:00004288       ??_C@_19CFJHMEML@?$AAC?$AAA?$AAL?$AAL@ 0000000180037288     common-kernel64:CmdLine.obj
 0002:00004298       ??_C@_17LNHAGCII@?$AAC?$AAD?$AAD@ 0000000180037298     common-kernel64:CmdLine.obj
 0002:000042a0       ??_C@_19NBEBIFBC@?$AAC?$AAH?$AAC?$AAP@ 00000001800372a0     common-kernel64:CmdLine.obj
 0002:000042b0       ??_C@_1M@ENFOKIIP@?$AAC?$AAO?$AAL?$AAO?$AAR@ 00000001800372b0     common-kernel64:CmdLine.obj
 0002:000042c0       ??_C@_19CDMOLDLE@?$AAC?$AAO?$AAP?$AAY@ 00000001800372c0     common-kernel64:CmdLine.obj
 0002:000042d0       ??_C@_19FFMGBAMO@?$AAD?$AAA?$AAT?$AAE@ 00000001800372d0     common-kernel64:CmdLine.obj
 0002:000042e0       ??_C@_1BA@KDAEEGIF@?$AAD?$AAE?$AAF?$AAA?$AAU?$AAL?$AAT@ 00000001800372e0     common-kernel64:CmdLine.obj
 0002:000042f0       ??_C@_17LJFNJANL@?$AAD?$AAE?$AAL@ 00000001800372f0     common-kernel64:CmdLine.obj
 0002:000042f8       ??_C@_1M@MDOPDHLI@?$AAD?$AAE?$AAL?$AAA?$AAY@ 00000001800372f8     common-kernel64:CmdLine.obj
 0002:00004308       ??_C@_1BC@EBILLKF@?$AAD?$AAE?$AAS?$AAC?$AAR?$AAI?$AAB?$AAE@ 0000000180037308     common-kernel64:CmdLine.obj
 0002:00004320       ??_C@_1O@FMDFNCGD@?$AAD?$AAE?$AAT?$AAA?$AAC?$AAH@ 0000000180037320     common-kernel64:CmdLine.obj
 0002:00004330       ??_C@_17HOFJHAAM@?$AAD?$AAI?$AAR@ 0000000180037330     common-kernel64:CmdLine.obj
 0002:00004338       ??_C@_1BG@NDOBACJO@?$AAD?$AAI?$AAR?$AAH?$AAI?$AAS?$AAT?$AAO?$AAR?$AAY@ 0000000180037338     common-kernel64:CmdLine.obj
 0002:00004350       ??_C@_19CFAIOACF@?$AAD?$AAI?$AAR?$AAS@ 0000000180037350     common-kernel64:CmdLine.obj
 0002:00004360       ??_C@_1BA@EEGPDNCN@?$AAD?$AAR?$AAA?$AAW?$AAB?$AAO?$AAX@ 0000000180037360     common-kernel64:CmdLine.obj
 0002:00004370       ??_C@_1BE@MFLGFCAF@?$AAD?$AAR?$AAA?$AAW?$AAH?$AAL?$AAI?$AAN?$AAE@ 0000000180037370     common-kernel64:CmdLine.obj
 0002:00004388       ??_C@_1BE@CAJPGMOH@?$AAD?$AAR?$AAA?$AAW?$AAV?$AAL?$AAI?$AAN?$AAE@ 0000000180037388     common-kernel64:CmdLine.obj
 0002:000043a0       ??_C@_19ODIIFOAJ@?$AAE?$AAC?$AAH?$AAO@ 00000001800373a0     common-kernel64:CmdLine.obj
 0002:000043b0       ??_C@_1BA@GCFKHCBD@?$AAE?$AAC?$AAH?$AAO?$AAE?$AAR?$AAR@ 00000001800373b0     common-kernel64:CmdLine.obj
 0002:000043c0       ??_C@_1M@IEKJIEHO@?$AAE?$AAC?$AAH?$AAO?$AAS@ 00000001800373c0     common-kernel64:CmdLine.obj
 0002:000043d0       ??_C@_1BC@OCCODNGM@?$AAE?$AAC?$AAH?$AAO?$AAS?$AAE?$AAR?$AAR@ 00000001800373d0     common-kernel64:CmdLine.obj
 0002:000043e8       ??_C@_1BC@HIHGAEJA@?$AAE?$AAN?$AAD?$AAL?$AAO?$AAC?$AAA?$AAL@ 00000001800373e8     common-kernel64:CmdLine.obj
 0002:00004400       ??_C@_1M@FCOMLPCA@?$AAE?$AAR?$AAA?$AAS?$AAE@ 0000000180037400     common-kernel64:CmdLine.obj
 0002:00004410       ??_C@_1BG@GOAOIOCC@?$AAE?$AAR?$AAR?$AAO?$AAR?$AAL?$AAE?$AAV?$AAE?$AAL@ 0000000180037410     common-kernel64:CmdLine.obj
 0002:00004428       ??_C@_19KELFKMGC@?$AAE?$AAS?$AAE?$AAT@ 0000000180037428     common-kernel64:CmdLine.obj
 0002:00004438       ??_C@_1O@INDINDHO@?$AAE?$AAX?$AAC?$AAE?$AAP?$AAT@ 0000000180037438     common-kernel64:CmdLine.obj
 0002:00004448       ??_C@_1M@HOIOAEKG@?$AAE?$AAX?$AAI?$AAS?$AAT@ 0000000180037448     common-kernel64:CmdLine.obj
 0002:00004458       ??_C@_19IOBNHAEP@?$AAE?$AAX?$AAI?$AAT@ 0000000180037458     common-kernel64:CmdLine.obj
 0002:00004468       ??_C@_1M@NPCGCBNH@?$AAF?$AAF?$AAI?$AAN?$AAD@ 0000000180037468     common-kernel64:CmdLine.obj
 0002:00004478       ??_C@_17OKCFJEGM@?$AAF?$AAO?$AAR@ 0000000180037478     common-kernel64:CmdLine.obj
 0002:00004480       ??_C@_19GLINCHAF@?$AAF?$AAR?$AAE?$AAE@ 0000000180037480     common-kernel64:CmdLine.obj
 0002:00004490       ??_C@_1M@BKGEFKH@?$AAF?$AAT?$AAY?$AAP?$AAE@ 0000000180037490     common-kernel64:CmdLine.obj
 0002:000044a0       ??_C@_1O@COJGIGIJ@?$AAG?$AAL?$AAO?$AAB?$AAA?$AAL@ 00000001800374a0     common-kernel64:CmdLine.obj
 0002:000044b0       ??_C@_19MEMGFJJL@?$AAG?$AAO?$AAT?$AAO@ 00000001800374b0     common-kernel64:CmdLine.obj
 0002:000044c0       ??_C@_19EDPCNJOB@?$AAH?$AAE?$AAL?$AAP@ 00000001800374c0     common-kernel64:CmdLine.obj
 0002:000044d0       ??_C@_1BA@FNCCECPF@?$AAH?$AAI?$AAS?$AAT?$AAO?$AAR?$AAY@ 00000001800374d0     common-kernel64:CmdLine.obj
 0002:000044e0       ??_C@_15NIBFACBJ@?$AAI?$AAF@ 00000001800374e0     common-kernel64:CmdLine.obj
 0002:000044e8       ??_C@_17MLHBBHMA@?$AAI?$AAF?$AAF@ 00000001800374e8     common-kernel64:CmdLine.obj
 0002:000044f0       ??_C@_1M@DEPEIGKO@?$AAI?$AAN?$AAK?$AAE?$AAY@ 00000001800374f0     common-kernel64:CmdLine.obj
 0002:00004500       ??_C@_1M@OEJJHBJF@?$AAI?$AAN?$AAP?$AAU?$AAT@ 0000000180037500     common-kernel64:CmdLine.obj
 0002:00004510       ??_C@_1M@KBMHGKGK@?$AAK?$AAE?$AAY?$AAB?$AAD@ 0000000180037510     common-kernel64:CmdLine.obj
 0002:00004520       ??_C@_19OJGLFOCE@?$AAK?$AAE?$AAY?$AAS@ 0000000180037520     common-kernel64:CmdLine.obj
 0002:00004530       ??_C@_1M@CFNEBGLF@?$AAL?$AAA?$AAB?$AAE?$AAL@ 0000000180037530     common-kernel64:CmdLine.obj
 0002:00004540       ??_C@_19GAFEELMN@?$AAL?$AAI?$AAS?$AAT@ 0000000180037540     common-kernel64:CmdLine.obj
 0002:00004550       ??_C@_17BMCCCPAJ@?$AAL?$AAO?$AAG@ 0000000180037550     common-kernel64:CmdLine.obj
 0002:00004558       ??_C@_15OJINIIIE@?$AAM?$AAD@ 0000000180037558     common-kernel64:CmdLine.obj
 0002:00004560       ??_C@_1O@BMHNHEPH@?$AAM?$AAE?$AAM?$AAO?$AAR?$AAY@ 0000000180037560     common-kernel64:CmdLine.obj
 0002:00004570       ??_C@_1M@KIDICDED@?$AAM?$AAK?$AAD?$AAI?$AAR@ 0000000180037570     common-kernel64:CmdLine.obj
 0002:00004580       ??_C@_19PBJBIIDN@?$AAM?$AAO?$AAV?$AAE@ 0000000180037580     common-kernel64:CmdLine.obj
 0002:00004590       ??_C@_1O@HEILMPND@?$AAM?$AAS?$AAG?$AAB?$AAO?$AAX@ 0000000180037590     common-kernel64:CmdLine.obj
 0002:000045a0       ??_C@_17BMKLNAAF@?$AAN?$AAO?$AAT@ 00000001800375a0     common-kernel64:CmdLine.obj
 0002:000045a8       ??_C@_15MLPIMJOL@?$AAO?$AAN@ 00000001800375a8     common-kernel64:CmdLine.obj
 0002:000045b0       ??_C@_1O@GPKPHHA@?$AAO?$AAP?$AAT?$AAI?$AAO?$AAN@ 00000001800375b0     common-kernel64:CmdLine.obj
 0002:000045c0       ??_C@_19IJOJOJIB@?$AAP?$AAA?$AAT?$AAH@ 00000001800375c0     common-kernel64:CmdLine.obj
 0002:000045d0       ??_C@_1M@PCDPCAPG@?$AAP?$AAA?$AAU?$AAS?$AAE@ 00000001800375d0     common-kernel64:CmdLine.obj
 0002:000045e0       ??_C@_19ENCEAGBN@?$AAP?$AAO?$AAP?$AAD@ 00000001800375e0     common-kernel64:CmdLine.obj
 0002:000045f0       ??_C@_1O@EMMHJCCF@?$AAP?$AAR?$AAO?$AAM?$AAP?$AAT@ 00000001800375f0     common-kernel64:CmdLine.obj
 0002:00004600       ??_C@_1M@MLLIJNNO@?$AAP?$AAU?$AAS?$AAH?$AAD@ 0000000180037600     common-kernel64:CmdLine.obj
 0002:0000460c       ??_C@_15BLANDIMK@?$AAR?$AAD@ 000000018003760c     common-kernel64:CmdLine.obj
 0002:00004618       ??_C@_1O@JAHCGOHI@?$AAR?$AAE?$AAB?$AAO?$AAO?$AAT@ 0000000180037618     common-kernel64:CmdLine.obj
 0002:00004628       ??_C@_17KJIAGAPM@?$AAR?$AAE?$AAN@ 0000000180037628     common-kernel64:CmdLine.obj
 0002:00004630       ??_C@_1O@DKKJANDF@?$AAR?$AAE?$AAN?$AAA?$AAM?$AAE@ 0000000180037630     common-kernel64:CmdLine.obj
 0002:00004640       ??_C@_1M@NLKKCBIJ@?$AAR?$AAM?$AAD?$AAI?$AAR@ 0000000180037640     common-kernel64:CmdLine.obj
 0002:00004650       ??_C@_1O@MKBBCDFD@?$AAS?$AAC?$AAR?$AAE?$AAE?$AAN@ 0000000180037650     common-kernel64:CmdLine.obj
 0002:00004660       ??_C@_1O@MCDIKJHM@?$AAS?$AAC?$AAR?$AAP?$AAU?$AAT@ 0000000180037660     common-kernel64:CmdLine.obj
 0002:00004670       ??_C@_1O@PFLGGDAO@?$AAS?$AAE?$AAL?$AAE?$AAC?$AAT@ 0000000180037670     common-kernel64:CmdLine.obj
 0002:00004680       ??_C@_17FKIONHJJ@?$AAS?$AAE?$AAT@ 0000000180037680     common-kernel64:CmdLine.obj
 0002:00004688       ??_C@_1O@OHHAFKEO@?$AAS?$AAE?$AAT?$AAD?$AAO?$AAS@ 0000000180037688     common-kernel64:CmdLine.obj
 0002:00004698       ??_C@_1BC@GEMAPDNM@?$AAS?$AAE?$AAT?$AAL?$AAO?$AAC?$AAA?$AAL@ 0000000180037698     common-kernel64:CmdLine.obj
 0002:000046b0       ??_C@_1M@OJBOFOHK@?$AAS?$AAH?$AAI?$AAF?$AAT@ 00000001800376b0     common-kernel64:CmdLine.obj
 0002:000046c0       ??_C@_1BC@HJGKBLNP@?$AAS?$AAH?$AAR?$AAA?$AAL?$AAI?$AAA?$AAS@ 00000001800376c0     common-kernel64:CmdLine.obj
 0002:000046d8       ??_C@_1M@JPCOGECE@?$AAS?$AAT?$AAA?$AAR?$AAT@ 00000001800376d8     common-kernel64:CmdLine.obj
 0002:000046e8       ??_C@_17LIOOOOHK@?$AAT?$AAE?$AAE@ 00000001800376e8     common-kernel64:CmdLine.obj
 0002:000046f0       ??_C@_19IFFENJMA@?$AAT?$AAI?$AAM?$AAE@ 00000001800376f0     common-kernel64:CmdLine.obj
 0002:00004700       ??_C@_1M@FFPBPPED@?$AAT?$AAI?$AAM?$AAE?$AAR@ 0000000180037700     common-kernel64:CmdLine.obj
 0002:00004710       ??_C@_1M@NMMEOLKN@?$AAT?$AAI?$AAT?$AAL?$AAE@ 0000000180037710     common-kernel64:CmdLine.obj
 0002:00004720       ??_C@_1M@BOEMPBHM@?$AAT?$AAO?$AAU?$AAC?$AAH@ 0000000180037720     common-kernel64:CmdLine.obj
 0002:00004730       ??_C@_19EINGHGNA@?$AAT?$AAR?$AAE?$AAE@ 0000000180037730     common-kernel64:CmdLine.obj
 0002:00004740       ??_C@_1BC@DJLLAHAG@?$AAT?$AAR?$AAU?$AAE?$AAN?$AAA?$AAM?$AAE@ 0000000180037740     common-kernel64:CmdLine.obj
 0002:00004758       ??_C@_19EGKHPJKO@?$AAT?$AAY?$AAP?$AAE@ 0000000180037758     common-kernel64:CmdLine.obj
 0002:00004768       ??_C@_1BA@CPEILPFL@?$AAU?$AAN?$AAA?$AAL?$AAI?$AAA?$AAS@ 0000000180037768     common-kernel64:CmdLine.obj
 0002:00004778       ??_C@_1M@GANCNEJA@?$AAU?$AAN?$AAS?$AAE?$AAT@ 0000000180037778     common-kernel64:CmdLine.obj
 0002:00004788       ??_C@_17DHAFIGCB@?$AAV?$AAE?$AAR@ 0000000180037788     common-kernel64:CmdLine.obj
 0002:00004790       ??_C@_1O@LNHKOABJ@?$AAV?$AAE?$AAR?$AAI?$AAF?$AAY@ 0000000180037790     common-kernel64:CmdLine.obj
 0002:000047a0       ??_C@_17CGFIIFOL@?$AAV?$AAO?$AAL@ 00000001800377a0     common-kernel64:CmdLine.obj
 0002:000047a8       ??_C@_1BA@GEPADKGO@?$AAV?$AAS?$AAC?$AAR?$AAP?$AAU?$AAT@ 00000001800377a8     common-kernel64:CmdLine.obj
 0002:000047b8       ??_C@_1O@EEDIBOKC@?$AAW?$AAI?$AAN?$AAD?$AAO?$AAW@ 00000001800377b8     common-kernel64:CmdLine.obj
 0002:000047c8       ??_C@_13GILOGAML@?$AAY@    00000001800377c8     common-kernel64:CmdLine.obj
 0002:000047d0       ??_C@_19DOGDICKI@?$AA?4?$AAe?$AAx?$AAe@ 00000001800377d0     common-kernel64:CmdLine.obj
 0002:000047e0       ??_C@_1BG@PIGCKNCG@?$AAC?$AAo?$AAn?$AAE?$AAm?$AAu?$AA?4?$AAe?$AAx?$AAe@ 00000001800377e0     common-kernel64:CmdLine.obj
 0002:000047f8       ??_C@_1BK@BNOCAHHB@?$AAC?$AAo?$AAn?$AAE?$AAm?$AAu?$AA6?$AA4?$AA?4?$AAe?$AAx?$AAe@ 00000001800377f8     common-kernel64:CmdLine.obj
 0002:00004814       ??_C@_05LCABBMOG@?$CFs?3?$CFi@ 0000000180037814     common-kernel64:WThreads.obj
 0002:00004820       ??_C@_1BO@HJHEFHMO@?$AAK?$AAe?$AAr?$AAn?$AAe?$AAl?$AAB?$AAa?$AAs?$AAe?$AA?4?$AAd?$AAl?$AAl@ 0000000180037820     common-kernel64:MSecurity.obj
 0002:00004840       ??_C@_1BK@BIGILECK@?$AAA?$AAd?$AAv?$AAa?$AAp?$AAi?$AA3?$AA2?$AA?4?$AAd?$AAl?$AAl@ 0000000180037840     common-kernel64:MSecurity.obj
 0002:00004860       ??_C@_0BE@IPKPLIM@AddAccessAllowedAce@ 0000000180037860     common-kernel64:MSecurity.obj
 0002:00004878       ??_C@_0BD@EIGAJLOG@AddAccessDeniedAce@ 0000000180037878     common-kernel64:MSecurity.obj
 0002:00004890       ??_C@_0BJ@ECIKFEOL@AllocateAndInitializeSid@ 0000000180037890     common-kernel64:MSecurity.obj
 0002:000048b0       ??_C@_0N@HBKDHKNL@GetLengthSid@ 00000001800378b0     common-kernel64:MSecurity.obj
 0002:000048c0       ??_C@_0O@GKCEJBAA@InitializeAcl@ 00000001800378c0     common-kernel64:MSecurity.obj
 0002:000048d0       ??_C@_0BN@FNLANPJJ@InitializeSecurityDescriptor@ 00000001800378d0     common-kernel64:MSecurity.obj
 0002:000048f0       ??_C@_0BK@DNNLOFO@SetSecurityDescriptorDacl@ 00000001800378f0     common-kernel64:MSecurity.obj
 0002:00004910       ??_C@_1BE@GJOFHIHD@?$AAn?$AAt?$AAd?$AAl?$AAl?$AA?4?$AAd?$AAl?$AAl@ 0000000180037910     common-kernel64:WObjects.obj
 0002:00004928       ??_C@_0BF@LOGLPPDD@RtlVerifyVersionInfo@ 0000000180037928     common-kernel64:WObjects.obj
 0002:00004940       ??_C@_1BA@PHJPMKEE@?$AAC?$AAo?$AAm?$AAS?$AAp?$AAe?$AAc@ 0000000180037940     common-kernel64:WObjects.obj
 0002:00004958       ??_7?$_Func_impl_no_alloc@P6AHPEAX@ZXPEAX@std@@6B@ 0000000180037958     common-kernel64:WObjects.obj
 0002:00004988       ??_C@_0BD@HGJIAJJM@RequestTrampolines@ 0000000180037988     common-kernel64:HkFunc.obj
 0002:000049a8       ??_7?$MToolHelp@UtagPROCESSENTRY32W@@$1?Process32FirstW@@YAHPEAXPEAU1@@Z$1?Process32NextW@@YAH01@Z@@6B@ 00000001800379a8     common-kernel64:MProcess.obj
 0002:000049c0       ??_7MToolHelpProcess@@6B@  00000001800379c0     common-kernel64:MProcess.obj
 0002:000049d0       ??_C@_1BK@HHKNEJDC@?$AAt?$AAl?$AAn?$AAt?$AAs?$AAe?$AAs?$AAs?$AA?4?$AAe?$AAx?$AAe@ 00000001800379d0     common-kernel64:MProcess.obj
 0002:000049f0       ??_C@_1BI@MPDCNJBA@?$AAt?$AAl?$AAn?$AAt?$AAs?$AAv?$AAr?$AA?4?$AAe?$AAx?$AAe@ 00000001800379f0     common-kernel64:MProcess.obj
 0002:00004a10       ??_7?$_Func_impl_no_alloc@V<lambda_217d18733db987cb8fc0adfd68028951>@@_NAEBUtagPROCESSENTRY32W@@@std@@6B@ 0000000180037a10     common-kernel64:MProcess.obj
 0002:00004a40       ??_C@_1O@GNPNAMOC@?$AA0?$AAx?$AA?$CF?$AA0?$AA8?$AAX@ 0000000180037a40     common-user64:SetEnvVar.obj
 0002:00004a50       ??_C@_1BG@CJNOKBPK@?$AAC?$AAo?$AAn?$AAE?$AAm?$AAu?$AAH?$AAW?$AAN?$AAD@ 0000000180037a50     common-user64:SetEnvVar.obj
 0002:00004a68       ??_C@_15EFLNJKHH@?$AA?$CF?$AAu@ 0000000180037a68     common-user64:SetEnvVar.obj
 0002:00004a70       ??_C@_1BO@BBOAAODE@?$AAC?$AAo?$AAn?$AAE?$AAm?$AAu?$AAD?$AAr?$AAa?$AAw?$AAH?$AAW?$AAN?$AAD@ 0000000180037a70     common-user64:SetEnvVar.obj
 0002:00004a90       ??_C@_1BO@DIAPFMAN@?$AAC?$AAo?$AAn?$AAE?$AAm?$AAu?$AAB?$AAa?$AAc?$AAk?$AAH?$AAW?$AAN?$AAD@ 0000000180037a90     common-user64:SetEnvVar.obj
 0002:00004ab0       ??_C@_1CI@PDOPFPLH@?$AAV?$AAi?$AAr?$AAt?$AAu?$AAa?$AAl?$AAC?$AAo?$AAn?$AAs?$AAo?$AAl?$AAe?$AAC@ 0000000180037ab0     common-user64:ConEmuCheckEx.obj
 0002:00004ad8       ??_C@_1CC@PDEDDOGK@?$AA?2?$AAP?$AAl?$AAu?$AAg?$AAi?$AAn?$AAs?$AA?2?$AAC?$AAo?$AAn?$AAE?$AAm?$AAu@ 0000000180037ad8     common-user64:ConEmuCheckEx.obj
 0002:00004b00       ??_C@_1CA@CNCOCNJD@?$AAS?$AAo?$AAf?$AAt?$AAw?$AAa?$AAr?$AAe?$AA?2?$AAC?$AAo?$AAn?$AAE?$AAm?$AAu@ 0000000180037b00     common-user64:ConEmuCheckEx.obj
 0002:00004b20       ??_C@_1CK@KBHIPEEC@?$AAC?$AAo?$AAn?$AAE?$AAm?$AAu?$AA?2?$AAC?$AAo?$AAn?$AAE?$AAm?$AAu?$AAC?$AA6@ 0000000180037b20     common-user64:ConEmuCheckEx.obj
 0002:00004b50       ??_C@_1CG@HCDHJIEM@?$AAC?$AAo?$AAn?$AAE?$AAm?$AAu?$AA?2?$AAC?$AAo?$AAn?$AAE?$AAm?$AAu?$AAC?$AA?4@ 0000000180037b50     common-user64:ConEmuCheckEx.obj
 0002:00004b80       __xmm@ffffffff800000010000000000000000 0000000180037b80     common-user64:ConEmuCheckEx.obj
 0002:00004b90       __xmm@ffffffff80000002ffffffff80000002 0000000180037b90     common-user64:ConEmuCheckEx.obj
 0002:00004ba0       ??_C@_1BO@CJPKCNHF@?$AAL?$AAu?$AAc?$AAi?$AAd?$AAa?$AA?5?$AAC?$AAo?$AAn?$AAs?$AAo?$AAl?$AAe@ 0000000180037ba0     common-user64:EmergencyShow.obj
 0002:00004bc0       ??_C@_1BA@GIKDDGPH@?$AAC?$AAo?$AAn?$AAs?$AAo?$AAl?$AAe@ 0000000180037bc0     common-user64:EmergencyShow.obj
 0002:00004bd0       ??_C@_1BC@MAHCNJIF@?$AAF?$AAo?$AAn?$AAt?$AAS?$AAi?$AAz?$AAe@ 0000000180037bd0     common-user64:EmergencyShow.obj
 0002:00004bf0       ??_C@_1EM@OAOIIPGN@?$AAC?$AAo?$AAn?$AAs?$AAo?$AAl?$AAe?$AA?2?$AA?$CF?$AAS?$AAy?$AAs?$AAt?$AAe?$AAm@ 0000000180037bf0     common-user64:EmergencyShow.obj
 0002:00004c40       ??_C@_1DC@GKBPJPHN@?$AAC?$AAo?$AAn?$AAE?$AAm?$AAu?$AAE?$AAm?$AAe?$AAr?$AAg?$AAe?$AAn?$AAc?$AAy@ 0000000180037c40     common-user64:EmergencyShow.obj
 0002:00004c80       ??_C@_1GK@PPEHOOAL@?$AAS?$AAO?$AAF?$AAT?$AAW?$AAA?$AAR?$AAE?$AA?2?$AAM?$AAi?$AAc?$AAr?$AAo?$AAs@ 0000000180037c80     common-user64:WFiles.obj
 0002:00004cec       ??_C@_13PJJBFPED@?$AA?$DL@ 0000000180037cec     common-user64:WFiles.obj
 0002:00004cf0       ??_C@_1FM@HGFGNGE@?$AAC?$AAa?$AAn?$AA?8?$AAt?$AA?5?$AAC?$AAr?$AAe?$AAa?$AAt?$AAe?$AAF?$AAi?$AAl@ 0000000180037cf0     common-user64:WConsoleEx.obj
 0002:00004d50       ??_C@_1EA@DNEBDKPD@?$AAC?$AAa?$AAn?$AA?8?$AAt?$AA?5?$AAM?$AAa?$AAp?$AAV?$AAi?$AAe?$AAw?$AAO?$AAf@ 0000000180037d50     common-user64:WConsoleEx.obj
 0002:00004d90       ??_C@_1BO@IPFLJP@?$AAC?$AAo?$AAn?$AAs?$AAo?$AAl?$AAe?$AA?2?$AAC?$AAo?$AAn?$AAE?$AAm?$AAu@ 0000000180037d90     common-user64:WConsoleEx.obj
 0002:00004db0       ??_C@_1CE@BJHMHGLF@?$AAH?$AAi?$AAs?$AAt?$AAo?$AAr?$AAy?$AAB?$AAu?$AAf?$AAf?$AAe?$AAr?$AAS?$AAi@ 0000000180037db0     common-user64:WConsoleEx.obj
 0002:00004dd8       ??_C@_1CO@DAOCNAIJ@?$AAN?$AAu?$AAm?$AAb?$AAe?$AAr?$AAO?$AAf?$AAH?$AAi?$AAs?$AAt?$AAo?$AAr?$AAy@ 0000000180037dd8     common-user64:WConsoleEx.obj
 0002:00004e10       ??_7bad_function_call@std@@6B@ 0000000180037e10     libcpmt:xthrow.obj
 0002:00004e20       ??_C@_0BC@DPJNKNAF@bad?5function?5call@ 0000000180037e20     libcpmt:xthrow.obj
 0002:00004e40       ??_7logic_error@std@@6B@   0000000180037e40     libcpmt:xthrow.obj
 0002:00004e58       ??_7length_error@std@@6B@  0000000180037e58     libcpmt:xthrow.obj
 0002:00004e70       ??_7type_info@@6B@         0000000180037e70     LIBCMT:std_type_info_static.obj
 0002:00004e80       ??_C@_1EC@JIJBPKFM@?$AAa?$AAp?$AAi?$AA?9?$AAm?$AAs?$AA?9?$AAw?$AAi?$AAn?$AA?9?$AAc?$AAo?$AAr?$AAe@ 0000000180037e80     LIBCMT:thread_safe_statics.obj
 0002:00004ec8       ??_C@_0BJ@JEBJOJFJ@SleepConditionVariableCS@ 0000000180037ec8     LIBCMT:thread_safe_statics.obj
 0002:00004ee8       ??_C@_0BJ@PGPPEPCC@WakeAllConditionVariable@ 0000000180037ee8     LIBCMT:thread_safe_statics.obj
 0002:00004f08       _pRawDllMain               0000000180037f08     LIBCMT:dll_dllmain.obj
 0002:00004f08       _pDefaultRawDllMain        0000000180037f08     LIBCMT:dll_dllmain.obj
 0002:00004f10       __xmm@ffffffffffffffffffffffffffffffff 0000000180037f10     LIBCMT:utility.obj
 0002:00004f30       ?s_negLengthTab@FH4@@3QBCB 0000000180037f30     libvcruntime:risctrnsctrl.obj
 0002:00004f40       ?s_shiftTab@FH4@@3QBEB     0000000180037f40     libvcruntime:risctrnsctrl.obj
 0002:00004fe8       _pDestructExceptionObject  0000000180037fe8     libvcruntime:ehhelpers.obj
 0002:00004ff8       ??_7bad_exception@std@@6B@ 0000000180037ff8     libvcruntime:frame.obj
 0002:00005008       ??_C@_0O@DPKOEFFH@bad?5exception@ 0000000180038008     libvcruntime:frame.obj
 0002:00005720       ??_C@_08EHJDFFNH@__based?$CI@ 0000000180038720     libvcruntime:undname.obj
 0002:00005730       ??_C@_07KOLFKCDI@__cdecl@  0000000180038730     libvcruntime:undname.obj
 0002:00005738       ??_C@_08GHMPAG@__pascal@   0000000180038738     libvcruntime:undname.obj
 0002:00005748       ??_C@_09IFJBGAPI@__stdcall@ 0000000180038748     libvcruntime:undname.obj
 0002:00005758       ??_C@_0L@NPHFGOKO@__thiscall@ 0000000180038758     libvcruntime:undname.obj
 0002:00005768       ??_C@_0L@JMKHOMEK@__fastcall@ 0000000180038768     libvcruntime:undname.obj
 0002:00005778       ??_C@_0N@BCKKPABJ@__vectorcall@ 0000000180038778     libvcruntime:undname.obj
 0002:00005788       ??_C@_09HIJEGCPM@__clrcall@ 0000000180038788     libvcruntime:undname.obj
 0002:00005794       ??_C@_06GHPCKEAG@__eabi@   0000000180038794     libvcruntime:undname.obj
 0002:000057a0       ??_C@_09IOPIDJLG@__swift_1@ 00000001800387a0     libvcruntime:undname.obj
 0002:000057b0       ??_C@_09KFNFGKHF@__swift_2@ 00000001800387b0     libvcruntime:undname.obj
 0002:000057c0       ??_C@_07JOMMBBKO@__ptr64@  00000001800387c0     libvcruntime:undname.obj
 0002:000057c8       ??_C@_0L@PILCLIHE@__restrict@ 00000001800387c8     libvcruntime:undname.obj
 0002:000057d8       ??_C@_0M@GFIIJFMG@__unaligned@ 00000001800387d8     libvcruntime:undname.obj
 0002:000057e8       ??_C@_09DHDLOLLB@restrict?$CI@ 00000001800387e8     libvcruntime:undname.obj
 0002:000057f4       ??_C@_04NIHEBCM@?5new@     00000001800387f4     libvcruntime:undname.obj
 0002:00005800       ??_C@_07FPCDHGMM@?5delete@ 0000000180038800     libvcruntime:undname.obj
 0002:00005808       ??_C@_01NEMOKFLO@?$DN@     0000000180038808     libvcruntime:undname.obj
 0002:0000580c       ??_C@_02GPIOPFAK@?$DO?$DO@ 000000018003880c     libvcruntime:undname.obj
 0002:00005810       ??_C@_02FODMEDOG@?$DM?$DM@ 0000000180038810     libvcruntime:undname.obj
 0002:00005814       ??_C@_01DCLJPIOD@?$CB@     0000000180038814     libvcruntime:undname.obj
 0002:00005818       ??_C@_02EGOFBIJA@?$DN?$DN@ 0000000180038818     libvcruntime:undname.obj
 0002:0000581c       ??_C@_02FDNJECIE@?$CB?$DN@ 000000018003881c     libvcruntime:undname.obj
 0002:00005820       ??_C@_02GPECMEKF@?$FL?$FN@ 0000000180038820     libvcruntime:undname.obj
 0002:00005828       ??_C@_08LHJFAFGD@operator@ 0000000180038828     libvcruntime:undname.obj
 0002:00005834       ??_C@_02HBOOOICD@?9?$DO@   0000000180038834     libvcruntime:undname.obj
 0002:00005838       ??_C@_01NBENCBCI@?$CK@     0000000180038838     libvcruntime:undname.obj
 0002:0000583c       ??_C@_02ECNGHCIF@?$CL?$CL@ 000000018003883c     libvcruntime:undname.obj
 0002:00005840       ??_C@_02BAABKJLB@?9?9@     0000000180038840     libvcruntime:undname.obj
 0002:00005844       ??_C@_01JOAMLHOP@?9@       0000000180038844     libvcruntime:undname.obj
 0002:00005848       ??_C@_01MIFGBAGJ@?$CL@     0000000180038848     libvcruntime:undname.obj
 0002:0000584c       ??_C@_01HNPIGOCE@?$CG@     000000018003884c     libvcruntime:undname.obj
 0002:00005850       ??_C@_03MNHNFDLC@?9?$DO?$CK@ 0000000180038850     libvcruntime:undname.obj
 0002:00005854       ??_C@_01KMDKNFGN@?1@       0000000180038854     libvcruntime:undname.obj
 0002:00005858       ??_C@_01FGNFDNOH@?$CF@     0000000180038858     libvcruntime:undname.obj
 0002:0000585c       ??_C@_01MNNFJEPP@?$DM@     000000018003885c     libvcruntime:undname.obj
 0002:00005860       ??_C@_02EHCHHCKH@?$DM?$DN@ 0000000180038860     libvcruntime:undname.obj
 0002:00005864       ??_C@_01PPODPGHN@?$DO@     0000000180038864     libvcruntime:undname.obj
 0002:00005868       ??_C@_02EEKDKGMJ@?$DO?$DN@ 0000000180038868     libvcruntime:undname.obj
 0002:0000586c       ??_C@_01IHBHIGKO@?0@       000000018003886c     libvcruntime:undname.obj
 0002:00005870       ??_C@_02HCKGKOFO@?$CI?$CJ@ 0000000180038870     libvcruntime:undname.obj
 0002:00005874       ??_C@_01PJKLJHI@?$HO@      0000000180038874     libvcruntime:undname.obj
 0002:00005878       ??_C@_01JKBOJNNK@?$FO@     0000000180038878     libvcruntime:undname.obj
 0002:0000587c       ??_C@_01DNKMNLPK@?$HM@     000000018003887c     libvcruntime:undname.obj
 0002:00005880       ??_C@_02PPKAJPJL@?$CG?$CG@ 0000000180038880     libvcruntime:undname.obj
 0002:00005884       ??_C@_02NONPIBCD@?$HM?$HM@ 0000000180038884     libvcruntime:undname.obj
 0002:00005888       ??_C@_02FPIMKNGF@?$CK?$DN@ 0000000180038888     libvcruntime:undname.obj
 0002:0000588c       ??_C@_02FOEOMHFC@?$CL?$DN@ 000000018003888c     libvcruntime:undname.obj
 0002:00005890       ??_C@_02FKMDLLOA@?9?$DN@   0000000180038890     libvcruntime:undname.obj
 0002:00005894       ??_C@_02FJEHGPIO@?1?$DN@   0000000180038894     libvcruntime:undname.obj
 0002:00005898       ??_C@_02FENAOKFI@?$CF?$DN@ 0000000180038898     libvcruntime:undname.obj
 0002:0000589c       ??_C@_03IKFCCPFF@?$DO?$DO?$DN@ 000000018003889c     libvcruntime:undname.obj
 0002:000058a0       ??_C@_03CDNPDDLA@?$DM?$DM?$DN@ 00000001800388a0     libvcruntime:undname.obj
 0002:000058a4       ??_C@_02FGJGFEAB@?$CG?$DN@ 00000001800388a4     libvcruntime:undname.obj
 0002:000058a8       ??_C@_02DHLNPPGH@?$HM?$DN@ 00000001800388a8     libvcruntime:undname.obj
 0002:000058ac       ??_C@_02MHEGNOJ@?$FO?$DN@  00000001800388ac     libvcruntime:undname.obj
 0002:000058b0       ??_C@_09IFPLHPGF@?$GAvftable?8@ 00000001800388b0     libvcruntime:undname.obj
 0002:000058c0       ??_C@_09BLBHBJP@?$GAvbtable?8@ 00000001800388c0     libvcruntime:undname.obj
 0002:000058d0       ??_C@_07FEEIOKP@?$GAvcall?8@ 00000001800388d0     libvcruntime:undname.obj
 0002:000058d8       ??_C@_08LLFFHHDJ@?$GAtypeof?8@ 00000001800388d8     libvcruntime:undname.obj
 0002:000058e8       ??_C@_0BF@KDPPACIK@?$GAlocal?5static?5guard?8@ 00000001800388e8     libvcruntime:undname.obj
 0002:00005900       ??_C@_08OBABFOLI@?$GAstring?8@ 0000000180038900     libvcruntime:undname.obj
 0002:00005910       ??_C@_0BD@JDLKDPAB@?$GAvbase?5destructor?8@ 0000000180038910     libvcruntime:undname.obj
 0002:00005928       ??_C@_0BN@DEGPLNFK@?$GAvector?5deleting?5destructor?8@ 0000000180038928     libvcruntime:undname.obj
 0002:00005948       ??_C@_0BO@OBMKPJIG@?$GAdefault?5constructor?5closure?8@ 0000000180038948     libvcruntime:undname.obj
 0002:00005968       ??_C@_0BN@IMDCHIKM@?$GAscalar?5deleting?5destructor?8@ 0000000180038968     libvcruntime:undname.obj
 0002:00005988       ??_C@_0BO@PFGOCPJJ@?$GAvector?5constructor?5iterator?8@ 0000000180038988     libvcruntime:undname.obj
 0002:000059a8       ??_C@_0BN@LFPFMEDL@?$GAvector?5destructor?5iterator?8@ 00000001800389a8     libvcruntime:undname.obj
 0002:000059c8       ??_C@_0CE@IKBNEHA@?$GAvector?5vbase?5constructor?5itera@ 00000001800389c8     libvcruntime:undname.obj
 0002:000059f0       ??_C@_0BL@NILFHHPC@?$GAvirtual?5displacement?5map?8@ 00000001800389f0     libvcruntime:undname.obj
 0002:00005a10       ??_C@_0CB@JONCMFFK@?$GAeh?5vector?5constructor?5iterator@ 0000000180038a10     libvcruntime:undname.obj
 0002:00005a38       ??_C@_0CA@GCEOPDGL@?$GAeh?5vector?5destructor?5iterator?8@ 0000000180038a38     libvcruntime:undname.obj
 0002:00005a58       ??_C@_0CH@OOJPLCPH@?$GAeh?5vector?5vbase?5constructor?5it@ 0000000180038a58     libvcruntime:undname.obj
 0002:00005a80       ??_C@_0BL@LLKPOHJI@?$GAcopy?5constructor?5closure?8@ 0000000180038a80     libvcruntime:undname.obj
 0002:00005aa0       ??_C@_0BA@KBCDOMBN@?$GAudt?5returning?8@ 0000000180038aa0     libvcruntime:undname.obj
 0002:00005ab0       ??_C@_03KLGMFNMG@?$GAEH@   0000000180038ab0     libvcruntime:undname.obj
 0002:00005ab4       ??_C@_05KHLCHHI@?$GARTTI@  0000000180038ab4     libvcruntime:undname.obj
 0002:00005ac0       ??_C@_0BA@KKLDJDLB@?$GAlocal?5vftable?8@ 0000000180038ac0     libvcruntime:undname.obj
 0002:00005ad0       ??_C@_0CE@IIHCMGGL@?$GAlocal?5vftable?5constructor?5clos@ 0000000180038ad0     libvcruntime:undname.obj
 0002:00005af4       ??_C@_06FHBGPFGH@?5new?$FL?$FN@ 0000000180038af4     libvcruntime:undname.obj
 0002:00005b00       ??_C@_09LBNFPBCA@?5delete?$FL?$FN@ 0000000180038b00     libvcruntime:undname.obj
 0002:00005b10       ??_C@_0P@HJKNJFNN@?$GAomni?5callsig?8@ 0000000180038b10     libvcruntime:undname.obj
 0002:00005b20       ??_C@_0BL@CNOONJFP@?$GAplacement?5delete?5closure?8@ 0000000180038b20     libvcruntime:undname.obj
 0002:00005b40       ??_C@_0BN@CKNJLHMB@?$GAplacement?5delete?$FL?$FN?5closure?8@ 0000000180038b40     libvcruntime:undname.obj
 0002:00005b60       ??_C@_0CG@CFDHKGGD@?$GAmanaged?5vector?5constructor?5ite@ 0000000180038b60     libvcruntime:undname.obj
 0002:00005b88       ??_C@_0CF@IMGKMJNO@?$GAmanaged?5vector?5destructor?5iter@ 0000000180038b88     libvcruntime:undname.obj
 0002:00005bb0       ??_C@_0CG@HLDDJMAG@?$GAeh?5vector?5copy?5constructor?5ite@ 0000000180038bb0     libvcruntime:undname.obj
 0002:00005bd8       ??_C@_0CM@FCBBDIGB@?$GAeh?5vector?5vbase?5copy?5construct@ 0000000180038bd8     libvcruntime:undname.obj
 0002:00005c08       ??_C@_0BL@CLIPGLGB@?$GAdynamic?5initializer?5for?5?8@ 0000000180038c08     libvcruntime:undname.obj
 0002:00005c28       ??_C@_0CB@PDBIFEP@?$GAdynamic?5atexit?5destructor?5for?5@ 0000000180038c28     libvcruntime:undname.obj
 0002:00005c50       ??_C@_0CD@CGAJBKEJ@?$GAvector?5copy?5constructor?5iterat@ 0000000180038c50     libvcruntime:undname.obj
 0002:00005c78       ??_C@_0CJ@GJELGAMM@?$GAvector?5vbase?5copy?5constructor?5@ 0000000180038c78     libvcruntime:undname.obj
 0002:00005ca8       ??_C@_0CL@FGIJHLCE@?$GAmanaged?5vector?5copy?5constructo@ 0000000180038ca8     libvcruntime:undname.obj
 0002:00005cd8       ??_C@_0BM@PMGGMLDN@?$GAlocal?5static?5thread?5guard?8@ 0000000180038cd8     libvcruntime:undname.obj
 0002:00005cf8       ??_C@_0N@BDNMDMOL@operator?5?$CC?$CC?5@ 0000000180038cf8     libvcruntime:undname.obj
 0002:00005d08       ??_C@_0BC@GGEBGALA@operator?5co_await@ 0000000180038d08     libvcruntime:undname.obj
 0002:00005d20       ??_C@_0M@GAAIMMOH@operator?$DM?$DN?$DO@ 0000000180038d20     libvcruntime:undname.obj
 0002:00005d30       ??_C@_0BC@DAFEJGAK@?5Type?5Descriptor?8@ 0000000180038d30     libvcruntime:undname.obj
 0002:00005d48       ??_C@_0BM@LDKODKLH@?5Base?5Class?5Descriptor?5at?5?$CI@ 0000000180038d48     libvcruntime:undname.obj
 0002:00005d68       ??_C@_0BD@LGICGFMM@?5Base?5Class?5Array?8@ 0000000180038d68     libvcruntime:undname.obj
 0002:00005d80       ??_C@_0BN@MECKDCOJ@?5Class?5Hierarchy?5Descriptor?8@ 0000000180038d80     libvcruntime:undname.obj
 0002:00005da0       ??_C@_0BK@CFCOFLF@?5Complete?5Object?5Locator?8@ 0000000180038da0     libvcruntime:undname.obj
 0002:00005dc0       ??_C@_0BG@JNJLAMPM@?$GAanonymous?5namespace?8@ 0000000180038dc0     libvcruntime:undname.obj
 0002:00005df0       ??_C@_1DM@KHCHBNEB@?$AAa?$AAp?$AAi?$AA?9?$AAm?$AAs?$AA?9?$AAw?$AAi?$AAn?$AA?9?$AAc?$AAo?$AAr?$AAe@ 0000000180038df0     libvcruntime:winapi_downlevel.obj
 0002:00005e30       ??_C@_1DK@LPPGFMPP@?$AAa?$AAp?$AAi?$AA?9?$AAm?$AAs?$AA?9?$AAw?$AAi?$AAn?$AA?9?$AAc?$AAo?$AAr?$AAe@ 0000000180038e30     libvcruntime:winapi_downlevel.obj
 0002:00005e70       ??_C@_1BC@GDMECMAK@?$AAk?$AAe?$AAr?$AAn?$AAe?$AAl?$AA3?$AA2@ 0000000180038e70     libvcruntime:winapi_downlevel.obj
 0002:00005e88       ??_C@_1BA@PFFKHIOG@?$AAa?$AAp?$AAi?$AA?9?$AAm?$AAs?$AA?9@ 0000000180038e88     libvcruntime:winapi_downlevel.obj
 0002:00005ea0       ??_C@_08KNHFBNJ@FlsAlloc@  0000000180038ea0     libvcruntime:winapi_downlevel.obj
 0002:00005eb8       ??_C@_07PEJMOBNF@FlsFree@  0000000180038eb8     libvcruntime:winapi_downlevel.obj
 0002:00005ec8       ??_C@_0M@GDNOONDI@FlsGetValue@ 0000000180038ec8     libvcruntime:winapi_downlevel.obj
 0002:00005ee0       ??_C@_0M@JCPCPOEF@FlsSetValue@ 0000000180038ee0     libvcruntime:winapi_downlevel.obj
 0002:00005ef8       ??_C@_0BM@HCFOFFN@InitializeCriticalSectionEx@ 0000000180038ef8     libvcruntime:winapi_downlevel.obj
 0002:00005f20       ?standard_lookup_table_spectre@__crt_stdio_output@@3V?$spectre_mitigated_lookup_table@Ustate_transition_pair@__crt_stdio_output@@$0IA@@1@B 0000000180038f20     libucrt:output.obj
 0002:00006320       ??_C@_1O@CEDCILHN@?$AA?$CI?$AAn?$AAu?$AAl?$AAl?$AA?$CJ@ 0000000180039320     libucrt:output.obj
 0002:00006330       ??_C@_06OJHGLDPL@?$CInull?$CJ@ 0000000180039330     libucrt:output.obj
 0002:000064b0       __acrt_exception_action_table 00000001800394b0     libucrt:exception_filter.obj
 0002:00006570       __acrt_signal_action_table_count 0000000180039570     libucrt:exception_filter.obj
 0002:00006578       __acrt_signal_action_first_fpe_index 0000000180039578     libucrt:exception_filter.obj
 0002:00006580       __acrt_signal_action_fpe_count 0000000180039580     libucrt:exception_filter.obj
 0002:00006588       ??_C@_1BI@BGOHAHKC@?$AAm?$AAs?$AAc?$AAo?$AAr?$AAe?$AAe?$AA?4?$AAd?$AAl?$AAl@ 0000000180039588     libucrt:exit.obj
 0002:000065a0       ??_C@_0P@MIGLKIOC@CorExitProcess@ 00000001800395a0     libucrt:exit.obj
 0002:00006730       ??_C@_03OEIAHPBN@INF@      0000000180039730     libucrt:cvt.obj
 0002:00006734       ??_C@_03OJHLLCGB@inf@      0000000180039734     libucrt:cvt.obj
 0002:00006738       ??_C@_03LKNCIKJB@NAN@      0000000180039738     libucrt:cvt.obj
 0002:0000673c       ??_C@_03LHCJEHON@nan@      000000018003973c     libucrt:cvt.obj
 0002:00006740       ??_C@_09OFJJIMPC@NAN?$CISNAN?$CJ@ 0000000180039740     libucrt:cvt.obj
 0002:00006750       ??_C@_09IPFBKMDL@nan?$CIsnan?$CJ@ 0000000180039750     libucrt:cvt.obj
 0002:00006760       ??_C@_08IKHNHAJ@NAN?$CIIND?$CJ@ 0000000180039760     libucrt:cvt.obj
 0002:00006770       ??_C@_08OFCDMILK@nan?$CIind?$CJ@ 0000000180039770     libucrt:cvt.obj
 0002:0000677c       ??_C@_05KLBDPFGC@e?$CL000@ 000000018003977c     libucrt:cvt.obj
 0002:00006790       __lc_time_c                0000000180039790     libucrt:nlsdata.obj
 0002:00006a50       ??_C@_03KOEHGMDN@Sun@      0000000180039a50     libucrt:nlsdata.obj
 0002:00006a54       ??_C@_03PDAGKDH@Mon@       0000000180039a54     libucrt:nlsdata.obj
 0002:00006a58       ??_C@_03NAGEINEP@Tue@      0000000180039a58     libucrt:nlsdata.obj
 0002:00006a5c       ??_C@_03MHOMLAJA@Wed@      0000000180039a5c     libucrt:nlsdata.obj
 0002:00006a60       ??_C@_03IOFIKPDN@Thu@      0000000180039a60     libucrt:nlsdata.obj
 0002:00006a64       ??_C@_03IDIOELNC@Fri@      0000000180039a64     libucrt:nlsdata.obj
 0002:00006a68       ??_C@_03FEFJNEK@Sat@       0000000180039a68     libucrt:nlsdata.obj
 0002:00006a6c       ??_C@_06OOPIFAJ@Sunday@    0000000180039a6c     libucrt:nlsdata.obj
 0002:00006a74       ??_C@_06JLEDEDGH@Monday@   0000000180039a74     libucrt:nlsdata.obj
 0002:00006a80       ??_C@_07BAAGCFCM@Tuesday@  0000000180039a80     libucrt:nlsdata.obj
 0002:00006a88       ??_C@_09DLIGFAKA@Wednesday@ 0000000180039a88     libucrt:nlsdata.obj
 0002:00006a98       ??_C@_08HACCIKIA@Thursday@ 0000000180039a98     libucrt:nlsdata.obj
 0002:00006aa4       ??_C@_06JECMNKMI@Friday@   0000000180039aa4     libucrt:nlsdata.obj
 0002:00006ab0       ??_C@_08INBOOONO@Saturday@ 0000000180039ab0     libucrt:nlsdata.obj
 0002:00006abc       ??_C@_03JIHJHPIE@Jan@      0000000180039abc     libucrt:nlsdata.obj
 0002:00006ac0       ??_C@_03HJBDCHOM@Feb@      0000000180039ac0     libucrt:nlsdata.obj
 0002:00006ac4       ??_C@_03ODNJBKGA@Mar@      0000000180039ac4     libucrt:nlsdata.obj
 0002:00006ac8       ??_C@_03LEOLGMJP@Apr@      0000000180039ac8     libucrt:nlsdata.obj
 0002:00006acc       ??_C@_03CNMDKL@May@        0000000180039acc     libucrt:nlsdata.obj
 0002:00006ad0       ??_C@_03IDFGHECI@Jun@      0000000180039ad0     libucrt:nlsdata.obj
 0002:00006ad4       ??_C@_03LBGABGKK@Jul@      0000000180039ad4     libucrt:nlsdata.obj
 0002:00006ad8       ??_C@_03IFJFEIGA@Aug@      0000000180039ad8     libucrt:nlsdata.obj
 0002:00006adc       ??_C@_03GGCAPAJC@Sep@      0000000180039adc     libucrt:nlsdata.obj
 0002:00006ae0       ??_C@_03BMAOKBAD@Oct@      0000000180039ae0     libucrt:nlsdata.obj
 0002:00006ae4       ??_C@_03JPJOFNIA@Nov@      0000000180039ae4     libucrt:nlsdata.obj
 0002:00006ae8       ??_C@_03MKABNOCG@Dec@      0000000180039ae8     libucrt:nlsdata.obj
 0002:00006af0       ??_C@_07CGJPFGJA@January@  0000000180039af0     libucrt:nlsdata.obj
 0002:00006af8       ??_C@_08GNJGEPFN@February@ 0000000180039af8     libucrt:nlsdata.obj
 0002:00006b04       ??_C@_05HPCKOFNC@March@    0000000180039b04     libucrt:nlsdata.obj
 0002:00006b0c       ??_C@_05DMJDNLEJ@April@    0000000180039b0c     libucrt:nlsdata.obj
 0002:00006b14       ??_C@_04CNLMGBGM@June@     0000000180039b14     libucrt:nlsdata.obj
 0002:00006b1c       ??_C@_04MIEPOIFP@July@     0000000180039b1c     libucrt:nlsdata.obj
 0002:00006b24       ??_C@_06LBBHFDDG@August@   0000000180039b24     libucrt:nlsdata.obj
 0002:00006b30       ??_C@_09BHHEALKD@September@ 0000000180039b30     libucrt:nlsdata.obj
 0002:00006b40       ??_C@_07JJNFCEND@October@  0000000180039b40     libucrt:nlsdata.obj
 0002:00006b48       ??_C@_08HCHEGEOA@November@ 0000000180039b48     libucrt:nlsdata.obj
 0002:00006b58       ??_C@_08EDHMEBNP@December@ 0000000180039b58     libucrt:nlsdata.obj
 0002:00006b64       ??_C@_02DEDBPAFC@AM@       0000000180039b64     libucrt:nlsdata.obj
 0002:00006b68       ??_C@_02CJNFDJBF@PM@       0000000180039b68     libucrt:nlsdata.obj
 0002:00006b70       ??_C@_08BPBNCDIB@MM?1dd?1yy@ 0000000180039b70     libucrt:nlsdata.obj
 0002:00006b80       ??_C@_0BE@CKGJFCPC@dddd?0?5MMMM?5dd?0?5yyyy@ 0000000180039b80     libucrt:nlsdata.obj
 0002:00006b98       ??_C@_08JCCMCCIL@HH?3mm?3ss@ 0000000180039b98     libucrt:nlsdata.obj
 0002:00006ba8       ??_C@_17MBGCMIPB@?$AAS?$AAu?$AAn@ 0000000180039ba8     libucrt:nlsdata.obj
 0002:00006bb0       ??_C@_17KBOMKBF@?$AAM?$AAo?$AAn@ 0000000180039bb0     libucrt:nlsdata.obj
 0002:00006bb8       ??_C@_17BMKGEGOJ@?$AAT?$AAu?$AAe@ 0000000180039bb8     libucrt:nlsdata.obj
 0002:00006bc0       ??_C@_17CJEDCEPE@?$AAW?$AAe?$AAd@ 0000000180039bc0     libucrt:nlsdata.obj
 0002:00006bc8       ??_C@_17PDPHAADD@?$AAT?$AAh?$AAu@ 0000000180039bc8     libucrt:nlsdata.obj
 0002:00006bd0       ??_C@_17HFOLPPLP@?$AAF?$AAr?$AAi@ 0000000180039bd0     libucrt:nlsdata.obj
 0002:00006bd8       ??_C@_17GGIBDPIH@?$AAS?$AAa?$AAt@ 0000000180039bd8     libucrt:nlsdata.obj
 0002:00006be0       ??_C@_1O@IHNHDHPB@?$AAS?$AAu?$AAn?$AAd?$AAa?$AAy@ 0000000180039be0     libucrt:nlsdata.obj
 0002:00006bf0       ??_C@_1O@MMNBFLIA@?$AAM?$AAo?$AAn?$AAd?$AAa?$AAy@ 0000000180039bf0     libucrt:nlsdata.obj
 0002:00006c00       ??_C@_1BA@ENFBFFEK@?$AAT?$AAu?$AAe?$AAs?$AAd?$AAa?$AAy@ 0000000180039c00     libucrt:nlsdata.obj
 0002:00006c10       ??_C@_1BE@EBOGMDOH@?$AAW?$AAe?$AAd?$AAn?$AAe?$AAs?$AAd?$AAa?$AAy@ 0000000180039c10     libucrt:nlsdata.obj
 0002:00006c28       ??_C@_1BC@HHMNLIHE@?$AAT?$AAh?$AAu?$AAr?$AAs?$AAd?$AAa?$AAy@ 0000000180039c28     libucrt:nlsdata.obj
 0002:00006c40       ??_C@_1O@PDICJHAG@?$AAF?$AAr?$AAi?$AAd?$AAa?$AAy@ 0000000180039c40     libucrt:nlsdata.obj
 0002:00006c50       ??_C@_1BC@ENMNNPAJ@?$AAS?$AAa?$AAt?$AAu?$AAr?$AAd?$AAa?$AAy@ 0000000180039c50     libucrt:nlsdata.obj
 0002:00006c68       ??_C@_17DKNBKCHM@?$AAJ?$AAa?$AAn@ 0000000180039c68     libucrt:nlsdata.obj
 0002:00006c70       ??_C@_17LMDJEKJN@?$AAF?$AAe?$AAb@ 0000000180039c70     libucrt:nlsdata.obj
 0002:00006c78       ??_C@_17CKNLEDEC@?$AAM?$AAa?$AAr@ 0000000180039c78     libucrt:nlsdata.obj
 0002:00006c80       ??_C@_17LFPOIHDD@?$AAA?$AAp?$AAr@ 0000000180039c80     libucrt:nlsdata.obj
 0002:00006c88       ??_C@_17PNNKMEED@?$AAM?$AAa?$AAy@ 0000000180039c88     libucrt:nlsdata.obj
 0002:00006c90       ??_C@_17KCJGOCPB@?$AAJ?$AAu?$AAn@ 0000000180039c90     libucrt:nlsdata.obj
 0002:00006c98       ??_C@_17IJPCKHK@?$AAJ?$AAu?$AAl@ 0000000180039c98     libucrt:nlsdata.obj
 0002:00006ca0       ??_C@_17ICPELBCN@?$AAA?$AAu?$AAg@ 0000000180039ca0     libucrt:nlsdata.obj
 0002:00006ca8       ??_C@_17HCHCOKMG@?$AAS?$AAe?$AAp@ 0000000180039ca8     libucrt:nlsdata.obj
 0002:00006cb0       ??_C@_17FNLKOI@?$AAO?$AAc?$AAt@ 0000000180039cb0     libucrt:nlsdata.obj
 0002:00006cb8       ??_C@_17BBDMLCIG@?$AAN?$AAo?$AAv@ 0000000180039cb8     libucrt:nlsdata.obj
 0002:00006cc0       ??_C@_17EGKACKIF@?$AAD?$AAe?$AAc@ 0000000180039cc0     libucrt:nlsdata.obj
 0002:00006cc8       ??_C@_1BA@EFMEIEBA@?$AAJ?$AAa?$AAn?$AAu?$AAa?$AAr?$AAy@ 0000000180039cc8     libucrt:nlsdata.obj
 0002:00006cd8       ??_C@_1BC@JGDDFFAM@?$AAF?$AAe?$AAb?$AAr?$AAu?$AAa?$AAr?$AAy@ 0000000180039cd8     libucrt:nlsdata.obj
 0002:00006cf0       ??_C@_1M@IKEENEDF@?$AAM?$AAa?$AAr?$AAc?$AAh@ 0000000180039cf0     libucrt:nlsdata.obj
 0002:00006d00       ??_C@_1M@GJNLMHFD@?$AAA?$AAp?$AAr?$AAi?$AAl@ 0000000180039d00     libucrt:nlsdata.obj
 0002:00006d10       ??_C@_19EPFLPGAP@?$AAJ?$AAu?$AAn?$AAe@ 0000000180039d10     libucrt:nlsdata.obj
 0002:00006d20       ??_C@_19BIFMLPCD@?$AAJ?$AAu?$AAl?$AAy@ 0000000180039d20     libucrt:nlsdata.obj
 0002:00006d30       ??_C@_1O@PAHLKOAC@?$AAA?$AAu?$AAg?$AAu?$AAs?$AAt@ 0000000180039d30     libucrt:nlsdata.obj
 0002:00006d40       ??_C@_1BE@DKAAMBJL@?$AAS?$AAe?$AAp?$AAt?$AAe?$AAm?$AAb?$AAe?$AAr@ 0000000180039d40     libucrt:nlsdata.obj
 0002:00006d58       ??_C@_1BA@EPANDLNG@?$AAO?$AAc?$AAt?$AAo?$AAb?$AAe?$AAr@ 0000000180039d58     libucrt:nlsdata.obj
 0002:00006d68       ??_C@_1BC@BGLIFPF@?$AAN?$AAo?$AAv?$AAe?$AAm?$AAb?$AAe?$AAr@ 0000000180039d68     libucrt:nlsdata.obj
 0002:00006d80       ??_C@_1BC@FEMKIFH@?$AAD?$AAe?$AAc?$AAe?$AAm?$AAb?$AAe?$AAr@ 0000000180039d80     libucrt:nlsdata.obj
 0002:00006d94       ??_C@_15ODEHAHHF@?$AAA?$AAM@ 0000000180039d94     libucrt:nlsdata.obj
 0002:00006d9c       ??_C@_15CLMNNGEL@?$AAP?$AAM@ 0000000180039d9c     libucrt:nlsdata.obj
 0002:00006da8       ??_C@_1BC@IEBCMHCM@?$AAM?$AAM?$AA?1?$AAd?$AAd?$AA?1?$AAy?$AAy@ 0000000180039da8     libucrt:nlsdata.obj
 0002:00006dc0       ??_C@_1CI@KNAKOEBC@?$AAd?$AAd?$AAd?$AAd?$AA?0?$AA?5?$AAM?$AAM?$AAM?$AAM?$AA?5?$AAd?$AAd?$AA?0?$AA?5@ 0000000180039dc0     libucrt:nlsdata.obj
 0002:00006de8       ??_C@_1BC@GDGBMEMK@?$AAH?$AAH?$AA?3?$AAm?$AAm?$AA?3?$AAs?$AAs@ 0000000180039de8     libucrt:nlsdata.obj
 0002:00006e00       ??_C@_1M@BMHNFIME@?$AAe?$AAn?$AA?9?$AAU?$AAS@ 0000000180039e00     libucrt:nlsdata.obj
 0002:00006e10       __newctype                 0000000180039e10     libucrt:ctype.obj
 0002:00007110       __newclmap                 000000018003a110     libucrt:ctype.obj
 0002:00007290       __newcumap                 000000018003a290     libucrt:ctype.obj
 0002:00007410       _wctype                    000000018003a410     libucrt:ctype.obj
 0002:00007638       ??_C@_1M@HPNHIDJI@?$AAj?$AAa?$AA?9?$AAJ?$AAP@ 000000018003a638     libucrt:mbctype.obj
 0002:00007648       ??_C@_1M@BIBDDEMK@?$AAz?$AAh?$AA?9?$AAC?$AAN@ 000000018003a648     libucrt:mbctype.obj
 0002:00007658       ??_C@_1M@JLOOOEGK@?$AAk?$AAo?$AA?9?$AAK?$AAR@ 000000018003a658     libucrt:mbctype.obj
 0002:00007668       ??_C@_1M@CLNBBOPM@?$AAz?$AAh?$AA?9?$AAT?$AAW@ 000000018003a668     libucrt:mbctype.obj
 0002:00007720       ??_C@_1EA@JGEFHKEI@?$AAa?$AAp?$AAi?$AA?9?$AAm?$AAs?$AA?9?$AAw?$AAi?$AAn?$AA?9?$AAc?$AAo?$AAr?$AAe@ 000000018003a720     libucrt:winapi_thunks.obj
 0002:00007760       ??_C@_1DI@IJCEHOCB@?$AAa?$AAp?$AAi?$AA?9?$AAm?$AAs?$AA?9?$AAw?$AAi?$AAn?$AA?9?$AAc?$AAo?$AAr?$AAe@ 000000018003a760     libucrt:winapi_thunks.obj
 0002:000077a0       ??_C@_1EI@MPIAOHOC@?$AAa?$AAp?$AAi?$AA?9?$AAm?$AAs?$AA?9?$AAw?$AAi?$AAn?$AA?9?$AAc?$AAo?$AAr?$AAe@ 000000018003a7a0     libucrt:winapi_thunks.obj
 0002:000077f0       ??_C@_1FK@FPHCKFIE@?$AAa?$AAp?$AAi?$AA?9?$AAm?$AAs?$AA?9?$AAw?$AAi?$AAn?$AA?9?$AAc?$AAo?$AAr?$AAe@ 000000018003a7f0     libucrt:winapi_thunks.obj
 0002:00007850       ??_C@_1EM@DILCGIIO@?$AAa?$AAp?$AAi?$AA?9?$AAm?$AAs?$AA?9?$AAw?$AAi?$AAn?$AA?9?$AAc?$AAo?$AAr?$AAe@ 000000018003a850     libucrt:winapi_thunks.obj
 0002:000078a0       ??_C@_1DM@LNCGDDPN@?$AAa?$AAp?$AAi?$AA?9?$AAm?$AAs?$AA?9?$AAw?$AAi?$AAn?$AA?9?$AAc?$AAo?$AAr?$AAe@ 000000018003a8a0     libucrt:winapi_thunks.obj
 0002:000078e0       ??_C@_1DO@FPAPJEMD@?$AAa?$AAp?$AAi?$AA?9?$AAm?$AAs?$AA?9?$AAw?$AAi?$AAn?$AA?9?$AAc?$AAo?$AAr?$AAe@ 000000018003a8e0     libucrt:winapi_thunks.obj
 0002:00007920       ??_C@_1DK@NDHNAHIO@?$AAa?$AAp?$AAi?$AA?9?$AAm?$AAs?$AA?9?$AAw?$AAi?$AAn?$AA?9?$AAc?$AAo?$AAr?$AAe@ 000000018003a920     libucrt:winapi_thunks.obj
 0002:00007960       ??_C@_1DM@KGHDGBCM@?$AAa?$AAp?$AAi?$AA?9?$AAm?$AAs?$AA?9?$AAw?$AAi?$AAn?$AA?9?$AAc?$AAo?$AAr?$AAe@ 000000018003a960     libucrt:winapi_thunks.obj
 0002:000079a0       ??_C@_1EO@IJIOEFOH@?$AAa?$AAp?$AAi?$AA?9?$AAm?$AAs?$AA?9?$AAw?$AAi?$AAn?$AA?9?$AAr?$AAt?$AAc?$AAo@ 000000018003a9a0     libucrt:winapi_thunks.obj
 0002:000079f0       ??_C@_1FG@HHGEKANL@?$AAa?$AAp?$AAi?$AA?9?$AAm?$AAs?$AA?9?$AAw?$AAi?$AAn?$AA?9?$AAs?$AAe?$AAc?$AAu@ 000000018003a9f0     libucrt:winapi_thunks.obj
 0002:00007a50       ??_C@_1EG@DBIOJECG@?$AAe?$AAx?$AAt?$AA?9?$AAm?$AAs?$AA?9?$AAw?$AAi?$AAn?$AA?9?$AAn?$AAt?$AAu?$AAs@ 000000018003aa50     libucrt:winapi_thunks.obj
 0002:00007aa0       ??_C@_1EO@FIHMJCLF@?$AAe?$AAx?$AAt?$AA?9?$AAm?$AAs?$AA?9?$AAw?$AAi?$AAn?$AA?9?$AAn?$AAt?$AAu?$AAs@ 000000018003aaa0     libucrt:winapi_thunks.obj
 0002:00007af0       ??_C@_1BC@DNHGCMLG@?$AAa?$AAd?$AAv?$AAa?$AAp?$AAi?$AA3?$AA2@ 000000018003aaf0     libucrt:winapi_thunks.obj
 0002:00007b08       ??_C@_1M@OAIMIKLP@?$AAn?$AAt?$AAd?$AAl?$AAl@ 000000018003ab08     libucrt:winapi_thunks.obj
 0002:00007b20       ??_C@_1EG@DPGNFKGC@?$AAa?$AAp?$AAi?$AA?9?$AAm?$AAs?$AA?9?$AAw?$AAi?$AAn?$AA?9?$AAa?$AAp?$AAp?$AAm@ 000000018003ab20     libucrt:winapi_thunks.obj
 0002:00007b68       ??_C@_1O@BCCLBEOE@?$AAu?$AAs?$AAe?$AAr?$AA3?$AA2@ 000000018003ab68     libucrt:winapi_thunks.obj
 0002:00007b78       ??_C@_1BA@IAIFMGEF@?$AAe?$AAx?$AAt?$AA?9?$AAm?$AAs?$AA?9@ 000000018003ab78     libucrt:winapi_thunks.obj
 0002:00007b90       ??_C@_0BA@FHFNEAED@AreFileApisANSI@ 000000018003ab90     libucrt:winapi_thunks.obj
 0002:00007bd0       ??_C@_0O@KKBNKAPF@LCMapStringEx@ 000000018003abd0     libucrt:winapi_thunks.obj
 0002:00007be8       ??_C@_0BB@HBDEELFH@LocaleNameToLCID@ 000000018003abe8     libucrt:winapi_thunks.obj
 0002:00007c00       ??_C@_0CF@OJOFEIGO@AppPolicyGetProcessTerminationM@ 000000018003ac00     libucrt:winapi_thunks.obj
 0002:00007c30       ?large_power_data@?1??multiply_by_power_of_ten@__crt_strtox@@YA_NAEAUbig_integer@2@I@Z@4QBIB 000000018003ac30     libucrt:cfout.obj
 0002:00008540       ?large_power_indices@?1??multiply_by_power_of_ten@__crt_strtox@@YA_NAEAUbig_integer@2@I@Z@4QBUunpack_index@?1??12@YA_N0I@Z@B 000000018003b540     libucrt:cfout.obj
 0002:000085d8       ?small_powers_of_ten@?1??multiply_by_power_of_ten@__crt_strtox@@YA_NAEAUbig_integer@2@I@Z@4QBIB 000000018003b5d8     libucrt:cfout.obj
 0002:000085fc       ??_C@_01GBGANLPD@0@        000000018003b5fc     libucrt:cfout.obj
 0002:00008600       ??_C@_05DNEBIAHO@1?$CDINF@ 000000018003b600     libucrt:cfout.obj
 0002:00008608       ??_C@_06IMKFLFPG@1?$CDQNAN@ 000000018003b608     libucrt:cfout.obj
 0002:00008610       ??_C@_06PGGFOGJG@1?$CDSNAN@ 000000018003b610     libucrt:cfout.obj
 0002:00008618       ??_C@_05PHHOCPM@1?$CDIND@  000000018003b618     libucrt:cfout.obj
 0002:00008620       ??_C@_15PJPFLCCM@?$AAu?$AAk@ 000000018003b620     libucrt:get_qualified_locale.obj
 0002:00009470       ??_C@_15EMKDOKLE@?$AAa?$AAr@ 000000018003c470     libucrt:lcidtoname_downlevel.obj
 0002:00009478       ??_C@_15KNPADPLH@?$AAb?$AAg@ 000000018003c478     libucrt:lcidtoname_downlevel.obj
 0002:00009480       ??_C@_15EDMHLDMO@?$AAc?$AAa@ 000000018003c480     libucrt:lcidtoname_downlevel.obj
 0002:00009488       ??_C@_1O@BPEAJADD@?$AAz?$AAh?$AA?9?$AAC?$AAH?$AAS@ 000000018003c488     libucrt:lcidtoname_downlevel.obj
 0002:00009498       ??_C@_15LJNHCMNK@?$AAc?$AAs@ 000000018003c498     libucrt:lcidtoname_downlevel.obj
 0002:000094a0       ??_C@_15FOMCIDHG@?$AAd?$AAa@ 000000018003c4a0     libucrt:lcidtoname_downlevel.obj
 0002:000094a8       ??_C@_15NBKABECB@?$AAd?$AAe@ 000000018003c4a8     libucrt:lcidtoname_downlevel.obj
 0002:000094b0       ??_C@_15GHPEIIAO@?$AAe?$AAl@ 000000018003c4b0     libucrt:lcidtoname_downlevel.obj
 0002:000094b8       ??_C@_15MNPNEAIF@?$AAe?$AAn@ 000000018003c4b8     libucrt:lcidtoname_downlevel.obj
 0002:000094c0       ??_C@_15GPIOMPMH@?$AAe?$AAs@ 000000018003c4c0     libucrt:lcidtoname_downlevel.obj
 0002:000094c8       ??_C@_15NGLOAKJC@?$AAf?$AAi@ 000000018003c4c8     libucrt:lcidtoname_downlevel.obj
 0002:000094d0       ??_C@_15FBKGNKAM@?$AAf?$AAr@ 000000018003c4d0     libucrt:lcidtoname_downlevel.obj
 0002:000094d8       ??_C@_15KGGCNEFK@?$AAh?$AAe@ 000000018003c4d8     libucrt:lcidtoname_downlevel.obj
 0002:000094e0       ??_C@_15PGHLIDMF@?$AAh?$AAu@ 000000018003c4e0     libucrt:lcidtoname_downlevel.obj
 0002:000094e8       ??_C@_15BIEMAPLM@?$AAi?$AAs@ 000000018003c4e8     libucrt:lcidtoname_downlevel.obj
 0002:000094f0       ??_C@_15IFJLDHAF@?$AAi?$AAt@ 000000018003c4f0     libucrt:lcidtoname_downlevel.obj
 0002:000094f8       ??_C@_15GEMIOCAG@?$AAj?$AAa@ 000000018003c4f8     libucrt:lcidtoname_downlevel.obj
 0002:00009500       ??_C@_15EPELEGJA@?$AAk?$AAo@ 000000018003c500     libucrt:lcidtoname_downlevel.obj
 0002:00009508       ??_C@_15NDDHIMN@?$AAn?$AAl@ 000000018003c508     libucrt:lcidtoname_downlevel.obj
 0002:00009510       ??_C@_15BPIGNHCD@?$AAn?$AAo@ 000000018003c510     libucrt:lcidtoname_downlevel.obj
 0002:00009518       ??_C@_15DEOPBLCG@?$AAp?$AAl@ 000000018003c518     libucrt:lcidtoname_downlevel.obj
 0002:00009520       ??_C@_15KBECGEFG@?$AAp?$AAt@ 000000018003c520     libucrt:lcidtoname_downlevel.obj
 0002:00009528       ??_C@_15GLJCBFMD@?$AAr?$AAo@ 000000018003c528     libucrt:lcidtoname_downlevel.obj
 0002:00009530       ??_C@_15FEDGKCDI@?$AAr?$AAu@ 000000018003c530     libucrt:lcidtoname_downlevel.obj
 0002:00009538       ??_C@_15GLKMLLHM@?$AAh?$AAr@ 000000018003c538     libucrt:lcidtoname_downlevel.obj
 0002:00009540       ??_C@_15CPKMFBDB@?$AAs?$AAk@ 000000018003c540     libucrt:lcidtoname_downlevel.obj
 0002:00009548       ??_C@_15BAAIOGMK@?$AAs?$AAq@ 000000018003c548     libucrt:lcidtoname_downlevel.obj
 0002:00009550       ??_C@_15INNPNOHD@?$AAs?$AAv@ 000000018003c550     libucrt:lcidtoname_downlevel.obj
 0002:00009558       ??_C@_15CABMMOGH@?$AAt?$AAh@ 000000018003c558     libucrt:lcidtoname_downlevel.obj
 0002:00009560       ??_C@_15BPLIHJJM@?$AAt?$AAr@ 000000018003c560     libucrt:lcidtoname_downlevel.obj
 0002:00009568       ??_C@_15NEOEKKDJ@?$AAu?$AAr@ 000000018003c568     libucrt:lcidtoname_downlevel.obj
 0002:00009570       ??_C@_15NFICGAJK@?$AAi?$AAd@ 000000018003c570     libucrt:lcidtoname_downlevel.obj
 0002:00009578       ??_C@_15HPJPHDM@?$AAb?$AAe@ 000000018003c578     libucrt:lcidtoname_downlevel.obj
 0002:00009580       ??_C@_15LCHLGJII@?$AAs?$AAl@ 000000018003c580     libucrt:lcidtoname_downlevel.obj
 0002:00009588       ??_C@_15PCFJPHHO@?$AAe?$AAt@ 000000018003c588     libucrt:lcidtoname_downlevel.obj
 0002:00009590       ??_C@_15HPFPGODN@?$AAl?$AAv@ 000000018003c590     libucrt:lcidtoname_downlevel.obj
 0002:00009598       ??_C@_15NFFGKGLG@?$AAl?$AAt@ 000000018003c598     libucrt:lcidtoname_downlevel.obj
 0002:000095a0       ??_C@_15BDAKCCHN@?$AAf?$AAa@ 000000018003c5a0     libucrt:lcidtoname_downlevel.obj
 0002:000095a8       ??_C@_15NFGIAIAJ@?$AAv?$AAi@ 000000018003c5a8     libucrt:lcidtoname_downlevel.obj
 0002:000095b0       ??_C@_15LMKNDMHN@?$AAh?$AAy@ 000000018003c5b0     libucrt:lcidtoname_downlevel.obj
 0002:000095b8       ??_C@_15IJBHMCFL@?$AAa?$AAz@ 000000018003c5b8     libucrt:lcidtoname_downlevel.obj
 0002:000095c0       ??_C@_15EKOFJABL@?$AAe?$AAu@ 000000018003c5c0     libucrt:lcidtoname_downlevel.obj
 0002:000095c8       ??_C@_15BGHADCNK@?$AAm?$AAk@ 000000018003c5c8     libucrt:lcidtoname_downlevel.obj
 0002:000095d0       ??_C@_15JDNICKHM@?$AAa?$AAf@ 000000018003c5d0     libucrt:lcidtoname_downlevel.obj
 0002:000095d8       ??_C@_15KPJEDBKD@?$AAk?$AAa@ 000000018003c5d8     libucrt:lcidtoname_downlevel.obj
 0002:000095e0       ??_C@_15PDNFFFEO@?$AAf?$AAo@ 000000018003c5e0     libucrt:lcidtoname_downlevel.obj
 0002:000095e8       ??_C@_15OMLEGLOC@?$AAh?$AAi@ 000000018003c5e8     libucrt:lcidtoname_downlevel.obj
 0002:000095f0       ??_C@_15IDNNENKK@?$AAm?$AAs@ 000000018003c5f0     libucrt:lcidtoname_downlevel.obj
 0002:000095f8       ??_C@_15MACJNBMH@?$AAk?$AAk@ 000000018003c5f8     libucrt:lcidtoname_downlevel.obj
 0002:00009600       ??_C@_15DKDJEOND@?$AAk?$AAy@ 000000018003c600     libucrt:lcidtoname_downlevel.obj
 0002:00009608       ??_C@_15DFGDLJBG@?$AAs?$AAw@ 000000018003c608     libucrt:lcidtoname_downlevel.obj
 0002:00009610       ??_C@_15BBFAICNG@?$AAu?$AAz@ 000000018003c610     libucrt:lcidtoname_downlevel.obj
 0002:00009618       ??_C@_15DKNDCGEA@?$AAt?$AAt@ 000000018003c618     libucrt:lcidtoname_downlevel.obj
 0002:00009620       ??_C@_15MGIFMDPL@?$AAp?$AAa@ 000000018003c620     libucrt:lcidtoname_downlevel.obj
 0002:00009628       ??_C@_15HCNDBBA@?$AAg?$AAu@ 000000018003c628     libucrt:lcidtoname_downlevel.obj
 0002:00009630       ??_C@_15FNBEIBON@?$AAt?$AAa@ 000000018003c630     libucrt:lcidtoname_downlevel.obj
 0002:00009638       ??_C@_15NCHGBGLK@?$AAt?$AAe@ 000000018003c638     libucrt:lcidtoname_downlevel.obj
 0002:00009640       ??_C@_15PHPHCBPF@?$AAk?$AAn@ 000000018003c640     libucrt:lcidtoname_downlevel.obj
 0002:00009648       ??_C@_15DLGBCKMP@?$AAm?$AAr@ 000000018003c648     libucrt:lcidtoname_downlevel.obj
 0002:00009650       ??_C@_15EABBLBFF@?$AAs?$AAa@ 000000018003c650     libucrt:lcidtoname_downlevel.obj
 0002:00009658       ??_C@_15CBKOMCOI@?$AAm?$AAn@ 000000018003c658     libucrt:lcidtoname_downlevel.obj
 0002:00009660       ??_C@_15CKDMCJAF@?$AAg?$AAl@ 000000018003c660     libucrt:lcidtoname_downlevel.obj
 0002:00009668       ??_C@_17CNJFBPG@?$AAk?$AAo?$AAk@ 000000018003c668     libucrt:lcidtoname_downlevel.obj
 0002:00009670       ??_C@_17FFBJICPL@?$AAs?$AAy?$AAr@ 000000018003c670     libucrt:lcidtoname_downlevel.obj
 0002:00009678       ??_C@_17KPNDCPAF@?$AAd?$AAi?$AAv@ 000000018003c678     libucrt:lcidtoname_downlevel.obj
 0002:00009680       ??_C@_1M@OKAHONE@?$AAa?$AAr?$AA?9?$AAS?$AAA@ 000000018003c680     libucrt:lcidtoname_downlevel.obj
 0002:00009690       ??_C@_1M@FFFIGIGK@?$AAb?$AAg?$AA?9?$AAB?$AAG@ 000000018003c690     libucrt:lcidtoname_downlevel.obj
 0002:000096a0       ??_C@_1M@BJNKEDC@?$AAc?$AAa?$AA?9?$AAE?$AAS@ 000000018003c6a0     libucrt:lcidtoname_downlevel.obj
 0002:000096b0       ??_C@_1M@IJJHFJHA@?$AAc?$AAs?$AA?9?$AAC?$AAZ@ 000000018003c6b0     libucrt:lcidtoname_downlevel.obj
 0002:000096c0       ??_C@_1M@CLPEOBGI@?$AAd?$AAa?$AA?9?$AAD?$AAK@ 000000018003c6c0     libucrt:lcidtoname_downlevel.obj
 0002:000096d0       ??_C@_1M@MCMADGCB@?$AAd?$AAe?$AA?9?$AAD?$AAE@ 000000018003c6d0     libucrt:lcidtoname_downlevel.obj
 0002:000096e0       ??_C@_1M@OOCKEMAM@?$AAe?$AAl?$AA?9?$AAG?$AAR@ 000000018003c6e0     libucrt:lcidtoname_downlevel.obj
 0002:000096f0       ??_C@_1M@DDNJFGID@?$AAf?$AAi?$AA?9?$AAF?$AAI@ 000000018003c6f0     libucrt:lcidtoname_downlevel.obj
 0002:00009700       ??_C@_1M@GLIPPMAC@?$AAf?$AAr?$AA?9?$AAF?$AAR@ 000000018003c700     libucrt:lcidtoname_downlevel.obj
 0002:00009710       ??_C@_1M@GFMCHPE@?$AAh?$AAe?$AA?9?$AAI?$AAL@ 000000018003c710     libucrt:lcidtoname_downlevel.obj
 0002:00009720       ??_C@_1M@MHLPGNKM@?$AAh?$AAu?$AA?9?$AAH?$AAU@ 000000018003c720     libucrt:lcidtoname_downlevel.obj
 0002:00009730       ??_C@_1M@LPDDNNPN@?$AAi?$AAs?$AA?9?$AAI?$AAS@ 000000018003c730     libucrt:lcidtoname_downlevel.obj
 0002:00009740       ??_C@_1M@MADIPODN@?$AAi?$AAt?$AA?9?$AAI?$AAT@ 000000018003c740     libucrt:lcidtoname_downlevel.obj
 0002:00009750       ??_C@_1M@IHBJJGG@?$AAn?$AAl?$AA?9?$AAN?$AAL@ 000000018003c750     libucrt:lcidtoname_downlevel.obj
 0002:00009760       ??_C@_1M@EANAGDL@?$AAn?$AAb?$AA?9?$AAN?$AAO@ 000000018003c760     libucrt:lcidtoname_downlevel.obj
 0002:00009770       ??_C@_1M@NEIEMEGP@?$AAp?$AAl?$AA?9?$AAP?$AAL@ 000000018003c770     libucrt:lcidtoname_downlevel.obj
 0002:00009780       ??_C@_1M@BOCFIGEP@?$AAp?$AAt?$AA?9?$AAB?$AAR@ 000000018003c780     libucrt:lcidtoname_downlevel.obj
 0002:00009790       ??_C@_1M@IMPFOPBG@?$AAr?$AAo?$AA?9?$AAR?$AAO@ 000000018003c790     libucrt:lcidtoname_downlevel.obj
 0002:000097a0       ??_C@_1M@IDNNEJMM@?$AAr?$AAu?$AA?9?$AAR?$AAU@ 000000018003c7a0     libucrt:lcidtoname_downlevel.obj
 0002:000097b0       ??_C@_1M@LILEEOGM@?$AAh?$AAr?$AA?9?$AAH?$AAR@ 000000018003c7b0     libucrt:lcidtoname_downlevel.obj
 0002:000097c0       ??_C@_1M@FKIFEHPB@?$AAs?$AAk?$AA?9?$AAS?$AAK@ 000000018003c7c0     libucrt:lcidtoname_downlevel.obj
 0002:000097d0       ??_C@_1M@LJMAMNPJ@?$AAs?$AAq?$AA?9?$AAA?$AAL@ 000000018003c7d0     libucrt:lcidtoname_downlevel.obj
 0002:000097e0       ??_C@_1M@GIAKDKJK@?$AAs?$AAv?$AA?9?$AAS?$AAE@ 000000018003c7e0     libucrt:lcidtoname_downlevel.obj
 0002:000097f0       ??_C@_1M@MKJKIKCL@?$AAt?$AAh?$AA?9?$AAT?$AAH@ 000000018003c7f0     libucrt:lcidtoname_downlevel.obj
 0002:00009800       ??_C@_1M@MFLCCMPB@?$AAt?$AAr?$AA?9?$AAT?$AAR@ 000000018003c800     libucrt:lcidtoname_downlevel.obj
 0002:00009810       ??_C@_1M@OIJHDKJN@?$AAu?$AAr?$AA?9?$AAP?$AAK@ 000000018003c810     libucrt:lcidtoname_downlevel.obj
 0002:00009820       ??_C@_1M@LHIPCIEK@?$AAi?$AAd?$AA?9?$AAI?$AAD@ 000000018003c820     libucrt:lcidtoname_downlevel.obj
 0002:00009830       ??_C@_1M@MFMOBGI@?$AAu?$AAk?$AA?9?$AAU?$AAA@ 000000018003c830     libucrt:lcidtoname_downlevel.obj
 0002:00009840       ??_C@_1M@OBGLJIPL@?$AAb?$AAe?$AA?9?$AAB?$AAY@ 000000018003c840     libucrt:lcidtoname_downlevel.obj
 0002:00009850       ??_C@_1M@BCFAJEAD@?$AAs?$AAl?$AA?9?$AAS?$AAI@ 000000018003c850     libucrt:lcidtoname_downlevel.obj
 0002:00009860       ??_C@_1M@FKFFEDDN@?$AAe?$AAt?$AA?9?$AAE?$AAE@ 000000018003c860     libucrt:lcidtoname_downlevel.obj
 0002:00009870       ??_C@_1M@KGKKAACI@?$AAl?$AAv?$AA?9?$AAL?$AAV@ 000000018003c870     libucrt:lcidtoname_downlevel.obj
 0002:00009880       ??_C@_1M@IFGBIJO@?$AAl?$AAt?$AA?9?$AAL?$AAT@ 000000018003c880     libucrt:lcidtoname_downlevel.obj
 0002:00009890       ??_C@_1M@FGEAHEDM@?$AAf?$AAa?$AA?9?$AAI?$AAR@ 000000018003c890     libucrt:lcidtoname_downlevel.obj
 0002:000098a0       ??_C@_1M@KBMAIBFN@?$AAv?$AAi?$AA?9?$AAV?$AAN@ 000000018003c8a0     libucrt:lcidtoname_downlevel.obj
 0002:000098b0       ??_C@_1M@GPCBKDJK@?$AAh?$AAy?$AA?9?$AAA?$AAM@ 000000018003c8b0     libucrt:lcidtoname_downlevel.obj
 0002:000098c0       ??_C@_1BG@BECMDDJB@?$AAa?$AAz?$AA?9?$AAA?$AAZ?$AA?9?$AAL?$AAa?$AAt?$AAn@ 000000018003c8c0     libucrt:lcidtoname_downlevel.obj
 0002:000098d8       ??_C@_1M@MAOFCAEA@?$AAe?$AAu?$AA?9?$AAE?$AAS@ 000000018003c8d8     libucrt:lcidtoname_downlevel.obj
 0002:000098e8       ??_C@_1M@IGHABKPI@?$AAm?$AAk?$AA?9?$AAM?$AAK@ 000000018003c8e8     libucrt:lcidtoname_downlevel.obj
 0002:000098f8       ??_C@_1M@IAIGNEJG@?$AAt?$AAn?$AA?9?$AAZ?$AAA@ 000000018003c8f8     libucrt:lcidtoname_downlevel.obj
 0002:00009908       ??_C@_1M@IIJCOJFA@?$AAx?$AAh?$AA?9?$AAZ?$AAA@ 000000018003c908     libucrt:lcidtoname_downlevel.obj
 0002:00009918       ??_C@_1M@LGPJHNJH@?$AAz?$AAu?$AA?9?$AAZ?$AAA@ 000000018003c918     libucrt:lcidtoname_downlevel.obj
 0002:00009928       ??_C@_1M@HOKAOIO@?$AAa?$AAf?$AA?9?$AAZ?$AAA@ 000000018003c928     libucrt:lcidtoname_downlevel.obj
 0002:00009938       ??_C@_1M@DPCLHLIE@?$AAk?$AAa?$AA?9?$AAG?$AAE@ 000000018003c938     libucrt:lcidtoname_downlevel.obj
 0002:00009948       ??_C@_1M@BLKMHJBI@?$AAf?$AAo?$AA?9?$AAF?$AAO@ 000000018003c948     libucrt:lcidtoname_downlevel.obj
 0002:00009958       ??_C@_1M@LGGJAPPB@?$AAh?$AAi?$AA?9?$AAI?$AAN@ 000000018003c958     libucrt:lcidtoname_downlevel.obj
 0002:00009968       ??_C@_1M@FIKPIHFE@?$AAm?$AAt?$AA?9?$AAM?$AAT@ 000000018003c968     libucrt:lcidtoname_downlevel.obj
 0002:00009978       ??_C@_1M@HEGGPBFA@?$AAs?$AAe?$AA?9?$AAN?$AAO@ 000000018003c978     libucrt:lcidtoname_downlevel.obj
 0002:00009988       ??_C@_1M@EIBJEEPA@?$AAm?$AAs?$AA?9?$AAM?$AAY@ 000000018003c988     libucrt:lcidtoname_downlevel.obj
 0002:00009998       ??_C@_1M@FHLBGMPP@?$AAk?$AAk?$AA?9?$AAK?$AAZ@ 000000018003c998     libucrt:lcidtoname_downlevel.obj
 0002:000099a8       ??_C@_1M@NGJJLCGI@?$AAk?$AAy?$AA?9?$AAK?$AAG@ 000000018003c9a8     libucrt:lcidtoname_downlevel.obj
 0002:000099b8       ??_C@_1M@GIENNBFC@?$AAs?$AAw?$AA?9?$AAK?$AAE@ 000000018003c9b8     libucrt:lcidtoname_downlevel.obj
 0002:000099c8       ??_C@_1BG@NDGMJIMJ@?$AAu?$AAz?$AA?9?$AAU?$AAZ?$AA?9?$AAL?$AAa?$AAt?$AAn@ 000000018003c9c8     libucrt:lcidtoname_downlevel.obj
 0002:000099e0       ??_C@_1M@IDCCIHBC@?$AAt?$AAt?$AA?9?$AAR?$AAU@ 000000018003c9e0     libucrt:lcidtoname_downlevel.obj
 0002:000099f0       ??_C@_1M@LOICPMOJ@?$AAb?$AAn?$AA?9?$AAI?$AAN@ 000000018003c9f0     libucrt:lcidtoname_downlevel.obj
 0002:00009a00       ??_C@_1M@KPKKNEAH@?$AAp?$AAa?$AA?9?$AAI?$AAN@ 000000018003ca00     libucrt:lcidtoname_downlevel.obj
 0002:00009a10       ??_C@_1M@PJGPPBOG@?$AAg?$AAu?$AA?9?$AAI?$AAN@ 000000018003ca10     libucrt:lcidtoname_downlevel.obj
 0002:00009a20       ??_C@_1M@KMKMOPHI@?$AAt?$AAa?$AA?9?$AAI?$AAN@ 000000018003ca20     libucrt:lcidtoname_downlevel.obj
 0002:00009a30       ??_C@_1M@KFEHEPAC@?$AAt?$AAe?$AA?9?$AAI?$AAN@ 000000018003ca30     libucrt:lcidtoname_downlevel.obj
 0002:00009a40       ??_C@_1M@CDCLMGHI@?$AAk?$AAn?$AA?9?$AAI?$AAN@ 000000018003ca40     libucrt:lcidtoname_downlevel.obj
 0002:00009a50       ??_C@_1M@MIODLDKF@?$AAm?$AAl?$AA?9?$AAI?$AAN@ 000000018003ca50     libucrt:lcidtoname_downlevel.obj
 0002:00009a60       ??_C@_1M@PBIEACPO@?$AAm?$AAr?$AA?9?$AAI?$AAN@ 000000018003ca60     libucrt:lcidtoname_downlevel.obj
 0002:00009a70       ??_C@_1M@NIDEAGPH@?$AAs?$AAa?$AA?9?$AAI?$AAN@ 000000018003ca70     libucrt:lcidtoname_downlevel.obj
 0002:00009a80       ??_C@_1M@FHIHCBIO@?$AAm?$AAn?$AA?9?$AAM?$AAN@ 000000018003ca80     libucrt:lcidtoname_downlevel.obj
 0002:00009a90       ??_C@_1M@JAIJPENP@?$AAc?$AAy?$AA?9?$AAG?$AAB@ 000000018003ca90     libucrt:lcidtoname_downlevel.obj
 0002:00009aa0       ??_C@_1M@PHGFBEPN@?$AAg?$AAl?$AA?9?$AAE?$AAS@ 000000018003caa0     libucrt:lcidtoname_downlevel.obj
 0002:00009ab0       ??_C@_1O@KPIPDNCP@?$AAk?$AAo?$AAk?$AA?9?$AAI?$AAN@ 000000018003cab0     libucrt:lcidtoname_downlevel.obj
 0002:00009ac0       ??_C@_1O@KNHJLDJA@?$AAs?$AAy?$AAr?$AA?9?$AAS?$AAY@ 000000018003cac0     libucrt:lcidtoname_downlevel.obj
 0002:00009ad0       ??_C@_1O@MKEKBLAH@?$AAd?$AAi?$AAv?$AA?9?$AAM?$AAV@ 000000018003cad0     libucrt:lcidtoname_downlevel.obj
 0002:00009ae0       ??_C@_1O@OHDCKDDF@?$AAq?$AAu?$AAz?$AA?9?$AAB?$AAO@ 000000018003cae0     libucrt:lcidtoname_downlevel.obj
 0002:00009af0       ??_C@_1M@LEPJNLFD@?$AAn?$AAs?$AA?9?$AAZ?$AAA@ 000000018003caf0     libucrt:lcidtoname_downlevel.obj
 0002:00009b00       ??_C@_1M@OMLEIIJB@?$AAm?$AAi?$AA?9?$AAN?$AAZ@ 000000018003cb00     libucrt:lcidtoname_downlevel.obj
 0002:00009b10       ??_C@_1M@PMPEAILG@?$AAa?$AAr?$AA?9?$AAI?$AAQ@ 000000018003cb10     libucrt:lcidtoname_downlevel.obj
 0002:00009b20       ??_C@_1M@CNKPNOEE@?$AAd?$AAe?$AA?9?$AAC?$AAH@ 000000018003cb20     libucrt:lcidtoname_downlevel.obj
 0002:00009b30       ??_C@_1M@LKMGMLKO@?$AAe?$AAn?$AA?9?$AAG?$AAB@ 000000018003cb30     libucrt:lcidtoname_downlevel.obj
 0002:00009b40       ??_C@_1M@PGKJFFGL@?$AAe?$AAs?$AA?9?$AAM?$AAX@ 000000018003cb40     libucrt:lcidtoname_downlevel.obj
 0002:00009b50       ??_C@_1M@DNNANBDC@?$AAf?$AAr?$AA?9?$AAB?$AAE@ 000000018003cb50     libucrt:lcidtoname_downlevel.obj
 0002:00009b60       ??_C@_1M@HLGMDFHM@?$AAi?$AAt?$AA?9?$AAC?$AAH@ 000000018003cb60     libucrt:lcidtoname_downlevel.obj
 0002:00009b70       ??_C@_1M@CLLBGJH@?$AAn?$AAl?$AA?9?$AAB?$AAE@ 000000018003cb70     libucrt:lcidtoname_downlevel.obj
 0002:00009b80       ??_C@_1M@BODBOGLF@?$AAn?$AAn?$AA?9?$AAN?$AAO@ 000000018003cb80     libucrt:lcidtoname_downlevel.obj
 0002:00009b90       ??_C@_1M@HFFAHKAD@?$AAp?$AAt?$AA?9?$AAP?$AAT@ 000000018003cb90     libucrt:lcidtoname_downlevel.obj
 0002:00009ba0       ??_C@_1BG@LNOAKHIE@?$AAs?$AAr?$AA?9?$AAS?$AAP?$AA?9?$AAL?$AAa?$AAt?$AAn@ 000000018003cba0     libucrt:lcidtoname_downlevel.obj
 0002:00009bb8       ??_C@_1M@HBMHBGAK@?$AAs?$AAv?$AA?9?$AAF?$AAI@ 000000018003cbb8     libucrt:lcidtoname_downlevel.obj
 0002:00009bc8       ??_C@_1BG@DGCJGJBE@?$AAa?$AAz?$AA?9?$AAA?$AAZ?$AA?9?$AAC?$AAy?$AAr?$AAl@ 000000018003cbc8     libucrt:lcidtoname_downlevel.obj
 0002:00009be0       ??_C@_1M@KEJDAAHB@?$AAs?$AAe?$AA?9?$AAS?$AAE@ 000000018003cbe0     libucrt:lcidtoname_downlevel.obj
 0002:00009bf0       ??_C@_1M@HEIBJJAD@?$AAm?$AAs?$AA?9?$AAB?$AAN@ 000000018003cbf0     libucrt:lcidtoname_downlevel.obj
 0002:00009c00       ??_C@_1BG@PBGJMCEM@?$AAu?$AAz?$AA?9?$AAU?$AAZ?$AA?9?$AAC?$AAy?$AAr?$AAl@ 000000018003cc00     libucrt:lcidtoname_downlevel.obj
 0002:00009c18       ??_C@_1O@LAOBCMDF@?$AAq?$AAu?$AAz?$AA?9?$AAE?$AAC@ 000000018003cc18     libucrt:lcidtoname_downlevel.obj
 0002:00009c28       ??_C@_1M@POEEMAIO@?$AAa?$AAr?$AA?9?$AAE?$AAG@ 000000018003cc28     libucrt:lcidtoname_downlevel.obj
 0002:00009c38       ??_C@_1M@EFAKDEDL@?$AAz?$AAh?$AA?9?$AAH?$AAK@ 000000018003cc38     libucrt:lcidtoname_downlevel.obj
 0002:00009c48       ??_C@_1M@HKKIJHGI@?$AAd?$AAe?$AA?9?$AAA?$AAT@ 000000018003cc48     libucrt:lcidtoname_downlevel.obj
 0002:00009c58       ??_C@_1M@KBFBEHJF@?$AAe?$AAn?$AA?9?$AAA?$AAU@ 000000018003cc58     libucrt:lcidtoname_downlevel.obj
 0002:00009c68       ??_C@_1M@MNPLFAAH@?$AAe?$AAs?$AA?9?$AAE?$AAS@ 000000018003cc68     libucrt:lcidtoname_downlevel.obj
 0002:00009c78       ??_C@_1M@HJOOJFMA@?$AAf?$AAr?$AA?9?$AAC?$AAA@ 000000018003cc78     libucrt:lcidtoname_downlevel.obj
 0002:00009c88       ??_C@_1BG@JPOFPNAB@?$AAs?$AAr?$AA?9?$AAS?$AAP?$AA?9?$AAC?$AAy?$AAr?$AAl@ 000000018003cc88     libucrt:lcidtoname_downlevel.obj
 0002:00009ca0       ??_C@_1M@LNFOCMOB@?$AAs?$AAe?$AA?9?$AAF?$AAI@ 000000018003cca0     libucrt:lcidtoname_downlevel.obj
 0002:00009cb0       ??_C@_1O@MGJBOAMB@?$AAq?$AAu?$AAz?$AA?9?$AAP?$AAE@ 000000018003ccb0     libucrt:lcidtoname_downlevel.obj
 0002:00009cc0       ??_C@_1M@GJINLBOK@?$AAa?$AAr?$AA?9?$AAL?$AAY@ 000000018003ccc0     libucrt:lcidtoname_downlevel.obj
 0002:00009cd0       ??_C@_1M@GGMNHJNL@?$AAz?$AAh?$AA?9?$AAS?$AAG@ 000000018003ccd0     libucrt:lcidtoname_downlevel.obj
 0002:00009ce0       ??_C@_1M@HOIKODND@?$AAd?$AAe?$AA?9?$AAL?$AAU@ 000000018003cce0     libucrt:lcidtoname_downlevel.obj
 0002:00009cf0       ??_C@_1M@DDOCCGFG@?$AAe?$AAn?$AA?9?$AAC?$AAA@ 000000018003ccf0     libucrt:lcidtoname_downlevel.obj
 0002:00009d00       ??_C@_1M@BNOEMJLF@?$AAe?$AAs?$AA?9?$AAG?$AAT@ 000000018003cd00     libucrt:lcidtoname_downlevel.obj
 0002:00009d10       ??_C@_1M@EOGNKEK@?$AAf?$AAr?$AA?9?$AAC?$AAH@ 000000018003cd10     libucrt:lcidtoname_downlevel.obj
 0002:00009d20       ??_C@_1M@FLIDJFHL@?$AAh?$AAr?$AA?9?$AAB?$AAA@ 000000018003cd20     libucrt:lcidtoname_downlevel.obj
 0002:00009d30       ??_C@_1O@FMCELNAJ@?$AAs?$AAm?$AAj?$AA?9?$AAN?$AAO@ 000000018003cd30     libucrt:lcidtoname_downlevel.obj
 0002:00009d40       ??_C@_1M@JHGLJMGJ@?$AAa?$AAr?$AA?9?$AAD?$AAZ@ 000000018003cd40     libucrt:lcidtoname_downlevel.obj
 0002:00009d50       ??_C@_1M@JKKFDCNP@?$AAz?$AAh?$AA?9?$AAM?$AAO@ 000000018003cd50     libucrt:lcidtoname_downlevel.obj
 0002:00009d60       ??_C@_1M@GEEFALPE@?$AAd?$AAe?$AA?9?$AAL?$AAI@ 000000018003cd60     libucrt:lcidtoname_downlevel.obj
 0002:00009d70       ??_C@_1M@IGEOFBG@?$AAe?$AAn?$AA?9?$AAN?$AAZ@ 000000018003cd70     libucrt:lcidtoname_downlevel.obj
 0002:00009d80       ??_C@_1M@KDBONEHP@?$AAe?$AAs?$AA?9?$AAC?$AAR@ 000000018003cd80     libucrt:lcidtoname_downlevel.obj
 0002:00009d90       ??_C@_1M@FHMDOHNN@?$AAf?$AAr?$AA?9?$AAL?$AAU@ 000000018003cd90     libucrt:lcidtoname_downlevel.obj
 0002:00009da0       ??_C@_1BG@NFKKMAFG@?$AAb?$AAs?$AA?9?$AAB?$AAA?$AA?9?$AAL?$AAa?$AAt?$AAn@ 000000018003cda0     libucrt:lcidtoname_downlevel.obj
 0002:00009db8       ??_C@_1O@IMNBEMCI@?$AAs?$AAm?$AAj?$AA?9?$AAS?$AAE@ 000000018003cdb8     libucrt:lcidtoname_downlevel.obj
 0002:00009dc8       ??_C@_1M@DHHMBNDP@?$AAa?$AAr?$AA?9?$AAM?$AAA@ 000000018003cdc8     libucrt:lcidtoname_downlevel.obj
 0002:00009dd8       ??_C@_1M@BNBLJCGH@?$AAe?$AAn?$AA?9?$AAI?$AAE@ 000000018003cdd8     libucrt:lcidtoname_downlevel.obj
 0002:00009de8       ??_C@_1M@GEPAFMDL@?$AAe?$AAs?$AA?9?$AAP?$AAA@ 000000018003cde8     libucrt:lcidtoname_downlevel.obj
 0002:00009df8       ??_C@_1M@OJONDMDL@?$AAf?$AAr?$AA?9?$AAM?$AAC@ 000000018003cdf8     libucrt:lcidtoname_downlevel.obj
 0002:00009e08       ??_C@_1BG@OBCNFJB@?$AAs?$AAr?$AA?9?$AAB?$AAA?$AA?9?$AAL?$AAa?$AAt?$AAn@ 000000018003ce08     libucrt:lcidtoname_downlevel.obj
 0002:00009e20       ??_C@_1O@KEMEEGPO@?$AAs?$AAm?$AAa?$AA?9?$AAN?$AAO@ 000000018003ce20     libucrt:lcidtoname_downlevel.obj
 0002:00009e30       ??_C@_1M@ELMGFODK@?$AAa?$AAr?$AA?9?$AAT?$AAN@ 000000018003ce30     libucrt:lcidtoname_downlevel.obj
 0002:00009e40       ??_C@_1M@BHDLHFAF@?$AAe?$AAn?$AA?9?$AAZ?$AAA@ 000000018003ce40     libucrt:lcidtoname_downlevel.obj
 0002:00009e50       ??_C@_1M@BMGIGLIF@?$AAe?$AAs?$AA?9?$AAD?$AAO@ 000000018003ce50     libucrt:lcidtoname_downlevel.obj
 0002:00009e60       ??_C@_1BG@CMBHIPBE@?$AAs?$AAr?$AA?9?$AAB?$AAA?$AA?9?$AAC?$AAy?$AAr?$AAl@ 000000018003ce60     libucrt:lcidtoname_downlevel.obj
 0002:00009e78       ??_C@_1O@HEDBLHNP@?$AAs?$AAm?$AAa?$AA?9?$AAS?$AAE@ 000000018003ce78     libucrt:lcidtoname_downlevel.obj
 0002:00009e88       ??_C@_1M@DAGCADIM@?$AAa?$AAr?$AA?9?$AAO?$AAM@ 000000018003ce88     libucrt:lcidtoname_downlevel.obj
 0002:00009e98       ??_C@_1M@FODLMICG@?$AAe?$AAn?$AA?9?$AAJ?$AAM@ 000000018003ce98     libucrt:lcidtoname_downlevel.obj
 0002:00009ea8       ??_C@_1M@DNMLCIHB@?$AAe?$AAs?$AA?9?$AAV?$AAE@ 000000018003cea8     libucrt:lcidtoname_downlevel.obj
 0002:00009eb8       ??_C@_1O@EOKHMKJK@?$AAs?$AAm?$AAs?$AA?9?$AAF?$AAI@ 000000018003ceb8     libucrt:lcidtoname_downlevel.obj
 0002:00009ec8       ??_C@_1M@CAFJMKOF@?$AAa?$AAr?$AA?9?$AAY?$AAE@ 000000018003cec8     libucrt:lcidtoname_downlevel.obj
 0002:00009ed8       ??_C@_1M@CBFHIJLI@?$AAe?$AAn?$AA?9?$AAC?$AAB@ 000000018003ced8     libucrt:lcidtoname_downlevel.obj
 0002:00009ee8       ??_C@_1M@BGNFLDN@?$AAe?$AAs?$AA?9?$AAC?$AAO@ 000000018003cee8     libucrt:lcidtoname_downlevel.obj
 0002:00009ef8       ??_C@_1O@JMPHMAMC@?$AAs?$AAm?$AAn?$AA?9?$AAF?$AAI@ 000000018003cef8     libucrt:lcidtoname_downlevel.obj
 0002:00009f08       ??_C@_1M@JLANABKE@?$AAa?$AAr?$AA?9?$AAS?$AAY@ 000000018003cf08     libucrt:lcidtoname_downlevel.obj
 0002:00009f18       ??_C@_1M@HPKGCFGN@?$AAe?$AAn?$AA?9?$AAB?$AAZ@ 000000018003cf18     libucrt:lcidtoname_downlevel.obj
 0002:00009f28       ??_C@_1M@OLJCMLGM@?$AAe?$AAs?$AA?9?$AAP?$AAE@ 000000018003cf28     libucrt:lcidtoname_downlevel.obj
 0002:00009f38       ??_C@_1M@MKKGFKLE@?$AAa?$AAr?$AA?9?$AAJ?$AAO@ 000000018003cf38     libucrt:lcidtoname_downlevel.obj
 0002:00009f48       ??_C@_1M@EKPGLDNI@?$AAe?$AAn?$AA?9?$AAT?$AAT@ 000000018003cf48     libucrt:lcidtoname_downlevel.obj
 0002:00009f58       ??_C@_1M@OONGHFHE@?$AAe?$AAs?$AA?9?$AAA?$AAR@ 000000018003cf58     libucrt:lcidtoname_downlevel.obj
 0002:00009f68       ??_C@_1M@OOJFGBHE@?$AAa?$AAr?$AA?9?$AAL?$AAB@ 000000018003cf68     libucrt:lcidtoname_downlevel.obj
 0002:00009f78       ??_C@_1M@GCEJHNEG@?$AAe?$AAn?$AA?9?$AAZ?$AAW@ 000000018003cf78     libucrt:lcidtoname_downlevel.obj
 0002:00009f88       ??_C@_1M@JNOCAHJI@?$AAe?$AAs?$AA?9?$AAE?$AAC@ 000000018003cf88     libucrt:lcidtoname_downlevel.obj
 0002:00009f98       ??_C@_1M@JEFHPGGB@?$AAa?$AAr?$AA?9?$AAK?$AAW@ 000000018003cf98     libucrt:lcidtoname_downlevel.obj
 0002:00009fa8       ??_C@_1M@MLKIBJOJ@?$AAe?$AAn?$AA?9?$AAP?$AAH@ 000000018003cfa8     libucrt:lcidtoname_downlevel.obj
 0002:00009fb8       ??_C@_1M@BDNIPEND@?$AAe?$AAs?$AA?9?$AAC?$AAL@ 000000018003cfb8     libucrt:lcidtoname_downlevel.obj
 0002:00009fc8       ??_C@_1M@MPNMEKBD@?$AAa?$AAr?$AA?9?$AAA?$AAE@ 000000018003cfc8     libucrt:lcidtoname_downlevel.obj
 0002:00009fd8       ??_C@_1M@KBJALCPI@?$AAe?$AAs?$AA?9?$AAU?$AAY@ 000000018003cfd8     libucrt:lcidtoname_downlevel.obj
 0002:00009fe8       ??_C@_1M@LLCCOAGA@?$AAa?$AAr?$AA?9?$AAB?$AAH@ 000000018003cfe8     libucrt:lcidtoname_downlevel.obj
 0002:00009ff8       ??_C@_1M@PBFNCDEL@?$AAe?$AAs?$AA?9?$AAP?$AAY@ 000000018003cff8     libucrt:lcidtoname_downlevel.obj
 0002:0000a008       ??_C@_1M@EDGINPNP@?$AAa?$AAr?$AA?9?$AAQ?$AAA@ 000000018003d008     libucrt:lcidtoname_downlevel.obj
 0002:0000a018       ??_C@_1M@MKDBIIJI@?$AAe?$AAs?$AA?9?$AAB?$AAO@ 000000018003d018     libucrt:lcidtoname_downlevel.obj
 0002:0000a028       ??_C@_1M@CPKKEBLD@?$AAe?$AAs?$AA?9?$AAS?$AAV@ 000000018003d028     libucrt:lcidtoname_downlevel.obj
 0002:0000a038       ??_C@_1M@NDBGMMJL@?$AAe?$AAs?$AA?9?$AAH?$AAN@ 000000018003d038     libucrt:lcidtoname_downlevel.obj
 0002:0000a048       ??_C@_1M@JIJIBHDP@?$AAe?$AAs?$AA?9?$AAN?$AAI@ 000000018003d048     libucrt:lcidtoname_downlevel.obj
 0002:0000a058       ??_C@_1M@CGFMKEEK@?$AAe?$AAs?$AA?9?$AAP?$AAR@ 000000018003d058     libucrt:lcidtoname_downlevel.obj
 0002:0000a068       ??_C@_1O@ICJHKIIK@?$AAz?$AAh?$AA?9?$AAC?$AAH?$AAT@ 000000018003d068     libucrt:lcidtoname_downlevel.obj
 0002:0000a078       ??_C@_15CLNEJCE@?$AAs?$AAr@ 000000018003d078     libucrt:lcidtoname_downlevel.obj
 0002:0000aec0       ??_C@_1M@KAHEKEIG@?$AAa?$AAf?$AA?9?$AAz?$AAa@ 000000018003dec0     libucrt:lcidtoname_downlevel.obj
 0002:0000aed0       ??_C@_1M@GIECOABL@?$AAa?$AAr?$AA?9?$AAa?$AAe@ 000000018003ded0     libucrt:lcidtoname_downlevel.obj
 0002:0000aee0       ??_C@_1M@BMLMEKGI@?$AAa?$AAr?$AA?9?$AAb?$AAh@ 000000018003dee0     libucrt:lcidtoname_downlevel.obj
 0002:0000aef0       ??_C@_1M@DAPFDGGB@?$AAa?$AAr?$AA?9?$AAd?$AAz@ 000000018003def0     libucrt:lcidtoname_downlevel.obj
 0002:0000af00       ??_C@_1M@FJNKGKIG@?$AAa?$AAr?$AA?9?$AAe?$AAg@ 000000018003df00     libucrt:lcidtoname_downlevel.obj
 0002:0000af10       ??_C@_1M@FLGKKCLO@?$AAa?$AAr?$AA?9?$AAi?$AAq@ 000000018003df10     libucrt:lcidtoname_downlevel.obj
 0002:0000af20       ??_C@_1M@GNDIPALM@?$AAa?$AAr?$AA?9?$AAj?$AAo@ 000000018003df20     libucrt:lcidtoname_downlevel.obj
 0002:0000af30       ??_C@_1M@DDMJFMGJ@?$AAa?$AAr?$AA?9?$AAk?$AAw@ 000000018003df30     libucrt:lcidtoname_downlevel.obj
 0002:0000af40       ??_C@_1M@EJALMLHM@?$AAa?$AAr?$AA?9?$AAl?$AAb@ 000000018003df40     libucrt:lcidtoname_downlevel.obj
 0002:0000af50       ??_C@_1M@MOBDBLOC@?$AAa?$AAr?$AA?9?$AAl?$AAy@ 000000018003df50     libucrt:lcidtoname_downlevel.obj
 0002:0000af60       ??_C@_1M@JAOCLHDH@?$AAa?$AAr?$AA?9?$AAm?$AAa@ 000000018003df60     libucrt:lcidtoname_downlevel.obj
 0002:0000af70       ??_C@_1M@JHPMKJIE@?$AAa?$AAr?$AA?9?$AAo?$AAm@ 000000018003df70     libucrt:lcidtoname_downlevel.obj
 0002:0000af80       ??_C@_1M@OEPGHFNH@?$AAa?$AAr?$AA?9?$AAq?$AAa@ 000000018003df80     libucrt:lcidtoname_downlevel.obj
 0002:0000af90       ??_C@_1M@KJDONENM@?$AAa?$AAr?$AA?9?$AAs?$AAa@ 000000018003df90     libucrt:lcidtoname_downlevel.obj
 0002:0000afa0       ??_C@_1M@DMJDKLKM@?$AAa?$AAr?$AA?9?$AAs?$AAy@ 000000018003dfa0     libucrt:lcidtoname_downlevel.obj
 0002:0000afb0       ??_C@_1M@OMFIPEDC@?$AAa?$AAr?$AA?9?$AAt?$AAn@ 000000018003dfb0     libucrt:lcidtoname_downlevel.obj
 0002:0000afc0       ??_C@_1M@IHMHGAON@?$AAa?$AAr?$AA?9?$AAy?$AAe@ 000000018003dfc0     libucrt:lcidtoname_downlevel.obj
 0002:0000afd0       ??_C@_1BG@KDCPGJGB@?$AAa?$AAz?$AA?9?$AAa?$AAz?$AA?9?$AAc?$AAy?$AAr?$AAl@ 000000018003dfd0     libucrt:lcidtoname_downlevel.obj
 0002:0000afe8       ??_C@_1BG@IBCKDDOE@?$AAa?$AAz?$AA?9?$AAa?$AAz?$AA?9?$AAl?$AAa?$AAt?$AAn@ 000000018003dfe8     libucrt:lcidtoname_downlevel.obj
 0002:0000b000       ??_C@_1M@EGPFDCPD@?$AAb?$AAe?$AA?9?$AAb?$AAy@ 000000018003e000     libucrt:lcidtoname_downlevel.obj
 0002:0000b010       ??_C@_1M@PCMGMCGC@?$AAb?$AAg?$AA?9?$AAb?$AAg@ 000000018003e010     libucrt:lcidtoname_downlevel.obj
 0002:0000b020       ??_C@_1M@BJBMFGOB@?$AAb?$AAn?$AA?9?$AAi?$AAn@ 000000018003e020     libucrt:lcidtoname_downlevel.obj
 0002:0000b030       ??_C@_1BG@EAKMMACD@?$AAb?$AAs?$AA?9?$AAb?$AAa?$AA?9?$AAl?$AAa?$AAt?$AAn@ 000000018003e030     libucrt:lcidtoname_downlevel.obj
 0002:0000b048       ??_C@_1M@KGADAODK@?$AAc?$AAa?$AA?9?$AAe?$AAs@ 000000018003e048     libucrt:lcidtoname_downlevel.obj
 0002:0000b058       ??_C@_1M@COAJPDHI@?$AAc?$AAs?$AA?9?$AAc?$AAz@ 000000018003e058     libucrt:lcidtoname_downlevel.obj
 0002:0000b068       ??_C@_1M@DHBHFONH@?$AAc?$AAy?$AA?9?$AAg?$AAb@ 000000018003e068     libucrt:lcidtoname_downlevel.obj
 0002:0000b078       ??_C@_1M@IMGKELGA@?$AAd?$AAa?$AA?9?$AAd?$AAk@ 000000018003e078     libucrt:lcidtoname_downlevel.obj
 0002:0000b088       ??_C@_1M@NNDGDNGA@?$AAd?$AAe?$AA?9?$AAa?$AAt@ 000000018003e088     libucrt:lcidtoname_downlevel.obj
 0002:0000b098       ??_C@_1M@IKDBHEEM@?$AAd?$AAe?$AA?9?$AAc?$AAh@ 000000018003e098     libucrt:lcidtoname_downlevel.obj
 0002:0000b0a8       ??_C@_1M@GFFOJMCJ@?$AAd?$AAe?$AA?9?$AAd?$AAe@ 000000018003e0a8     libucrt:lcidtoname_downlevel.obj
 0002:0000b0b8       ??_C@_1M@MDNLKBPM@?$AAd?$AAe?$AA?9?$AAl?$AAi@ 000000018003e0b8     libucrt:lcidtoname_downlevel.obj
 0002:0000b0c8       ??_C@_1M@NJBEEJNL@?$AAd?$AAe?$AA?9?$AAl?$AAu@ 000000018003e0c8     libucrt:lcidtoname_downlevel.obj
 0002:0000b0d8       ??_C@_1O@GNNELBAP@?$AAd?$AAi?$AAv?$AA?9?$AAm?$AAv@ 000000018003e0d8     libucrt:lcidtoname_downlevel.obj
 0002:0000b0e8       ??_C@_1M@EJLEOGAE@?$AAe?$AAl?$AA?9?$AAg?$AAr@ 000000018003e0e8     libucrt:lcidtoname_downlevel.obj
 0002:0000b0f8       ??_C@_1M@GMPONJN@?$AAe?$AAn?$AA?9?$AAa?$AAu@ 000000018003e0f8     libucrt:lcidtoname_downlevel.obj
 0002:0000b108       ??_C@_1M@NIDIIPGF@?$AAe?$AAn?$AA?9?$AAb?$AAz@ 000000018003e108     libucrt:lcidtoname_downlevel.obj
 0002:0000b118       ??_C@_1M@JEHMIMFO@?$AAe?$AAn?$AA?9?$AAc?$AAa@ 000000018003e118     libucrt:lcidtoname_downlevel.obj
 0002:0000b128       ??_C@_1M@IGMJCDLA@?$AAe?$AAn?$AA?9?$AAc?$AAb@ 000000018003e128     libucrt:lcidtoname_downlevel.obj
 0002:0000b138       ??_C@_1M@BNFIGBKG@?$AAe?$AAn?$AA?9?$AAg?$AAb@ 000000018003e138     libucrt:lcidtoname_downlevel.obj
 0002:0000b148       ??_C@_1M@LKIFDIGP@?$AAe?$AAn?$AA?9?$AAi?$AAe@ 000000018003e148     libucrt:lcidtoname_downlevel.obj
 0002:0000b158       ??_C@_1M@PJKFGCCO@?$AAe?$AAn?$AA?9?$AAj?$AAm@ 000000018003e158     libucrt:lcidtoname_downlevel.obj
 0002:0000b168       ??_C@_1M@KPPKEPBO@?$AAe?$AAn?$AA?9?$AAn?$AAz@ 000000018003e168     libucrt:lcidtoname_downlevel.obj
 0002:0000b178       ??_C@_1M@GMDGLDOB@?$AAe?$AAn?$AA?9?$AAp?$AAh@ 000000018003e178     libucrt:lcidtoname_downlevel.obj
 0002:0000b188       ??_C@_1M@ONGIBJNA@?$AAe?$AAn?$AA?9?$AAt?$AAt@ 000000018003e188     libucrt:lcidtoname_downlevel.obj
 0002:0000b198       ??_C@_1M@LLODPCMM@?$AAe?$AAn?$AA?9?$AAu?$AAs@ 000000018003e198     libucrt:lcidtoname_downlevel.obj
 0002:0000b1a8       ??_C@_1M@LAKFNPAN@?$AAe?$AAn?$AA?9?$AAz?$AAa@ 000000018003e1a8     libucrt:lcidtoname_downlevel.obj
 0002:0000b1b8       ??_C@_1M@MFNHNHEO@?$AAe?$AAn?$AA?9?$AAz?$AAw@ 000000018003e1b8     libucrt:lcidtoname_downlevel.obj
 0002:0000b1c8       ??_C@_1M@EJEINPHM@?$AAe?$AAs?$AA?9?$AAa?$AAr@ 000000018003e1c8     libucrt:lcidtoname_downlevel.obj
 0002:0000b1d8       ??_C@_1M@GNKPCCJA@?$AAe?$AAs?$AA?9?$AAb?$AAo@ 000000018003e1d8     libucrt:lcidtoname_downlevel.obj
 0002:0000b1e8       ??_C@_1M@LEEGFONL@?$AAe?$AAs?$AA?9?$AAc?$AAl@ 000000018003e1e8     libucrt:lcidtoname_downlevel.obj
 0002:0000b1f8       ??_C@_1M@KGPDPBDF@?$AAe?$AAs?$AA?9?$AAc?$AAo@ 000000018003e1f8     libucrt:lcidtoname_downlevel.obj
 0002:0000b208       ??_C@_1M@EIAHOHH@?$AAe?$AAs?$AA?9?$AAc?$AAr@ 000000018003e208     libucrt:lcidtoname_downlevel.obj
 0002:0000b218       ??_C@_1M@LLPGMBIN@?$AAe?$AAs?$AA?9?$AAd?$AAo@ 000000018003e218     libucrt:lcidtoname_downlevel.obj
 0002:0000b228       ??_C@_1M@DKHMKNJA@?$AAe?$AAs?$AA?9?$AAe?$AAc@ 000000018003e228     libucrt:lcidtoname_downlevel.obj
 0002:0000b238       ??_C@_1M@GKGFPKAP@?$AAe?$AAs?$AA?9?$AAe?$AAs@ 000000018003e238     libucrt:lcidtoname_downlevel.obj
 0002:0000b248       ??_C@_1M@LKHKGDLN@?$AAe?$AAs?$AA?9?$AAg?$AAt@ 000000018003e248     libucrt:lcidtoname_downlevel.obj
 0002:0000b258       ??_C@_1M@HEIIGGJD@?$AAe?$AAs?$AA?9?$AAh?$AAn@ 000000018003e258     libucrt:lcidtoname_downlevel.obj
 0002:0000b268       ??_C@_1M@FBDHPPGD@?$AAe?$AAs?$AA?9?$AAm?$AAx@ 000000018003e268     libucrt:lcidtoname_downlevel.obj
 0002:0000b278       ??_C@_1M@DPAGLNDH@?$AAe?$AAs?$AA?9?$AAn?$AAi@ 000000018003e278     libucrt:lcidtoname_downlevel.obj
 0002:0000b288       ??_C@_1M@MDGOPGDD@?$AAe?$AAs?$AA?9?$AAp?$AAa@ 000000018003e288     libucrt:lcidtoname_downlevel.obj
 0002:0000b298       ??_C@_1M@EMAMGBGE@?$AAe?$AAs?$AA?9?$AAp?$AAe@ 000000018003e298     libucrt:lcidtoname_downlevel.obj
 0002:0000b2a8       ??_C@_1M@IBMCAOEC@?$AAe?$AAs?$AA?9?$AAp?$AAr@ 000000018003e2a8     libucrt:lcidtoname_downlevel.obj
 0002:0000b2b8       ??_C@_1M@FGMDIJED@?$AAe?$AAs?$AA?9?$AAp?$AAy@ 000000018003e2b8     libucrt:lcidtoname_downlevel.obj
 0002:0000b2c8       ??_C@_1M@IIDEOLLL@?$AAe?$AAs?$AA?9?$AAs?$AAv@ 000000018003e2c8     libucrt:lcidtoname_downlevel.obj
 0002:0000b2d8       ??_C@_1M@GAOBIPA@?$AAe?$AAs?$AA?9?$AAu?$AAy@ 000000018003e2d8     libucrt:lcidtoname_downlevel.obj
 0002:0000b2e8       ??_C@_1M@JKFFICHJ@?$AAe?$AAs?$AA?9?$AAv?$AAe@ 000000018003e2e8     libucrt:lcidtoname_downlevel.obj
 0002:0000b2f8       ??_C@_1M@PNMLOJDF@?$AAe?$AAt?$AA?9?$AAe?$AAe@ 000000018003e2f8     libucrt:lcidtoname_downlevel.obj
 0002:0000b308       ??_C@_1M@GHHLIKEI@?$AAe?$AAu?$AA?9?$AAe?$AAs@ 000000018003e308     libucrt:lcidtoname_downlevel.obj
 0002:0000b318       ??_C@_1M@PBNONODE@?$AAf?$AAa?$AA?9?$AAi?$AAr@ 000000018003e318     libucrt:lcidtoname_downlevel.obj
 0002:0000b328       ??_C@_1M@JEEHPMIL@?$AAf?$AAi?$AA?9?$AAf?$AAi@ 000000018003e328     libucrt:lcidtoname_downlevel.obj
 0002:0000b338       ??_C@_1M@LMDCNDBA@?$AAf?$AAo?$AA?9?$AAf?$AAo@ 000000018003e338     libucrt:lcidtoname_downlevel.obj
 0002:0000b348       ??_C@_1M@JKEOHLDK@?$AAf?$AAr?$AA?9?$AAb?$AAe@ 000000018003e348     libucrt:lcidtoname_downlevel.obj
 0002:0000b358       ??_C@_1M@NOHADPMI@?$AAf?$AAr?$AA?9?$AAc?$AAa@ 000000018003e358     libucrt:lcidtoname_downlevel.obj
 0002:0000b368       ??_C@_1M@KDHIHAEC@?$AAf?$AAr?$AA?9?$AAc?$AAh@ 000000018003e368     libucrt:lcidtoname_downlevel.obj
 0002:0000b378       ??_C@_1M@MMBBFGAK@?$AAf?$AAr?$AA?9?$AAf?$AAr@ 000000018003e378     libucrt:lcidtoname_downlevel.obj
 0002:0000b388       ??_C@_1M@PAFNENNF@?$AAf?$AAr?$AA?9?$AAl?$AAu@ 000000018003e388     libucrt:lcidtoname_downlevel.obj
 0002:0000b398       ??_C@_1M@EOHDJGDD@?$AAf?$AAr?$AA?9?$AAm?$AAc@ 000000018003e398     libucrt:lcidtoname_downlevel.obj
 0002:0000b3a8       ??_C@_1M@FAPLLOPF@?$AAg?$AAl?$AA?9?$AAe?$AAs@ 000000018003e3a8     libucrt:lcidtoname_downlevel.obj
 0002:0000b3b8       ??_C@_1M@FOPBFLOO@?$AAg?$AAu?$AA?9?$AAi?$AAn@ 000000018003e3b8     libucrt:lcidtoname_downlevel.obj
 0002:0000b3c8       ??_C@_1M@KBMCINPM@?$AAh?$AAe?$AA?9?$AAi?$AAl@ 000000018003e3c8     libucrt:lcidtoname_downlevel.obj
 0002:0000b3d8       ??_C@_1M@BBPHKFPJ@?$AAh?$AAi?$AA?9?$AAi?$AAn@ 000000018003e3d8     libucrt:lcidtoname_downlevel.obj
 0002:0000b3e8       ??_C@_1M@PMBNDPHD@?$AAh?$AAr?$AA?9?$AAb?$AAa@ 000000018003e3e8     libucrt:lcidtoname_downlevel.obj
 0002:0000b3f8       ??_C@_1M@BPCKOEGE@?$AAh?$AAr?$AA?9?$AAh?$AAr@ 000000018003e3f8     libucrt:lcidtoname_downlevel.obj
 0002:0000b408       ??_C@_1M@GACBMHKE@?$AAh?$AAu?$AA?9?$AAh?$AAu@ 000000018003e408     libucrt:lcidtoname_downlevel.obj
 0002:0000b418       ??_C@_1M@MILPAJJC@?$AAh?$AAy?$AA?9?$AAa?$AAm@ 000000018003e418     libucrt:lcidtoname_downlevel.obj
 0002:0000b428       ??_C@_1M@BABBICEC@?$AAi?$AAd?$AA?9?$AAi?$AAd@ 000000018003e428     libucrt:lcidtoname_downlevel.obj
 0002:0000b438       ??_C@_1M@BIKNHHPF@?$AAi?$AAs?$AA?9?$AAi?$AAs@ 000000018003e438     libucrt:lcidtoname_downlevel.obj
 0002:0000b448       ??_C@_1M@NMPCJPHE@?$AAi?$AAt?$AA?9?$AAc?$AAh@ 000000018003e448     libucrt:lcidtoname_downlevel.obj
 0002:0000b458       ??_C@_1M@GHKGFEDF@?$AAi?$AAt?$AA?9?$AAi?$AAt@ 000000018003e458     libucrt:lcidtoname_downlevel.obj
 0002:0000b468       ??_C@_1M@NIEJCJJA@?$AAj?$AAa?$AA?9?$AAj?$AAp@ 000000018003e468     libucrt:lcidtoname_downlevel.obj
 0002:0000b478       ??_C@_1M@JILFNBIM@?$AAk?$AAa?$AA?9?$AAg?$AAe@ 000000018003e478     libucrt:lcidtoname_downlevel.obj
 0002:0000b488       ??_C@_1M@PACPMGPH@?$AAk?$AAk?$AA?9?$AAk?$AAz@ 000000018003e488     libucrt:lcidtoname_downlevel.obj
 0002:0000b498       ??_C@_1M@IELFGMHA@?$AAk?$AAn?$AA?9?$AAi?$AAn@ 000000018003e498     libucrt:lcidtoname_downlevel.obj
 0002:0000b4a8       ??_C@_1O@IBBJHCH@?$AAk?$AAo?$AAk?$AA?9?$AAi?$AAn@ 000000018003e4a8     libucrt:lcidtoname_downlevel.obj
 0002:0000b4b8       ??_C@_1M@DMHAEOGC@?$AAk?$AAo?$AA?9?$AAk?$AAr@ 000000018003e4b8     libucrt:lcidtoname_downlevel.obj
 0002:0000b4c8       ??_C@_1M@HBAHBIGA@?$AAk?$AAy?$AA?9?$AAk?$AAg@ 000000018003e4c8     libucrt:lcidtoname_downlevel.obj
 0002:0000b4d8       ??_C@_1M@KPMILCJG@?$AAl?$AAt?$AA?9?$AAl?$AAt@ 000000018003e4d8     libucrt:lcidtoname_downlevel.obj
 0002:0000b4e8       ??_C@_1M@BDEKKCA@?$AAl?$AAv?$AA?9?$AAl?$AAv@ 000000018003e4e8     libucrt:lcidtoname_downlevel.obj
 0002:0000b4f8       ??_C@_1M@ELCKCCJJ@?$AAm?$AAi?$AA?9?$AAn?$AAz@ 000000018003e4f8     libucrt:lcidtoname_downlevel.obj
 0002:0000b508       ??_C@_1M@CBOOLAPA@?$AAm?$AAk?$AA?9?$AAm?$AAk@ 000000018003e508     libucrt:lcidtoname_downlevel.obj
 0002:0000b518       ??_C@_1M@GPHNBJKN@?$AAm?$AAl?$AA?9?$AAi?$AAn@ 000000018003e518     libucrt:lcidtoname_downlevel.obj
 0002:0000b528       ??_C@_1M@PABJILIG@?$AAm?$AAn?$AA?9?$AAm?$AAn@ 000000018003e528     libucrt:lcidtoname_downlevel.obj
 0002:0000b538       ??_C@_1M@FGBKKIPG@?$AAm?$AAr?$AA?9?$AAi?$AAn@ 000000018003e538     libucrt:lcidtoname_downlevel.obj
 0002:0000b548       ??_C@_1M@NDBPDDAL@?$AAm?$AAs?$AA?9?$AAb?$AAn@ 000000018003e548     libucrt:lcidtoname_downlevel.obj
 0002:0000b558       ??_C@_1M@OPIHOOPI@?$AAm?$AAs?$AA?9?$AAm?$AAy@ 000000018003e558     libucrt:lcidtoname_downlevel.obj
 0002:0000b568       ??_C@_1M@PPDBCNFM@?$AAm?$AAt?$AA?9?$AAm?$AAt@ 000000018003e568     libucrt:lcidtoname_downlevel.obj
 0002:0000b578       ??_C@_1M@KDJDKMDD@?$AAn?$AAb?$AA?9?$AAn?$AAo@ 000000018003e578     libucrt:lcidtoname_downlevel.obj
 0002:0000b588       ??_C@_1M@KFCFLMJP@?$AAn?$AAl?$AA?9?$AAb?$AAe@ 000000018003e588     libucrt:lcidtoname_downlevel.obj
 0002:0000b598       ??_C@_1M@KPOPDDGO@?$AAn?$AAl?$AA?9?$AAn?$AAl@ 000000018003e598     libucrt:lcidtoname_downlevel.obj
 0002:0000b5a8       ??_C@_1M@LJKPEMLN@?$AAn?$AAn?$AA?9?$AAn?$AAo@ 000000018003e5a8     libucrt:lcidtoname_downlevel.obj
 0002:0000b5b8       ??_C@_1M@BDGHHBFL@?$AAn?$AAs?$AA?9?$AAz?$AAa@ 000000018003e5b8     libucrt:lcidtoname_downlevel.obj
 0002:0000b5c8       ??_C@_1M@IDEHOAP@?$AAp?$AAa?$AA?9?$AAi?$AAn@ 000000018003e5c8     libucrt:lcidtoname_downlevel.obj
 0002:0000b5d8       ??_C@_1M@HDBKGOGH@?$AAp?$AAl?$AA?9?$AAp?$AAl@ 000000018003e5d8     libucrt:lcidtoname_downlevel.obj
 0002:0000b5e8       ??_C@_1M@LJLLCMEH@?$AAp?$AAt?$AA?9?$AAb?$AAr@ 000000018003e5e8     libucrt:lcidtoname_downlevel.obj
 0002:0000b5f8       ??_C@_1M@NCMONAAL@?$AAp?$AAt?$AA?9?$AAp?$AAt@ 000000018003e5f8     libucrt:lcidtoname_downlevel.obj
 0002:0000b608       ??_C@_1O@EAKMAJDN@?$AAq?$AAu?$AAz?$AA?9?$AAb?$AAo@ 000000018003e608     libucrt:lcidtoname_downlevel.obj
 0002:0000b618       ??_C@_1O@BHHPIGDN@?$AAq?$AAu?$AAz?$AA?9?$AAe?$AAc@ 000000018003e618     libucrt:lcidtoname_downlevel.obj
 0002:0000b628       ??_C@_1O@GBAPEKMJ@?$AAq?$AAu?$AAz?$AA?9?$AAp?$AAe@ 000000018003e628     libucrt:lcidtoname_downlevel.obj
 0002:0000b638       ??_C@_1M@CLGLEFBO@?$AAr?$AAo?$AA?9?$AAr?$AAo@ 000000018003e638     libucrt:lcidtoname_downlevel.obj
 0002:0000b648       ??_C@_1M@CEEDODME@?$AAr?$AAu?$AA?9?$AAr?$AAu@ 000000018003e648     libucrt:lcidtoname_downlevel.obj
 0002:0000b658       ??_C@_1M@HPKKKMPP@?$AAs?$AAa?$AA?9?$AAi?$AAn@ 000000018003e658     libucrt:lcidtoname_downlevel.obj
 0002:0000b668       ??_C@_1M@BKMAIGOJ@?$AAs?$AAe?$AA?9?$AAf?$AAi@ 000000018003e668     libucrt:lcidtoname_downlevel.obj
 0002:0000b678       ??_C@_1M@NDPIFLFI@?$AAs?$AAe?$AA?9?$AAn?$AAo@ 000000018003e678     libucrt:lcidtoname_downlevel.obj
 0002:0000b688       ??_C@_1M@DANKKHJ@?$AAs?$AAe?$AA?9?$AAs?$AAe@ 000000018003e688     libucrt:lcidtoname_downlevel.obj
 0002:0000b698       ??_C@_1M@PNBLONPJ@?$AAs?$AAk?$AA?9?$AAs?$AAk@ 000000018003e698     libucrt:lcidtoname_downlevel.obj
 0002:0000b6a8       ??_C@_1M@LFMODOAL@?$AAs?$AAl?$AA?9?$AAs?$AAi@ 000000018003e6a8     libucrt:lcidtoname_downlevel.obj
 0002:0000b6b8       ??_C@_1O@DFKOMPG@?$AAs?$AAm?$AAa?$AA?9?$AAn?$AAo@ 000000018003e6b8     libucrt:lcidtoname_downlevel.obj
 0002:0000b6c8       ??_C@_1O@NDKPBNNH@?$AAs?$AAm?$AAa?$AA?9?$AAs?$AAe@ 000000018003e6c8     libucrt:lcidtoname_downlevel.obj
 0002:0000b6d8       ??_C@_1O@PLLKBHAB@?$AAs?$AAm?$AAj?$AA?9?$AAn?$AAo@ 000000018003e6d8     libucrt:lcidtoname_downlevel.obj
 0002:0000b6e8       ??_C@_1O@CLEPOGCA@?$AAs?$AAm?$AAj?$AA?9?$AAs?$AAe@ 000000018003e6e8     libucrt:lcidtoname_downlevel.obj
 0002:0000b6f8       ??_C@_1O@DLGJGKMK@?$AAs?$AAm?$AAn?$AA?9?$AAf?$AAi@ 000000018003e6f8     libucrt:lcidtoname_downlevel.obj
 0002:0000b708       ??_C@_1O@OJDJGAJC@?$AAs?$AAm?$AAs?$AA?9?$AAf?$AAi@ 000000018003e708     libucrt:lcidtoname_downlevel.obj
 0002:0000b718       ??_C@_1M@BOFOGHPB@?$AAs?$AAq?$AA?9?$AAa?$AAl@ 000000018003e718     libucrt:lcidtoname_downlevel.obj
 0002:0000b728       ??_C@_1BG@LJBBIPGB@?$AAs?$AAr?$AA?9?$AAb?$AAa?$AA?9?$AAc?$AAy?$AAr?$AAl@ 000000018003e728     libucrt:lcidtoname_downlevel.obj
 0002:0000b740       ??_C@_1BG@JLBENFOE@?$AAs?$AAr?$AA?9?$AAb?$AAa?$AA?9?$AAl?$AAa?$AAt?$AAn@ 000000018003e740     libucrt:lcidtoname_downlevel.obj
 0002:0000b758       ??_C@_1BG@KODPNHE@?$AAs?$AAr?$AA?9?$AAs?$AAp?$AA?9?$AAc?$AAy?$AAr?$AAl@ 000000018003e758     libucrt:lcidtoname_downlevel.obj
 0002:0000b770       ??_C@_1BG@CIOGKHPB@?$AAs?$AAr?$AA?9?$AAs?$AAp?$AA?9?$AAl?$AAa?$AAt?$AAn@ 000000018003e770     libucrt:lcidtoname_downlevel.obj
 0002:0000b788       ??_C@_1M@NGFJLMAC@?$AAs?$AAv?$AA?9?$AAf?$AAi@ 000000018003e788     libucrt:lcidtoname_downlevel.obj
 0002:0000b798       ??_C@_1M@MPJEJAJC@?$AAs?$AAv?$AA?9?$AAs?$AAe@ 000000018003e798     libucrt:lcidtoname_downlevel.obj
 0002:0000b7a8       ??_C@_1M@MPNDHLFK@?$AAs?$AAw?$AA?9?$AAk?$AAe@ 000000018003e7a8     libucrt:lcidtoname_downlevel.obj
 0002:0000b7b8       ??_C@_1O@KOHBJJI@?$AAs?$AAy?$AAr?$AA?9?$AAs?$AAy@ 000000018003e7b8     libucrt:lcidtoname_downlevel.obj
 0002:0000b7c8       ??_C@_1M@LDCEFHA@?$AAt?$AAa?$AA?9?$AAi?$AAn@ 000000018003e7c8     libucrt:lcidtoname_downlevel.obj
 0002:0000b7d8       ??_C@_1M@CNJOFAK@?$AAt?$AAe?$AA?9?$AAi?$AAn@ 000000018003e7d8     libucrt:lcidtoname_downlevel.obj
 0002:0000b7e8       ??_C@_1M@GNAECACD@?$AAt?$AAh?$AA?9?$AAt?$AAh@ 000000018003e7e8     libucrt:lcidtoname_downlevel.obj
 0002:0000b7f8       ??_C@_1M@CHBIHOJO@?$AAt?$AAn?$AA?9?$AAz?$AAa@ 000000018003e7f8     libucrt:lcidtoname_downlevel.obj
 0002:0000b808       ??_C@_1M@GCCMIGPJ@?$AAt?$AAr?$AA?9?$AAt?$AAr@ 000000018003e808     libucrt:lcidtoname_downlevel.obj
 0002:0000b818       ??_C@_1M@CELMCNBK@?$AAt?$AAt?$AA?9?$AAr?$AAu@ 000000018003e818     libucrt:lcidtoname_downlevel.obj
 0002:0000b828       ??_C@_1M@KLMCELGA@?$AAu?$AAk?$AA?9?$AAu?$AAa@ 000000018003e828     libucrt:lcidtoname_downlevel.obj
 0002:0000b838       ??_C@_1M@EPAJJAJF@?$AAu?$AAr?$AA?9?$AAp?$AAk@ 000000018003e838     libucrt:lcidtoname_downlevel.obj
 0002:0000b848       ??_C@_1BG@GEGPMCDJ@?$AAu?$AAz?$AA?9?$AAu?$AAz?$AA?9?$AAc?$AAy?$AAr?$AAl@ 000000018003e848     libucrt:lcidtoname_downlevel.obj
 0002:0000b860       ??_C@_1BG@EGGKJILM@?$AAu?$AAz?$AA?9?$AAu?$AAz?$AA?9?$AAl?$AAa?$AAt?$AAn@ 000000018003e860     libucrt:lcidtoname_downlevel.obj
 0002:0000b878       ??_C@_1M@GFOCLFF@?$AAv?$AAi?$AA?9?$AAv?$AAn@ 000000018003e878     libucrt:lcidtoname_downlevel.obj
 0002:0000b888       ??_C@_1M@CPAMEDFI@?$AAx?$AAh?$AA?9?$AAz?$AAa@ 000000018003e888     libucrt:lcidtoname_downlevel.obj
 0002:0000b898       ??_C@_1O@EBKIFIGN@?$AAz?$AAh?$AA?9?$AAc?$AAh?$AAs@ 000000018003e898     libucrt:lcidtoname_downlevel.obj
 0002:0000b8a8       ??_C@_1O@NMHPGANE@?$AAz?$AAh?$AA?9?$AAc?$AAh?$AAt@ 000000018003e8a8     libucrt:lcidtoname_downlevel.obj
 0002:0000b8b8       ??_C@_1M@LPINJOMC@?$AAz?$AAh?$AA?9?$AAc?$AAn@ 000000018003e8b8     libucrt:lcidtoname_downlevel.obj
 0002:0000b8c8       ??_C@_1M@OCJEJODD@?$AAz?$AAh?$AA?9?$AAh?$AAk@ 000000018003e8c8     libucrt:lcidtoname_downlevel.obj
 0002:0000b8d8       ??_C@_1M@DNDLJINH@?$AAz?$AAh?$AA?9?$AAm?$AAo@ 000000018003e8d8     libucrt:lcidtoname_downlevel.obj
 0002:0000b8e8       ??_C@_1M@MBFDNDND@?$AAz?$AAh?$AA?9?$AAs?$AAg@ 000000018003e8e8     libucrt:lcidtoname_downlevel.obj
 0002:0000b8f8       ??_C@_1M@IMEPLEPE@?$AAz?$AAh?$AA?9?$AAt?$AAw@ 000000018003e8f8     libucrt:lcidtoname_downlevel.obj
 0002:0000b908       ??_C@_1M@BBGHNHJP@?$AAz?$AAu?$AA?9?$AAz?$AAa@ 000000018003e908     libucrt:lcidtoname_downlevel.obj
 0002:0000b918       __real@3ff0000000000000    000000018003e918     libucrt:ceil.obj
 0002:0000bb70       __log10_256_lead           000000018003eb70     libucrt:log10_256_lead_tail_table.obj
 0002:0000c380       __log10_256_tail           000000018003f380     libucrt:log10_256_lead_tail_table.obj
 0002:0000cb90       __log_F_inv_qword          000000018003fb90     libucrt:log_f_inv_qword_table.obj
 0002:0000d3a0       ??_C@_05HGHHAHAP@log10@    00000001800403a0     libucrt:log_special.obj
 0002:0000d3a8       ??_C@_1BA@BALFACEM@?$AAC?$AAO?$AAN?$AAO?$AAU?$AAT?$AA$@ 00000001800403a8     libucrt:initcon.obj
 0002:0000d3d0       ??_C@_0BI@OEHNMHCG@GetCurrentConsoleFontEx@ 00000001800403d0     common-kernel64:WConsole.obj
 0002:0000d3e8       ??_C@_0BI@PCBACGEE@SetCurrentConsoleFontEx@ 00000001800403e8     common-kernel64:WConsole.obj
 0002:0000d460       _load_config_used          0000000180040460     LIBCMT:loadcfg.obj
 0002:0000d600       _tls_used                  0000000180040600     LIBCMT:tlssup.obj
 0002:0000d628       ??_R4CPluginW1900@@6B@     0000000180040628     ConEmuPlugin1900.obj
 0002:0000d650       ??_R3CPluginW1900@@8       0000000180040650     ConEmuPlugin1900.obj
 0002:0000d668       ??_R2CPluginW1900@@8       0000000180040668     ConEmuPlugin1900.obj
 0002:0000d680       ??_R1A@?0A@EA@CPluginW1900@@8 0000000180040680     ConEmuPlugin1900.obj
 0002:0000d6a8       ??_R1A@?0A@EA@CPluginBase@@8 00000001800406a8     ConEmuPlugin1900.obj
 0002:0000d6d0       ??_R3CPluginBase@@8        00000001800406d0     ConEmuPlugin1900.obj
 0002:0000d6e8       ??_R2CPluginBase@@8        00000001800406e8     ConEmuPlugin1900.obj
 0002:0000d6f8       ??_R4exception@std@@6B@    00000001800406f8     ConEmuPlugin2800.obj
 0002:0000d720       ??_R3exception@std@@8      0000000180040720     ConEmuPlugin2800.obj
 0002:0000d738       ??_R2exception@std@@8      0000000180040738     ConEmuPlugin2800.obj
 0002:0000d748       ??_R1A@?0A@EA@exception@std@@8 0000000180040748     ConEmuPlugin2800.obj
 0002:0000d770       ??_R4bad_alloc@std@@6B@    0000000180040770     ConEmuPlugin2800.obj
 0002:0000d798       ??_R3bad_alloc@std@@8      0000000180040798     ConEmuPlugin2800.obj
 0002:0000d7b0       ??_R2bad_alloc@std@@8      00000001800407b0     ConEmuPlugin2800.obj
 0002:0000d7c8       ??_R1A@?0A@EA@bad_alloc@std@@8 00000001800407c8     ConEmuPlugin2800.obj
 0002:0000d7f0       ??_R4CPluginW2800@@6B@     00000001800407f0     ConEmuPlugin2800.obj
 0002:0000d818       ??_R3CPluginW2800@@8       0000000180040818     ConEmuPlugin2800.obj
 0002:0000d830       ??_R2CPluginW2800@@8       0000000180040830     ConEmuPlugin2800.obj
 0002:0000d848       ??_R1A@?0A@EA@CPluginW2800@@8 0000000180040848     ConEmuPlugin2800.obj
 0002:0000d870       ??_R4CPluginW995@@6B@      0000000180040870     ConEmuPlugin995.obj
 0002:0000d898       ??_R3CPluginW995@@8        0000000180040898     ConEmuPlugin995.obj
 0002:0000d8b0       ??_R2CPluginW995@@8        00000001800408b0     ConEmuPlugin995.obj
 0002:0000d8c8       ??_R1A@?0A@EA@CPluginW995@@8 00000001800408c8     ConEmuPlugin995.obj
 0002:0000d8f0       ??_R4CPluginAnsi@@6B@      00000001800408f0     ConEmuPluginA.obj
 0002:0000d918       ??_R3CPluginAnsi@@8        0000000180040918     ConEmuPluginA.obj
 0002:0000d930       ??_R2CPluginAnsi@@8        0000000180040930     ConEmuPluginA.obj
 0002:0000d948       ??_R1A@?0A@EA@CPluginAnsi@@8 0000000180040948     ConEmuPluginA.obj
 0002:0000d970       ??_R4CPluginBase@@6B@      0000000180040970     ConEmuPluginBase.obj
 0002:0000d998       ??_R4exception@stdext@@6B@ 0000000180040998     common-kernel64:CEStr.obj
 0002:0000d9c0       ??_R3exception@stdext@@8   00000001800409c0     common-kernel64:CEStr.obj
 0002:0000d9d8       ??_R2exception@stdext@@8   00000001800409d8     common-kernel64:CEStr.obj
 0002:0000d9e8       ??_R1A@?0A@EA@exception@stdext@@8 00000001800409e8     common-kernel64:CEStr.obj
 0002:0000da10       ??_R4bad_alloc@stdext@@6B@ 0000000180040a10     common-kernel64:CEStr.obj
 0002:0000da38       ??_R3bad_alloc@stdext@@8   0000000180040a38     common-kernel64:CEStr.obj
 0002:0000da50       ??_R2bad_alloc@stdext@@8   0000000180040a50     common-kernel64:CEStr.obj
 0002:0000da68       ??_R1A@?0A@EA@bad_alloc@stdext@@8 0000000180040a68     common-kernel64:CEStr.obj
 0002:0000da90       ??_R3?$_Func_base@XPEAX@std@@8 0000000180040a90     common-kernel64:WObjects.obj
 0002:0000daa8       ??_R2?$_Func_base@XPEAX@std@@8 0000000180040aa8     common-kernel64:WObjects.obj
 0002:0000dab8       ??_R1A@?0A@EA@?$_Func_base@XPEAX@std@@8 0000000180040ab8     common-kernel64:WObjects.obj
 0002:0000dae0       ??_R4?$_Func_impl_no_alloc@P6AHPEAX@ZXPEAX@std@@6B@ 0000000180040ae0     common-kernel64:WObjects.obj
 0002:0000db08       ??_R3?$_Func_impl_no_alloc@P6AHPEAX@ZXPEAX@std@@8 0000000180040b08     common-kernel64:WObjects.obj
 0002:0000db20       ??_R2?$_Func_impl_no_alloc@P6AHPEAX@ZXPEAX@std@@8 0000000180040b20     common-kernel64:WObjects.obj
 0002:0000db38       ??_R1A@?0A@EA@?$_Func_impl_no_alloc@P6AHPEAX@ZXPEAX@std@@8 0000000180040b38     common-kernel64:WObjects.obj
 0002:0000db60       ??_R4MToolHelpProcess@@6B@ 0000000180040b60     common-kernel64:MProcess.obj
 0002:0000db88       ??_R3MToolHelpProcess@@8   0000000180040b88     common-kernel64:MProcess.obj
 0002:0000dba0       ??_R2MToolHelpProcess@@8   0000000180040ba0     common-kernel64:MProcess.obj
 0002:0000dbb8       ??_R1A@?0A@EA@MToolHelpProcess@@8 0000000180040bb8     common-kernel64:MProcess.obj
 0002:0000dbe0       ??_R1A@?0A@EA@?$MToolHelp@UtagPROCESSENTRY32W@@$1?Process32FirstW@@YAHPEAXPEAU1@@Z$1?Process32NextW@@YAH01@Z@@8 0000000180040be0     common-kernel64:MProcess.obj
 0002:0000dc08       ??_R3?$MToolHelp@UtagPROCESSENTRY32W@@$1?Process32FirstW@@YAHPEAXPEAU1@@Z$1?Process32NextW@@YAH01@Z@@8 0000000180040c08     common-kernel64:MProcess.obj
 0002:0000dc20       ??_R2?$MToolHelp@UtagPROCESSENTRY32W@@$1?Process32FirstW@@YAHPEAXPEAU1@@Z$1?Process32NextW@@YAH01@Z@@8 0000000180040c20     common-kernel64:MProcess.obj
 0002:0000dc30       ??_R4?$MToolHelp@UtagPROCESSENTRY32W@@$1?Process32FirstW@@YAHPEAXPEAU1@@Z$1?Process32NextW@@YAH01@Z@@6B@ 0000000180040c30     common-kernel64:MProcess.obj
 0002:0000dc58       ??_R3?$_Func_base@_NAEBUtagPROCESSENTRY32W@@@std@@8 0000000180040c58     common-kernel64:MProcess.obj
 0002:0000dc70       ??_R2?$_Func_base@_NAEBUtagPROCESSENTRY32W@@@std@@8 0000000180040c70     common-kernel64:MProcess.obj
 0002:0000dc80       ??_R1A@?0A@EA@?$_Func_base@_NAEBUtagPROCESSENTRY32W@@@std@@8 0000000180040c80     common-kernel64:MProcess.obj
 0002:0000dca8       ??_R4?$_Func_impl_no_alloc@V<lambda_217d18733db987cb8fc0adfd68028951>@@_NAEBUtagPROCESSENTRY32W@@@std@@6B@ 0000000180040ca8     common-kernel64:MProcess.obj
 0002:0000dcd0       ??_R3?$_Func_impl_no_alloc@V<lambda_217d18733db987cb8fc0adfd68028951>@@_NAEBUtagPROCESSENTRY32W@@@std@@8 0000000180040cd0     common-kernel64:MProcess.obj
 0002:0000dce8       ??_R2?$_Func_impl_no_alloc@V<lambda_217d18733db987cb8fc0adfd68028951>@@_NAEBUtagPROCESSENTRY32W@@@std@@8 0000000180040ce8     common-kernel64:MProcess.obj
 0002:0000dd00       ??_R1A@?0A@EA@?$_Func_impl_no_alloc@V<lambda_217d18733db987cb8fc0adfd68028951>@@_NAEBUtagPROCESSENTRY32W@@@std@@8 0000000180040d00     common-kernel64:MProcess.obj
 0002:0000dd28       ??_R4bad_function_call@std@@6B@ 0000000180040d28     libcpmt:xthrow.obj
 0002:0000dd50       ??_R3bad_function_call@std@@8 0000000180040d50     libcpmt:xthrow.obj
 0002:0000dd68       ??_R2bad_function_call@std@@8 0000000180040d68     libcpmt:xthrow.obj
 0002:0000dd80       ??_R1A@?0A@EA@bad_function_call@std@@8 0000000180040d80     libcpmt:xthrow.obj
 0002:0000dda8       ??_R4logic_error@std@@6B@  0000000180040da8     libcpmt:xthrow.obj
 0002:0000ddd0       ??_R3logic_error@std@@8    0000000180040dd0     libcpmt:xthrow.obj
 0002:0000dde8       ??_R2logic_error@std@@8    0000000180040de8     libcpmt:xthrow.obj
 0002:0000de00       ??_R1A@?0A@EA@logic_error@std@@8 0000000180040e00     libcpmt:xthrow.obj
 0002:0000de28       ??_R4length_error@std@@6B@ 0000000180040e28     libcpmt:xthrow.obj
 0002:0000de50       ??_R3length_error@std@@8   0000000180040e50     libcpmt:xthrow.obj
 0002:0000de68       ??_R2length_error@std@@8   0000000180040e68     libcpmt:xthrow.obj
 0002:0000de88       ??_R1A@?0A@EA@length_error@std@@8 0000000180040e88     libcpmt:xthrow.obj
 0002:0000deb0       ??_R4type_info@@6B@        0000000180040eb0     LIBCMT:std_type_info_static.obj
 0002:0000ded8       ??_R3type_info@@8          0000000180040ed8     LIBCMT:std_type_info_static.obj
 0002:0000def0       ??_R2type_info@@8          0000000180040ef0     LIBCMT:std_type_info_static.obj
 0002:0000df00       ??_R1A@?0A@EA@type_info@@8 0000000180040f00     LIBCMT:std_type_info_static.obj
 0002:0000df28       ??_R4bad_exception@std@@6B@ 0000000180040f28     libvcruntime:frame.obj
 0002:0000df50       ??_R3bad_exception@std@@8  0000000180040f50     libvcruntime:frame.obj
 0002:0000df68       ??_R2bad_exception@std@@8  0000000180040f68     libvcruntime:frame.obj
 0002:0000df80       ??_R1A@?0A@EA@bad_exception@std@@8 0000000180040f80     libvcruntime:frame.obj
 0002:0000dfa4       __volatile_metadata        0000000180040fa4     <linker-defined>
 0002:0000e520       __rtc_iaa                  0000000180041520     LIBCMT:initsect.obj
 0002:0000e528       __rtc_izz                  0000000180041528     LIBCMT:initsect.obj
 0002:0000e530       __rtc_taa                  0000000180041530     LIBCMT:initsect.obj
 0002:0000e538       __rtc_tzz                  0000000180041538     LIBCMT:initsect.obj
 0002:0000e540       _tls_start                 0000000180041540     LIBCMT:tlssup.obj
 0002:0000e544       _Init_thread_epoch         0000000180041544     LIBCMT:thread_safe_statics.obj
 0002:0000e548       _tls_end                   0000000180041548     LIBCMT:tlssup.obj
 0002:00010e00       _CT??_R0?AVbad_alloc@std@@@8??0bad_alloc@std@@QEAA@AEBV01@@Z24 0000000180043e00     ConEmuPlugin2800.obj
 0002:00010e28       _CT??_R0?AVexception@std@@@8??0exception@std@@QEAA@AEBV01@@Z24 0000000180043e28     ConEmuPlugin2800.obj
 0002:00010e50       _TI2?AVbad_alloc@std@@     0000000180043e50     ConEmuPlugin2800.obj
 0002:00010e70       _CTA2?AVbad_alloc@std@@    0000000180043e70     ConEmuPlugin2800.obj
 0002:00010e88       _TI2?AVbad_alloc@stdext@@  0000000180043e88     common-kernel64:CEStr.obj
 0002:00010ea8       _CTA2?AVbad_alloc@stdext@@ 0000000180043ea8     common-kernel64:CEStr.obj
 0002:00010ec0       _CT??_R0?AVbad_alloc@stdext@@@8??0bad_alloc@stdext@@QEAA@AEBV01@@Z16 0000000180043ec0     common-kernel64:CEStr.obj
 0002:00010ee8       _CT??_R0?AVexception@stdext@@@8??0exception@stdext@@QEAA@AEBV01@@Z16 0000000180043ee8     common-kernel64:CEStr.obj
 0002:00010f10       _CT??_R0?AVlogic_error@std@@@8??0logic_error@std@@QEAA@AEBV01@@Z24 0000000180043f10     libcpmt:xthrow.obj
 0002:00010f38       _TI3?AVlength_error@std@@  0000000180043f38     libcpmt:xthrow.obj
 0002:00010f58       _CTA3?AVlength_error@std@@ 0000000180043f58     libcpmt:xthrow.obj
 0002:00010f78       _CT??_R0?AVlength_error@std@@@8??0length_error@std@@QEAA@AEBV01@@Z24 0000000180043f78     libcpmt:xthrow.obj
 0002:00010fa0       _TI2?AVbad_function_call@std@@ 0000000180043fa0     libcpmt:xthrow.obj
 0002:00010fc0       _CTA2?AVbad_function_call@std@@ 0000000180043fc0     libcpmt:xthrow.obj
 0002:00010fd8       _CT??_R0?AVbad_function_call@std@@@8??0bad_function_call@std@@QEAA@AEBV01@@Z24 0000000180043fd8     libcpmt:xthrow.obj
 0002:00011000       _TI2?AVbad_exception@std@@ 0000000180044000     libvcruntime:frame.obj
 0002:00011020       _CTA2?AVbad_exception@std@@ 0000000180044020     libvcruntime:frame.obj
 0002:00011038       _CT??_R0?AVbad_exception@std@@@8??0bad_exception@std@@QEAA@AEBV01@@Z24 0000000180044038     libvcruntime:frame.obj
 0002:00011344       __IMPORT_DESCRIPTOR_VERSION 0000000180044344     version:VERSION.dll
 0002:00011358       __IMPORT_DESCRIPTOR_KERNEL32 0000000180044358     kernel32:KERNEL32.dll
 0002:0001136c       __IMPORT_DESCRIPTOR_USER32 000000018004436c     user32:USER32.dll
 0002:00011380       __IMPORT_DESCRIPTOR_GDI32  0000000180044380     gdi32:GDI32.dll
 0002:00011394       __IMPORT_DESCRIPTOR_ADVAPI32 0000000180044394     advapi32:ADVAPI32.dll
 0002:000113a8       __NULL_IMPORT_DESCRIPTOR   00000001800443a8     version:VERSION.dll
 0003:00000000       ?Far3Func@@3PAUExportFunc@@A 0000000180046000     ConEmuPlugin.obj
 0003:00000080       ?StdPalette@?1??GetStdPalette@Far3Color@@SAPEBKXZ@4PAKA 0000000180046080     ConEmuPlugin1900.obj
 0003:000000c0       ?guid_ConEmu@@3U_GUID@@A   00000001800460c0     ConEmuPlugin2800.obj
 0003:000000d0       ?guid_ConEmuPluginItems@@3U_GUID@@A 00000001800460d0     ConEmuPlugin2800.obj
 0003:000000e0       ?guid_ConEmuPluginMenu@@3U_GUID@@A 00000001800460e0     ConEmuPlugin2800.obj
 0003:000000f0       ?guid_ConEmuGuiMacroDlg@@3U_GUID@@A 00000001800460f0     ConEmuPlugin2800.obj
 0003:00000100       ?guid_ConEmuWaitEndSynchro@@3U_GUID@@A 0000000180046100     ConEmuPlugin2800.obj
 0003:00000110       ?guid_ConEmuMsg@@3U_GUID@@A 0000000180046110     ConEmuPlugin2800.obj
 0003:00000120       ?guid_ConEmuInput@@3U_GUID@@A 0000000180046120     ConEmuPlugin2800.obj
 0003:00000130       ?guid_ConEmuMenu@@3U_GUID@@A 0000000180046130     ConEmuPlugin2800.obj
 0003:00000160       ?gFarMode@@3UHookModeFar@@A 0000000180046160     ConEmuPluginBase.obj
 0003:00000190       ?gnPluginOpenFrom@@3HA     0000000180046190     ConEmuPluginBase.obj
 0003:00000194       ?gnReqCommand@@3KA         0000000180046194     ConEmuPluginBase.obj
 0003:00000198       ?lastModifiedStateW@@3HA   0000000180046198     ConEmuPluginBase.obj
 0003:000001a0       ?gpPluginMenu@@3PAUPluginAndMenuCommands@@A 00000001800461a0     ConEmuPluginBase.obj
 0003:00000260       ?g_TerminatedThreadIdx@@3JA 0000000180046260     common-kernel64:WThreads.obj
 0003:00000270       __security_cookie_complement 0000000180046270     LIBCMT:gs_cookie.obj
 0003:00000278       __security_cookie          0000000180046278     LIBCMT:gs_cookie.obj
 0003:00000280       _Init_global_epoch         0000000180046280     LIBCMT:thread_safe_statics.obj
 0003:00000284       __scrt_native_dllmain_reason 0000000180046284     LIBCMT:utility.obj
 0003:00000288       __isa_available            0000000180046288     LIBCMT:cpu_disp.obj
 0003:0000028c       __isa_enabled              000000018004628c     LIBCMT:cpu_disp.obj
 0003:00000290       __memcpy_nt_iters          0000000180046290     LIBCMT:cpu_disp.obj
 0003:00000298       __memset_nt_iters          0000000180046298     LIBCMT:cpu_disp.obj
 0003:000002b8       __abort_behavior           00000001800462b8     libucrt:abort.obj
 0003:000002d0       _iob                       00000001800462d0     libucrt:_file.obj
 0003:000003e0       __acrt_initial_locale_data 00000001800463e0     libucrt:nlsdata.obj
 0003:00000538       __acrt_initial_locale_pointers 0000000180046538     libucrt:nlsdata.obj
 0003:00000548       __acrt_wide_c_locale_string 0000000180046548     libucrt:nlsdata.obj
 0003:00000550       _pwctype                   0000000180046550     libucrt:ctype.obj
 0003:00000560       __acrt_initial_multibyte_data 0000000180046560     libucrt:mbctype.obj
 0003:00000aa0       __globallocalestatus       0000000180046aa0     libucrt:glstatus.obj
 0003:00000ab0       __acrt_lconv_c             0000000180046ab0     libucrt:localeconv.obj
 0003:00000b48       __acrt_lconv_static_decimal 0000000180046b48     libucrt:localeconv.obj
 0003:00000b4c       __acrt_lconv_static_W_decimal 0000000180046b4c     libucrt:localeconv.obj
 0003:00000b50       _lookuptrailbytes          0000000180046b50     libucrt:read.obj
 0003:00000c74       _fltused                   0000000180046c74     LIBCMT:fltused.obj
 0003:00000c80       ??_R0?AVbad_alloc@std@@@8  0000000180046c80     ConEmuPlugin2800.obj
 0003:00000ca8       ??_R0?AVexception@std@@@8  0000000180046ca8     ConEmuPlugin2800.obj
 0003:00000cd0       ??_R0?AVbad_alloc@stdext@@@8 0000000180046cd0     common-kernel64:CEStr.obj
 0003:00000cf8       ??_R0?AVexception@stdext@@@8 0000000180046cf8     common-kernel64:CEStr.obj
 0003:00000d20       ??_R0P6AHPEAX@Z@8          0000000180046d20     common-kernel64:WObjects.obj
 0003:00000d40       ??_R0?AV<lambda_217d18733db987cb8fc0adfd68028951>@@@8 0000000180046d40     common-kernel64:MProcess.obj
 0003:00000d80       ??_R0?AVlogic_error@std@@@8 0000000180046d80     libcpmt:xthrow.obj
 0003:00000da8       ??_R0?AVlength_error@std@@@8 0000000180046da8     libcpmt:xthrow.obj
 0003:00000dd0       ??_R0?AVbad_function_call@std@@@8 0000000180046dd0     libcpmt:xthrow.obj
 0003:00000e00       ??_R0?AVbad_exception@std@@@8 0000000180046e00     libvcruntime:frame.obj
 0003:00000e30       ??_R0?AVCPluginW1900@@@8   0000000180046e30     ConEmuPlugin1900.obj
 0003:00000e58       ??_R0?AVCPluginBase@@@8    0000000180046e58     ConEmuPlugin1900.obj
 0003:00000e80       ??_R0?AVCPluginW2800@@@8   0000000180046e80     ConEmuPlugin2800.obj
 0003:00000ea8       ??_R0?AVCPluginW995@@@8    0000000180046ea8     ConEmuPlugin995.obj
 0003:00000ed0       ??_R0?AVCPluginAnsi@@@8    0000000180046ed0     ConEmuPluginA.obj
 0003:00000ef8       ??_R0?AV?$_Func_base@XPEAX@std@@@8 0000000180046ef8     common-kernel64:WObjects.obj
 0003:00000f30       ??_R0?AV?$_Func_impl_no_alloc@P6AHPEAX@ZXPEAX@std@@@8 0000000180046f30     common-kernel64:WObjects.obj
 0003:00000f70       ??_R0?AVMToolHelpProcess@@@8 0000000180046f70     common-kernel64:MProcess.obj
 0003:00000fa0       ??_R0?AV?$MToolHelp@UtagPROCESSENTRY32W@@$1?Process32FirstW@@YAHPEAXPEAU1@@Z$1?Process32NextW@@YAH01@Z@@@8 0000000180046fa0     common-kernel64:MProcess.obj
 0003:00001020       ??_R0?AV?$_Func_base@_NAEBUtagPROCESSENTRY32W@@@std@@@8 0000000180047020     common-kernel64:MProcess.obj
 0003:00001070       ??_R0?AV?$_Func_impl_no_alloc@V<lambda_217d18733db987cb8fc0adfd68028951>@@_NAEBUtagPROCESSENTRY32W@@@std@@@8 0000000180047070     common-kernel64:MProcess.obj
 0003:000010e8       ??_R0?AVtype_info@@@8      00000001800470e8     LIBCMT:std_type_info_static.obj
 0003:00001110       ?ghExtConModule@@3PEAUHINSTANCE__@@EA 0000000180047110     ConEmuInjects.obj
 0003:00001118       ?ghHooksModule@@3PEAUHINSTANCE__@@EA 0000000180047118     ConEmuInjects.obj
 0003:00001120       ?gbHooksModuleLoaded@@3HA  0000000180047120     ConEmuInjects.obj
 0003:00001128       ?SetHookCallbacks@@3P6A_NPEBDPEB_WPEAUHINSTANCE__@@P6AHPEAUHookCallbackArg@@@Z44@ZEA 0000000180047128     ConEmuInjects.obj
 0003:00001130       ?SetLoadLibraryCallback@@3P6AXPEAUHINSTANCE__@@P6AX0@Z1@ZEA 0000000180047130     ConEmuInjects.obj
 0003:00001138       ?SetFarHookMode@@3P6AXPEAUHookModeFar@@@ZEA 0000000180047138     ConEmuInjects.obj
 0003:00001140       ?SetConsoleCallbacks@@3P6A_NPEAUHINSTANCE__@@KPEAP6AHPEAUHookCallbackArg@@@Z@ZEA 0000000180047140     ConEmuInjects.obj
 0003:00001148       ?_OptionsStorage@?1??__local_stdio_printf_options@@9@4_KA 0000000180047148     ConEmuInjects.obj
 0003:00001150       ?InfoW1900@@3PEAUPluginStartupInfo@@EA 0000000180047150     ConEmuPlugin1900.obj
 0003:00001158       ?FSFW1900@@3PEAUFarStandardFunctions@@EA 0000000180047158     ConEmuPlugin1900.obj
 0003:00001160       ?LastColor@?1??Color2FgIndex@Far3Color@@SAXKAEAGPEBK@Z@4KA 0000000180047160     ConEmuPlugin1900.obj
 0003:00001164       ?LastIndex@?1??Color2FgIndex@Far3Color@@SAXKAEAGPEBK@Z@4HA 0000000180047164     ConEmuPlugin1900.obj
 0003:00001168       ?LastColor@?1??Color2BgIndex@Far3Color@@SAXKHAEAGPEBK@Z@4KA 0000000180047168     ConEmuPlugin1900.obj
 0003:0000116c       ?LastIndex@?1??Color2BgIndex@Far3Color@@SAXKHAEAGPEBK@Z@4HA 000000018004716c     ConEmuPlugin1900.obj
 0003:00001428       ?InfoW2800@@3PEAUPluginStartupInfo@@EA 0000000180047428     ConEmuPlugin2800.obj
 0003:00001430       ?FSFW2800@@3PEAUFarStandardFunctions@@EA 0000000180047430     ConEmuPlugin2800.obj
 0003:00001720       ?InfoW995@@3PEAUPluginStartupInfo@@EA 0000000180047720     ConEmuPlugin995.obj
 0003:00001728       ?FSFW995@@3PEAUFarStandardFunctions@@EA 0000000180047728     ConEmuPlugin995.obj
 0003:00001990       ?InfoA@@3PEAUPluginStartupInfo@@EA 0000000180047990     ConEmuPluginA.obj
 0003:00001998       ?FSFA@@3PEAUFarStandardFunctions@@EA 0000000180047998     ConEmuPluginA.obj
 0003:00001cb0       ?gLastMouseReadEvent@@3U_MOUSE_EVENT_RECORD@@A 0000000180047cb0     ConEmuPluginBase.obj
 0003:00001cc0       ?gnDummyMouseEventFromMacro@@3JA 0000000180047cc0     ConEmuPluginBase.obj
 0003:00001cc4       ?gbUngetDummyMouseEvent@@3HA 0000000180047cc4     ConEmuPluginBase.obj
 0003:00001cc8       ?gpPlugin@@3PEAVCPluginBase@@EA 0000000180047cc8     ConEmuPluginBase.obj
 0003:00001cd0       ?gbWasDetached@@3HA        0000000180047cd0     ConEmuPluginBase.obj
 0003:00001cd4       ?gbFarWndVisible@@3HA      0000000180047cd4     ConEmuPluginBase.obj
 0003:00001cd8       ?gsbiDetached@@3U_CONSOLE_SCREEN_BUFFER_INFO@@A 0000000180047cd8     ConEmuPluginBase.obj
 0003:00001cee       ?gbExitFarCalled@@3_NA     0000000180047cee     ConEmuPluginBase.obj
 0003:00001cef       ?gbSynchroProhibited@@3_NA 0000000180047cef     ConEmuPluginBase.obj
 0003:00001cf0       ?gnPeekReadCount@@3KA      0000000180047cf0     ConEmuPluginBase.obj
 0003:00001cf4       ?gnInLongOperation@@3JA    0000000180047cf4     ConEmuPluginBase.obj
 0003:00001cf8       ?gdwPreDetachGuiPID@@3KA   0000000180047cf8     ConEmuPluginBase.obj
 0003:00001cfc       ?gdwServerPID@@3KA         0000000180047cfc     ConEmuPluginBase.obj
 0003:00001d00       ?gnMainThreadIdInitial@@3KA 0000000180047d00     ConEmuPluginBase.obj
 0003:00001d04       ?gnMonitorThreadId@@3KA    0000000180047d04     ConEmuPluginBase.obj
 0003:00001d08       ?ghMonitorThread@@3PEAXEA  0000000180047d08     ConEmuPluginBase.obj
 0003:00001d10       ?ghSetWndSendTabsEvent@@3PEAXEA 0000000180047d10     ConEmuPluginBase.obj
 0003:00001d18       ?gbRequestUpdateTabs@@3HA  0000000180047d18     ConEmuPluginBase.obj
 0003:00001d1c       ?gbClosingModalViewerEditor@@3HA 0000000180047d1c     ConEmuPluginBase.obj
 0003:00001d20       ?gnAllowDummyMouseEvent@@3JA 0000000180047d20     ConEmuPluginBase.obj
 0003:00001d24       ?gnDataSize@@3KA           0000000180047d24     ConEmuPluginBase.obj
 0003:00001d28       ?csData@@3PEAVMSection@@EA 0000000180047d28     ConEmuPluginBase.obj
 0003:00001d30       ?gpData@@3PEAEEA           0000000180047d30     ConEmuPluginBase.obj
 0003:00001d38       ?gpCursor@@3PEAEEA         0000000180047d38     ConEmuPluginBase.obj
 0003:00001d40       ?gpReqCommandData@@3PEAXEA 0000000180047d40     ConEmuPluginBase.obj
 0003:00001d48       ?ghReqCommandEvent@@3PEAXEA 0000000180047d48     ConEmuPluginBase.obj
 0003:00001d50       ?gbReqCommandWaiting@@3HA  0000000180047d50     ConEmuPluginBase.obj
 0003:00001d54       ?gnMsgTabChanged@@3IA      0000000180047d54     ConEmuPluginBase.obj
 0003:00001d58       ?csTabs@@3PEAVMSection@@EA 0000000180047d58     ConEmuPluginBase.obj
 0003:00001d60       ?gbPlugKeyChanged@@3HA     0000000180047d60     ConEmuPluginBase.obj
 0003:00001d64       ?gbNeedPostTabSend@@3HA    0000000180047d64     ConEmuPluginBase.obj
 0003:00001d68       ?ghRegMonitorKey@@3PEAUHKEY__@@EA 0000000180047d68     ConEmuPluginBase.obj
 0003:00001d70       ?ghRegMonitorEvt@@3PEAXEA  0000000180047d70     ConEmuPluginBase.obj
 0003:00001d78       ?ghPluginSemaphore@@3PEAXEA 0000000180047d78     ConEmuPluginBase.obj
 0003:00001d80       ?gsFarLang@@3PA_WA         0000000180047d80     ConEmuPluginBase.obj
 0003:00001e00       ?gbNeedPostEditCheck@@3HA  0000000180047e00     ConEmuPluginBase.obj
 0003:00001e04       ?gbNeedPostReloadFarInfo@@3HA 0000000180047e04     ConEmuPluginBase.obj
 0003:00001e08       ?gbNeedReloadFarDir@@3HA   0000000180047e08     ConEmuPluginBase.obj
 0003:00001e0c       ?gnNeedPostTabSendTick@@3KA 0000000180047e0c     ConEmuPluginBase.obj
 0003:00001e10       ?gpConMap@@3PEAV?$MFileMapping@UCESERVER_CONSOLE_MAPPING_HDR@@@@EA 0000000180047e10     ConEmuPluginBase.obj
 0003:00001e18       ?gbStartedUnderConsole2@@3HA 0000000180047e18     ConEmuPluginBase.obj
 0003:00001e1c       ?gnSelfPID@@3KA            0000000180047e1c     ConEmuPluginBase.obj
 0003:00001e20       ?ghFarInfoMapping@@3PEAXEA 0000000180047e20     ConEmuPluginBase.obj
 0003:00001e28       ?gpFarInfo@@3PEAUCEFAR_INFO_MAPPING@@EA 0000000180047e28     ConEmuPluginBase.obj
 0003:00001e30       ?gpFarInfoMapping@@3PEAUCEFAR_INFO_MAPPING@@EA 0000000180047e30     ConEmuPluginBase.obj
 0003:00001e38       ?ghFarAliveEvent@@3PEAXEA  0000000180047e38     ConEmuPluginBase.obj
 0003:00001e40       ?ghConEmuCtrlPressed@@3PEAXEA 0000000180047e40     ConEmuPluginBase.obj
 0003:00001e48       ?ghConEmuShiftPressed@@3PEAXEA 0000000180047e48     ConEmuPluginBase.obj
 0003:00001e50       ?gbWaitConsoleInputEmpty@@3HA 0000000180047e50     ConEmuPluginBase.obj
 0003:00001e54       ?gbWaitConsoleWrite@@3HA   0000000180047e54     ConEmuPluginBase.obj
 0003:00001e58       ?ghConsoleInputEmpty@@3PEAXEA 0000000180047e58     ConEmuPluginBase.obj
 0003:00001e60       ?ghConsoleWrite@@3PEAXEA   0000000180047e60     ConEmuPluginBase.obj
 0003:00001e68       ?gbInputSynchroPending@@3_NA 0000000180047e68     ConEmuPluginBase.obj
 0003:00001e69       ?gb_DllUniqueWarned@CPluginBase@@1_NA 0000000180047e69     ConEmuPluginBase.obj
 0003:00001e6a       ?gb_DllUniqueChecked@CPluginBase@@1_NA 0000000180047e6a     ConEmuPluginBase.obj
 0003:00001e6b       ?gb_ProtocolWarned@CPluginBase@@1_NA 0000000180047e6b     ConEmuPluginBase.obj
 0003:00001e6c       ?gnSynchroThrottleTick@@3KA 0000000180047e6c     ConEmuPluginBase.obj
 0003:00001e70       ?ghPluginModule@@3PEAUHINSTANCE__@@EA 0000000180047e70     ConEmuPluginBase.obj
 0003:00001e78       ?gnMainThreadId@@3KA       0000000180047e78     ConEmuPluginBase.obj
 0003:00001e7c       ?maxTabCount@@3HA          0000000180047e7c     ConEmuPluginBase.obj
 0003:00001e80       ?gszDir1@@3PA_WA           0000000180047e80     ConEmuPluginBase.obj
 0003:00002680       ?gszDir2@@3PA_WA           0000000180048680     ConEmuPluginBase.obj
 0003:00002e80       ?lastWindowCount@@3HA      0000000180048e80     ConEmuPluginBase.obj
 0003:00002e84       ?gnCurTabCount@@3HA        0000000180048e84     ConEmuPluginBase.obj
 0003:00002e88       ?gpCmdRet@@3PEAUCESERVER_REQ@@EA 0000000180048e88     ConEmuPluginBase.obj
 0003:00002e90       ?ghConEmuWndDC@@3PEAUHWND__@@EA 0000000180048e90     ConEmuPluginBase.obj
 0003:00002e98       ?FarHwnd@@3PEAUHWND__@@EA  0000000180048e98     ConEmuPluginBase.obj
 0003:00002ea0       ?gFarVersion@@3UFarVersion@@A 0000000180048ea0     ConEmuPluginBase.obj
 0003:00002eac       ?gbIgnoreUpdateTabs@@3HA   0000000180048eac     ConEmuPluginBase.obj
 0003:00002eb0       ?gpConMapInfo@@3PEBUCESERVER_CONSOLE_MAPPING_HDR@@EB 0000000180048eb0     ConEmuPluginBase.obj
 0003:00002eb8       ?gpTabs@@3PEAUCESERVER_REQ@@EA 0000000180048eb8     ConEmuPluginBase.obj
 0003:00002ec0       ?gbForceSendTabs@@3HA      0000000180048ec0     ConEmuPluginBase.obj
 0003:00002ec4       ?gnCurrentWindowType@@3HA  0000000180048ec4     ConEmuPluginBase.obj
 0003:00002ec8       ?gPanelRegLeft@@3UPanelViewRegInfo@@A 0000000180048ec8     ConEmuPluginBase.obj
 0003:00002ef8       ?gPanelRegRight@@3UPanelViewRegInfo@@A 0000000180048ef8     ConEmuPluginBase.obj
 0003:00002f28       ?gnSynchroCount@@3HA       0000000180048f28     ConEmuPluginBase.obj
 0003:00002f2c       ?TerminalMode@@3HA         0000000180048f2c     ConEmuPluginBase.obj
 0003:00002f48       ?csbi@@3U_CONSOLE_SCREEN_BUFFER_INFO@@A 0000000180048f48     LogBrowser.obj
 0003:00002f5e       ?gbShowAttrsOnly@@3_NA     0000000180048f5e     LogBrowser.obj
 0003:00002f60       ?gnPage@@3HA               0000000180048f60     LogBrowser.obj
 0003:00002f68       ?gbBgPluginsAllowed@@3HA   0000000180048f68     PluginBackground.obj
 0003:00002f6c       ?gbNeedBgActivate@@3HA     0000000180048f6c     PluginBackground.obj
 0003:00002f70       ?gpBgPlugin@@3PEAVCPluginBackground@@EA 0000000180048f70     PluginBackground.obj
 0003:00002f80       ?ghServerTerminateEvent@@3PEAXEA 0000000180048f80     PluginSrv.obj
 0003:00002f88       ?gpPlugServer@@3PEAU?$PipeServer@UCESERVER_REQ@@@@EA 0000000180048f88     PluginSrv.obj
 0003:00002f90       ?gszPluginServerPipe@@3PA_WA 0000000180048f90     PluginSrv.obj
 0003:00003198       ?gbForcedServerTermination@@3_NA 0000000180049198     PluginSrv.obj
 0003:000031a0       ?g_LastDeletePtr@@3PEAXEA  00000001800491a0     common-kernel64:Memory.obj
 0003:000031b8       ?gpLocalSecurity@@3PEAU_SECURITY_ATTRIBUTES@@EA 00000001800491b8     common-kernel64:ConEmuCheck.obj
 0003:000031c0       ?ghWorkingModule@@3UHANDLE2@@A 00000001800491c0     common-kernel64:ConEmuCheck.obj
 0003:000031c8       ?gfGetRealConsoleWindow@@3P6APEAUHWND__@@XZEA 00000001800491c8     common-kernel64:ConEmuCheck.obj
 0003:00003210       ?g_ThreadsIdx@@3JA         0000000180049210     common-kernel64:WThreads.obj
 0003:0000ba28       ?gbInCommonShutdown@@3HA   0000000180051a28     common-kernel64:Common.obj
 0003:0000ba30       ?gNullDesc@@3PEAVMNullDesc@@EA 0000000180051a30     common-kernel64:MSecurity.obj
 0003:0000ba38       ?gfnSearchAppPaths@@3P6A_NPEB_WAEAUCEStr@@_NPEAVCEnvRestorer@@@ZEA 0000000180051a38     common-kernel64:WObjects.obj
 0003:0000ba58       ?hkFunc@@3UHkFunc@@A       0000000180051a58     common-kernel64:HkFunc.obj
 0003:0000ba90       ?gsMapHelper@@3UConsoleSectionHelper@@A 0000000180051a90     common-user64:WConsoleEx.obj
 0003:0000baa0       _tls_index                 0000000180051aa0     LIBCMT:tlssup.obj
 0003:0000baf8       __scrt_current_native_startup_state 0000000180051af8     LIBCMT:utility.obj
 0003:0000bb00       __scrt_native_startup_lock 0000000180051b00     LIBCMT:utility.obj
 0003:0000c0b0       __scrt_debugger_hook_flag  00000001800520b0     LIBCMT:utility_desktop.obj
 0003:0000c0b8       __castguard_check_failure_os_handled_fptr 00000001800520b8     LIBCMT:guard_support.obj
 0003:0000c0c0       ?__type_info_root_node@@3U__type_info_node@@A 00000001800520c0     LIBCMT:tncleanup.obj
 0003:0000c0d0       ?_OptionsStorage@?1??__local_stdio_scanf_options@@9@4_KA 00000001800520d0     LIBCMT:default_local_stdio_options.obj
 0003:0000c0d8       __favor                    00000001800520d8     LIBCMT:cpu_disp.obj
 0003:0000c0e0       ?__WinRTOutOfMemoryExceptionCallback@@3P6APEAXXZEA 00000001800520e0     libvcruntime:ehhelpers.obj
 0003:0000c170       __pPurecall                0000000180052170     libvcruntime:purevirt_data.obj
 0003:0000c1a8       ?pArgList@UnDecorator@@0PEAVReplicator@@EA 00000001800521a8     libvcruntime:undname.obj
 0003:0000c1b0       ?pZNameList@UnDecorator@@0PEAVReplicator@@EA 00000001800521b0     libvcruntime:undname.obj
 0003:0000c1b8       ?pTemplateArgList@UnDecorator@@0PEAVReplicator@@EA 00000001800521b8     libvcruntime:undname.obj
 0003:0000c1c0       ?gName@UnDecorator@@0PEBDEB 00000001800521c0     libvcruntime:undname.obj
 0003:0000c1c8       ?name@UnDecorator@@0PEBDEB 00000001800521c8     libvcruntime:undname.obj
 0003:0000c1d0       ?disableFlags@UnDecorator@@0KA 00000001800521d0     libvcruntime:undname.obj
 0003:0000c1d4       ?fExplicitTemplateParams@UnDecorator@@0_NA 00000001800521d4     libvcruntime:undname.obj
 0003:0000c1d5       ?fGetTemplateArgumentList@UnDecorator@@0_NA 00000001800521d5     libvcruntime:undname.obj
 0003:0000c1d8       ?m_pGetParameter@UnDecorator@@0P6APEADJ@ZEA 00000001800521d8     libvcruntime:undname.obj
 0003:0000c1e0       ?m_CHPENameOffset@UnDecorator@@0KA 00000001800521e0     libvcruntime:undname.obj
 0003:0000c1e4       ?m_recursionLevel@UnDecorator@@0KA 00000001800521e4     libvcruntime:undname.obj
 0003:0000c268       ?c_exit_complete@?1???R<lambda_6e4b09c48022b2350581041d5f6b0c4c>@@QEBA@XZ@4_NA 0000000180052268     libucrt:exit.obj
 0003:0000c378       _environ_table             0000000180052378     libucrt:environment_initialization.obj
 0003:0000c380       _wenviron_table            0000000180052380     libucrt:environment_initialization.obj
 0003:0000c388       __dcrt_initial_wide_environment 0000000180052388     libucrt:environment_initialization.obj
 0003:0000c390       __dcrt_initial_narrow_environment 0000000180052390     libucrt:environment_initialization.obj
 0003:0000c398       __acrt_atexit_table        0000000180052398     libucrt:onexit.obj
 0003:0000c3b0       __acrt_at_quick_exit_table 00000001800523b0     libucrt:onexit.obj
 0003:0000c3d0       _nstream                   00000001800523d0     libucrt:_file.obj
 0003:0000c3d8       __piob                     00000001800523d8     libucrt:_file.obj
 0003:0000c3e8       __acrt_stdout_buffer       00000001800523e8     libucrt:_sftbuf.obj
 0003:0000c3f0       __acrt_stderr_buffer       00000001800523f0     libucrt:_sftbuf.obj
 0003:0000c3f8       __acrt_locale_changed_data 00000001800523f8     libucrt:wsetlocale.obj
 0003:0000c400       __acrt_current_locale_data 0000000180052400     libucrt:nlsdata.obj
 0003:0000c410       __pioinfo                  0000000180052410     libucrt:ioinit.obj
 0003:0000c810       _nhandle                   0000000180052810     libucrt:ioinit.obj
 0003:0000ca58       _mbctype                   0000000180052a58     libucrt:mbctype.obj
 0003:0000ca60       _mbcasemap                 0000000180052a60     libucrt:mbctype.obj
 0003:0000ca68       __acrt_current_multibyte_data 0000000180052a68     libucrt:mbctype.obj
 0003:0000ca78       _pgmptr                    0000000180052a78     libucrt:argv_data.obj
 0003:0000ca80       __argc                     0000000180052a80     libucrt:argv_data.obj
 0003:0000ca88       __argv                     0000000180052a88     libucrt:argv_data.obj
 0003:0000ca90       __wargv                    0000000180052a90     libucrt:argv_data.obj
 0003:0000ca98       _acmdln                    0000000180052a98     libucrt:argv_data.obj
 0003:0000caa0       _wcmdln                    0000000180052aa0     libucrt:argv_data.obj
 0003:0000cc60       __acrt_heap                0000000180052c60     libucrt:heap_handle.obj
 0003:0000cc9c       __acrt_lconv_static_null   0000000180052c9c     libucrt:localeconv.obj
 0003:0000cca0       __acrt_lconv_static_W_null 0000000180052ca0     libucrt:localeconv.obj
 0003:0000ccb4       __fma3_is_available        0000000180052cb4     libucrt:fma3_available.obj
 0003:0000ccb8       __use_fma3_lib             0000000180052cb8     libucrt:fma3_available.obj
 0003:0000ccc0       ?g_LastSetConsoleFont@@3UMY_CONSOLE_FONT_INFOEX@@A 0000000180052cc0     common-kernel64:WConsole.obj
 0003:0000cd34       __scrt_ucrt_dll_is_in_use  0000000180052d34     <common>
 0003:0000cd38       __dyn_tls_init_callback    0000000180052d38     <common>

 entry point at        0001:0001d514

 Static symbols

 0000:fffa7000       .debug$S                   0000000180000000     ConEmu.x64.exp
 0000:fffa7000       .debug$S                   0000000180000000     advapi32:ADVAPI32.dll
 0000:fffa7000       .debug$S                   0000000180000000     advapi32:ADVAPI32.dll
 0000:fffa7000       .debug$S                   0000000180000000     advapi32:ADVAPI32.dll
 0000:fffa7000       .debug$S                   0000000180000000     advapi32:ADVAPI32.dll
 0000:fffa7000       .debug$S                   0000000180000000     advapi32:ADVAPI32.dll
 0000:fffa7000       .debug$S                   0000000180000000     advapi32:ADVAPI32.dll
 0000:fffa7000       .debug$S                   0000000180000000     advapi32:ADVAPI32.dll
 0000:fffa7000       .debug$S                   0000000180000000     advapi32:ADVAPI32.dll
 0000:fffa7000       .debug$S                   0000000180000000     advapi32:ADVAPI32.dll
 0000:fffa7000       .debug$S                   0000000180000000     advapi32:ADVAPI32.dll
 0000:fffa7000       .debug$S                   0000000180000000     advapi32:ADVAPI32.dll
 0000:fffa7000       .debug$S                   0000000180000000     advapi32:ADVAPI32.dll
 0000:fffa7000       .debug$S                   0000000180000000     advapi32:ADVAPI32.dll
 0000:fffa7000       .debug$S                   0000000180000000     advapi32:ADVAPI32.dll
 0000:fffa7000       .debug$S                   0000000180000000     advapi32:ADVAPI32.dll
 0000:fffa7000       .debug$S                   0000000180000000     gdi32:GDI32.dll
 0000:fffa7000       .debug$S                   0000000180000000     gdi32:GDI32.dll
 0000:fffa7000       .debug$S                   0000000180000000     gdi32:GDI32.dll
 0000:fffa7000       .debug$S                   0000000180000000     gdi32:GDI32.dll
 0000:fffa7000       .debug$S                   0000000180000000     gdi32:GDI32.dll
 0000:fffa7000       .debug$S                   0000000180000000     gdi32:GDI32.dll
 0000:fffa7000       .debug$S                   0000000180000000     gdi32:GDI32.dll
 0000:fffa7000       .debug$S                   0000000180000000     gdi32:GDI32.dll
 0000:fffa7000       .debug$S                   0000000180000000     gdi32:GDI32.dll
 0000:fffa7000       .debug$S                   0000000180000000     gdi32:GDI32.dll
 0000:fffa7000       .debug$S                   0000000180000000     gdi32:GDI32.dll
 0000:fffa7000       .debug$S                   0000000180000000     gdi32:GDI32.dll
 0000:fffa7000       .debug$S                   0000000180000000     gdi32:GDI32.dll
 0000:fffa7000       .debug$S                   0000000180000000     kernel32:KERNEL32.dll
 0000:fffa7000       .debug$S                   0000000180000000     kernel32:KERNEL32.dll
 0000:fffa7000       .debug$S                   0000000180000000     kernel32:KERNEL32.dll
 0000:fffa7000       .debug$S                   0000000180000000     kernel32:KERNEL32.dll
 0000:fffa7000       .debug$S                   0000000180000000     kernel32:KERNEL32.dll
 0000:fffa7000       .debug$S                   0000000180000000     kernel32:KERNEL32.dll
 0000:fffa7000       .debug$S                   0000000180000000     kernel32:KERNEL32.dll
 0000:fffa7000       .debug$S                   0000000180000000     kernel32:KERNEL32.dll
 0000:fffa7000       .debug$S                   0000000180000000     kernel32:KERNEL32.dll
 0000:fffa7000       .debug$S                   0000000180000000     kernel32:KERNEL32.dll
 0000:fffa7000       .debug$S                   0000000180000000     kernel32:KERNEL32.dll
 0000:fffa7000       .debug$S                   0000000180000000     kernel32:KERNEL32.dll
 0000:fffa7000       .debug$S                   0000000180000000     kernel32:KERNEL32.dll
 0000:fffa7000       .debug$S                   0000000180000000     kernel32:KERNEL32.dll
 0000:fffa7000       .debug$S                   0000000180000000     kernel32:KERNEL32.dll
 0000:fffa7000       .debug$S                   0000000180000000     kernel32:KERNEL32.dll
 0000:fffa7000       .debug$S                   0000000180000000     kernel32:KERNEL32.dll
 0000:fffa7000       .debug$S                   0000000180000000     kernel32:KERNEL32.dll
 0000:fffa7000       .debug$S                   0000000180000000     kernel32:KERNEL32.dll
 0000:fffa7000       .debug$S                   0000000180000000     kernel32:KERNEL32.dll
 0000:fffa7000       .debug$S                   0000000180000000     kernel32:KERNEL32.dll
 0000:fffa7000       .debug$S                   0000000180000000     kernel32:KERNEL32.dll
 0000:fffa7000       .debug$S                   0000000180000000     kernel32:KERNEL32.dll
 0000:fffa7000       .debug$S                   0000000180000000     kernel32:KERNEL32.dll
 0000:fffa7000       .debug$S                   0000000180000000     kernel32:KERNEL32.dll
 0000:fffa7000       .debug$S                   0000000180000000     kernel32:KERNEL32.dll
 0000:fffa7000       .debug$S                   0000000180000000     kernel32:KERNEL32.dll
 0000:fffa7000       .debug$S                   0000000180000000     kernel32:KERNEL32.dll
 0000:fffa7000       .debug$S                   0000000180000000     kernel32:KERNEL32.dll
 0000:fffa7000       .debug$S                   0000000180000000     kernel32:KERNEL32.dll
 0000:fffa7000       .debug$S                   0000000180000000     kernel32:KERNEL32.dll
 0000:fffa7000       .debug$S                   0000000180000000     kernel32:KERNEL32.dll
 0000:fffa7000       .debug$S                   0000000180000000     kernel32:KERNEL32.dll
 0000:fffa7000       .debug$S                   0000000180000000     kernel32:KERNEL32.dll
 0000:fffa7000       .debug$S                   0000000180000000     kernel32:KERNEL32.dll
 0000:fffa7000       .debug$S                   0000000180000000     kernel32:KERNEL32.dll
 0000:fffa7000       .debug$S                   0000000180000000     kernel32:KERNEL32.dll
 0000:fffa7000       .debug$S                   0000000180000000     kernel32:KERNEL32.dll
 0000:fffa7000       .debug$S                   0000000180000000     kernel32:KERNEL32.dll
 0000:fffa7000       .debug$S                   0000000180000000     kernel32:KERNEL32.dll
 0000:fffa7000       .debug$S                   0000000180000000     kernel32:KERNEL32.dll
 0000:fffa7000       .debug$S                   0000000180000000     kernel32:KERNEL32.dll
 0000:fffa7000       .debug$S                   0000000180000000     kernel32:KERNEL32.dll
 0000:fffa7000       .debug$S                   0000000180000000     kernel32:KERNEL32.dll
 0000:fffa7000       .debug$S                   0000000180000000     kernel32:KERNEL32.dll
 0000:fffa7000       .debug$S                   0000000180000000     kernel32:KERNEL32.dll
 0000:fffa7000       .debug$S                   0000000180000000     kernel32:KERNEL32.dll
 0000:fffa7000       .debug$S                   0000000180000000     kernel32:KERNEL32.dll
 0000:fffa7000       .debug$S                   0000000180000000     kernel32:KERNEL32.dll
 0000:fffa7000       .debug$S                   0000000180000000     kernel32:KERNEL32.dll
 0000:fffa7000       .debug$S                   0000000180000000     kernel32:KERNEL32.dll
 0000:fffa7000       .debug$S                   0000000180000000     kernel32:KERNEL32.dll
 0000:fffa7000       .debug$S                   0000000180000000     kernel32:KERNEL32.dll
 0000:fffa7000       .debug$S                   0000000180000000     kernel32:KERNEL32.dll
 0000:fffa7000       .debug$S                   0000000180000000     kernel32:KERNEL32.dll
 0000:fffa7000       .debug$S                   0000000180000000     kernel32:KERNEL32.dll
 0000:fffa7000       .debug$S                   0000000180000000     kernel32:KERNEL32.dll
 0000:fffa7000       .debug$S                   0000000180000000     kernel32:KERNEL32.dll
 0000:fffa7000       .debug$S                   0000000180000000     kernel32:KERNEL32.dll
 0000:fffa7000       .debug$S                   0000000180000000     kernel32:KERNEL32.dll
 0000:fffa7000       .debug$S                   0000000180000000     kernel32:KERNEL32.dll
 0000:fffa7000       .debug$S                   0000000180000000     kernel32:KERNEL32.dll
 0000:fffa7000       .debug$S                   0000000180000000     kernel32:KERNEL32.dll
 0000:fffa7000       .debug$S                   0000000180000000     kernel32:KERNEL32.dll
 0000:fffa7000       .debug$S                   0000000180000000     kernel32:KERNEL32.dll
 0000:fffa7000       .debug$S                   0000000180000000     kernel32:KERNEL32.dll
 0000:fffa7000       .debug$S                   0000000180000000     kernel32:KERNEL32.dll
 0000:fffa7000       .debug$S                   0000000180000000     kernel32:KERNEL32.dll
 0000:fffa7000       .debug$S                   0000000180000000     kernel32:KERNEL32.dll
 0000:fffa7000       .debug$S                   0000000180000000     kernel32:KERNEL32.dll
 0000:fffa7000       .debug$S                   0000000180000000     kernel32:KERNEL32.dll
 0000:fffa7000       .debug$S                   0000000180000000     kernel32:KERNEL32.dll
 0000:fffa7000       .debug$S                   0000000180000000     kernel32:KERNEL32.dll
 0000:fffa7000       .debug$S                   0000000180000000     kernel32:KERNEL32.dll
 0000:fffa7000       .debug$S                   0000000180000000     kernel32:KERNEL32.dll
 0000:fffa7000       .debug$S                   0000000180000000     kernel32:KERNEL32.dll
 0000:fffa7000       .debug$S                   0000000180000000     kernel32:KERNEL32.dll
 0000:fffa7000       .debug$S                   0000000180000000     kernel32:KERNEL32.dll
 0000:fffa7000       .debug$S                   0000000180000000     kernel32:KERNEL32.dll
 0000:fffa7000       .debug$S                   0000000180000000     kernel32:KERNEL32.dll
 0000:fffa7000       .debug$S                   0000000180000000     kernel32:KERNEL32.dll
 0000:fffa7000       .debug$S                   0000000180000000     kernel32:KERNEL32.dll
 0000:fffa7000       .debug$S                   0000000180000000     kernel32:KERNEL32.dll
 0000:fffa7000       .debug$S                   0000000180000000     kernel32:KERNEL32.dll
 0000:fffa7000       .debug$S                   0000000180000000     kernel32:KERNEL32.dll
 0000:fffa7000       .debug$S                   0000000180000000     kernel32:KERNEL32.dll
 0000:fffa7000       .debug$S                   0000000180000000     kernel32:KERNEL32.dll
 0000:fffa7000       .debug$S                   0000000180000000     kernel32:KERNEL32.dll
 0000:fffa7000       .debug$S                   0000000180000000     kernel32:KERNEL32.dll
 0000:fffa7000       .debug$S                   0000000180000000     kernel32:KERNEL32.dll
 0000:fffa7000       .debug$S                   0000000180000000     kernel32:KERNEL32.dll
 0000:fffa7000       .debug$S                   0000000180000000     kernel32:KERNEL32.dll
 0000:fffa7000       .debug$S                   0000000180000000     kernel32:KERNEL32.dll
 0000:fffa7000       .debug$S                   0000000180000000     kernel32:KERNEL32.dll
 0000:fffa7000       .debug$S                   0000000180000000     kernel32:KERNEL32.dll
 0000:fffa7000       .debug$S                   0000000180000000     kernel32:KERNEL32.dll
 0000:fffa7000       .debug$S                   0000000180000000     kernel32:KERNEL32.dll
 0000:fffa7000       .debug$S                   0000000180000000     kernel32:KERNEL32.dll
 0000:fffa7000       .debug$S                   0000000180000000     kernel32:KERNEL32.dll
 0000:fffa7000       .debug$S                   0000000180000000     kernel32:KERNEL32.dll
 0000:fffa7000       .debug$S                   0000000180000000     kernel32:KERNEL32.dll
 0000:fffa7000       .debug$S                   0000000180000000     kernel32:KERNEL32.dll
 0000:fffa7000       .debug$S                   0000000180000000     kernel32:KERNEL32.dll
 0000:fffa7000       .debug$S                   0000000180000000     kernel32:KERNEL32.dll
 0000:fffa7000       .debug$S                   0000000180000000     kernel32:KERNEL32.dll
 0000:fffa7000       .debug$S                   0000000180000000     kernel32:KERNEL32.dll
 0000:fffa7000       .debug$S                   0000000180000000     kernel32:KERNEL32.dll
 0000:fffa7000       .debug$S                   0000000180000000     kernel32:KERNEL32.dll
 0000:fffa7000       .debug$S                   0000000180000000     kernel32:KERNEL32.dll
 0000:fffa7000       .debug$S                   0000000180000000     kernel32:KERNEL32.dll
 0000:fffa7000       .debug$S                   0000000180000000     kernel32:KERNEL32.dll
 0000:fffa7000       .debug$S                   0000000180000000     kernel32:KERNEL32.dll
 0000:fffa7000       .debug$S                   0000000180000000     kernel32:KERNEL32.dll
 0000:fffa7000       .debug$S                   0000000180000000     kernel32:KERNEL32.dll
 0000:fffa7000       .debug$S                   0000000180000000     kernel32:KERNEL32.dll
 0000:fffa7000       .debug$S                   0000000180000000     kernel32:KERNEL32.dll
 0000:fffa7000       .debug$S                   0000000180000000     kernel32:KERNEL32.dll
 0000:fffa7000       .debug$S                   0000000180000000     kernel32:KERNEL32.dll
 0000:fffa7000       .debug$S                   0000000180000000     kernel32:KERNEL32.dll
 0000:fffa7000       .debug$S                   0000000180000000     kernel32:KERNEL32.dll
 0000:fffa7000       .debug$S                   0000000180000000     kernel32:KERNEL32.dll
 0000:fffa7000       .debug$S                   0000000180000000     kernel32:KERNEL32.dll
 0000:fffa7000       .debug$S                   0000000180000000     kernel32:KERNEL32.dll
 0000:fffa7000       .debug$S                   0000000180000000     kernel32:KERNEL32.dll
 0000:fffa7000       .debug$S                   0000000180000000     kernel32:KERNEL32.dll
 0000:fffa7000       .debug$S                   0000000180000000     kernel32:KERNEL32.dll
 0000:fffa7000       .debug$S                   0000000180000000     kernel32:KERNEL32.dll
 0000:fffa7000       .debug$S                   0000000180000000     kernel32:KERNEL32.dll
 0000:fffa7000       .debug$S                   0000000180000000     kernel32:KERNEL32.dll
 0000:fffa7000       .debug$S                   0000000180000000     kernel32:KERNEL32.dll
 0000:fffa7000       .debug$S                   0000000180000000     kernel32:KERNEL32.dll
 0000:fffa7000       .debug$S                   0000000180000000     kernel32:KERNEL32.dll
 0000:fffa7000       .debug$S                   0000000180000000     kernel32:KERNEL32.dll
 0000:fffa7000       .debug$S                   0000000180000000     kernel32:KERNEL32.dll
 0000:fffa7000       .debug$S                   0000000180000000     kernel32:KERNEL32.dll
 0000:fffa7000       .debug$S                   0000000180000000     kernel32:KERNEL32.dll
 0000:fffa7000       .debug$S                   0000000180000000     kernel32:KERNEL32.dll
 0000:fffa7000       .debug$S                   0000000180000000     kernel32:KERNEL32.dll
 0000:fffa7000       .debug$S                   0000000180000000     kernel32:KERNEL32.dll
 0000:fffa7000       .debug$S                   0000000180000000     kernel32:KERNEL32.dll
 0000:fffa7000       .debug$S                   0000000180000000     kernel32:KERNEL32.dll
 0000:fffa7000       .debug$S                   0000000180000000     kernel32:KERNEL32.dll
 0000:fffa7000       .debug$S                   0000000180000000     kernel32:KERNEL32.dll
 0000:fffa7000       .debug$S                   0000000180000000     kernel32:KERNEL32.dll
 0000:fffa7000       .debug$S                   0000000180000000     kernel32:KERNEL32.dll
 0000:fffa7000       .debug$S                   0000000180000000     kernel32:KERNEL32.dll
 0000:fffa7000       .debug$S                   0000000180000000     kernel32:KERNEL32.dll
 0000:fffa7000       .debug$S                   0000000180000000     kernel32:KERNEL32.dll
 0000:fffa7000       .debug$S                   0000000180000000     kernel32:KERNEL32.dll
 0000:fffa7000       .debug$S                   0000000180000000     kernel32:KERNEL32.dll
 0000:fffa7000       .debug$S                   0000000180000000     kernel32:KERNEL32.dll
 0000:fffa7000       .debug$S                   0000000180000000     kernel32:KERNEL32.dll
 0000:fffa7000       .debug$S                   0000000180000000     kernel32:KERNEL32.dll
 0000:fffa7000       .debug$S                   0000000180000000     kernel32:KERNEL32.dll
 0000:fffa7000       .debug$S                   0000000180000000     kernel32:KERNEL32.dll
 0000:fffa7000       .debug$S                   0000000180000000     kernel32:KERNEL32.dll
 0000:fffa7000       .debug$S                   0000000180000000     kernel32:KERNEL32.dll
 0000:fffa7000       .debug$S                   0000000180000000     kernel32:KERNEL32.dll
 0000:fffa7000       .debug$S                   0000000180000000     kernel32:KERNEL32.dll
 0000:fffa7000       .debug$S                   0000000180000000     kernel32:KERNEL32.dll
 0000:fffa7000       .debug$S                   0000000180000000     kernel32:KERNEL32.dll
 0000:fffa7000       .debug$S                   0000000180000000     kernel32:KERNEL32.dll
 0000:fffa7000       .debug$S                   0000000180000000     kernel32:KERNEL32.dll
 0000:fffa7000       .debug$S                   0000000180000000     kernel32:KERNEL32.dll
 0000:fffa7000       .debug$S                   0000000180000000     kernel32:KERNEL32.dll
 0000:fffa7000       .debug$S                   0000000180000000     kernel32:KERNEL32.dll
 0000:fffa7000       .debug$S                   0000000180000000     kernel32:KERNEL32.dll
 0000:fffa7000       .debug$S                   0000000180000000     kernel32:KERNEL32.dll
 0000:fffa7000       .debug$S                   0000000180000000     kernel32:KERNEL32.dll
 0000:fffa7000       .debug$S                   0000000180000000     kernel32:KERNEL32.dll
 0000:fffa7000       .debug$S                   0000000180000000     kernel32:KERNEL32.dll
 0000:fffa7000       .debug$S                   0000000180000000     kernel32:KERNEL32.dll
 0000:fffa7000       .debug$S                   0000000180000000     kernel32:KERNEL32.dll
 0000:fffa7000       .debug$S                   0000000180000000     kernel32:KERNEL32.dll
 0000:fffa7000       .debug$S                   0000000180000000     kernel32:KERNEL32.dll
 0000:fffa7000       .debug$S                   0000000180000000     kernel32:KERNEL32.dll
 0000:fffa7000       .debug$S                   0000000180000000     kernel32:KERNEL32.dll
 0000:fffa7000       .debug$S                   0000000180000000     kernel32:KERNEL32.dll
 0000:fffa7000       .debug$S                   0000000180000000     kernel32:KERNEL32.dll
 0000:fffa7000       .debug$S                   0000000180000000     kernel32:KERNEL32.dll
 0000:fffa7000       .debug$S                   0000000180000000     kernel32:KERNEL32.dll
 0000:fffa7000       .debug$S                   0000000180000000     kernel32:KERNEL32.dll
 0000:fffa7000       .debug$S                   0000000180000000     kernel32:KERNEL32.dll
 0000:fffa7000       .debug$S                   0000000180000000     kernel32:KERNEL32.dll
 0000:fffa7000       .debug$S                   0000000180000000     kernel32:KERNEL32.dll
 0000:fffa7000       .debug$S                   0000000180000000     kernel32:KERNEL32.dll
 0000:fffa7000       .debug$S                   0000000180000000     kernel32:KERNEL32.dll
 0000:fffa7000       .debug$S                   0000000180000000     shell32:SHELL32.dll
 0002:fffcd000       .idata$6                   0000000180000000     shell32:SHELL32.dll
 0000:fffa7000       .debug$S                   0000000180000000     user32:USER32.dll
 0000:fffa7000       .debug$S                   0000000180000000     user32:USER32.dll
 0000:fffa7000       .debug$S                   0000000180000000     user32:USER32.dll
 0000:fffa7000       .debug$S                   0000000180000000     user32:USER32.dll
 0000:fffa7000       .debug$S                   0000000180000000     user32:USER32.dll
 0000:fffa7000       .debug$S                   0000000180000000     user32:USER32.dll
 0000:fffa7000       .debug$S                   0000000180000000     user32:USER32.dll
 0000:fffa7000       .debug$S                   0000000180000000     user32:USER32.dll
 0000:fffa7000       .debug$S                   0000000180000000     user32:USER32.dll
 0000:fffa7000       .debug$S                   0000000180000000     user32:USER32.dll
 0000:fffa7000       .debug$S                   0000000180000000     user32:USER32.dll
 0000:fffa7000       .debug$S                   0000000180000000     user32:USER32.dll
 0000:fffa7000       .debug$S                   0000000180000000     user32:USER32.dll
 0000:fffa7000       .debug$S                   0000000180000000     user32:USER32.dll
 0000:fffa7000       .debug$S                   0000000180000000     user32:USER32.dll
 0000:fffa7000       .debug$S                   0000000180000000     user32:USER32.dll
 0000:fffa7000       .debug$S                   0000000180000000     user32:USER32.dll
 0000:fffa7000       .debug$S                   0000000180000000     user32:USER32.dll
 0000:fffa7000       .debug$S                   0000000180000000     user32:USER32.dll
 0000:fffa7000       .debug$S                   0000000180000000     user32:USER32.dll
 0000:fffa7000       .debug$S                   0000000180000000     user32:USER32.dll
 0000:fffa7000       .debug$S                   0000000180000000     user32:USER32.dll
 0000:fffa7000       .debug$S                   0000000180000000     user32:USER32.dll
 0000:fffa7000       .debug$S                   0000000180000000     user32:USER32.dll
 0000:fffa7000       .debug$S                   0000000180000000     user32:USER32.dll
 0000:fffa7000       .debug$S                   0000000180000000     user32:USER32.dll
 0000:fffa7000       .debug$S                   0000000180000000     user32:USER32.dll
 0000:fffa7000       .debug$S                   0000000180000000     user32:USER32.dll
 0000:fffa7000       .debug$S                   0000000180000000     user32:USER32.dll
 0000:fffa7000       .debug$S                   0000000180000000     user32:USER32.dll
 0000:fffa7000       .debug$S                   0000000180000000     user32:USER32.dll
 0000:fffa7000       .debug$S                   0000000180000000     user32:USER32.dll
 0000:fffa7000       .debug$S                   0000000180000000     user32:USER32.dll
 0000:fffa7000       .debug$S                   0000000180000000     user32:USER32.dll
 0000:fffa7000       .debug$S                   0000000180000000     user32:USER32.dll
 0000:fffa7000       .debug$S                   0000000180000000     user32:USER32.dll
 0000:fffa7000       .debug$S                   0000000180000000     user32:USER32.dll
 0000:fffa7000       .debug$S                   0000000180000000     user32:USER32.dll
 0000:fffa7000       .debug$S                   0000000180000000     user32:USER32.dll
 0000:fffa7000       .debug$S                   0000000180000000     user32:USER32.dll
 0000:fffa7000       .debug$S                   0000000180000000     user32:USER32.dll
 0000:fffa7000       .debug$S                   0000000180000000     user32:USER32.dll
 0000:fffa7000       .debug$S                   0000000180000000     version:VERSION.dll
 0000:fffa7000       .debug$S                   0000000180000000     version:VERSION.dll
 0000:fffa7000       .debug$S                   0000000180000000     version:VERSION.dll
 0001:00000000       ??__EgsMapHelper@@YAXXZ    0000000180001000 f   common-user64:WConsoleEx.obj
 0001:000012bc       ?CallGuiMacroDlg@@YA_JPEAXHH0@Z 00000001800022bc f   ConEmuPlugin1900.obj
 0001:000014c4       ?CallGuiMacroProc@@YAXXZ   00000001800024c4 f   ConEmuPlugin1900.obj
 0001:00001cc4       ?GetFarSetting@@YAHPEAX_KPEB_W@Z 0000000180002cc4 f   ConEmuPlugin1900.obj
 0001:00003df4       ?CallGuiMacroDlg@@YA_JPEAX_J10@Z 0000000180004df4 f   ConEmuPlugin2800.obj
 0001:00004008       ?CallGuiMacroProc@@YAXXZ   0000000180005008 f   ConEmuPlugin2800.obj
 0001:00004438       ?FreeMacroResult@@YAXPEAXPEAUFarMacroValue@@_K@Z 0000000180005438 f   ConEmuPlugin2800.obj
 0001:000045d4       ?GetFarSetting@@YAHPEAX_KPEB_W@Z 00000001800055d4 f   ConEmuPlugin2800.obj
 0001:0000640c       ?WExists@@YA_JAEBUWindowInfo@@AEBV?$MArray@UWindowInfo@@@@@Z 000000018000740c f   ConEmuPlugin2800.obj
 0001:00006470       ?WLoadWindows@@YA_JAEAV?$MArray@UWindowInfo@@@@H@Z 0000000180007470 f   ConEmuPlugin2800.obj
 0001:00006e80       ?CallGuiMacroDlg@@YA_JPEAXHH_J@Z 0000000180007e80 f   ConEmuPlugin995.obj
 0001:00007068       ?CallGuiMacroProc@@YAXXZ   0000000180008068 f   ConEmuPlugin995.obj
 0001:000089cc       ?CallGuiMacroDlg@@YA_JPEAXHH_J@Z 00000001800099cc f   ConEmuPluginA.obj
 0001:00008c44       ?CallGuiMacroProc@@YAXXZ   0000000180009c44 f   ConEmuPluginA.obj
 0001:0000cba0       ?LoadFarVersion@@YA_NAEAUFarVersion@@AEAY0CAA@_W@Z 000000018000dba0 f   ConEmuPluginBase.obj
 0001:0000cd50       ?LoadModuleVersion@@YA_NPEB_WAEAUtagVS_FIXEDFILEINFO@@PEA_W_K@Z 000000018000dd50 f   ConEmuPluginBase.obj
 0001:00019bac       initialize_environment     000000018001abac f i libucrt:initialization.obj
 0001:00019bac       initialize_global_state_isolation 000000018001abac f i libucrt:initialization.obj
 0001:00019bac       report_memory_leaks        000000018001abac f i libucrt:initialization.obj
 0001:00019bac       uninitialize_c             000000018001abac f i libucrt:initialization.obj
 0001:00019bac       uninitialize_global_state_isolation 000000018001abac f i libucrt:initialization.obj
 0001:0001ce40       $$000000                   000000018001de40     LIBCMT:amdsecgs.obj
 0001:0001ce80       $$000000                   000000018001de80     LIBCMT:chkstk.obj
 0001:0001cf8c       ?__scrt_initialize_thread_safe_statics@@YAHXZ 000000018001df8c f   LIBCMT:thread_safe_statics.obj
 0001:0001d05c       ?__scrt_uninitialize_thread_safe_statics@@YAXXZ 000000018001e05c f   LIBCMT:thread_safe_statics.obj
 0001:0001d1f4       ?dllmain_crt_dispatch@@YAHQEAUHINSTANCE__@@KQEAX@Z 000000018001e1f4 f   LIBCMT:dll_dllmain.obj
 0001:0001d244       ?dllmain_crt_process_attach@@YAHQEAUHINSTANCE__@@QEAX@Z 000000018001e244 f   LIBCMT:dll_dllmain.obj
 0001:0001d35c       ?dllmain_crt_process_detach@@YAH_N@Z 000000018001e35c f   LIBCMT:dll_dllmain.obj
 0001:0001d3e0       ?dllmain_dispatch@@YAHQEAUHINSTANCE__@@KQEAX@Z 000000018001e3e0 f   LIBCMT:dll_dllmain.obj
 0001:0001da8c       capture_current_context    000000018001ea8c f   LIBCMT:gs_report.obj
 0001:0001dafc       capture_previous_context   000000018001eafc f   LIBCMT:gs_report.obj
 0001:0001e7b0       $$000000                   000000018001f7b0     libvcruntime:memcpy.obj
 0001:0001f0f0       $$000000                   00000001800200f0     libvcruntime:memset.obj
 0001:0001f620       $$000000                   0000000180020620     libvcruntime:memcmp.obj
 0001:0001fe28       ??$BuildCatchObjectHelperInternal@V__FrameHandler4@@@@YAHPEAUEHExceptionRecord@@PEAXPEAUHandlerType4@FH4@@PEBU_s_CatchableType@@@Z 0000000180020e28 f   libvcruntime:frame.obj
 0001:0002002c       ??$BuildCatchObjectInternal@V__FrameHandler4@@@@YAXPEAUEHExceptionRecord@@PEAXPEAUHandlerType4@FH4@@PEBU_s_CatchableType@@@Z 000000018002102c f   libvcruntime:frame.obj
 0001:000200f0       ??$CatchIt@V__FrameHandler4@@@@YAXPEAUEHExceptionRecord@@PEA_KPEAU_CONTEXT@@PEAU_xDISPATCHER_CONTEXT@@PEAUFuncInfo4@FH4@@PEAUHandlerType4@4@PEBU_s_CatchableType@@PEAUTryBlockMapEntry4@4@H1EE@Z 00000001800210f0 f   libvcruntime:frame.obj
 0001:000201c4       ??$FindHandler@V__FrameHandler4@@@@YAXPEAUEHExceptionRecord@@PEA_KPEAU_CONTEXT@@PEAU_xDISPATCHER_CONTEXT@@PEAUFuncInfo4@FH4@@EH1@Z 00000001800211c4 f   libvcruntime:frame.obj
 0001:000206c0       ??$FindHandlerForForeignException@V__FrameHandler4@@@@YAXPEAUEHExceptionRecord@@PEA_KPEAU_CONTEXT@@PEAU_xDISPATCHER_CONTEXT@@PEAUFuncInfo4@FH4@@HH1@Z 00000001800216c0 f   libvcruntime:frame.obj
 0001:00021450       ?ExFilterRethrow@@YAHPEAU_EXCEPTION_POINTERS@@PEAUEHExceptionRecord@@PEAH@Z 0000000180022450 f   libvcruntime:frame.obj
 0001:000214d8       ?ExFilterRethrowFH4@@YAHPEAU_EXCEPTION_POINTERS@@PEAUEHExceptionRecord@@HPEAH@Z 00000001800224d8 f   libvcruntime:frame.obj
 0001:000217f0       ?IsInExceptionSpec@@YAEPEAUEHExceptionRecord@@PEBU_s_ESTypeList@@@Z 00000001800227f0 f   libvcruntime:frame.obj
 0001:000218e0       ?Is_bad_exception_allowed@@YAEPEBU_s_ESTypeList@@@Z 00000001800228e0 f   libvcruntime:frame.obj
 0001:00021bc0       $$000000                   0000000180022bc0     libvcruntime:notify.obj
 0001:00021ca8       ?try_get_function@@YAPEAXW4function_id@?A0x6b2bd6b2@@QEBDQEBW4module_id@2@2@Z 0000000180022ca8 f   libvcruntime:winapi_downlevel.obj
 0001:00021f90       $$000000                   0000000180022f90     libvcruntime:handlers.obj
 0001:00022098       ??$common_vsprintf@Vstandard_base@__crt_stdio_output@@D@@YAH_KQEAD0QEBDQEAU__crt_locale_pointers@@1@Z 0000000180023098 f   libucrt:output.obj
 0001:00022264       ??$common_vsprintf@Vstandard_base@__crt_stdio_output@@_W@@YAH_KQEA_W0QEB_WQEAU__crt_locale_pointers@@QEAD@Z 0000000180023264 f   libucrt:output.obj
 0001:00023a28       $LN17                      0000000180024a28     libucrt:output.obj
 0001:000258c8       ??$?RV<lambda_d80eeec6fff315bfe5c115232f3240e3>@@AEAV<lambda_6e4b09c48022b2350581041d5f6b0c4c>@@V<lambda_2358e3775559c9db80273638284d5e45>@@@?$__crt_seh_guarded_call@X@@QEAAX$$QEAV<lambda_d80eeec6fff315bfe5c115232f3240e3>@@AEAV<lambda_6e4b09c48022b2350581041d5f6b0c4c>@@$$QEAV<lambda_2358e3775559c9db80273638284d5e45>@@@Z 00000001800268c8 f   libucrt:exit.obj
 0001:00025900       ??R<lambda_6e4b09c48022b2350581041d5f6b0c4c>@@QEBA@XZ 0000000180026900 f   libucrt:exit.obj
 0001:000259c4       ?atexit_exception_filter@@YAHK@Z 00000001800269c4 f   libucrt:exit.obj
 0001:000259d0       ?common_exit@@YAXHW4_crt_exit_cleanup_mode@@W4_crt_exit_return_mode@@@Z 00000001800269d0 f   libucrt:exit.obj
 0001:00025a8c       ?exit_or_terminate_process@@YAXI@Z 0000000180026a8c f   libucrt:exit.obj
 0001:00025ad8       ?try_cor_exit_process@@YAXI@Z 0000000180026ad8 f   libucrt:exit.obj
 0001:00025b60       ??$parse_command_line@D@@YAXPEADPEAPEAD0PEA_K2@Z 0000000180026b60 f   libucrt:argv_parsing.obj
 0001:00025f08       ??$common_initialize_environment_nolock@D@@YAHXZ 0000000180026f08 f   libucrt:environment_initialization.obj
 0001:00025f74       ??$create_environment@D@@YAQEAPEADQEAD@Z 0000000180026f74 f   libucrt:environment_initialization.obj
 0001:0002607c       ??$free_environment@D@@YAXQEAPEAD@Z 000000018002707c f   libucrt:environment_initialization.obj
 0001:0002607c       ??$free_environment@_W@@YAXQEAPEA_W@Z 000000018002707c f   libucrt:environment_initialization.obj
 0001:000260c0       ??$uninitialize_environment_internal@D@@YAXAEAPEAPEAD@Z 00000001800270c0 f   libucrt:environment_initialization.obj
 0001:000260dc       ??$uninitialize_environment_internal@_W@@YAXAEAPEAPEA_W@Z 00000001800270dc f   libucrt:environment_initialization.obj
 0001:00026138       ??$?RV<lambda_638799b9deba96c50f710eeac98168cd>@@AEAV<lambda_22ebabd17bc4fa466a2aca6d8deb888d>@@V<lambda_a6f7d7db0129f75315ebf26d50c089f1>@@@?$__crt_seh_guarded_call@H@@QEAAH$$QEAV<lambda_638799b9deba96c50f710eeac98168cd>@@AEAV<lambda_22ebabd17bc4fa466a2aca6d8deb888d>@@$$QEAV<lambda_a6f7d7db0129f75315ebf26d50c089f1>@@@Z 0000000180027138 f   libucrt:onexit.obj
 0001:00026174       ??$?RV<lambda_7777bce6b2f8c936911f934f8298dc43>@@AEAV<lambda_f03950bc5685219e0bcd2087efbe011e>@@V<lambda_3883c3dff614d5e0c5f61bb1ac94921c>@@@?$__crt_seh_guarded_call@H@@QEAAH$$QEAV<lambda_7777bce6b2f8c936911f934f8298dc43>@@AEAV<lambda_f03950bc5685219e0bcd2087efbe011e>@@$$QEAV<lambda_3883c3dff614d5e0c5f61bb1ac94921c>@@@Z 0000000180027174 f   libucrt:onexit.obj
 0001:000261b0       ??R<lambda_22ebabd17bc4fa466a2aca6d8deb888d>@@QEBAHXZ 00000001800271b0 f   libucrt:onexit.obj
 0001:00026360       ??R<lambda_f03950bc5685219e0bcd2087efbe011e>@@QEBAHXZ 0000000180027360 f   libucrt:onexit.obj
 0001:00026534       initialize_global_variables 0000000180027534 f   libucrt:initialization.obj
 0001:00026548       initialize_c               0000000180027548 f   libucrt:initialization.obj
 0001:0002656c       uninitialize_environment   000000018002756c f   libucrt:initialization.obj
 0001:0002657c       initialize_pointers        000000018002757c f   libucrt:initialization.obj
 0001:000265bc       uninitialize_vcruntime     00000001800275bc f   libucrt:initialization.obj
 0001:000265c4       uninitialize_allocated_memory 00000001800275c4 f   libucrt:initialization.obj
 0001:00026604       uninitialize_allocated_io_buffers 0000000180027604 f   libucrt:initialization.obj
 0001:000267e0       $$000000                   00000001800277e0     libucrt:strncmp.obj
 0001:00026f5c       ??$?RV<lambda_0ae27a3a962d80f24befdcbee591983d>@@AEAV<lambda_8d0ee55de4b1038c4002e0adecdf1839>@@V<lambda_dc504788e8f1664fe9b84e20bfb512f2>@@@?$__crt_seh_guarded_call@X@@QEAAX$$QEAV<lambda_0ae27a3a962d80f24befdcbee591983d>@@AEAV<lambda_8d0ee55de4b1038c4002e0adecdf1839>@@$$QEAV<lambda_dc504788e8f1664fe9b84e20bfb512f2>@@@Z 0000000180027f5c f   libucrt:per_thread_data.obj
 0001:00026f9c       ??$?RV<lambda_2d41944a1d46af3157314b8a01080d33>@@AEAV<lambda_8f455de75cd7d7f24b4096f044d8b9e6>@@V<lambda_aa500f224e6afead328df44964fe2772>@@@?$__crt_seh_guarded_call@X@@QEAAX$$QEAV<lambda_2d41944a1d46af3157314b8a01080d33>@@AEAV<lambda_8f455de75cd7d7f24b4096f044d8b9e6>@@$$QEAV<lambda_aa500f224e6afead328df44964fe2772>@@@Z 0000000180027f9c f   libucrt:per_thread_data.obj
 0001:00026fdc       ??$?RV<lambda_aa87e3671a710a21b5dc78c0bdf72e11>@@AEAV<lambda_92619d2358a28f41a33ba319515a20b9>@@V<lambda_6992ecaafeb10aed2b74cb1fae11a551>@@@?$__crt_seh_guarded_call@X@@QEAAX$$QEAV<lambda_aa87e3671a710a21b5dc78c0bdf72e11>@@AEAV<lambda_92619d2358a28f41a33ba319515a20b9>@@$$QEAV<lambda_6992ecaafeb10aed2b74cb1fae11a551>@@@Z 0000000180027fdc f   libucrt:per_thread_data.obj
 0001:00027024       ??$?RV<lambda_f2e299630e499de9f9a165e60fcd3db5>@@AEAV<lambda_2ae9d31cdba2644fcbeaf08da7c24588>@@V<lambda_40d01ff24d0e7b3814fdbdcee8eab3c7>@@@?$__crt_seh_guarded_call@X@@QEAAX$$QEAV<lambda_f2e299630e499de9f9a165e60fcd3db5>@@AEAV<lambda_2ae9d31cdba2644fcbeaf08da7c24588>@@$$QEAV<lambda_40d01ff24d0e7b3814fdbdcee8eab3c7>@@@Z 0000000180028024 f   libucrt:per_thread_data.obj
 0001:00027084       ?construct_ptd_array@@YAXQEAU__acrt_ptd@@@Z 0000000180028084 f   libucrt:per_thread_data.obj
 0001:00027154       ?destroy_fls@@YAXPEAX@Z    0000000180028154 f   libucrt:per_thread_data.obj
 0001:00027174       ?destroy_ptd_array@@YAXQEAU__acrt_ptd@@@Z 0000000180028174 f   libucrt:per_thread_data.obj
 0001:0002726c       ?replace_current_thread_locale_nolock@@YAXQEAU__acrt_ptd@@QEAU__crt_locale_data@@@Z 000000018002826c f   libucrt:per_thread_data.obj
 0001:00027628       ?fp_format_a@@YAHQEBNPEAD_KQEAD2H_NIQEAU__crt_locale_pointers@@W4__acrt_rounding_mode@@@Z 0000000180028628 f   libucrt:cvt.obj
 0001:000279a8       ?fp_format_e@@YAHQEBNQEAD_K12H_NIQEAU__crt_locale_pointers@@W4__acrt_rounding_mode@@@Z 00000001800289a8 f   libucrt:cvt.obj
 0001:00027a98       ?fp_format_e_internal@@YAHQEAD_KH_NIQEAU_strflt@@2QEAU__crt_locale_pointers@@@Z 0000000180028a98 f   libucrt:cvt.obj
 0001:00027c6c       ?fp_format_f_internal@@YAHQEAD_KHQEAU_strflt@@_NQEAU__crt_locale_pointers@@@Z 0000000180028c6c f   libucrt:cvt.obj
 0001:00027dd4       ?fp_format_g@@YAHQEBNQEAD_K12H_NIW4__acrt_rounding_mode@@QEAU__crt_locale_pointers@@@Z 0000000180028dd4 f   libucrt:cvt.obj
 0001:00027f1c       ?should_round_up@@YA_NQEBN_KFW4__acrt_rounding_mode@@@Z 0000000180028f1c f   libucrt:cvt.obj
 0001:00028540       ??$?RV<lambda_410d79af7f07d98d83a3f525b3859a53>@@AEAV<lambda_3e16ef9562a7dcce91392c22ab16ea36>@@V<lambda_38119f0e861e05405d8a144b9b982f0a>@@@?$__crt_seh_guarded_call@X@@QEAAX$$QEAV<lambda_410d79af7f07d98d83a3f525b3859a53>@@AEAV<lambda_3e16ef9562a7dcce91392c22ab16ea36>@@$$QEAV<lambda_38119f0e861e05405d8a144b9b982f0a>@@@Z 0000000180029540 f   libucrt:wsetlocale.obj
 0001:000285ec       ?initialize_inherited_file_handles_nolock@@YAXXZ 00000001800295ec f   libucrt:ioinit.obj
 0001:000286dc       ?initialize_stdio_handles_nolock@@YAXXZ 00000001800296dc f   libucrt:ioinit.obj
 0001:00028b74       ?<lambda_invoker_cdecl>@<lambda_a1ce4c8ae42411fd470c77163914f50e>@@CAHPEBX0@Z 0000000180029b74 f   libucrt:argv_wildcards.obj
 0001:00028e8c       ??$common_expand_argv_wildcards@D@@YAHQEAPEADQEAPEAPEAD@Z 0000000180029e8c f   libucrt:argv_wildcards.obj
 0001:00029098       ??$copy_and_add_argument_to_buffer@D@@YAHQEBD0_KAEAV?$argument_list@D@?A0x5f5c8891@@@Z 000000018002a098 f   libucrt:argv_wildcards.obj
 0001:00029220       ??$expand_argument_wildcards@D@@YAHQEAD0AEAV?$argument_list@D@?A0x5f5c8891@@@Z 000000018002a220 f   libucrt:argv_wildcards.obj
 0001:0002976c       ??$?RV<lambda_efdfa57d1f175319df784efa44bb7b81>@@AEAV<lambda_5f0a4c1567f8adc6734073e5d1e1b35c>@@V<lambda_2e8a7d3640ea6ccb4c2413664c2db6fd>@@@?$__crt_seh_guarded_call@X@@QEAAX$$QEAV<lambda_efdfa57d1f175319df784efa44bb7b81>@@AEAV<lambda_5f0a4c1567f8adc6734073e5d1e1b35c>@@$$QEAV<lambda_2e8a7d3640ea6ccb4c2413664c2db6fd>@@@Z 000000018002a76c f   libucrt:mbctype.obj
 0001:00029928       ?getSystemCP@@YAHH@Z       000000018002a928 f   libucrt:mbctype.obj
 0001:000299a8       ?setSBCS@@YAXPEAU__crt_multibyte_data@@@Z 000000018002a9a8 f   libucrt:mbctype.obj
 0001:00029a38       ?setSBUpLow@@YAXPEAU__crt_multibyte_data@@@Z 000000018002aa38 f   libucrt:mbctype.obj
 0001:00029c1c       ?setmbcp_internal@@YAHH_NQEAU__acrt_ptd@@QEAPEAU__crt_multibyte_data@@@Z 000000018002ac1c f   libucrt:mbctype.obj
 0001:00029ddc       ?update_thread_multibyte_data_internal@@YAPEAU__crt_multibyte_data@@QEAU__acrt_ptd@@QEAPEAU1@@Z 000000018002addc f   libucrt:mbctype.obj
 0001:0002a1cc       ?x_ismbbtype_l@@YAHPEAU__crt_locale_pointers@@IHH@Z 000000018002b1cc f   libucrt:ismbbyte.obj
 0001:0002a528       ?try_get_function@@YAPEAXW4function_id@?A0x391cf84c@@QEBDQEBW4module_id@2@2@Z 000000018002b528 f   libucrt:winapi_thunks.obj
 0001:0002ac10       ??$?RV<lambda_450d765d439847d4c735a33c368b5fc0>@@AEAV<lambda_44731a7d0e6d81c3e6aa82d741081786>@@V<lambda_601a2a7da3b7a96e9554ac7215c4b07c>@@@?$__crt_seh_guarded_call@P6AXH@Z@@QEAAP6AXH@Z$$QEAV<lambda_450d765d439847d4c735a33c368b5fc0>@@AEAV<lambda_44731a7d0e6d81c3e6aa82d741081786>@@$$QEAV<lambda_601a2a7da3b7a96e9554ac7215c4b07c>@@@Z 000000018002bc10 f   libucrt:signal.obj
 0001:0002af6c       ??$?RV<lambda_842d9ff0dc9ef11c61343bbaebe7f885>@@AEAV<lambda_c5860995281e5c4ce005b3de8f5874ee>@@V<lambda_d90129c13df834fdcbf8d2b88dafcf2d>@@@?$__crt_seh_guarded_call@X@@QEAAX$$QEAV<lambda_842d9ff0dc9ef11c61343bbaebe7f885>@@AEAV<lambda_c5860995281e5c4ce005b3de8f5874ee>@@$$QEAV<lambda_d90129c13df834fdcbf8d2b88dafcf2d>@@@Z 000000018002bf6c f   libucrt:fflush.obj
 0001:0002b008       ??$?RV<lambda_886d6c58226a84441f68b9f2b8217b83>@@AEAV<lambda_ab61a845afdef5b7c387490eaf3616ee>@@V<lambda_f7f22ab5edc0698d5f6905b0d3f44752>@@@?$__crt_seh_guarded_call@X@@QEAAX$$QEAV<lambda_886d6c58226a84441f68b9f2b8217b83>@@AEAV<lambda_ab61a845afdef5b7c387490eaf3616ee>@@$$QEAV<lambda_f7f22ab5edc0698d5f6905b0d3f44752>@@@Z 000000018002c008 f   libucrt:fflush.obj
 0001:0002b0e8       ?common_flush_all@@YAH_N@Z 000000018002c0e8 f   libucrt:fflush.obj
 0001:0002d0b0       memcpy_s                   000000018002e0b0 f   libucrt:cfout.obj
 0001:0002d418       ?free_crt_array_internal@@YAXQEAPEBX_K@Z 000000018002e418 f   libucrt:inittime.obj
 0001:0002deb4       fallbackMethod             000000018002eeb4 f   libucrt:strpbrk.obj
 0001:0002e26c       $LN78                      000000018002f26c     libucrt:strpbrk.obj
 0001:0002e2a8       $LN77                      000000018002f2a8     libucrt:strpbrk.obj
 0001:0002e2e8       $LN76                      000000018002f2e8     libucrt:strpbrk.obj
 0001:0002e3c4       ?__acrt_LCMapStringA_stat@@YAHPEAU__crt_locale_pointers@@PEB_WKPEBDHPEADHHH@Z 000000018002f3c4 f   libucrt:lcmapstringa.obj
 0001:0002e774       ?initialize_multibyte@@YAHXZ 000000018002f774 f   libucrt:multibyte_initializer.obj
 0001:0002e8f4       ??$?RV<lambda_a37b2b86f63e897a80ea819b0eb08c01>@@AEAV<lambda_38ce7e780aa69e748d6df282ebc68efe>@@V<lambda_99fb1378e971ab6e7edea83e3a7a83a2>@@@?$__crt_seh_guarded_call@H@@QEAAH$$QEAV<lambda_a37b2b86f63e897a80ea819b0eb08c01>@@AEAV<lambda_38ce7e780aa69e748d6df282ebc68efe>@@$$QEAV<lambda_99fb1378e971ab6e7edea83e3a7a83a2>@@@Z 000000018002f8f4 f   libucrt:commit.obj
 0001:0002ea14       ?write_double_translated_ansi_nolock@@YA?AUwrite_result@?A0x17268360@@HQEBDI@Z 000000018002fa14 f   libucrt:write.obj
 0001:0002ef00       ?write_text_ansi_nolock@@YA?AUwrite_result@?A0x17268360@@HQEBDI@Z 000000018002ff00 f   libucrt:write.obj
 0001:0002f004       ?write_text_utf16le_nolock@@YA?AUwrite_result@?A0x17268360@@HQEBDI@Z 0000000180030004 f   libucrt:write.obj
 0001:0002f120       ?write_text_utf8_nolock@@YA?AUwrite_result@?A0x17268360@@HQEBDI@Z 0000000180030120 f   libucrt:write.obj
 0001:0002fa20       $$000000                   0000000180030a20     libucrt:log10.obj
 0001:000302ec       ??$common_lseek_nolock@_J@@YA_JH_JH@Z 00000001800312ec f   libucrt:lseek.obj
 0001:00030598       common_control87           0000000180031598 f   libucrt:ieee.obj
 0001:00030858       _call_matherr              0000000180031858 f   libucrt:libm_error.obj
 0001:000308c0       _exception_enabled         00000001800318c0 f   libucrt:libm_error.obj
 0001:00030b50       _log_special_common        0000000180031b50 f   libucrt:log_special.obj
 0001:00030be8       ??$?RV<lambda_751a882b2c74d4b022dec766aa51a29a>@@AEAV<lambda_628dfdc04ba53c8bfc02c9951375f3f5>@@V<lambda_f6c7be5f7998530c34de24c7437d6b54>@@@?$__crt_seh_guarded_call@H@@QEAAH$$QEAV<lambda_751a882b2c74d4b022dec766aa51a29a>@@AEAV<lambda_628dfdc04ba53c8bfc02c9951375f3f5>@@$$QEAV<lambda_f6c7be5f7998530c34de24c7437d6b54>@@@Z 0000000180031be8 f   libucrt:close.obj
 0001:00030f10       $$000000                   0000000180031f10     libucrt:fpsr.obj
 0001:00031840       $$000000                   0000000180032840     LIBCMT:guard_dispatch.obj
 0001:00031860       $$000000                   0000000180032860     LIBCMT:guard_xfg_dispatch.obj
 0001:00031880       ?dtor$0@?0??RegisterBackground@@YAHPEAURegisterBackgroundArg@@@Z@4HA 0000000180032880 f   ConEmuPlugin.obj
 0001:0003189d       ?dtor$0@?0??GetPanelDir@CPluginW1900@@UEAAPEA_WKPEA_WH@Z@4HA 000000018003289d f   ConEmuPlugin1900.obj
 0001:0003189d       ?dtor$0@?0??GetPanelDir@CPluginW2800@@UEAAPEA_WKPEA_WH@Z@4HA 000000018003289d f   ConEmuPlugin2800.obj
 0001:0003189d       ?dtor$1@?0??Open@CPluginW2800@@UEAAPEAXPEBX@Z@4HA 000000018003289d f   ConEmuPlugin2800.obj
 0001:0003189d       ?dtor$0@?0??SetStartupInfoPtr@CPluginW995@@UEAAXPEAX@Z@4HA 000000018003289d f   ConEmuPlugin995.obj
 0001:0003189d       ?dtor$0@?0??ToUnicode@CPluginBase@@SAPEA_WPEBD@Z@4HA 000000018003289d f   ConEmuPluginBase.obj
 0001:0003189d       ?dtor$1@?0??ToUnicode@CPluginBase@@SAPEA_WPEBD@Z@4HA 000000018003289d f   ConEmuPluginBase.obj
 0001:000318a9       ?dtor$0@?0??GetPanelItemInfo@CPluginW1900@@UEAA_NAEBUCEPanelInfo@@_N_JAEAU_WIN32_FIND_DATAW@@PEAPEA_W@Z@4HA 00000001800328a9 f   ConEmuPlugin1900.obj
 0001:000318a9       ?dtor$0@?0??InputBox@CPluginW995@@UEAA_NPEB_W000AEAPEA_W@Z@4HA 00000001800328a9 f   ConEmuPlugin995.obj
 0001:000318a9       ?dtor$1@?0??RunExternalProgram@CPluginBase@@QEAA_NPEA_W@Z@4HA 00000001800328a9 f   ConEmuPluginBase.obj
 0001:000318b5       ?dtor$0@?0??InputBox@CPluginW1900@@UEAA_NPEB_W000AEAPEA_W@Z@4HA 00000001800328b5 f   ConEmuPlugin1900.obj
 0001:000318b5       ?dtor$0@?0??InputBox@CPluginW2800@@UEAA_NPEB_W000AEAPEA_W@Z@4HA 00000001800328b5 f   ConEmuPlugin2800.obj
 0001:000318b5       ?dtor$0@?0??DllCheckUnique@CPluginBase@@KA_N_N@Z@4HA 00000001800328b5 f   ConEmuPluginBase.obj
 0001:000318b5       ?dtor$0@?0??InitRootRegKey@CPluginBase@@IEAAXXZ@4HA 00000001800328b5 f   ConEmuPluginBase.obj
 0001:000318b5       ?dtor$0@?0??LoadPanelTabsFromRegistry@CPluginBase@@IEAAXXZ@4HA 00000001800328b5 f   ConEmuPluginBase.obj
 0001:000318b5       ?dtor$0@?0??RunExternalProgram@CPluginBase@@QEAA_NPEA_W@Z@4HA 00000001800328b5 f   ConEmuPluginBase.obj
 0001:000318b5       ?dtor$0@?0??ShowProtocolWarning@CPluginBase@@KAXXZ@4HA 00000001800328b5 f   ConEmuPluginBase.obj
 0001:000318b5       ?dtor$1@?0??InitRootRegKey@CPluginBase@@IEAAXXZ@4HA 00000001800328b5 f   ConEmuPluginBase.obj
 0001:000318b5       ?dtor$0@?0??UpdateComspec@@YAXPEAUConEmuComspec@@_N@Z@4HA 00000001800328b5 f   common-user64:WUser.obj
 0001:000318c1       ?dtor$0@?0??PostMacroApi@CPluginW1900@@UEAAXPEB_WPEAU_INPUT_RECORD@@_N@Z@4HA 00000001800328c1 f   ConEmuPlugin1900.obj
 0001:000318c1       ?dtor$5@?0??SearchAppPaths@@YA_NPEB_WAEAUCEStr@@_NPEAVCEnvRestorer@@@Z@4HA 00000001800328c1 f   common-user64:WFiles.obj
 0001:000318cd       ?catch$0@?0???$_Emplace_reallocate@AEBUWindowInfo@@@?$vector@UWindowInfo@@V?$MArrayAllocator@UWindowInfo@@@@@std@@QEAAPEAUWindowInfo@@QEAU2@AEBU2@@Z@4HA 00000001800328cd f   ConEmuPlugin2800.obj
 0001:000318da       __catch$??$_Emplace_reallocate@AEBUWindowInfo@@@?$vector@UWindowInfo@@V?$MArrayAllocator@UWindowInfo@@@@@std@@QEAAPEAUWindowInfo@@QEAU2@AEBU2@@Z$0 00000001800328da f   ConEmuPlugin2800.obj
 0001:000318fe       ?dtor$0@?0??GetPanelItemInfo@CPluginW2800@@UEAA_NAEBUCEPanelInfo@@_N_JAEAU_WIN32_FIND_DATAW@@PEAPEA_W@Z@4HA 00000001800328fe f   ConEmuPlugin2800.obj
 0001:000318fe       ?dtor$0@?0??GetPanelItemInfo@CPluginW995@@UEAA_NAEBUCEPanelInfo@@_N_JAEAU_WIN32_FIND_DATAW@@PEAPEA_W@Z@4HA 00000001800328fe f   ConEmuPlugin995.obj
 0001:000318fe       ?dtor$0@?0??GetPanelItemInfo@CPluginAnsi@@UEAA_NAEBUCEPanelInfo@@_N_JAEAU_WIN32_FIND_DATAW@@PEAPEA_W@Z@4HA 00000001800328fe f   ConEmuPluginA.obj
 0001:000318fe       ?dtor$2@?0??RunExternalProgram@CPluginBase@@QEAA_NPEA_W@Z@4HA 00000001800328fe f   ConEmuPluginBase.obj
 0001:0003190a       ?dtor$0@?0??SetWindow@CPluginW2800@@UEAAXH@Z@4HA 000000018003290a f   ConEmuPlugin2800.obj
 0001:00031916       ?dtor$0@?0??UpdateConEmuTabsApi@CPluginW2800@@UEAA_NH@Z@4HA 0000000180032916 f   ConEmuPlugin2800.obj
 0001:00031936       ?dtor$1@?0??UpdateConEmuTabsApi@CPluginW2800@@UEAA_NH@Z@4HA 0000000180032936 f   ConEmuPlugin2800.obj
 0001:00031942       ?catch$0@?0??insert@?$vector@UWindowInfo@@V?$MArrayAllocator@UWindowInfo@@@@@std@@QEAA?AV?$_Vector_iterator@V?$_Vector_val@U?$_Simple_types@UWindowInfo@@@std@@@std@@@2@V?$_Vector_const_iterator@V?$_Vector_val@U?$_Simple_types@UWindowInfo@@@std@@@std@@@2@_KAEBUWindowInfo@@@Z@4HA 0000000180032942 f   ConEmuPlugin2800.obj
 0001:0003194f       __catch$?insert@?$vector@UWindowInfo@@V?$MArrayAllocator@UWindowInfo@@@@@std@@QEAA?AV?$_Vector_iterator@V?$_Vector_val@U?$_Simple_types@UWindowInfo@@@std@@@std@@@2@V?$_Vector_const_iterator@V?$_Vector_val@U?$_Simple_types@UWindowInfo@@@std@@@std@@@2@_KAEBUWindowInfo@@@Z$0 000000018003294f f   ConEmuPlugin2800.obj
 0001:00031975       ?dtor$0@?0???0CPluginW995@@QEAA@XZ@4HA 0000000180032975 f   ConEmuPlugin995.obj
 0001:00031975       ?dtor$0@?0???0CPluginAnsi@@QEAA@XZ@4HA 0000000180032975 f   ConEmuPluginA.obj
 0001:00031981       ?dtor$0@?0??CheckConEmuDetached@CPluginBase@@SAXXZ@4HA 0000000180032981 f   ConEmuPluginBase.obj
 0001:0003198d       ?dtor$0@?0??CreateTabs@CPluginBase@@SA_NH@Z@4HA 000000018003298d f   ConEmuPluginBase.obj
 0001:0003198d       ?dtor$0@?0??IsCurrentTabModal@CPluginBase@@QEAA_NXZ@4HA 000000018003298d f   ConEmuPluginBase.obj
 0001:0003198d       ?dtor$0@?0??SendTabs@CPluginBase@@SAXH_N@Z@4HA 000000018003298d f   ConEmuPluginBase.obj
 0001:00031999       ?dtor$1@?0??DllCheckUnique@CPluginBase@@KA_N_N@Z@4HA 0000000180032999 f   ConEmuPluginBase.obj
 0001:00031999       ?dtor$4@?0??SearchAppPaths@@YA_NPEB_WAEAUCEStr@@_NPEAVCEnvRestorer@@@Z@4HA 0000000180032999 f   common-user64:WFiles.obj
 0001:00031999       ?dtor$2@?0??UpdateComspec@@YAXPEAUConEmuComspec@@_N@Z@4HA 0000000180032999 f   common-user64:WUser.obj
 0001:000319a5       ?dtor$0@?0??DllMain_ProcessAttach@CPluginBase@@KAXPEAUHINSTANCE__@@@Z@4HA 00000001800329a5 f   ConEmuPluginBase.obj
 0001:000319a5       ?dtor$1@?0??DllMain_ProcessAttach@CPluginBase@@KAXPEAUHINSTANCE__@@@Z@4HA 00000001800329a5 f   ConEmuPluginBase.obj
 0001:000319a5       ?dtor$0@?0???0CPluginBackground@@QEAA@XZ@4HA 00000001800329a5 f   PluginBackground.obj
 0001:000319c2       ?dtor$0@?0??MonitorThreadProcW@CPluginBase@@SAKPEAX@Z@4HA 00000001800329c2 f   ConEmuPluginBase.obj
 0001:000319c2       ?dtor$0@?0??RegisterSubplugin@CPluginBackground@@QEAAHPEAURegisterBackgroundArg@@@Z@4HA 00000001800329c2 f   PluginBackground.obj
 0001:000319ce       ?dtor$0@?0??Plugin@@YAPEAVCPluginBase@@XZ@4HA 00000001800329ce f   ConEmuPluginBase.obj
 0001:000319eb       ?dtor$1@?0??Plugin@@YAPEAVCPluginBase@@XZ@4HA 00000001800329eb f   ConEmuPluginBase.obj
 0001:000319eb       ?dtor$2@?0??Plugin@@YAPEAVCPluginBase@@XZ@4HA 00000001800329eb f   ConEmuPluginBase.obj
 0001:000319eb       ?dtor$3@?0??Plugin@@YAPEAVCPluginBase@@XZ@4HA 00000001800329eb f   ConEmuPluginBase.obj
 0001:00031a08       ?dtor$0@?0??ProcessCommand@CPluginBase@@QEAA_NKHPEAXPEAPEAUCESERVER_REQ@@_N@Z@4HA 0000000180032a08 f   ConEmuPluginBase.obj
 0001:00031a14       ?dtor$0@?0??RunExternalProgramW@CPluginBase@@SA_NPEA_W0_N@Z@4HA 0000000180032a14 f   ConEmuPluginBase.obj
 0001:00031a20       ?dtor$1@?0??RunExternalProgramW@CPluginBase@@SA_NPEA_W0_N@Z@4HA 0000000180032a20 f   ConEmuPluginBase.obj
 0001:00031a2c       ?dtor$0@?0??UpdateConEmuTabs@CPluginBase@@QEAA_N_N@Z@4HA 0000000180032a2c f   ConEmuPluginBase.obj
 0001:00031a38       ?dtor$0@?0??cmd_OpenEditorLine@CPluginBase@@QEAA_NPEAUCESERVER_REQ_FAREDITOR@@@Z@4HA 0000000180032a38 f   ConEmuPluginBase.obj
 0001:00031a44       ?filt$0@?0??GetTo@?$MFileMapping@UPanelViewSetMapping@@@@QEAA_NPEAUPanelViewSetMapping@@H@Z@4HA 0000000180032a44 f   PluginBackground.obj
 0001:00031a67       ?dtor$0@?0??LoadThSet@CPluginBackground@@IEAAHH@Z@4HA 0000000180032a67 f   PluginBackground.obj
 0001:00031a73       ?dtor$0@?0??UpdateBackground@CPluginBackground@@IEAAXXZ@4HA 0000000180032a73 f   PluginBackground.obj
 0001:00031a7f       ?dtor$0@?0??PlugServerCommand@@YAHPEAXPEAUCESERVER_REQ@@AEAPEAU1@AEAK3_J@Z@4HA 0000000180032a7f f   PluginSrv.obj
 0001:00031a8b       ?dtor$1@?0??PlugServerCommand@@YAHPEAXPEAUCESERVER_REQ@@AEAPEAU1@AEAK3_J@Z@4HA 0000000180032a8b f   PluginSrv.obj
 0001:00031a97       ?dtor$0@?0??FindConEmuBaseDir@@YAHAEAY0BAF@_W0PEAUHINSTANCE__@@@Z@4HA 0000000180032a97 f   common-user64:ConEmuCheckEx.obj
 0001:00031a97       ?dtor$1@?0??FindConEmuBaseDir@@YAHAEAY0BAF@_W0PEAUHINSTANCE__@@@Z@4HA 0000000180032a97 f   common-user64:ConEmuCheckEx.obj
 0001:00031aa3       ?dtor$0@?0??SearchAppPaths@@YA_NPEB_WAEAUCEStr@@_NPEAVCEnvRestorer@@@Z@4HA 0000000180032aa3 f   common-user64:WFiles.obj
 0001:00031aaf       ?dtor$1@?0??SearchAppPaths@@YA_NPEB_WAEAUCEStr@@_NPEAVCEnvRestorer@@@Z@4HA 0000000180032aaf f   common-user64:WFiles.obj
 0001:00031abb       ?dtor$3@?0??SearchAppPaths@@YA_NPEB_WAEAUCEStr@@_NPEAVCEnvRestorer@@@Z@4HA 0000000180032abb f   common-user64:WFiles.obj
 0001:00031abb       ?dtor$3@?0??UpdateComspec@@YAXPEAUConEmuComspec@@_N@Z@4HA 0000000180032abb f   common-user64:WUser.obj
 0001:00031ac7       ?dtor$1@?0??UpdateComspec@@YAXPEAUConEmuComspec@@_N@Z@4HA 0000000180032ac7 f   common-user64:WUser.obj
 0001:00031ad3       ?fin$0@?0??dllmain_crt_process_attach@@YAHQEAUHINSTANCE__@@QEAX@Z@4HA 0000000180032ad3 f   LIBCMT:dll_dllmain.obj
 0001:00031aea       ?fin$0@?0??dllmain_crt_process_detach@@YAH_N@Z@4HA 0000000180032aea f   LIBCMT:dll_dllmain.obj
 0001:00031b03       ?fin$1@?0??dllmain_crt_process_detach@@YAH_N@Z@4HA 0000000180032b03 f   LIBCMT:dll_dllmain.obj
 0001:00031b17       ?filt$0@?0??dllmain_dispatch@@YAHQEAUHINSTANCE__@@KQEAX@Z@4HA 0000000180032b17 f   LIBCMT:dll_dllmain.obj
 0001:00031b4d       __scrt_is_nonwritable_in_current_image$filt$0 0000000180032b4d f   LIBCMT:utility.obj
 0001:00031b65       ?filt$0@?0???$_CallSETranslator@V__FrameHandler4@@@@YAHPEAUEHExceptionRecord@@PEA_KPEAU_CONTEXT@@PEAU_xDISPATCHER_CONTEXT@@PEAUFuncInfo4@FH4@@K1H@Z@4HA 0000000180032b65 f   libvcruntime:risctrnsctrl.obj
 0001:00031c04       __DestructExceptionObject$filt$0 0000000180032c04 f   libvcruntime:ehhelpers.obj
 0001:00031c9a       ?filt$0@?0??CxxCallCatchBlock@__FrameHandler4@@SAPEAXPEAU_EXCEPTION_RECORD@@@Z@4HA 0000000180032c9a f   libvcruntime:frame.obj
 0001:00031cc9       ?fin$1@?0??CxxCallCatchBlock@__FrameHandler4@@SAPEAXPEAU_EXCEPTION_RECORD@@@Z@4HA 0000000180032cc9 f   libvcruntime:frame.obj
 0001:00031d4c       ?filt$0@?0??FrameUnwindToState@__FrameHandler4@@SAXPEA_KPEAU_xDISPATCHER_CONTEXT@@PEAUFuncInfo4@FH4@@H@Z@4HA 0000000180032d4c f   libvcruntime:frame.obj
 0001:00031d62       ?fin$1@?0??FrameUnwindToState@__FrameHandler4@@SAXPEA_KPEAU_xDISPATCHER_CONTEXT@@PEAUFuncInfo4@FH4@@H@Z@4HA 0000000180032d62 f   libvcruntime:frame.obj
 0001:00031d85       ?fin$0@?0???$?RV<lambda_0ae27a3a962d80f24befdcbee591983d>@@AEAV<lambda_8d0ee55de4b1038c4002e0adecdf1839>@@V<lambda_dc504788e8f1664fe9b84e20bfb512f2>@@@?$__crt_seh_guarded_call@X@@QEAAX$$QEAV<lambda_0ae27a3a962d80f24befdcbee591983d>@@AEAV<lambda_8d0ee55de4b1038c4002e0adecdf1839>@@$$QEAV<lambda_dc504788e8f1664fe9b84e20bfb512f2>@@@Z@4HA 0000000180032d85 f   libucrt:per_thread_data.obj
 0001:00031d85       ?fin$0@?0???$?RV<lambda_2d41944a1d46af3157314b8a01080d33>@@AEAV<lambda_8f455de75cd7d7f24b4096f044d8b9e6>@@V<lambda_aa500f224e6afead328df44964fe2772>@@@?$__crt_seh_guarded_call@X@@QEAAX$$QEAV<lambda_2d41944a1d46af3157314b8a01080d33>@@AEAV<lambda_8f455de75cd7d7f24b4096f044d8b9e6>@@$$QEAV<lambda_aa500f224e6afead328df44964fe2772>@@@Z@4HA 0000000180032d85 f   libucrt:per_thread_data.obj
 0001:00031d85       ?fin$0@?0???$?RV<lambda_aa87e3671a710a21b5dc78c0bdf72e11>@@AEAV<lambda_92619d2358a28f41a33ba319515a20b9>@@V<lambda_6992ecaafeb10aed2b74cb1fae11a551>@@@?$__crt_seh_guarded_call@X@@QEAAX$$QEAV<lambda_aa87e3671a710a21b5dc78c0bdf72e11>@@AEAV<lambda_92619d2358a28f41a33ba319515a20b9>@@$$QEAV<lambda_6992ecaafeb10aed2b74cb1fae11a551>@@@Z@4HA 0000000180032d85 f   libucrt:per_thread_data.obj
 0001:00031d85       ?fin$0@?0???$?RV<lambda_f2e299630e499de9f9a165e60fcd3db5>@@AEAV<lambda_2ae9d31cdba2644fcbeaf08da7c24588>@@V<lambda_40d01ff24d0e7b3814fdbdcee8eab3c7>@@@?$__crt_seh_guarded_call@X@@QEAAX$$QEAV<lambda_f2e299630e499de9f9a165e60fcd3db5>@@AEAV<lambda_2ae9d31cdba2644fcbeaf08da7c24588>@@$$QEAV<lambda_40d01ff24d0e7b3814fdbdcee8eab3c7>@@@Z@4HA 0000000180032d85 f   libucrt:per_thread_data.obj
 0001:00031d85       ?fin$0@?0???$?RV<lambda_efdfa57d1f175319df784efa44bb7b81>@@AEAV<lambda_5f0a4c1567f8adc6734073e5d1e1b35c>@@V<lambda_2e8a7d3640ea6ccb4c2413664c2db6fd>@@@?$__crt_seh_guarded_call@X@@QEAAX$$QEAV<lambda_efdfa57d1f175319df784efa44bb7b81>@@AEAV<lambda_5f0a4c1567f8adc6734073e5d1e1b35c>@@$$QEAV<lambda_2e8a7d3640ea6ccb4c2413664c2db6fd>@@@Z@4HA 0000000180032d85 f   libucrt:mbctype.obj
 0001:00031d85       ?fin$0@?0???$?RV<lambda_450d765d439847d4c735a33c368b5fc0>@@AEAV<lambda_44731a7d0e6d81c3e6aa82d741081786>@@V<lambda_601a2a7da3b7a96e9554ac7215c4b07c>@@@?$__crt_seh_guarded_call@P6AXH@Z@@QEAAP6AXH@Z$$QEAV<lambda_450d765d439847d4c735a33c368b5fc0>@@AEAV<lambda_44731a7d0e6d81c3e6aa82d741081786>@@$$QEAV<lambda_601a2a7da3b7a96e9554ac7215c4b07c>@@@Z@4HA 0000000180032d85 f   libucrt:signal.obj
 0001:00031d85       ?fin$0@?0???$?RV<lambda_d80eeec6fff315bfe5c115232f3240e3>@@AEAV<lambda_6e4b09c48022b2350581041d5f6b0c4c>@@V<lambda_2358e3775559c9db80273638284d5e45>@@@?$__crt_seh_guarded_call@X@@QEAAX$$QEAV<lambda_d80eeec6fff315bfe5c115232f3240e3>@@AEAV<lambda_6e4b09c48022b2350581041d5f6b0c4c>@@$$QEAV<lambda_2358e3775559c9db80273638284d5e45>@@@Z@4HA 0000000180032d85 f   libucrt:exit.obj
 0001:00031d85       ?fin$0@?0???$?RV<lambda_638799b9deba96c50f710eeac98168cd>@@AEAV<lambda_22ebabd17bc4fa466a2aca6d8deb888d>@@V<lambda_a6f7d7db0129f75315ebf26d50c089f1>@@@?$__crt_seh_guarded_call@H@@QEAAH$$QEAV<lambda_638799b9deba96c50f710eeac98168cd>@@AEAV<lambda_22ebabd17bc4fa466a2aca6d8deb888d>@@$$QEAV<lambda_a6f7d7db0129f75315ebf26d50c089f1>@@@Z@4HA 0000000180032d85 f   libucrt:onexit.obj
 0001:00031d85       ?fin$0@?0???$?RV<lambda_7777bce6b2f8c936911f934f8298dc43>@@AEAV<lambda_f03950bc5685219e0bcd2087efbe011e>@@V<lambda_3883c3dff614d5e0c5f61bb1ac94921c>@@@?$__crt_seh_guarded_call@H@@QEAAH$$QEAV<lambda_7777bce6b2f8c936911f934f8298dc43>@@AEAV<lambda_f03950bc5685219e0bcd2087efbe011e>@@$$QEAV<lambda_3883c3dff614d5e0c5f61bb1ac94921c>@@@Z@4HA 0000000180032d85 f   libucrt:onexit.obj
 0001:00031d9f       ?filt$0@?0???R<lambda_6e4b09c48022b2350581041d5f6b0c4c>@@QEBA@XZ@4HA 0000000180032d9f f   libucrt:exit.obj
 0001:00031dba       ?fin$0@?0???$?RV<lambda_410d79af7f07d98d83a3f525b3859a53>@@AEAV<lambda_3e16ef9562a7dcce91392c22ab16ea36>@@V<lambda_38119f0e861e05405d8a144b9b982f0a>@@@?$__crt_seh_guarded_call@X@@QEAAX$$QEAV<lambda_410d79af7f07d98d83a3f525b3859a53>@@AEAV<lambda_3e16ef9562a7dcce91392c22ab16ea36>@@$$QEAV<lambda_38119f0e861e05405d8a144b9b982f0a>@@@Z@4HA 0000000180032dba f   libucrt:wsetlocale.obj
 0001:00031dd4       __acrt_initialize_lowio$fin$0 0000000180032dd4 f   libucrt:ioinit.obj
 0001:00031dd4       __acrt_lowio_ensure_fh_exists$fin$0 0000000180032dd4 f   libucrt:osfinfo.obj
 0001:00031ded       ?fin$0@?0??update_thread_multibyte_data_internal@@YAPEAU__crt_multibyte_data@@QEAU__acrt_ptd@@QEAPEAU1@@Z@4HA 0000000180032ded f   libucrt:mbctype.obj
 0001:00031e06       _query_new_handler$fin$0   0000000180032e06 f   libucrt:new_handler.obj
 0001:00031e1c       raise$fin$0                0000000180032e1c f   libucrt:signal.obj
 0001:00031e3d       ?fin$0@?0???$?RV<lambda_842d9ff0dc9ef11c61343bbaebe7f885>@@AEAV<lambda_c5860995281e5c4ce005b3de8f5874ee>@@V<lambda_d90129c13df834fdcbf8d2b88dafcf2d>@@@?$__crt_seh_guarded_call@X@@QEAAX$$QEAV<lambda_842d9ff0dc9ef11c61343bbaebe7f885>@@AEAV<lambda_c5860995281e5c4ce005b3de8f5874ee>@@$$QEAV<lambda_d90129c13df834fdcbf8d2b88dafcf2d>@@@Z@4HA 0000000180032e3d f   libucrt:fflush.obj
 0001:00031e58       ?fin$0@?0???$?RV<lambda_886d6c58226a84441f68b9f2b8217b83>@@AEAV<lambda_ab61a845afdef5b7c387490eaf3616ee>@@V<lambda_f7f22ab5edc0698d5f6905b0d3f44752>@@@?$__crt_seh_guarded_call@X@@QEAAX$$QEAV<lambda_886d6c58226a84441f68b9f2b8217b83>@@AEAV<lambda_ab61a845afdef5b7c387490eaf3616ee>@@$$QEAV<lambda_f7f22ab5edc0698d5f6905b0d3f44752>@@@Z@4HA 0000000180032e58 f   libucrt:fflush.obj
 0001:00031e75       __acrt_update_thread_locale_data$fin$0 0000000180032e75 f   libucrt:locale_refcounting.obj
 0001:00031e8e       _fcloseall$fin$0           0000000180032e8e f   libucrt:closeall.obj
 0001:00031ea7       ?fin$0@?0???$?RV<lambda_751a882b2c74d4b022dec766aa51a29a>@@AEAV<lambda_628dfdc04ba53c8bfc02c9951375f3f5>@@V<lambda_f6c7be5f7998530c34de24c7437d6b54>@@@?$__crt_seh_guarded_call@H@@QEAAH$$QEAV<lambda_751a882b2c74d4b022dec766aa51a29a>@@AEAV<lambda_628dfdc04ba53c8bfc02c9951375f3f5>@@$$QEAV<lambda_f6c7be5f7998530c34de24c7437d6b54>@@@Z@4HA 0000000180032ea7 f   libucrt:close.obj
 0001:00031ea7       ?fin$0@?0???$?RV<lambda_a37b2b86f63e897a80ea819b0eb08c01>@@AEAV<lambda_38ce7e780aa69e748d6df282ebc68efe>@@V<lambda_99fb1378e971ab6e7edea83e3a7a83a2>@@@?$__crt_seh_guarded_call@H@@QEAAH$$QEAV<lambda_a37b2b86f63e897a80ea819b0eb08c01>@@AEAV<lambda_38ce7e780aa69e748d6df282ebc68efe>@@$$QEAV<lambda_99fb1378e971ab6e7edea83e3a7a83a2>@@@Z@4HA 0000000180032ea7 f   libucrt:commit.obj
 0001:00031ec1       _write$fin$0               0000000180032ec1 f   libucrt:write.obj
 0001:00031ed8       fclose$fin$0               0000000180032ed8 f   libucrt:fclose.obj
 0001:00031ef0       _ctrlfp$filt$0             0000000180032ef0 f   libucrt:fpctrl.obj
 0001:00031ef0       common_control87$filt$0    0000000180032ef0 f   libucrt:ieee.obj
 0001:00031f20       _IsNonwritableInCurrentImage$filt$0 0000000180032f20 f   LIBCMT:pesect.obj
 0001:00031f40       ??__FgsMapHelper@@YAXXZ    0000000180032f40 f   common-user64:WConsoleEx.obj
 0002:00000690       ?gsMapHelper$initializer$@@3P6AXXZEA 0000000180033690     common-user64:WConsoleEx.obj
 0002:000006a8       ?__scrt_initialize_tss_var@@3P6AHXZEA 00000001800336a8     LIBCMT:thread_safe_statics.obj
 0002:00001190       ?_Fake_alloc@std@@3U_Fake_allocator@1@B 0000000180034190     ConEmuPlugin2800.obj
 0002:00003f00       ?ILLEGAL_CHARACTERS@?A0x78984006@@3QB_WB 0000000180036f00     common-kernel64:CmdLine.obj
 0002:00003f10       ?SPECIAL_CMD_CHARACTERS@?A0x78984006@@3QB_WB 0000000180036f10     common-kernel64:CmdLine.obj
 0002:00003f20       ?REDIRECTION_CMD_CHARACTERS@?A0x78984006@@3QB_WB 0000000180036f20     common-kernel64:CmdLine.obj
 0002:00003f30       ?CMD_INTERNAL_COMMANDS@?A0x78984006@@3QBQEB_WB 0000000180036f30     common-kernel64:CmdLine.obj
 0002:0000490a       ?ignore@std@@3U_Ignore@1@B 000000018003790a     common-kernel64:WObjects.obj
 0002:0000499b       ?_Fake_alloc@std@@3U_Fake_allocator@1@B 000000018003799b     common-kernel64:MProcess.obj
 0002:00004e06       ?ignore@std@@3U_Ignore@1@B 0000000180037e06     common-user64:WRegistry.obj
 0002:00004e07       ?_Fake_alloc@std@@3U_Fake_allocator@1@B 0000000180037e07     common-user64:Monitors.obj
 0002:00004f20       GS_ExceptionPointers       0000000180037f20     LIBCMT:gs_report.obj
 0002:00004f50       ?ExceptionTemplate@?1??UnwindNestedFrames@__FrameHandler4@@SAXPEA_KPEAUEHExceptionRecord@@PEAU_CONTEXT@@0PEAXPEAUFuncInfo4@FH4@@HHPEAUHandlerType4@6@PEAU_xDISPATCHER_CONTEXT@@E@Z@4U_EXCEPTION_RECORD@@B 0000000180037f50     libvcruntime:risctrnsctrl.obj
 0002:00005020       ?tokenTable@@3QBUStringLiteral@@B 0000000180038020     libvcruntime:undname.obj
 0002:00005120       ?nameTable@@3QBUStringLiteral@@B 0000000180038120     libvcruntime:undname.obj
 0002:00005650       ?rttiTable@@3QBUStringLiteral@@B 0000000180038650     libvcruntime:undname.obj
 0002:000056a0       ?IndirectionName@@3QBUStringLiteral@@B 00000001800386a0     libvcruntime:undname.obj
 0002:00005700       ?PrefixName@@3QBUStringLiteral@@B 0000000180038700     libvcruntime:undname.obj
 0002:00005dd8       ?module_names@?A0x6b2bd6b2@@3QBQEB_WB 0000000180038dd8     libvcruntime:winapi_downlevel.obj
 0002:00005e98       ?candidate_modules@?1??try_get_FlsAlloc@@YAP6AKP6AXPEAX@Z@ZXZ@4QBW4module_id@?A0x6b2bd6b2@@B 0000000180038e98     libvcruntime:winapi_downlevel.obj
 0002:00005eb0       ?candidate_modules@?1??try_get_FlsFree@@YAP6AHK@ZXZ@4QBW4module_id@?A0x6b2bd6b2@@B 0000000180038eb0     libvcruntime:winapi_downlevel.obj
 0002:00005ec0       ?candidate_modules@?1??try_get_FlsGetValue@@YAP6APEAXK@ZXZ@4QBW4module_id@?A0x6b2bd6b2@@B 0000000180038ec0     libvcruntime:winapi_downlevel.obj
 0002:00005ed8       ?candidate_modules@?1??try_get_FlsSetValue@@YAP6AHKPEAX@ZXZ@4QBW4module_id@?A0x6b2bd6b2@@B 0000000180038ed8     libvcruntime:winapi_downlevel.obj
 0002:00005ef0       ?candidate_modules@?1??try_get_InitializeCriticalSectionEx@@YAP6AHPEAU_RTL_CRITICAL_SECTION@@KK@ZXZ@4QBW4module_id@?A0x6b2bd6b2@@B 0000000180038ef0     libvcruntime:winapi_downlevel.obj
 0002:00006340       ?errtable@@3QBUerrentry@?A0x31fdb9ec@@B 0000000180039340     libucrt:errno.obj
 0002:000065b0       __acrt_initializers        00000001800395b0     libucrt:initialization.obj
 0002:000066b0       ?strings@?1??fp_format_nan_or_infinity@@YAHW4__acrt_fp_class@@_NPEAD_K1@Z@4QAY03QEBDA 00000001800396b0     libucrt:cvt.obj
 0002:00007618       ?_mb_locale_names@@3QBQEB_WB 000000018003a618     libucrt:mbctype.obj
 0002:00007680       ?module_names@?A0x391cf84c@@3QBQEB_WB 000000018003a680     libucrt:winapi_thunks.obj
 0002:00007b88       ?candidate_modules@?1??try_get_AreFileApisANSI@@YAP6AHXZXZ@4QBW4module_id@?A0x391cf84c@@B 000000018003ab88     libucrt:winapi_thunks.obj
 0002:00007ba0       ?candidate_modules@?1??try_get_FlsAlloc@@YAP6AKP6AXPEAX@Z@ZXZ@4QBW4module_id@?A0x391cf84c@@B 000000018003aba0     libucrt:winapi_thunks.obj
 0002:00007ba8       ?candidate_modules@?1??try_get_FlsFree@@YAP6AHK@ZXZ@4QBW4module_id@?A0x391cf84c@@B 000000018003aba8     libucrt:winapi_thunks.obj
 0002:00007bb0       ?candidate_modules@?1??try_get_FlsGetValue@@YAP6APEAXK@ZXZ@4QBW4module_id@?A0x391cf84c@@B 000000018003abb0     libucrt:winapi_thunks.obj
 0002:00007bb8       ?candidate_modules@?1??try_get_FlsSetValue@@YAP6AHKPEAX@ZXZ@4QBW4module_id@?A0x391cf84c@@B 000000018003abb8     libucrt:winapi_thunks.obj
 0002:00007bc0       ?candidate_modules@?1??try_get_InitializeCriticalSectionEx@@YAP6AHPEAU_RTL_CRITICAL_SECTION@@KK@ZXZ@4QBW4module_id@?A0x391cf84c@@B 000000018003abc0     libucrt:winapi_thunks.obj
 0002:00007bc8       ?candidate_modules@?1??try_get_LCMapStringEx@@YAP6AHPEB_WK0HPEA_WHPEAU_nlsversioninfo@@PEAX_J@ZXZ@4QBW4module_id@?A0x391cf84c@@B 000000018003abc8     libucrt:winapi_thunks.obj
 0002:00007be0       ?candidate_modules@?1??try_get_LocaleNameToLCID@@YAP6AKPEB_WK@ZXZ@4QBW4module_id@?A0x391cf84c@@B 000000018003abe0     libucrt:winapi_thunks.obj
 0002:00007bfc       ?candidate_modules@?1??try_get_AppPolicyGetProcessTerminationMethod@@YAP6AJPEAXPEAW4AppPolicyProcessTerminationMethod@@@ZXZ@4QBW4module_id@?A0x391cf84c@@B 000000018003abfc     libucrt:winapi_thunks.obj
 0002:00008630       ?LcidToLocaleNameTable@?A0x881e4c05@@3QBULcidToLocaleName@1@B 000000018003b630     libucrt:lcidtoname_downlevel.obj
 0002:0000a080       ?LocaleNameToIndexTable@?A0x881e4c05@@3QBULocaleNameIndex@1@B 000000018003d080     libucrt:lcidtoname_downlevel.obj
 0002:0000b920       __real_ninf                000000018003e920     libucrt:log10.obj
 0002:0000b930       __real_inf                 000000018003e930     libucrt:log10.obj
 0002:0000b940       __real_neg_qnan            000000018003e940     libucrt:log10.obj
 0002:0000b950       __real_qnanbit             000000018003e950     libucrt:log10.obj
 0002:0000b960       __int_1023                 000000018003e960     libucrt:log10.obj
 0002:0000b970       __mask_001                 000000018003e970     libucrt:log10.obj
 0002:0000b980       __mask_mant                000000018003e980     libucrt:log10.obj
 0002:0000b990       __mask_mant_top8           000000018003e990     libucrt:log10.obj
 0002:0000b9a0       __mask_mant9               000000018003e9a0     libucrt:log10.obj
 0002:0000b9b0       __real_log10_e             000000018003e9b0     libucrt:log10.obj
 0002:0000b9c0       __real_log10_e_lead        000000018003e9c0     libucrt:log10.obj
 0002:0000b9d0       __real_log10_e_tail        000000018003e9d0     libucrt:log10.obj
 0002:0000b9e0       __real_log10_2_lead        000000018003e9e0     libucrt:log10.obj
 0002:0000b9f0       __real_log10_2_tail        000000018003e9f0     libucrt:log10.obj
 0002:0000ba00       __real_two                 000000018003ea00     libucrt:log10.obj
 0002:0000ba10       __real_one                 000000018003ea10     libucrt:log10.obj
 0002:0000ba20       __real_half                000000018003ea20     libucrt:log10.obj
 0002:0000ba30       __mask_100                 000000018003ea30     libucrt:log10.obj
 0002:0000ba40       __real_1_over_512          000000018003ea40     libucrt:log10.obj
 0002:0000ba50       __real_1_over_2            000000018003ea50     libucrt:log10.obj
 0002:0000ba60       __real_1_over_3            000000018003ea60     libucrt:log10.obj
 0002:0000ba70       __real_1_over_4            000000018003ea70     libucrt:log10.obj
 0002:0000ba80       __real_1_over_5            000000018003ea80     libucrt:log10.obj
 0002:0000ba90       __real_1_over_6            000000018003ea90     libucrt:log10.obj
 0002:0000baa0       __real_neg_1023            000000018003eaa0     libucrt:log10.obj
 0002:0000bab0       __mask_2045                000000018003eab0     libucrt:log10.obj
 0002:0000bac0       __real_threshold           000000018003eac0     libucrt:log10.obj
 0002:0000bad0       __real_near_one_lt         000000018003ead0     libucrt:log10.obj
 0002:0000bae0       __real_near_one_gt         000000018003eae0     libucrt:log10.obj
 0002:0000baf0       __real_min_norm            000000018003eaf0     libucrt:log10.obj
 0002:0000bb00       __real_notsign             000000018003eb00     libucrt:log10.obj
 0002:0000bb10       __real_ca1                 000000018003eb10     libucrt:log10.obj
 0002:0000bb20       __real_ca2                 000000018003eb20     libucrt:log10.obj
 0002:0000bb30       __real_ca3                 000000018003eb30     libucrt:log10.obj
 0002:0000bb40       __real_ca4                 000000018003eb40     libucrt:log10.obj
 0002:0000bb50       __mask_lower               000000018003eb50     libucrt:log10.obj
 0002:0000bb60       __flag_x_zero              000000018003eb60     libucrt:log10.obj
 0002:0000bb64       __flag_x_neg               000000018003eb64     libucrt:log10.obj
 0002:0000bb68       __flag_x_nan               000000018003eb68     libucrt:log10.obj
 0002:0000d3c0       __real@433fffffffffffff    00000001800403c0     libucrt:fpsr.obj
 0002:0000d3c8       __real@c33fffffffffffff    00000001800403c8     libucrt:fpsr.obj
 0002:0000e550       $unwind$?StringCchVPrintfW@@YAJPEA_W_KPEB_WPEAD@Z 0000000180041550     ConEmuInjects.obj
 0002:0000e550       $unwind$?WaitOverlapped@?$PipeServer@UCESERVER_REQ@@@@IEAAHPEAUPipeInst@1@PEAK@Z 0000000180041550     PluginSrv.obj
 0002:0000e550       $unwind$??$create_environment@D@@YAQEAPEADQEAD@Z 0000000180041550     libucrt:environment_initialization.obj
 0002:0000e568       $unwind$?StartupHooks@@YA_NPEAUHINSTANCE__@@@Z 0000000180041568     ConEmuInjects.obj
 0002:0000e584       $unwind$?StartupConsoleHooks@@YAXXZ 0000000180041584     ConEmuInjects.obj
 0002:0000e584       $unwind$?ExitFAR@@YAXXZ    0000000180041584     ConEmuPlugin.obj
 0002:0000e584       $unwind$?ExitFARW3@@YAXPEAX@Z 0000000180041584     ConEmuPlugin.obj
 0002:0000e584       $unwind$ExitFARW           0000000180041584     ConEmuPlugin.obj
 0002:0000e584       $unwind$?ShowMessage@CPluginW995@@UEAAHPEB_WH_N@Z 0000000180041584     ConEmuPlugin995.obj
 0002:0000e584       $unwind$strtol             0000000180041584     libucrt:strtox.obj
 0002:0000e584       $unwind$wcstol             0000000180041584     libucrt:strtox.obj
 0002:0000e584       $unwind$wcstoul            0000000180041584     libucrt:strtox.obj
 0002:0000e584       $unwind$_invalid_parameter_noinfo 0000000180041584     libucrt:invalid_parameter.obj
 0002:0000e584       $unwind$_log10_special     0000000180041584     libucrt:log_special.obj
 0002:0000e584       $unwind$?_Doraise@bad_alloc@stdext@@MEBAXXZ 0000000180041584     common-kernel64:CEStr.obj
 0002:0000e58c       $unwind$?ShutdownHooks@@YAXXZ 000000018004158c     ConEmuInjects.obj
 0002:0000e58c       $unwind$?insert@?$MArray@UWindowInfo@@@@QEAA_J_JAEBUWindowInfo@@0@Z 000000018004158c     ConEmuPlugin2800.obj
 0002:0000e58c       $unwind$?OnMainThreadActivated@CPluginBase@@QEAAXXZ 000000018004158c     ConEmuPluginBase.obj
 0002:0000e58c       $unwind$?UpdateBackground_Exec@CPluginBackground@@KAXPEAURegisterBackgroundArg@@PEAUPaintBackgroundArg@@@Z 000000018004158c     PluginBackground.obj
 0002:0000e598       $unwind$??$swprintf_c@$0EA@@@YAHAEAY0EA@_WPEB_WZZ 0000000180041598     ConEmuInjects.obj
 0002:0000e598       $unwind$??$swprintf_c@$0IA@@@YAHAEAY0IA@_WPEB_WZZ 0000000180041598     ConEmuInjects.obj
 0002:0000e598       $unwind$??$swprintf_c@$0PP@@@YAHAEAY0PP@_WPEB_WZZ 0000000180041598     ConEmuInjects.obj
 0002:0000e598       $unwind$??$swprintf_c@$0BAE@@@YAHAEAY0BAE@_WPEB_WZZ 0000000180041598     ConEmuPluginBase.obj
 0002:0000e598       $unwind$??$swprintf_c@$0DAM@@@YAHAEAY0DAM@_WPEB_WZZ 0000000180041598     ConEmuPluginBase.obj
 0002:0000e598       $unwind$??$swprintf_c@$0EAA@@@YAHAEAY0EAA@_WPEB_WZZ 0000000180041598     ConEmuPluginBase.obj
 0002:0000e598       $unwind$??$swprintf_c@$0MI@@@YAHAEAY0MI@_WPEB_WZZ 0000000180041598     ConEmuPluginBase.obj
 0002:0000e598       $unwind$??$swprintf_c@$09@@YAHAEAY09_WPEB_WZZ 0000000180041598     PluginSrv.obj
 0002:0000e598       $unwind$??$sprintf_c@$0CI@@@YAHAEAY0CI@DPEBDZZ 0000000180041598     common-kernel64:WThreads.obj
 0002:0000e598       $unwind$??$swprintf_c@$0FA@@@YAHAEAY0FA@_WPEB_WZZ 0000000180041598     common-user64:EmergencyShow.obj
 0002:0000e5a0       $unwind$?OpenPlugin@@YAPEAXH_J@Z 00000001800415a0     ConEmuPlugin.obj
 0002:0000e5a0       $unwind$OpenPluginW        00000001800415a0     ConEmuPlugin.obj
 0002:0000e5a0       $unwind$ProcessSynchroEventW 00000001800415a0     ConEmuPlugin.obj
 0002:0000e5a0       $unwind$??_GCPluginW1900@@UEAAPEAXI@Z 00000001800415a0     ConEmuPlugin1900.obj
 0002:0000e5a0       $unwind$?Open@CPluginW1900@@UEAAPEAXPEBX@Z 00000001800415a0     ConEmuPlugin1900.obj
 0002:0000e5a0       $unwind$??_GCPluginW2800@@UEAAPEAXI@Z 00000001800415a0     ConEmuPlugin2800.obj
 0002:0000e5a0       $unwind$??_Gbad_alloc@std@@UEAAPEAXI@Z 00000001800415a0     ConEmuPlugin2800.obj
 0002:0000e5a0       $unwind$??_Gexception@std@@UEAAPEAXI@Z 00000001800415a0     ConEmuPlugin2800.obj
 0002:0000e5a0       $unwind$??_GCPluginW995@@UEAAPEAXI@Z 00000001800415a0     ConEmuPlugin995.obj
 0002:0000e5a0       $unwind$?LoadFarSettings@CPluginW995@@UEAAXPEAUCEFarInterfaceSettings@@PEAUCEFarPanelSettings@@@Z 00000001800415a0     ConEmuPlugin995.obj
 0002:0000e5a0       $unwind$??_GCPluginAnsi@@UEAAPEAXI@Z 00000001800415a0     ConEmuPluginA.obj
 0002:0000e5a0       $unwind$?GetPluginInfoPtr@CPluginAnsi@@UEAAXPEAX@Z 00000001800415a0     ConEmuPluginA.obj
 0002:0000e5a0       $unwind$?LoadFarSettings@CPluginAnsi@@UEAAXPEAUCEFarInterfaceSettings@@PEAUCEFarPanelSettings@@@Z 00000001800415a0     ConEmuPluginA.obj
 0002:0000e5a0       $unwind$?OutDataAlloc@CPluginBase@@SA_NK@Z 00000001800415a0     ConEmuPluginBase.obj
 0002:0000e5a0       $unwind$?ProcessCommandLine@CPluginBase@@QEAA_NPEA_W@Z 00000001800415a0     ConEmuPluginBase.obj
 0002:0000e5a0       $unwind$?ProcessSynchroEvent@CPluginBase@@QEAAHHPEAX@Z 00000001800415a0     ConEmuPluginBase.obj
 0002:0000e5a0       $unwind$?StopThread@CPluginBase@@QEAAX_N@Z 00000001800415a0     ConEmuPluginBase.obj
 0002:0000e5a0       $unwind$?cmd_GuiChanged@CPluginBase@@QEAAXPEAX@Z 00000001800415a0     ConEmuPluginBase.obj
 0002:0000e5a0       $unwind$?IsParmChanged@CPluginBackground@@IEAA_NPEAUPaintBackgroundArg@@0@Z 00000001800415a0     PluginBackground.obj
 0002:0000e5a0       $unwind$?_PipeServerThread@?$PipeServer@UCESERVER_REQ@@@@KAKPEAX@Z 00000001800415a0     PluginSrv.obj
 0002:0000e5a0       $unwind$_RTC_Initialize    00000001800415a0     LIBCMT:initsect.obj
 0002:0000e5a0       $unwind$_RTC_Terminate     00000001800415a0     LIBCMT:initsect.obj
 0002:0000e5a0       $unwind$?__scrt_initialize_thread_safe_statics@@YAHXZ 00000001800415a0     LIBCMT:thread_safe_statics.obj
 0002:0000e5a0       $unwind$??_Gbad_function_call@std@@UEAAPEAXI@Z 00000001800415a0     libcpmt:xthrow.obj
 0002:0000e5a0       $unwind$??_Glength_error@std@@UEAAPEAXI@Z 00000001800415a0     libcpmt:xthrow.obj
 0002:0000e5a0       $unwind$??_Glogic_error@std@@UEAAPEAXI@Z 00000001800415a0     libcpmt:xthrow.obj
 0002:0000e5a0       $unwind$__FrameUnwindFilter 00000001800415a0     libvcruntime:ehhelpers.obj
 0002:0000e5a0       $unwind$??_Gbad_exception@std@@UEAAPEAXI@Z 00000001800415a0     libvcruntime:frame.obj
 0002:0000e5a0       $unwind$?ExFilterRethrowFH4@@YAHPEAU_EXCEPTION_POINTERS@@PEAUEHExceptionRecord@@HPEAH@Z 00000001800415a0     libvcruntime:frame.obj
 0002:0000e5a0       $unwind$_FindAndUnlinkFrame 00000001800415a0     libvcruntime:risctrnsctrl.obj
 0002:0000e5a0       $unwind$__vcrt_FlsSetValue 00000001800415a0     libvcruntime:winapi_downlevel.obj
 0002:0000e5a0       $unwind$??$common_initialize_environment_nolock@D@@YAHXZ 00000001800415a0     libucrt:environment_initialization.obj
 0002:0000e5a0       $unwind$_realloc_base      00000001800415a0     libucrt:realloc_base.obj
 0002:0000e5a0       $unwind$?replace_current_thread_locale_nolock@@YAXQEAU__acrt_ptd@@QEAU__crt_locale_data@@@Z 00000001800415a0     libucrt:per_thread_data.obj
 0002:0000e5a0       $unwind$__acrt_execute_uninitializers 00000001800415a0     libucrt:shared_initialization.obj
 0002:0000e5a0       $unwind$__acrt_FlsSetValue 00000001800415a0     libucrt:winapi_thunks.obj
 0002:0000e5a0       $unwind$__acrt_LocaleNameToLCID 00000001800415a0     libucrt:winapi_thunks.obj
 0002:0000e5a0       $unwind$_updatetlocinfoEx_nolock 00000001800415a0     libucrt:locale_refcounting.obj
 0002:0000e5a0       $unwind$_close_nolock      00000001800415a0     libucrt:close.obj
 0002:0000e5a0       $unwind$__acrt_uninitialize_lowio 00000001800415a0     libucrt:ioinit.obj
 0002:0000e5a0       $unwind$__acrt_errno_map_os_error 00000001800415a0     libucrt:errno.obj
 0002:0000e5a0       $unwind$_initterm_e        00000001800415a0     libucrt:initterm.obj
 0002:0000e5a0       $unwind$_fclose_nolock     00000001800415a0     libucrt:fclose.obj
 0002:0000e5a0       $unwind$?type_case_n@?$output_processor@DV?$string_output_adapter@D@__crt_stdio_output@@V?$standard_base@DV?$string_output_adapter@D@__crt_stdio_output@@@2@@__crt_stdio_output@@AEAA_NXZ 00000001800415a0     libucrt:output.obj
 0002:0000e5a0       $unwind$?type_case_n@?$output_processor@_WV?$string_output_adapter@_W@__crt_stdio_output@@V?$standard_base@_WV?$string_output_adapter@_W@__crt_stdio_output@@@2@@__crt_stdio_output@@AEAA_NXZ 00000001800415a0     libucrt:output.obj
 0002:0000e5a0       $unwind$strncpy_s          00000001800415a0     libucrt:strncpy_s.obj
 0002:0000e5a0       $unwind$??4CEStr@@QEAAAEAU0@$$QEAU0@@Z 00000001800415a0     common-kernel64:CEStr.obj
 0002:0000e5a0       $unwind$?PointToName@@YAPEB_WPEB_W@Z 00000001800415a0     common-kernel64:CmdLine.obj
 0002:0000e5a0       $unwind$?IsConsoleClass@@YA_NPEB_W@Z 00000001800415a0     common-kernel64:ConEmuCheck.obj
 0002:0000e5a0       $unwind$??0?$MToolHelp@UtagPROCESSENTRY32W@@$1?Process32FirstW@@YAHPEAXPEAU1@@Z$1?Process32NextW@@YAH01@Z@@QEAA@KK@Z 00000001800415a0     common-kernel64:MProcess.obj
 0002:0000e5a0       $unwind$??_G?$MToolHelp@UtagPROCESSENTRY32W@@$1?Process32FirstW@@YAHPEAXPEAU1@@Z$1?Process32NextW@@YAH01@Z@@UEAAPEAXI@Z 00000001800415a0     common-kernel64:MProcess.obj
 0002:0000e5a0       $unwind$??_GMToolHelpProcess@@UEAAPEAXI@Z 00000001800415a0     common-kernel64:MProcess.obj
 0002:0000e5a0       $unwind$?Next@?$MToolHelp@UtagPROCESSENTRY32W@@$1?Process32FirstW@@YAHPEAXPEAU1@@Z$1?Process32NextW@@YAH01@Z@@QEAA_NAEAUtagPROCESSENTRY32W@@@Z 00000001800415a0     common-kernel64:MProcess.obj
 0002:0000e5a0       $unwind$?Open@?$MToolHelp@UtagPROCESSENTRY32W@@$1?Process32FirstW@@YAHPEAXPEAU1@@Z$1?Process32NextW@@YAH01@Z@@QEAA_NXZ 00000001800415a0     common-kernel64:MProcess.obj
 0002:0000e5a0       $unwind$?getNext@?$MToolHelp@UtagPROCESSENTRY32W@@$1?Process32FirstW@@YAHPEAXPEAU1@@Z$1?Process32NextW@@YAH01@Z@@IEAA_NXZ 00000001800415a0     common-kernel64:MProcess.obj
 0002:0000e5a0       $unwind$??0MSection@@QEAA@XZ 00000001800415a0     common-kernel64:MSection.obj
 0002:0000e5a0       $unwind$??1MSection@@QEAA@XZ 00000001800415a0     common-kernel64:MSection.obj
 0002:0000e5a0       $unwind$?Unlock@MSection@@IEAAXH@Z 00000001800415a0     common-kernel64:MSection.obj
 0002:0000e5a0       $unwind$??_GMNullDesc@@QEAAPEAXI@Z 00000001800415a0     common-kernel64:MSecurity.obj
 0002:0000e5a0       $unwind$??4?$function@$$A6AXPEAX@Z@std@@QEAAAEAV01@$$QEAV01@@Z 00000001800415a0     common-kernel64:WObjects.obj
 0002:0000e5ac       $unwind$?GetFarHWND2@@YAPEAUHWND__@@H@Z 00000001800415ac     ConEmuPlugin.obj
 0002:0000e5ac       $unwind$?GetPluginInfo@@YAXPEAX@Z 00000001800415ac     ConEmuPlugin.obj
 0002:0000e5ac       $unwind$?GetPluginInfoW@@YAXPEAX@Z 00000001800415ac     ConEmuPlugin.obj
 0002:0000e5ac       $unwind$?IsConsoleActive@@YAHXZ 00000001800415ac     ConEmuPlugin.obj
 0002:0000e5ac       $unwind$?OpenW@@YAPEAXPEBX@Z 00000001800415ac     ConEmuPlugin.obj
 0002:0000e5ac       $unwind$?ProcessEditorEvent@@YAHHPEAX@Z 00000001800415ac     ConEmuPlugin.obj
 0002:0000e5ac       $unwind$?ProcessEditorEventW3@@YA_JPEAX@Z 00000001800415ac     ConEmuPlugin.obj
 0002:0000e5ac       $unwind$?ProcessEditorInput@@YAHPEBU_INPUT_RECORD@@@Z 00000001800415ac     ConEmuPlugin.obj
 0002:0000e5ac       $unwind$?ProcessSynchroEventW3@@YA_JPEAX@Z 00000001800415ac     ConEmuPlugin.obj
 0002:0000e5ac       $unwind$?ProcessViewerEvent@@YAHHPEAX@Z 00000001800415ac     ConEmuPlugin.obj
 0002:0000e5ac       $unwind$?ProcessViewerEventW3@@YA_JPEAX@Z 00000001800415ac     ConEmuPlugin.obj
 0002:0000e5ac       $unwind$?SetStartupInfo@@YAXPEAX@Z 00000001800415ac     ConEmuPlugin.obj
 0002:0000e5ac       $unwind$ProcessEditorEventW 00000001800415ac     ConEmuPlugin.obj
 0002:0000e5ac       $unwind$ProcessEditorInputW 00000001800415ac     ConEmuPlugin.obj
 0002:0000e5ac       $unwind$ProcessViewerEventW 00000001800415ac     ConEmuPlugin.obj
 0002:0000e5ac       $unwind$SetStartupInfoW    00000001800415ac     ConEmuPlugin.obj
 0002:0000e5ac       $unwind$?GetFarRect@CPluginW1900@@UEAA_NAEAU_SMALL_RECT@@@Z 00000001800415ac     ConEmuPlugin1900.obj
 0002:0000e5ac       $unwind$?GetPluginInfoPtr@CPluginW1900@@UEAAXPEAX@Z 00000001800415ac     ConEmuPlugin1900.obj
 0002:0000e5ac       $unwind$?ProcessSynchroEventPtr@CPluginW1900@@UEAAHPEAX@Z 00000001800415ac     ConEmuPlugin1900.obj
 0002:0000e5ac       $unwind$??0bad_alloc@std@@QEAA@AEBV01@@Z 00000001800415ac     ConEmuPlugin2800.obj
 0002:0000e5ac       $unwind$??0exception@std@@QEAA@AEBV01@@Z 00000001800415ac     ConEmuPlugin2800.obj
 0002:0000e5ac       $unwind$?GetFarRect@CPluginW2800@@UEAA_NAEAU_SMALL_RECT@@@Z 00000001800415ac     ConEmuPlugin2800.obj
 0002:0000e5ac       $unwind$?GetPluginInfoPtr@CPluginW2800@@UEAAXPEAX@Z 00000001800415ac     ConEmuPlugin2800.obj
 0002:0000e5ac       $unwind$?ProcessSynchroEventPtr@CPluginW2800@@UEAAHPEAX@Z 00000001800415ac     ConEmuPlugin2800.obj
 0002:0000e5ac       $unwind$?push_back@?$MArray@UWindowInfo@@@@QEAA_JAEBUWindowInfo@@@Z 00000001800415ac     ConEmuPlugin2800.obj
 0002:0000e5ac       $unwind$?GetFarRect@CPluginW995@@UEAA_NAEAU_SMALL_RECT@@@Z 00000001800415ac     ConEmuPlugin995.obj
 0002:0000e5ac       $unwind$?GetPluginInfoPtr@CPluginW995@@UEAAXPEAX@Z 00000001800415ac     ConEmuPlugin995.obj
 0002:0000e5ac       $unwind$?PanelControlApi@CPluginW995@@UEAA_JPEAXH_J0@Z 00000001800415ac     ConEmuPlugin995.obj
 0002:0000e5ac       $unwind$??_GCPluginBase@@UEAAPEAXI@Z 00000001800415ac     ConEmuPluginBase.obj
 0002:0000e5ac       $unwind$?BackgroundMacroError@CPluginBase@@SAKPEAX@Z 00000001800415ac     ConEmuPluginBase.obj
 0002:0000e5ac       $unwind$?CheckBufferEnabled@CPluginBase@@QEAA_NXZ 00000001800415ac     ConEmuPluginBase.obj
 0002:0000e5ac       $unwind$?CloseMap@?$MFileMapping@UCESERVER_CONSOLE_MAPPING_HDR@@@@QEAAXXZ 00000001800415ac     ConEmuPluginBase.obj
 0002:0000e5ac       $unwind$?DllMain_ProcessDetach@CPluginBase@@KAXXZ 00000001800415ac     ConEmuPluginBase.obj
 0002:0000e5ac       $unwind$?ExecuteSynchro@CPluginBase@@QEAAXXZ 00000001800415ac     ConEmuPluginBase.obj
 0002:0000e5ac       $unwind$?ExitFarCommon@CPluginBase@@QEAAX_N@Z 00000001800415ac     ConEmuPluginBase.obj
 0002:0000e5ac       $unwind$?OnConsolePeekInput@CPluginBase@@SAHPEAUHookCallbackArg@@@Z 00000001800415ac     ConEmuPluginBase.obj
 0002:0000e5ac       $unwind$?OnConsoleReadInputWork@CPluginBase@@SAHPEAUHookCallbackArg@@@Z 00000001800415ac     ConEmuPluginBase.obj
 0002:0000e5ac       $unwind$?OnShellExecuteExW_Except@CPluginBase@@SAHPEAUHookCallbackArg@@@Z 00000001800415ac     ConEmuPluginBase.obj
 0002:0000e5ac       $unwind$?ReloadFarInfoApi@CPluginBase@@IEAA_NXZ 00000001800415ac     ConEmuPluginBase.obj
 0002:0000e5ac       $unwind$?SwitchTabCommand@CPluginBase@@QEAAXW4PluginMenuCommands@@@Z 00000001800415ac     ConEmuPluginBase.obj
 0002:0000e5ac       $unwind$?isMacroActive@CPluginBase@@QEAA_NAEAH@Z 00000001800415ac     ConEmuPluginBase.obj
 0002:0000e5ac       $unwind$?pcc_Disabled@CPluginBase@@SA_NW4PluginMenuCommands@@@Z 00000001800415ac     ConEmuPluginBase.obj
 0002:0000e5ac       $unwind$?pcc_Selected@CPluginBase@@SA_NW4PluginMenuCommands@@@Z 00000001800415ac     ConEmuPluginBase.obj
 0002:0000e5ac       $unwind$?CloseMap@?$MFileMapping@UPanelViewSetMapping@@@@QEAAXXZ 00000001800415ac     PluginBackground.obj
 0002:0000e5ac       $unwind$?MonitorBackground@CPluginBackground@@QEAAXXZ 00000001800415ac     PluginBackground.obj
 0002:0000e5ac       $unwind$?OnMainThreadActivated@CPluginBackground@@QEAAXHH@Z 00000001800415ac     PluginBackground.obj
 0002:0000e5ac       $unwind$?PlugServerStop@@YAX_N@Z 00000001800415ac     PluginSrv.obj
 0002:0000e5ac       $unwind$__raise_securityfailure 00000001800415ac     LIBCMT:gs_report.obj
 0002:0000e5ac       $unwind$??_Gtype_info@@UEAAPEAXI@Z 00000001800415ac     LIBCMT:std_type_info_static.obj
 0002:0000e5ac       $unwind$_Init_thread_footer 00000001800415ac     LIBCMT:thread_safe_statics.obj
 0002:0000e5ac       $unwind$_Init_thread_header 00000001800415ac     LIBCMT:thread_safe_statics.obj
 0002:0000e5ac       $unwind$_Init_thread_wait  00000001800415ac     LIBCMT:thread_safe_statics.obj
 0002:0000e5ac       $unwind$__scrt_initialize_crt 00000001800415ac     LIBCMT:utility.obj
 0002:0000e5ac       $unwind$__scrt_initialize_onexit_tables 00000001800415ac     LIBCMT:utility.obj
 0002:0000e5ac       $unwind$__scrt_release_startup_lock 00000001800415ac     LIBCMT:utility.obj
 0002:0000e5ac       $unwind$__scrt_uninitialize_crt 00000001800415ac     LIBCMT:utility.obj
 0002:0000e5ac       $unwind$_onexit            00000001800415ac     LIBCMT:utility.obj
 0002:0000e5ac       $unwind$??0bad_function_call@std@@QEAA@AEBV01@@Z 00000001800415ac     libcpmt:xthrow.obj
 0002:0000e5ac       $unwind$??0length_error@std@@QEAA@AEBV01@@Z 00000001800415ac     libcpmt:xthrow.obj
 0002:0000e5ac       $unwind$??0logic_error@std@@QEAA@AEBV01@@Z 00000001800415ac     libcpmt:xthrow.obj
 0002:0000e5ac       $unwind$_IsExceptionObjectToBeDestroyed 00000001800415ac     libvcruntime:ehhelpers.obj
 0002:0000e5ac       $unwind$??0HandlerMap4@FH4@@QEAA@PEBUTryBlockMapEntry4@1@_KH@Z 00000001800415ac     libvcruntime:frame.obj
 0002:0000e5ac       $unwind$??0bad_exception@std@@QEAA@AEBV01@@Z 00000001800415ac     libvcruntime:frame.obj
 0002:0000e5ac       $unwind$?ExFilterRethrow@@YAHPEAU_EXCEPTION_POINTERS@@PEAUEHExceptionRecord@@PEAH@Z 00000001800415ac     libvcruntime:frame.obj
 0002:0000e5ac       $unwind$__vcrt_uninitialize_locks 00000001800415ac     libvcruntime:locks.obj
 0002:0000e5ac       $unwind$__vcrt_freeptd     00000001800415ac     libvcruntime:per_thread_data.obj
 0002:0000e5ac       $unwind$_CreateFrameInfo   00000001800415ac     libvcruntime:risctrnsctrl.obj
 0002:0000e5ac       $unwind$_SetImageBase      00000001800415ac     libvcruntime:risctrnsctrl.obj
 0002:0000e5ac       $unwind$_SetThrowImageBase 00000001800415ac     libvcruntime:risctrnsctrl.obj
 0002:0000e5ac       $unwind$__std_exception_destroy 00000001800415ac     libvcruntime:std_exception.obj
 0002:0000e5ac       $unwind$__std_type_info_destroy_list 00000001800415ac     libvcruntime:std_type_info.obj
 0002:0000e5ac       $unwind$__vcrt_FlsAlloc    00000001800415ac     libvcruntime:winapi_downlevel.obj
 0002:0000e5ac       $unwind$__vcrt_FlsFree     00000001800415ac     libvcruntime:winapi_downlevel.obj
 0002:0000e5ac       $unwind$__vcrt_FlsGetValue 00000001800415ac     libvcruntime:winapi_downlevel.obj
 0002:0000e5ac       $unwind$_calloc_base       00000001800415ac     libucrt:calloc_base.obj
 0002:0000e5ac       $unwind$_malloc_base       00000001800415ac     libucrt:malloc_base.obj
 0002:0000e5ac       $unwind$_callnewh          00000001800415ac     libucrt:new_handler.obj
 0002:0000e5ac       $unwind$initialize_pointers 00000001800415ac     libucrt:initialization.obj
 0002:0000e5ac       $unwind$uninitialize_allocated_memory 00000001800415ac     libucrt:initialization.obj
 0002:0000e5ac       $unwind$__acrt_initialize_locks 00000001800415ac     libucrt:locks.obj
 0002:0000e5ac       $unwind$__acrt_uninitialize_locks 00000001800415ac     libucrt:locks.obj
 0002:0000e5ac       $unwind$__acrt_freeptd     00000001800415ac     libucrt:per_thread_data.obj
 0002:0000e5ac       $unwind$__acrt_getptd_head 00000001800415ac     libucrt:per_thread_data.obj
 0002:0000e5ac       $unwind$__acrt_get_process_end_policy 00000001800415ac     libucrt:win_policies.obj
 0002:0000e5ac       $unwind$__acrt_AppPolicyGetProcessTerminationMethodInternal 00000001800415ac     libucrt:winapi_thunks.obj
 0002:0000e5ac       $unwind$__acrt_FlsAlloc    00000001800415ac     libucrt:winapi_thunks.obj
 0002:0000e5ac       $unwind$__acrt_FlsFree     00000001800415ac     libucrt:winapi_thunks.obj
 0002:0000e5ac       $unwind$__acrt_FlsGetValue 00000001800415ac     libucrt:winapi_thunks.obj
 0002:0000e5ac       $unwind$__acrt_uninitialize_winapi_thunks 00000001800415ac     libucrt:winapi_thunks.obj
 0002:0000e5ac       $unwind$__acrt_update_locale_info 00000001800415ac     libucrt:locale_update.obj
 0002:0000e5ac       $unwind$__acrt_update_multibyte_info 00000001800415ac     libucrt:locale_update.obj
 0002:0000e5ac       $unwind$__acrt_allocate_buffer_for_argv 00000001800415ac     libucrt:argv_parsing.obj
 0002:0000e5ac       $unwind$?exit_or_terminate_process@@YAXI@Z 00000001800415ac     libucrt:exit.obj
 0002:0000e5ac       $unwind$?try_cor_exit_process@@YAXI@Z 00000001800415ac     libucrt:exit.obj
 0002:0000e5ac       $unwind$__acrt_uninitialize_stdio 00000001800415ac     libucrt:_file.obj
 0002:0000e5ac       $unwind$__acrt_stdio_free_buffer_nolock 00000001800415ac     libucrt:_freebuf.obj
 0002:0000e5ac       $unwind$_fflush_nolock     00000001800415ac     libucrt:fflush.obj
 0002:0000e5ac       $unwind$?state_case_normal@?$output_processor@DV?$string_output_adapter@D@__crt_stdio_output@@V?$standard_base@DV?$string_output_adapter@D@__crt_stdio_output@@@2@@__crt_stdio_output@@AEAA_NXZ 00000001800415ac     libucrt:output.obj
 0002:0000e5ac       $unwind$?type_case_s@?$output_processor@DV?$string_output_adapter@D@__crt_stdio_output@@V?$standard_base@DV?$string_output_adapter@D@__crt_stdio_output@@@2@@__crt_stdio_output@@AEAA_NXZ 00000001800415ac     libucrt:output.obj
 0002:0000e5ac       $unwind$strcpy_s           00000001800415ac     libucrt:strcpy_s.obj
 0002:0000e5ac       $unwind$_clrfp             00000001800415ac     libucrt:fpctrl.obj
 0002:0000e5ac       $unwind$_set_statfp        00000001800415ac     libucrt:fpctrl.obj
 0002:0000e5ac       $unwind$_clearfp           00000001800415ac     libucrt:ieee.obj
 0002:0000e5ac       $unwind$_controlfp_s       00000001800415ac     libucrt:contrlfp.obj
 0002:0000e5ac       $unwind$fegetenv           00000001800415ac     libucrt:fegetenv.obj
 0002:0000e5ac       $unwind$feholdexcept       00000001800415ac     libucrt:feholdexcept.obj
 0002:0000e5ac       $unwind$fesetenv           00000001800415ac     libucrt:fesetenv.obj
 0002:0000e5ac       $unwind$??4CEStr@@QEAAAEAU0@PEB_W@Z 00000001800415ac     common-kernel64:CEStr.obj
 0002:0000e5ac       $unwind$??_Gbad_alloc@stdext@@UEAAPEAXI@Z 00000001800415ac     common-kernel64:CEStr.obj
 0002:0000e5ac       $unwind$??_Gexception@stdext@@UEAAPEAXI@Z 00000001800415ac     common-kernel64:CEStr.obj
 0002:0000e5ac       $unwind$?GetMaxCount@CEStr@@QEAA_JXZ 00000001800415ac     common-kernel64:CEStr.obj
 0002:0000e5ac       $unwind$?IsEnvBlockVariableValid@@YA_NPEB_W@Z 00000001800415ac     common-kernel64:Common.obj
 0002:0000e5ac       $unwind$?CloseMap@?$MFileMapping@UConEmuGuiMapping@@@@QEAAXXZ 00000001800415ac     common-kernel64:ConEmuCheck.obj
 0002:0000e5ac       $unwind$??1CEnvStrings@@QEAA@XZ 00000001800415ac     common-kernel64:EnvVar.obj
 0002:0000e5ac       $unwind$?Clear@CEnvRestorer@@QEAAXXZ 00000001800415ac     common-kernel64:EnvVar.obj
 0002:0000e5ac       $unwind$?SavePathVar@CEnvRestorer@@QEAAXPEB_W@Z 00000001800415ac     common-kernel64:EnvVar.obj
 0002:0000e5ac       $unwind$?Free@MModule@@QEAAXXZ 00000001800415ac     common-kernel64:MModule.obj
 0002:0000e5ac       $unwind$??0MSectionThread@@QEAA@PEAVMSection@@@Z 00000001800415ac     common-kernel64:MSection.obj
 0002:0000e5ac       $unwind$??1MSectionLock@@QEAA@XZ 00000001800415ac     common-kernel64:MSection.obj
 0002:0000e5ac       $unwind$?Lock@MSectionLock@@QEAAHPEAVMSection@@HK@Z 00000001800415ac     common-kernel64:MSection.obj
 0002:0000e5ac       $unwind$?Unlock@MSectionLock@@QEAAXXZ 00000001800415ac     common-kernel64:MSection.obj
 0002:0000e5ac       $unwind$??0MSectionSimple@@QEAA@_N@Z 00000001800415ac     common-kernel64:MSectionSimple.obj
 0002:0000e5ac       $unwind$??1MSectionSimple@@QEAA@XZ 00000001800415ac     common-kernel64:MSectionSimple.obj
 0002:0000e5ac       $unwind$?Close@MSectionSimple@@QEAAXXZ 00000001800415ac     common-kernel64:MSectionSimple.obj
 0002:0000e5ac       $unwind$?Init@MSectionSimple@@QEAAXXZ 00000001800415ac     common-kernel64:MSectionSimple.obj
 0002:0000e5ac       $unwind$?TryEnter@MSectionSimple@@QEAA_NXZ 00000001800415ac     common-kernel64:MSectionSimple.obj
 0002:0000e5ac       $unwind$?LoadAdvApi@MNullDesc@@IEAAHXZ 00000001800415ac     common-kernel64:MSecurity.obj
 0002:0000e5ac       $unwind$?GetAllMonitorsWorkspace@@YA?AUtagRECT@@XZ 00000001800415ac     common-user64:Monitors.obj
 0002:0000e5ac       $unwind$?SetConEmuEnvVarChild@@YAXPEAUHWND__@@0@Z 00000001800415ac     common-user64:SetEnvVar.obj
 0002:0000e5b4       $unwind$?RegisterPanelView@@YAHPEAUPanelViewInit@@@Z 00000001800415b4     ConEmuPlugin.obj
 0002:0000e5d0       $unwind$?RegisterBackground@@YAHPEAURegisterBackgroundArg@@@Z 00000001800415d0     ConEmuPlugin.obj
 0002:0000e5e0       $cppxdata$?RegisterBackground@@YAHPEAURegisterBackgroundArg@@@Z 00000001800415e0     ConEmuPlugin.obj
 0002:0000e5e9       $stateUnwindMap$?RegisterBackground@@YAHPEAURegisterBackgroundArg@@@Z 00000001800415e9     ConEmuPlugin.obj
 0002:0000e5ef       $ip2state$?RegisterBackground@@YAHPEAURegisterBackgroundArg@@@Z 00000001800415ef     ConEmuPlugin.obj
 0002:0000e5f4       $unwind$?dtor$0@?0??RegisterBackground@@YAHPEAURegisterBackgroundArg@@@Z@4HA 00000001800415f4     ConEmuPlugin.obj
 0002:0000e5f4       $unwind$?dtor$0@?0??UpdateConEmuTabsApi@CPluginW2800@@UEAA_NH@Z@4HA 00000001800415f4     ConEmuPlugin2800.obj
 0002:0000e5f4       $unwind$?dtor$0@?0??DllMain_ProcessAttach@CPluginBase@@KAXPEAUHINSTANCE__@@@Z@4HA 00000001800415f4     ConEmuPluginBase.obj
 0002:0000e5f4       $unwind$?dtor$0@?0??Plugin@@YAPEAVCPluginBase@@XZ@4HA 00000001800415f4     ConEmuPluginBase.obj
 0002:0000e5f4       $unwind$?dtor$1@?0??DllMain_ProcessAttach@CPluginBase@@KAXPEAUHINSTANCE__@@@Z@4HA 00000001800415f4     ConEmuPluginBase.obj
 0002:0000e5f4       $unwind$?dtor$1@?0??Plugin@@YAPEAVCPluginBase@@XZ@4HA 00000001800415f4     ConEmuPluginBase.obj
 0002:0000e5f4       $unwind$?dtor$2@?0??Plugin@@YAPEAVCPluginBase@@XZ@4HA 00000001800415f4     ConEmuPluginBase.obj
 0002:0000e5f4       $unwind$?dtor$3@?0??Plugin@@YAPEAVCPluginBase@@XZ@4HA 00000001800415f4     ConEmuPluginBase.obj
 0002:0000e5f4       $unwind$?dtor$0@?0???0CPluginBackground@@QEAA@XZ@4HA 00000001800415f4     PluginBackground.obj
 0002:0000e5f4       $unwind$?filt$0@?0??GetTo@?$MFileMapping@UPanelViewSetMapping@@@@QEAA_NPEAUPanelViewSetMapping@@H@Z@4HA 00000001800415f4     PluginBackground.obj
 0002:0000e5f4       $unwind$?fin$0@?0??dllmain_crt_process_attach@@YAHQEAUHINSTANCE__@@QEAX@Z@4HA 00000001800415f4     LIBCMT:dll_dllmain.obj
 0002:0000e5f4       $unwind$?fin$0@?0??dllmain_crt_process_detach@@YAH_N@Z@4HA 00000001800415f4     LIBCMT:dll_dllmain.obj
 0002:0000e5f4       $unwind$?fin$1@?0??dllmain_crt_process_detach@@YAH_N@Z@4HA 00000001800415f4     LIBCMT:dll_dllmain.obj
 0002:0000e5f4       $unwind$_IsNonwritableInCurrentImage$filt$0 00000001800415f4     LIBCMT:pesect.obj
 0002:0000e5f4       $unwind$?filt$0@?0??CxxCallCatchBlock@__FrameHandler4@@SAPEAXPEAU_EXCEPTION_RECORD@@@Z@4HA 00000001800415f4     libvcruntime:frame.obj
 0002:0000e5f4       $unwind$_query_new_handler$fin$0 00000001800415f4     libucrt:new_handler.obj
 0002:0000e5f4       $unwind$?fin$0@?0???$?RV<lambda_0ae27a3a962d80f24befdcbee591983d>@@AEAV<lambda_8d0ee55de4b1038c4002e0adecdf1839>@@V<lambda_dc504788e8f1664fe9b84e20bfb512f2>@@@?$__crt_seh_guarded_call@X@@QEAAX$$QEAV<lambda_0ae27a3a962d80f24befdcbee591983d>@@AEAV<lambda_8d0ee55de4b1038c4002e0adecdf1839>@@$$QEAV<lambda_dc504788e8f1664fe9b84e20bfb512f2>@@@Z@4HA 00000001800415f4     libucrt:per_thread_data.obj
 0002:0000e5f4       $unwind$?fin$0@?0???$?RV<lambda_2d41944a1d46af3157314b8a01080d33>@@AEAV<lambda_8f455de75cd7d7f24b4096f044d8b9e6>@@V<lambda_aa500f224e6afead328df44964fe2772>@@@?$__crt_seh_guarded_call@X@@QEAAX$$QEAV<lambda_2d41944a1d46af3157314b8a01080d33>@@AEAV<lambda_8f455de75cd7d7f24b4096f044d8b9e6>@@$$QEAV<lambda_aa500f224e6afead328df44964fe2772>@@@Z@4HA 00000001800415f4     libucrt:per_thread_data.obj
 0002:0000e5f4       $unwind$?fin$0@?0???$?RV<lambda_aa87e3671a710a21b5dc78c0bdf72e11>@@AEAV<lambda_92619d2358a28f41a33ba319515a20b9>@@V<lambda_6992ecaafeb10aed2b74cb1fae11a551>@@@?$__crt_seh_guarded_call@X@@QEAAX$$QEAV<lambda_aa87e3671a710a21b5dc78c0bdf72e11>@@AEAV<lambda_92619d2358a28f41a33ba319515a20b9>@@$$QEAV<lambda_6992ecaafeb10aed2b74cb1fae11a551>@@@Z@4HA 00000001800415f4     libucrt:per_thread_data.obj
 0002:0000e5f4       $unwind$?fin$0@?0???$?RV<lambda_f2e299630e499de9f9a165e60fcd3db5>@@AEAV<lambda_2ae9d31cdba2644fcbeaf08da7c24588>@@V<lambda_40d01ff24d0e7b3814fdbdcee8eab3c7>@@@?$__crt_seh_guarded_call@X@@QEAAX$$QEAV<lambda_f2e299630e499de9f9a165e60fcd3db5>@@AEAV<lambda_2ae9d31cdba2644fcbeaf08da7c24588>@@$$QEAV<lambda_40d01ff24d0e7b3814fdbdcee8eab3c7>@@@Z@4HA 00000001800415f4     libucrt:per_thread_data.obj
 0002:0000e5f4       $unwind$__acrt_update_thread_locale_data$fin$0 00000001800415f4     libucrt:locale_refcounting.obj
 0002:0000e5f4       $unwind$?fin$0@?0???$?RV<lambda_410d79af7f07d98d83a3f525b3859a53>@@AEAV<lambda_3e16ef9562a7dcce91392c22ab16ea36>@@V<lambda_38119f0e861e05405d8a144b9b982f0a>@@@?$__crt_seh_guarded_call@X@@QEAAX$$QEAV<lambda_410d79af7f07d98d83a3f525b3859a53>@@AEAV<lambda_3e16ef9562a7dcce91392c22ab16ea36>@@$$QEAV<lambda_38119f0e861e05405d8a144b9b982f0a>@@@Z@4HA 00000001800415f4     libucrt:wsetlocale.obj
 0002:0000e5f4       $unwind$?fin$0@?0???$?RV<lambda_751a882b2c74d4b022dec766aa51a29a>@@AEAV<lambda_628dfdc04ba53c8bfc02c9951375f3f5>@@V<lambda_f6c7be5f7998530c34de24c7437d6b54>@@@?$__crt_seh_guarded_call@H@@QEAAH$$QEAV<lambda_751a882b2c74d4b022dec766aa51a29a>@@AEAV<lambda_628dfdc04ba53c8bfc02c9951375f3f5>@@$$QEAV<lambda_f6c7be5f7998530c34de24c7437d6b54>@@@Z@4HA 00000001800415f4     libucrt:close.obj
 0002:0000e5f4       $unwind$?fin$0@?0???$?RV<lambda_a37b2b86f63e897a80ea819b0eb08c01>@@AEAV<lambda_38ce7e780aa69e748d6df282ebc68efe>@@V<lambda_99fb1378e971ab6e7edea83e3a7a83a2>@@@?$__crt_seh_guarded_call@H@@QEAAH$$QEAV<lambda_a37b2b86f63e897a80ea819b0eb08c01>@@AEAV<lambda_38ce7e780aa69e748d6df282ebc68efe>@@$$QEAV<lambda_99fb1378e971ab6e7edea83e3a7a83a2>@@@Z@4HA 00000001800415f4     libucrt:commit.obj
 0002:0000e5f4       $unwind$__acrt_initialize_lowio$fin$0 00000001800415f4     libucrt:ioinit.obj
 0002:0000e5f4       $unwind$__acrt_lowio_ensure_fh_exists$fin$0 00000001800415f4     libucrt:osfinfo.obj
 0002:0000e5f4       $unwind$_write$fin$0       00000001800415f4     libucrt:write.obj
 0002:0000e5f4       $unwind$?fin$0@?0???$?RV<lambda_efdfa57d1f175319df784efa44bb7b81>@@AEAV<lambda_5f0a4c1567f8adc6734073e5d1e1b35c>@@V<lambda_2e8a7d3640ea6ccb4c2413664c2db6fd>@@@?$__crt_seh_guarded_call@X@@QEAAX$$QEAV<lambda_efdfa57d1f175319df784efa44bb7b81>@@AEAV<lambda_5f0a4c1567f8adc6734073e5d1e1b35c>@@$$QEAV<lambda_2e8a7d3640ea6ccb4c2413664c2db6fd>@@@Z@4HA 00000001800415f4     libucrt:mbctype.obj
 0002:0000e5f4       $unwind$?fin$0@?0??update_thread_multibyte_data_internal@@YAPEAU__crt_multibyte_data@@QEAU__acrt_ptd@@QEAPEAU1@@Z@4HA 00000001800415f4     libucrt:mbctype.obj
 0002:0000e5f4       $unwind$?fin$0@?0???$?RV<lambda_450d765d439847d4c735a33c368b5fc0>@@AEAV<lambda_44731a7d0e6d81c3e6aa82d741081786>@@V<lambda_601a2a7da3b7a96e9554ac7215c4b07c>@@@?$__crt_seh_guarded_call@P6AXH@Z@@QEAAP6AXH@Z$$QEAV<lambda_450d765d439847d4c735a33c368b5fc0>@@AEAV<lambda_44731a7d0e6d81c3e6aa82d741081786>@@$$QEAV<lambda_601a2a7da3b7a96e9554ac7215c4b07c>@@@Z@4HA 00000001800415f4     libucrt:signal.obj
 0002:0000e5f4       $unwind$raise$fin$0        00000001800415f4     libucrt:signal.obj
 0002:0000e5f4       $unwind$?filt$0@?0???R<lambda_6e4b09c48022b2350581041d5f6b0c4c>@@QEBA@XZ@4HA 00000001800415f4     libucrt:exit.obj
 0002:0000e5f4       $unwind$?fin$0@?0???$?RV<lambda_d80eeec6fff315bfe5c115232f3240e3>@@AEAV<lambda_6e4b09c48022b2350581041d5f6b0c4c>@@V<lambda_2358e3775559c9db80273638284d5e45>@@@?$__crt_seh_guarded_call@X@@QEAAX$$QEAV<lambda_d80eeec6fff315bfe5c115232f3240e3>@@AEAV<lambda_6e4b09c48022b2350581041d5f6b0c4c>@@$$QEAV<lambda_2358e3775559c9db80273638284d5e45>@@@Z@4HA 00000001800415f4     libucrt:exit.obj
 0002:0000e5f4       $unwind$?fin$0@?0???$?RV<lambda_638799b9deba96c50f710eeac98168cd>@@AEAV<lambda_22ebabd17bc4fa466a2aca6d8deb888d>@@V<lambda_a6f7d7db0129f75315ebf26d50c089f1>@@@?$__crt_seh_guarded_call@H@@QEAAH$$QEAV<lambda_638799b9deba96c50f710eeac98168cd>@@AEAV<lambda_22ebabd17bc4fa466a2aca6d8deb888d>@@$$QEAV<lambda_a6f7d7db0129f75315ebf26d50c089f1>@@@Z@4HA 00000001800415f4     libucrt:onexit.obj
 0002:0000e5f4       $unwind$?fin$0@?0???$?RV<lambda_7777bce6b2f8c936911f934f8298dc43>@@AEAV<lambda_f03950bc5685219e0bcd2087efbe011e>@@V<lambda_3883c3dff614d5e0c5f61bb1ac94921c>@@@?$__crt_seh_guarded_call@H@@QEAAH$$QEAV<lambda_7777bce6b2f8c936911f934f8298dc43>@@AEAV<lambda_f03950bc5685219e0bcd2087efbe011e>@@$$QEAV<lambda_3883c3dff614d5e0c5f61bb1ac94921c>@@@Z@4HA 00000001800415f4     libucrt:onexit.obj
 0002:0000e5f4       $unwind$_fcloseall$fin$0   00000001800415f4     libucrt:closeall.obj
 0002:0000e5f4       $unwind$fclose$fin$0       00000001800415f4     libucrt:fclose.obj
 0002:0000e5f4       $unwind$?fin$0@?0???$?RV<lambda_842d9ff0dc9ef11c61343bbaebe7f885>@@AEAV<lambda_c5860995281e5c4ce005b3de8f5874ee>@@V<lambda_d90129c13df834fdcbf8d2b88dafcf2d>@@@?$__crt_seh_guarded_call@X@@QEAAX$$QEAV<lambda_842d9ff0dc9ef11c61343bbaebe7f885>@@AEAV<lambda_c5860995281e5c4ce005b3de8f5874ee>@@$$QEAV<lambda_d90129c13df834fdcbf8d2b88dafcf2d>@@@Z@4HA 00000001800415f4     libucrt:fflush.obj
 0002:0000e5f4       $unwind$?fin$0@?0???$?RV<lambda_886d6c58226a84441f68b9f2b8217b83>@@AEAV<lambda_ab61a845afdef5b7c387490eaf3616ee>@@V<lambda_f7f22ab5edc0698d5f6905b0d3f44752>@@@?$__crt_seh_guarded_call@X@@QEAAX$$QEAV<lambda_886d6c58226a84441f68b9f2b8217b83>@@AEAV<lambda_ab61a845afdef5b7c387490eaf3616ee>@@$$QEAV<lambda_f7f22ab5edc0698d5f6905b0d3f44752>@@@Z@4HA 00000001800415f4     libucrt:fflush.obj
 0002:0000e5f4       $unwind$_ctrlfp$filt$0     00000001800415f4     libucrt:fpctrl.obj
 0002:0000e5f4       $unwind$common_control87$filt$0 00000001800415f4     libucrt:ieee.obj
 0002:0000e5fc       $unwind$?SyncExecute@@YAHPEAUHINSTANCE__@@P6AX_J@Z1@Z 00000001800415fc     ConEmuPlugin.obj
 0002:0000e604       $unwind$?ActivateConsole@@YAHXZ 0000000180041604     ConEmuPlugin.obj
 0002:0000e618       $unwind$?GetMinFarVersion@@YAHXZ 0000000180041618     ConEmuPlugin.obj
 0002:0000e618       $unwind$DllMain            0000000180041618     ConEmuPlugin.obj
 0002:0000e618       $unwind$?CheckPanelExist@CPluginW1900@@UEAA_NXZ 0000000180041618     ConEmuPlugin1900.obj
 0002:0000e618       $unwind$?ExecuteSynchroApi@CPluginW1900@@UEAA_NXZ 0000000180041618     ConEmuPlugin1900.obj
 0002:0000e618       $unwind$?GetActiveWindowType@CPluginW1900@@UEAAHXZ 0000000180041618     ConEmuPlugin1900.obj
 0002:0000e618       $unwind$?IsMacroActive@CPluginW1900@@UEAA_NXZ 0000000180041618     ConEmuPlugin1900.obj
 0002:0000e618       $unwind$?ProcessEditorInputPtr@CPluginW1900@@UEAAHPEBX@Z 0000000180041618     ConEmuPlugin1900.obj
 0002:0000e618       $unwind$?RedrawAll@CPluginW1900@@UEAAXXZ 0000000180041618     ConEmuPlugin1900.obj
 0002:0000e618       $unwind$?SetWindow@CPluginW1900@@UEAAXH@Z 0000000180041618     ConEmuPlugin1900.obj
 0002:0000e618       $unwind$?ShowUserScreen@CPluginW1900@@UEAAX_N@Z 0000000180041618     ConEmuPlugin1900.obj
 0002:0000e618       $unwind$?CheckPanelExist@CPluginW2800@@UEAA_NXZ 0000000180041618     ConEmuPlugin2800.obj
 0002:0000e618       $unwind$?ExecuteSynchroApi@CPluginW2800@@UEAA_NXZ 0000000180041618     ConEmuPlugin2800.obj
 0002:0000e618       $unwind$?GetActiveWindowType@CPluginW2800@@UEAAHXZ 0000000180041618     ConEmuPlugin2800.obj
 0002:0000e618       $unwind$?IsMacroActive@CPluginW2800@@UEAA_NXZ 0000000180041618     ConEmuPlugin2800.obj
 0002:0000e618       $unwind$?ProcessEditorInputPtr@CPluginW2800@@UEAAHPEBX@Z 0000000180041618     ConEmuPlugin2800.obj
 0002:0000e618       $unwind$?RedrawAll@CPluginW2800@@UEAAXXZ 0000000180041618     ConEmuPlugin2800.obj
 0002:0000e618       $unwind$?ShowUserScreen@CPluginW2800@@UEAAX_N@Z 0000000180041618     ConEmuPlugin2800.obj
 0002:0000e618       $unwind$?_Xlength@?$vector@UWindowInfo@@V?$MArrayAllocator@UWindowInfo@@@@@std@@CAXXZ 0000000180041618     ConEmuPlugin2800.obj
 0002:0000e618       $unwind$?deallocate@?$MArrayAllocator@UWindowInfo@@@@QEAAXPEAUWindowInfo@@_K@Z 0000000180041618     ConEmuPlugin2800.obj
 0002:0000e618       $unwind$?CheckPanelExist@CPluginW995@@UEAA_NXZ 0000000180041618     ConEmuPlugin995.obj
 0002:0000e618       $unwind$?ExecuteSynchroApi@CPluginW995@@UEAA_NXZ 0000000180041618     ConEmuPlugin995.obj
 0002:0000e618       $unwind$?ProcessEditorInputPtr@CPluginW995@@UEAAHPEBX@Z 0000000180041618     ConEmuPlugin995.obj
 0002:0000e618       $unwind$?RedrawAll@CPluginW995@@UEAAXXZ 0000000180041618     ConEmuPlugin995.obj
 0002:0000e618       $unwind$?SetWindow@CPluginW995@@UEAAXH@Z 0000000180041618     ConEmuPlugin995.obj
 0002:0000e618       $unwind$?ShowUserScreen@CPluginW995@@UEAAX_N@Z 0000000180041618     ConEmuPlugin995.obj
 0002:0000e618       $unwind$?StopWaitEndSynchro@CPluginW995@@UEAAXXZ 0000000180041618     ConEmuPlugin995.obj
 0002:0000e618       $unwind$?CheckPanelExist@CPluginAnsi@@UEAA_NXZ 0000000180041618     ConEmuPluginA.obj
 0002:0000e618       $unwind$?ExitFar@CPluginAnsi@@UEAAXXZ 0000000180041618     ConEmuPluginA.obj
 0002:0000e618       $unwind$?PanelControlApi@CPluginAnsi@@UEAA_JPEAXH_J0@Z 0000000180041618     ConEmuPluginA.obj
 0002:0000e618       $unwind$?RedrawAll@CPluginAnsi@@UEAAXXZ 0000000180041618     ConEmuPluginA.obj
 0002:0000e618       $unwind$?SetWindow@CPluginAnsi@@UEAAXH@Z 0000000180041618     ConEmuPluginA.obj
 0002:0000e618       $unwind$?ShowUserScreen@CPluginAnsi@@UEAAX_N@Z 0000000180041618     ConEmuPluginA.obj
 0002:0000e618       $unwind$??1?$MFileMapping@UCESERVER_CONSOLE_MAPPING_HDR@@@@QEAA@XZ 0000000180041618     ConEmuPluginBase.obj
 0002:0000e618       $unwind$?CloseMapHeader@CPluginBase@@SAXXZ 0000000180041618     ConEmuPluginBase.obj
 0002:0000e618       $unwind$?EmergencyShow@CPluginBase@@KAXXZ 0000000180041618     ConEmuPluginBase.obj
 0002:0000e618       $unwind$?OnConsolePeekInputPost@CPluginBase@@SAHPEAUHookCallbackArg@@@Z 0000000180041618     ConEmuPluginBase.obj
 0002:0000e618       $unwind$?OnConsoleWasAttached@CPluginBase@@SAHPEAUHookCallbackArg@@@Z 0000000180041618     ConEmuPluginBase.obj
 0002:0000e618       $unwind$?OnCurDirChanged@CPluginBase@@SAXXZ 0000000180041618     ConEmuPluginBase.obj
 0002:0000e618       $unwind$?OnGetNumberOfConsoleInputEventsPost@CPluginBase@@SAHPEAUHookCallbackArg@@@Z 0000000180041618     ConEmuPluginBase.obj
 0002:0000e618       $unwind$?TouchReadPeekConsoleInputs@CPluginBase@@SAXH@Z 0000000180041618     ConEmuPluginBase.obj
 0002:0000e618       $unwind$??1?$MFileMapping@UPanelViewSetMapping@@@@QEAA@XZ 0000000180041618     PluginBackground.obj
 0002:0000e618       $unwind$?cmd_FarSetChanged@@YAXPEAUFAR_REQ_FARSETCHANGED@@@Z 0000000180041618     PluginSrv.obj
 0002:0000e618       $unwind$__scrt_initialize_default_local_stdio_options 0000000180041618     LIBCMT:default_local_stdio_options.obj
 0002:0000e618       $unwind$?dllmain_crt_dispatch@@YAHQEAUHINSTANCE__@@KQEAX@Z 0000000180041618     LIBCMT:dll_dllmain.obj
 0002:0000e618       $unwind$__report_rangecheckfailure 0000000180041618     LIBCMT:gs_report.obj
 0002:0000e618       $unwind$__GSHandlerCheck   0000000180041618     LIBCMT:gshandler.obj
 0002:0000e618       $unwind$?__scrt_uninitialize_thread_safe_statics@@YAXXZ 0000000180041618     LIBCMT:thread_safe_statics.obj
 0002:0000e618       $unwind$_Init_thread_notify 0000000180041618     LIBCMT:thread_safe_statics.obj
 0002:0000e618       $unwind$__scrt_acquire_startup_lock 0000000180041618     LIBCMT:utility.obj
 0002:0000e618       $unwind$__scrt_dllmain_after_initialize_c 0000000180041618     LIBCMT:utility.obj
 0002:0000e618       $unwind$__scrt_dllmain_before_initialize_c 0000000180041618     LIBCMT:utility.obj
 0002:0000e618       $unwind$__scrt_dllmain_crt_thread_attach 0000000180041618     LIBCMT:utility.obj
 0002:0000e618       $unwind$__scrt_dllmain_crt_thread_detach 0000000180041618     LIBCMT:utility.obj
 0002:0000e618       $unwind$__scrt_dllmain_uninitialize_c 0000000180041618     LIBCMT:utility.obj
 0002:0000e618       $unwind$__scrt_dllmain_uninitialize_critical 0000000180041618     LIBCMT:utility.obj
 0002:0000e618       $unwind$atexit             0000000180041618     LIBCMT:utility.obj
 0002:0000e618       $unwind$__std_terminate    0000000180041618     libvcruntime:ehhelpers.obj
 0002:0000e618       $unwind$__vcrt_initialize  0000000180041618     libvcruntime:initialization.obj
 0002:0000e618       $unwind$__vcrt_thread_attach 0000000180041618     libvcruntime:initialization.obj
 0002:0000e618       $unwind$__vcrt_thread_detach 0000000180041618     libvcruntime:initialization.obj
 0002:0000e618       $unwind$__vcrt_uninitialize 0000000180041618     libvcruntime:initialization.obj
 0002:0000e618       $unwind$__vcrt_uninitialize_critical 0000000180041618     libvcruntime:initialization.obj
 0002:0000e618       $unwind$__vcrt_initialize_locks 0000000180041618     libvcruntime:locks.obj
 0002:0000e618       $unwind$__vcrt_freefls     0000000180041618     libvcruntime:per_thread_data.obj
 0002:0000e618       $unwind$__vcrt_getptd      0000000180041618     libvcruntime:per_thread_data.obj
 0002:0000e618       $unwind$__vcrt_initialize_ptd 0000000180041618     libvcruntime:per_thread_data.obj
 0002:0000e618       $unwind$__vcrt_uninitialize_ptd 0000000180041618     libvcruntime:per_thread_data.obj
 0002:0000e618       $unwind$_purecall          0000000180041618     libvcruntime:purevirt.obj
 0002:0000e618       $unwind$?FrameUnwindToEmptyState@__FrameHandler4@@SAXPEA_KPEAU_xDISPATCHER_CONTEXT@@PEAUFuncInfo4@FH4@@@Z 0000000180041618     libvcruntime:risctrnsctrl.obj
 0002:0000e618       $unwind$_GetImageBase      0000000180041618     libvcruntime:risctrnsctrl.obj
 0002:0000e618       $unwind$_GetThrowImageBase 0000000180041618     libvcruntime:risctrnsctrl.obj
 0002:0000e618       $unwind$__dcrt_terminate_console_output 0000000180041618     libucrt:initcon.obj
 0002:0000e618       $unwind$??$uninitialize_environment_internal@D@@YAXAEAPEAPEAD@Z 0000000180041618     libucrt:environment_initialization.obj
 0002:0000e618       $unwind$??$uninitialize_environment_internal@_W@@YAXAEAPEAPEA_W@Z 0000000180041618     libucrt:environment_initialization.obj
 0002:0000e618       $unwind$__dcrt_uninitialize_environments_nolock 0000000180041618     libucrt:environment_initialization.obj
 0002:0000e618       $unwind$?__c32rtomb_utf8@__crt_mbstring@@YA_KPEAD_UPEAU_Mbstatet@@@Z 0000000180041618     libucrt:c32rtomb.obj
 0002:0000e618       $unwind$__acrt_initialize_heap 0000000180041618     libucrt:heap_handle.obj
 0002:0000e618       $unwind$_msize_base        0000000180041618     libucrt:msize.obj
 0002:0000e618       $unwind$?initialize_multibyte@@YAHXZ 0000000180041618     libucrt:multibyte_initializer.obj
 0002:0000e618       $unwind$__acrt_thread_attach 0000000180041618     libucrt:initialization.obj
 0002:0000e618       $unwind$__acrt_thread_detach 0000000180041618     libucrt:initialization.obj
 0002:0000e618       $unwind$__acrt_uninitialize 0000000180041618     libucrt:initialization.obj
 0002:0000e618       $unwind$__acrt_uninitialize_critical 0000000180041618     libucrt:initialization.obj
 0002:0000e618       $unwind$initialize_c       0000000180041618     libucrt:initialization.obj
 0002:0000e618       $unwind$uninitialize_allocated_io_buffers 0000000180041618     libucrt:initialization.obj
 0002:0000e618       $unwind$uninitialize_environment 0000000180041618     libucrt:initialization.obj
 0002:0000e618       $unwind$__acrt_initialize_ptd 0000000180041618     libucrt:per_thread_data.obj
 0002:0000e618       $unwind$__acrt_uninitialize_ptd 0000000180041618     libucrt:per_thread_data.obj
 0002:0000e618       $unwind$__acrt_AreFileApisANSI 0000000180041618     libucrt:winapi_thunks.obj
 0002:0000e618       $unwind$__pctype_func      0000000180041618     libucrt:ctype.obj
 0002:0000e618       $unwind$__acrt_release_locale_ref 0000000180041618     libucrt:locale_refcounting.obj
 0002:0000e618       $unwind$_isatty            0000000180041618     libucrt:isatty.obj
 0002:0000e618       $unwind$_get_osfhandle     0000000180041618     libucrt:osfinfo.obj
 0002:0000e618       $unwind$__acrt_initialize_multibyte 0000000180041618     libucrt:mbctype.obj
 0002:0000e618       $unwind$__acrt_update_thread_multibyte_data 0000000180041618     libucrt:mbctype.obj
 0002:0000e618       $unwind$__doserrno         0000000180041618     libucrt:errno.obj
 0002:0000e618       $unwind$_errno             0000000180041618     libucrt:errno.obj
 0002:0000e618       $unwind$_invoke_watson     0000000180041618     libucrt:invalid_parameter.obj
 0002:0000e618       $unwind$abort              0000000180041618     libucrt:abort.obj
 0002:0000e618       $unwind$__acrt_initialize_command_line 0000000180041618     libucrt:argv_data.obj
 0002:0000e618       $unwind$_fileno            0000000180041618     libucrt:fileno.obj
 0002:0000e618       $unwind$?state_case_normal_tchar@?$output_processor@DV?$string_output_adapter@D@__crt_stdio_output@@V?$standard_base@DV?$string_output_adapter@D@__crt_stdio_output@@@2@@__crt_stdio_output@@AEAA_ND@Z 0000000180041618     libucrt:output.obj
 0002:0000e618       $unwind$?state_case_size@?$output_processor@DV?$string_output_adapter@D@__crt_stdio_output@@V?$standard_base@DV?$string_output_adapter@D@__crt_stdio_output@@@2@@__crt_stdio_output@@AEAA_NXZ 0000000180041618     libucrt:output.obj
 0002:0000e618       $unwind$?state_case_size@?$output_processor@_WV?$string_output_adapter@_W@__crt_stdio_output@@V?$standard_base@_WV?$string_output_adapter@_W@__crt_stdio_output@@@2@@__crt_stdio_output@@AEAA_NXZ 0000000180041618     libucrt:output.obj
 0002:0000e618       $unwind$_statfp            0000000180041618     libucrt:fpctrl.obj
 0002:0000e618       $unwind$fegetround         0000000180041618     libucrt:fegetround.obj
 0002:0000e618       $unwind$_set_errno_from_matherr 0000000180041618     libucrt:fpexcept.obj
 0002:0000e618       $unwind$?Clear@CEStr@@QEAAXXZ 0000000180041618     common-kernel64:CEStr.obj
 0002:0000e618       $unwind$?Release@CEStr@@QEAAXXZ 0000000180041618     common-kernel64:CEStr.obj
 0002:0000e618       $unwind$?PointToExt@@YAPEB_WPEB_W@Z 0000000180041618     common-kernel64:CmdLine.obj
 0002:0000e618       $unwind$?ExecuteFreeResult@@YAXAEAPEAUCESERVER_REQ@@@Z 0000000180041618     common-kernel64:ConEmuCheck.obj
 0002:0000e618       $unwind$?_Delete_this@?$_Func_impl_no_alloc@V<lambda_217d18733db987cb8fc0adfd68028951>@@_NAEBUtagPROCESSENTRY32W@@@std@@EEAAX_N@Z 0000000180041618     common-kernel64:MProcess.obj
 0002:0000e618       $unwind$?_Xlength@?$vector@UtagPROCESSENTRY32W@@V?$MArrayAllocator@UtagPROCESSENTRY32W@@@@@std@@CAXXZ 0000000180041618     common-kernel64:MProcess.obj
 0002:0000e618       $unwind$?LocalSecurity@@YAPEAU_SECURITY_ATTRIBUTES@@XZ 0000000180041618     common-kernel64:MSecurity.obj
 0002:0000e618       $unwind$?ShutdownSecurity@@YAXXZ 0000000180041618     common-kernel64:MSecurity.obj
 0002:0000e618       $unwind$??2@YAPEAX_K@Z     0000000180041618     common-kernel64:Memory.obj
 0002:0000e618       $unwind$?HeapDeinitialize@@YAXXZ 0000000180041618     common-kernel64:Memory.obj
 0002:0000e618       $unwind$?HeapInitialize@@YA_NXZ 0000000180041618     common-kernel64:Memory.obj
 0002:0000e618       $unwind$?xf_calloc@@YAPEAX_K0@Z 0000000180041618     common-kernel64:Memory.obj
 0002:0000e618       $unwind$?xf_free@@YAXPEAX@Z 0000000180041618     common-kernel64:Memory.obj
 0002:0000e618       $unwind$?xf_malloc@@YAPEAX_K@Z 0000000180041618     common-kernel64:Memory.obj
 0002:0000e618       $unwind$?IsWin6@@YA_NXZ    0000000180041618     common-kernel64:WObjects.obj
 0002:0000e618       $unwind$?IsWin7@@YA_NXZ    0000000180041618     common-kernel64:WObjects.obj
 0002:0000e618       $unwind$?_Delete_this@?$_Func_impl_no_alloc@P6AHPEAX@ZXPEAX@std@@EEAAX_N@Z 0000000180041618     common-kernel64:WObjects.obj
 0002:0000e618       $unwind$??1?$MFileMapping@UConEmuGuiMapping@@@@QEAA@XZ 0000000180041618     common-user64:ConEmuCheckEx.obj
 0002:0000e618       $unwind$??__FgsMapHelper@@YAXXZ 0000000180041618     common-user64:WConsoleEx.obj
 0002:0000e618       $unwind$?apiShowWindow@@YA_NPEAUHWND__@@H@Z 0000000180041618     common-user64:WUser.obj
 0002:0000e618       $unwind$?apiShowWindowAsync@@YA_NPEAUHWND__@@H@Z 0000000180041618     common-user64:WUser.obj
 0002:0000e620       $unwind$?SetupExportsFar3@@YAXXZ 0000000180041620     ConEmuPlugin.obj
 0002:0000e620       $unwind$?StopPipeServer@?$PipeServer@UCESERVER_REQ@@@@QEAAX_NAEA_N@Z 0000000180041620     PluginSrv.obj
 0002:0000e63c       $unwind$?Color2FgIndex@Far3Color@@SAXKAEAGPEBK@Z 000000018004163c     ConEmuPlugin1900.obj
 0002:0000e63c       $unwind$?StringCchCatW@@YAJPEA_W_KPEB_W@Z 000000018004163c     ConEmuPluginBase.obj
 0002:0000e63c       $unwind$??$type_case_integer_parse_into_buffer@I@?$output_processor@DV?$string_output_adapter@D@__crt_stdio_output@@V?$standard_base@DV?$string_output_adapter@D@__crt_stdio_output@@@2@@__crt_stdio_output@@AEAAXII_N@Z 000000018004163c     libucrt:output.obj
 0002:0000e63c       $unwind$??$type_case_integer_parse_into_buffer@I@?$output_processor@_WV?$string_output_adapter@_W@__crt_stdio_output@@V?$standard_base@_WV?$string_output_adapter@_W@__crt_stdio_output@@@2@@__crt_stdio_output@@AEAAXII_N@Z 000000018004163c     libucrt:output.obj
 0002:0000e63c       $unwind$??$type_case_integer_parse_into_buffer@_K@?$output_processor@DV?$string_output_adapter@D@__crt_stdio_output@@V?$standard_base@DV?$string_output_adapter@D@__crt_stdio_output@@@2@@__crt_stdio_output@@AEAAX_KI_N@Z 000000018004163c     libucrt:output.obj
 0002:0000e63c       $unwind$??$type_case_integer_parse_into_buffer@_K@?$output_processor@_WV?$string_output_adapter@_W@__crt_stdio_output@@V?$standard_base@_WV?$string_output_adapter@_W@__crt_stdio_output@@@2@@__crt_stdio_output@@AEAAX_KI_N@Z 000000018004163c     libucrt:output.obj
 0002:0000e644       $unwind$?Color2BgIndex@Far3Color@@SAXKHAEAGPEBK@Z 0000000180041644     ConEmuPlugin1900.obj
 0002:0000e644       $unwind$?SetDcPanelRect@CPluginBackground@@IEAAXPEAUtagRECT@@PEAUBkPanelInfo@@PEAUPaintBackgroundArg@@@Z 0000000180041644     PluginBackground.obj
 0002:0000e650       $unwind$?FarColor_3_2@@YAEAEBUFarColor@@_N@Z 0000000180041650     ConEmuPlugin1900.obj
 0002:0000e664       $unwind$??0CPluginW1900@@QEAA@XZ 0000000180041664     ConEmuPlugin1900.obj
 0002:0000e664       $unwind$??0CPluginW2800@@QEAA@XZ 0000000180041664     ConEmuPlugin2800.obj
 0002:0000e674       $unwind$?ExitFar@CPluginW1900@@UEAAXXZ 0000000180041674     ConEmuPlugin1900.obj
 0002:0000e674       $unwind$?ExitFar@CPluginW2800@@UEAAXXZ 0000000180041674     ConEmuPlugin2800.obj
 0002:0000e674       $unwind$?ExitFar@CPluginW995@@UEAAXXZ 0000000180041674     ConEmuPlugin995.obj
 0002:0000e674       $unwind$??0length_error@std@@QEAA@PEBD@Z 0000000180041674     libcpmt:xthrow.obj
 0002:0000e674       $unwind$?__mbrtowc_utf8@__crt_mbstring@@YA_KPEA_WPEBD_KPEAU_Mbstatet@@@Z 0000000180041674     libucrt:mbrtowc.obj
 0002:0000e674       $unwind$?type_case_c_tchar@?$output_processor@DV?$string_output_adapter@D@__crt_stdio_output@@V?$standard_base@DV?$string_output_adapter@D@__crt_stdio_output@@@2@@__crt_stdio_output@@AEAA_ND@Z 0000000180041674     libucrt:output.obj
 0002:0000e67c       $unwind$?GetEditorModifiedState@CPluginW1900@@UEAAKXZ 000000018004167c     ConEmuPlugin1900.obj
 0002:0000e67c       $unwind$?GetEditorModifiedState@CPluginAnsi@@UEAAKXZ 000000018004167c     ConEmuPluginA.obj
 0002:0000e68c       $unwind$?GetMsg@CPluginW1900@@UEAAPEB_WHPEA_W_K@Z 000000018004168c     ConEmuPlugin1900.obj
 0002:0000e68c       $unwind$?LoadFarColors@CPluginW1900@@UEAAXAEAY0BAA@E@Z 000000018004168c     ConEmuPlugin1900.obj
 0002:0000e68c       $unwind$?GetMsg@CPluginW2800@@UEAAPEB_WHPEA_W_K@Z 000000018004168c     ConEmuPlugin2800.obj
 0002:0000e68c       $unwind$?LoadFarColors@CPluginW2800@@UEAAXAEAY0BAA@E@Z 000000018004168c     ConEmuPlugin2800.obj
 0002:0000e68c       $unwind$?GetMsg@CPluginW995@@UEAAPEB_WHPEA_W_K@Z 000000018004168c     ConEmuPlugin995.obj
 0002:0000e68c       $unwind$??0MWow64Disable@@QEAA@XZ 000000018004168c     ConEmuPluginBase.obj
 0002:0000e68c       $unwind$?FillLoadedParm@CPluginBase@@SAXPEAUConEmuLoadedArg@@PEAUHINSTANCE__@@H@Z 000000018004168c     ConEmuPluginBase.obj
 0002:0000e68c       $unwind$?OutDataRealloc@CPluginBase@@SA_NK@Z 000000018004168c     ConEmuPluginBase.obj
 0002:0000e68c       $unwind$?OutDataWrite@CPluginBase@@SA_NPEAXK@Z 000000018004168c     ConEmuPluginBase.obj
 0002:0000e68c       $unwind$?ProcessEditorViewerEvent@CPluginBase@@QEAAHHH@Z 000000018004168c     ConEmuPluginBase.obj
 0002:0000e68c       $unwind$?SetRootRegKey@CPluginBase@@IEAAXPEA_W@Z 000000018004168c     ConEmuPluginBase.obj
 0002:0000e68c       $unwind$?ToOem@CPluginBase@@SAPEADPEB_W@Z 000000018004168c     ConEmuPluginBase.obj
 0002:0000e68c       $unwind$?cmd_SetWindow@CPluginBase@@QEAA_NPEAX_N@Z 000000018004168c     ConEmuPluginBase.obj
 0002:0000e68c       $unwind$?CheckPanelFolders@CPluginBackground@@IEAAXH@Z 000000018004168c     PluginBackground.obj
 0002:0000e68c       $unwind$?ReallocItems@CPluginBackground@@IEAAXH@Z 000000018004168c     PluginBackground.obj
 0002:0000e68c       $unwind$_DllMainCRTStartup 000000018004168c     LIBCMT:dll_dllmain.obj
 0002:0000e68c       $unwind$__vcrt_getptd_noexit 000000018004168c     libvcruntime:per_thread_data.obj
 0002:0000e68c       $unwind$__vcrt_InitializeCriticalSectionEx 000000018004168c     libvcruntime:winapi_downlevel.obj
 0002:0000e68c       $unwind$memcpy_s           000000018004168c     libucrt:cfout.obj
 0002:0000e68c       $unwind$__acrt_getptd      000000018004168c     libucrt:per_thread_data.obj
 0002:0000e68c       $unwind$__acrt_getptd_noexit 000000018004168c     libucrt:per_thread_data.obj
 0002:0000e68c       $unwind$__acrt_execute_initializers 000000018004168c     libucrt:shared_initialization.obj
 0002:0000e68c       $unwind$__acrt_InitializeCriticalSectionEx 000000018004168c     libucrt:winapi_thunks.obj
 0002:0000e68c       $unwind$?free_crt_array_internal@@YAXQEAPEBX_K@Z 000000018004168c     libucrt:inittime.obj
 0002:0000e68c       $unwind$??$common_lseek_nolock@_J@@YA_JH_JH@Z 000000018004168c     libucrt:lseek.obj
 0002:0000e68c       $unwind$__acrt_stdio_flush_nolock 000000018004168c     libucrt:fflush.obj
 0002:0000e68c       $unwind$??0_LocaleUpdate@@QEAA@QEAU__crt_locale_pointers@@@Z 000000018004168c     libucrt:output.obj
 0002:0000e68c       $unwind$?type_case_Z@?$output_processor@_WV?$string_output_adapter@_W@__crt_stdio_output@@V?$standard_base@_WV?$string_output_adapter@_W@__crt_stdio_output@@@2@@__crt_stdio_output@@AEAA_NXZ 000000018004168c     libucrt:output.obj
 0002:0000e68c       $unwind$?type_case_s@?$output_processor@_WV?$string_output_adapter@_W@__crt_stdio_output@@V?$standard_base@_WV?$string_output_adapter@_W@__crt_stdio_output@@@2@@__crt_stdio_output@@AEAA_NXZ 000000018004168c     libucrt:output.obj
 0002:0000e68c       $unwind$_exception_enabled 000000018004168c     libucrt:libm_error.obj
 0002:0000e68c       $unwind$?Unquote@@YAPEB_WPEA_W_N@Z 000000018004168c     common-kernel64:CmdLine.obj
 0002:0000e68c       $unwind$?IsEnvBlockVariableValid@@YA_NPEB_WAEAPEB_W@Z 000000018004168c     common-kernel64:Common.obj
 0002:0000e68c       $unwind$?apiGetCurrentConsoleFontEx@@YAHPEAXHPEAUMY_CONSOLE_FONT_INFOEX@@@Z 000000018004168c     common-kernel64:WConsole.obj
 0002:0000e68c       $unwind$?apiSetCurrentConsoleFontEx@@YAHPEAXHPEAUMY_CONSOLE_FONT_INFOEX@@@Z 000000018004168c     common-kernel64:WConsole.obj
 0002:0000e68c       $unwind$??0?$MHandleBase@PEAX@@QEAA@PEAXV?$function@$$A6AXPEAX@Z@std@@@Z 000000018004168c     common-kernel64:WObjects.obj
 0002:0000e68c       $unwind$?SetHandle@?$MHandleBase@PEAX@@QEAA_NPEAXV?$function@$$A6AXPEAX@Z@std@@@Z 000000018004168c     common-kernel64:WObjects.obj
 0002:0000e69c       $unwind$?GetPanelInfo@CPluginW1900@@UEAA_NKPEAUCEPanelInfo@@@Z 000000018004169c     ConEmuPlugin1900.obj
 0002:0000e69c       $unwind$?GetPanelInfo@CPluginW2800@@UEAA_NKPEAUCEPanelInfo@@@Z 000000018004169c     ConEmuPlugin2800.obj
 0002:0000e6bc       $unwind$?GetPanelItemInfo@CPluginW1900@@UEAA_NAEBUCEPanelInfo@@_N_JAEAU_WIN32_FIND_DATAW@@PEAPEA_W@Z 00000001800416bc     ConEmuPlugin1900.obj
 0002:0000e6d8       $cppxdata$?GetPanelItemInfo@CPluginW1900@@UEAA_NAEBUCEPanelInfo@@_N_JAEAU_WIN32_FIND_DATAW@@PEAPEA_W@Z 00000001800416d8     ConEmuPlugin1900.obj
 0002:0000e6e1       $stateUnwindMap$?GetPanelItemInfo@CPluginW1900@@UEAA_NAEBUCEPanelInfo@@_N_JAEAU_WIN32_FIND_DATAW@@PEAPEA_W@Z 00000001800416e1     ConEmuPlugin1900.obj
 0002:0000e6e1       $stateUnwindMap$?InputBox@CPluginW995@@UEAA_NPEB_W000AEAPEA_W@Z 00000001800416e1     ConEmuPlugin995.obj
 0002:0000e6e8       $ip2state$?GetPanelItemInfo@CPluginW1900@@UEAA_NAEBUCEPanelInfo@@_N_JAEAU_WIN32_FIND_DATAW@@PEAPEA_W@Z 00000001800416e8     ConEmuPlugin1900.obj
 0002:0000e6f0       $unwind$?GetPanelDir@CPluginW1900@@UEAAPEA_WKPEA_WH@Z 00000001800416f0     ConEmuPlugin1900.obj
 0002:0000e6f0       $unwind$?GetPanelDir@CPluginW2800@@UEAAPEA_WKPEA_WH@Z 00000001800416f0     ConEmuPlugin2800.obj
 0002:0000e714       $cppxdata$?GetPanelDir@CPluginW1900@@UEAAPEA_WKPEA_WH@Z 0000000180041714     ConEmuPlugin1900.obj
 0002:0000e714       $cppxdata$?GetPanelDir@CPluginW2800@@UEAAPEA_WKPEA_WH@Z 0000000180041714     ConEmuPlugin2800.obj
 0002:0000e71d       $stateUnwindMap$?GetPanelDir@CPluginW1900@@UEAAPEA_WKPEA_WH@Z 000000018004171d     ConEmuPlugin1900.obj
 0002:0000e71d       $stateUnwindMap$?GetPanelDir@CPluginW2800@@UEAAPEA_WKPEA_WH@Z 000000018004171d     ConEmuPlugin2800.obj
 0002:0000e71d       $stateUnwindMap$?Open@CPluginW2800@@UEAAPEAXPEBX@Z 000000018004171d     ConEmuPlugin2800.obj
 0002:0000e71d       $stateUnwindMap$?SetStartupInfoPtr@CPluginW995@@UEAAXPEAX@Z 000000018004171d     ConEmuPlugin995.obj
 0002:0000e71d       $stateUnwindMap$?ToUnicode@CPluginBase@@SAPEA_WPEBD@Z 000000018004171d     ConEmuPluginBase.obj
 0002:0000e724       $ip2state$?GetPanelDir@CPluginW1900@@UEAAPEA_WKPEA_WH@Z 0000000180041724     ConEmuPlugin1900.obj
 0002:0000e724       $ip2state$?GetPanelDir@CPluginW2800@@UEAAPEA_WKPEA_WH@Z 0000000180041724     ConEmuPlugin2800.obj
 0002:0000e72c       $unwind$?InputBox@CPluginW1900@@UEAA_NPEB_W000AEAPEA_W@Z 000000018004172c     ConEmuPlugin1900.obj
 0002:0000e744       $cppxdata$?InputBox@CPluginW1900@@UEAA_NPEB_W000AEAPEA_W@Z 0000000180041744     ConEmuPlugin1900.obj
 0002:0000e74d       $stateUnwindMap$?InputBox@CPluginW1900@@UEAA_NPEB_W000AEAPEA_W@Z 000000018004174d     ConEmuPlugin1900.obj
 0002:0000e74d       $stateUnwindMap$?InputBox@CPluginW2800@@UEAA_NPEB_W000AEAPEA_W@Z 000000018004174d     ConEmuPlugin2800.obj
 0002:0000e74d       $stateUnwindMap$?InitRootRegKey@CPluginBase@@IEAAXXZ 000000018004174d     ConEmuPluginBase.obj
 0002:0000e74d       $stateUnwindMap$?LoadPanelTabsFromRegistry@CPluginBase@@IEAAXXZ 000000018004174d     ConEmuPluginBase.obj
 0002:0000e74d       $stateUnwindMap$?ShowProtocolWarning@CPluginBase@@KAXXZ 000000018004174d     ConEmuPluginBase.obj
 0002:0000e754       $ip2state$?InputBox@CPluginW1900@@UEAA_NPEB_W000AEAPEA_W@Z 0000000180041754     ConEmuPlugin1900.obj
 0002:0000e75c       $unwind$?LoadFarSettings@CPluginW1900@@UEAAXPEAUCEFarInterfaceSettings@@PEAUCEFarPanelSettings@@@Z 000000018004175c     ConEmuPlugin1900.obj
 0002:0000e75c       $unwind$?LoadFarSettings@CPluginW2800@@UEAAXPEAUCEFarInterfaceSettings@@PEAUCEFarPanelSettings@@@Z 000000018004175c     ConEmuPlugin2800.obj
 0002:0000e770       $unwind$?OpenEditor@CPluginW1900@@UEAA_NPEB_W_N11HH@Z 0000000180041770     ConEmuPlugin1900.obj
 0002:0000e770       $unwind$?OpenEditor@CPluginW2800@@UEAA_NPEB_W_N11HH@Z 0000000180041770     ConEmuPlugin2800.obj
 0002:0000e770       $unwind$?OpenEditor@CPluginW995@@UEAA_NPEB_W_N11HH@Z 0000000180041770     ConEmuPlugin995.obj
 0002:0000e780       $unwind$?PanelControlApi@CPluginW1900@@UEAA_JPEAXH_J0@Z 0000000180041780     ConEmuPlugin1900.obj
 0002:0000e780       $unwind$?PanelControlApi@CPluginW2800@@UEAA_JPEAXH_J0@Z 0000000180041780     ConEmuPlugin2800.obj
 0002:0000e780       $unwind$__GSHandlerCheckCommon 0000000180041780     LIBCMT:gshandler.obj
 0002:0000e788       $unwind$?PostMacroApi@CPluginW1900@@UEAAXPEB_WPEAU_INPUT_RECORD@@_N@Z 0000000180041788     ConEmuPlugin1900.obj
 0002:0000e7b0       $cppxdata$?PostMacroApi@CPluginW1900@@UEAAXPEB_WPEAU_INPUT_RECORD@@_N@Z 00000001800417b0     ConEmuPlugin1900.obj
 0002:0000e7b9       $stateUnwindMap$?PostMacroApi@CPluginW1900@@UEAAXPEB_WPEAU_INPUT_RECORD@@_N@Z 00000001800417b9     ConEmuPlugin1900.obj
 0002:0000e7c1       $ip2state$?PostMacroApi@CPluginW1900@@UEAAXPEB_WPEAU_INPUT_RECORD@@_N@Z 00000001800417c1     ConEmuPlugin1900.obj
 0002:0000e7cc       $unwind$?SetStartupInfoPtr@CPluginW1900@@UEAAXPEAX@Z 00000001800417cc     ConEmuPlugin1900.obj
 0002:0000e7cc       $unwind$?SetStartupInfoPtr@CPluginW2800@@UEAAXPEAX@Z 00000001800417cc     ConEmuPlugin2800.obj
 0002:0000e7e8       $unwind$?ShowMessage@CPluginW1900@@UEAAHPEB_WH_N@Z 00000001800417e8     ConEmuPlugin1900.obj
 0002:0000e7e8       $unwind$?ShowMessage@CPluginW2800@@UEAAHPEB_WH_N@Z 00000001800417e8     ConEmuPlugin2800.obj
 0002:0000e7e8       $unwind$?ToOem@CPluginBase@@SAXPEB_WPEAD_J@Z 00000001800417e8     ConEmuPluginBase.obj
 0002:0000e7e8       $unwind$?_Xbad_function_call@std@@YAXXZ 00000001800417e8     libcpmt:xthrow.obj
 0002:0000e7e8       $unwind$?_Xlength_error@std@@YAXPEBD@Z 00000001800417e8     libcpmt:xthrow.obj
 0002:0000e7e8       $unwind$_raise_exc         00000001800417e8     libucrt:fpexcept.obj
 0002:0000e7f0       $unwind$?ShowPluginMenu@CPluginW1900@@UEAAHPEAUConEmuPluginMenuItem@@HH@Z 00000001800417f0     ConEmuPlugin1900.obj
 0002:0000e7f0       $unwind$?ShowPluginMenu@CPluginW2800@@UEAAHPEAUConEmuPluginMenuItem@@HH@Z 00000001800417f0     ConEmuPlugin2800.obj
 0002:0000e808       $unwind$?UpdateConEmuTabsApi@CPluginW1900@@UEAA_NH@Z 0000000180041808     ConEmuPlugin1900.obj
 0002:0000e830       $unwind$?GetFarSetting@@YAHPEAX_KPEB_W@Z 0000000180041830     ConEmuPlugin1900.obj
 0002:0000e830       $unwind$?GetFarSetting@@YAHPEAX_KPEB_W@Z 0000000180041830     ConEmuPlugin2800.obj
 0002:0000e830       $unwind$_call_matherr      0000000180041830     libucrt:libm_error.obj
 0002:0000e838       $unwind$?CallGuiMacroDlg@@YA_JPEAXHH0@Z 0000000180041838     ConEmuPlugin1900.obj
 0002:0000e858       $unwind$?CallGuiMacroProc@@YAXXZ 0000000180041858     ConEmuPlugin1900.obj
 0002:0000e874       $unwind$GetGlobalInfoW     0000000180041874     ConEmuPlugin2800.obj
 0002:0000e87c       $unwind$?GetEditorModifiedState@CPluginW2800@@UEAAKXZ 000000018004187c     ConEmuPlugin2800.obj
 0002:0000e88c       $unwind$?GetPanelItemInfo@CPluginW2800@@UEAA_NAEBUCEPanelInfo@@_N_JAEAU_WIN32_FIND_DATAW@@PEAPEA_W@Z 000000018004188c     ConEmuPlugin2800.obj
 0002:0000e8ac       $cppxdata$?GetPanelItemInfo@CPluginW2800@@UEAA_NAEBUCEPanelInfo@@_N_JAEAU_WIN32_FIND_DATAW@@PEAPEA_W@Z 00000001800418ac     ConEmuPlugin2800.obj
 0002:0000e8b5       $stateUnwindMap$?GetPanelItemInfo@CPluginW2800@@UEAA_NAEBUCEPanelInfo@@_N_JAEAU_WIN32_FIND_DATAW@@PEAPEA_W@Z 00000001800418b5     ConEmuPlugin2800.obj
 0002:0000e8b5       $stateUnwindMap$?GetPanelItemInfo@CPluginW995@@UEAA_NAEBUCEPanelInfo@@_N_JAEAU_WIN32_FIND_DATAW@@PEAPEA_W@Z 00000001800418b5     ConEmuPlugin995.obj
 0002:0000e8b5       $stateUnwindMap$?GetPanelItemInfo@CPluginAnsi@@UEAA_NAEBUCEPanelInfo@@_N_JAEAU_WIN32_FIND_DATAW@@PEAPEA_W@Z 00000001800418b5     ConEmuPluginA.obj
 0002:0000e8bc       $ip2state$?GetPanelItemInfo@CPluginW2800@@UEAA_NAEBUCEPanelInfo@@_N_JAEAU_WIN32_FIND_DATAW@@PEAPEA_W@Z 00000001800418bc     ConEmuPlugin2800.obj
 0002:0000e8c4       $unwind$?InputBox@CPluginW2800@@UEAA_NPEB_W000AEAPEA_W@Z 00000001800418c4     ConEmuPlugin2800.obj
 0002:0000e8dc       $cppxdata$?InputBox@CPluginW2800@@UEAA_NPEB_W000AEAPEA_W@Z 00000001800418dc     ConEmuPlugin2800.obj
 0002:0000e8e5       $ip2state$?InputBox@CPluginW2800@@UEAA_NPEB_W000AEAPEA_W@Z 00000001800418e5     ConEmuPlugin2800.obj
 0002:0000e8ec       $unwind$?Open@CPluginW2800@@UEAAPEAXPEBX@Z 00000001800418ec     ConEmuPlugin2800.obj
 0002:0000e904       $cppxdata$?Open@CPluginW2800@@UEAAPEAXPEBX@Z 0000000180041904     ConEmuPlugin2800.obj
 0002:0000e90d       $ip2state$?Open@CPluginW2800@@UEAAPEAXPEBX@Z 000000018004190d     ConEmuPlugin2800.obj
 0002:0000e918       $unwind$?PostMacroApi@CPluginW2800@@UEAAXPEB_WPEAU_INPUT_RECORD@@_N@Z 0000000180041918     ConEmuPlugin2800.obj
 0002:0000e93c       $unwind$?SetWindow@CPluginW2800@@UEAAXH@Z 000000018004193c     ConEmuPlugin2800.obj
 0002:0000e954       $cppxdata$?SetWindow@CPluginW2800@@UEAAXH@Z 0000000180041954     ConEmuPlugin2800.obj
 0002:0000e95d       $stateUnwindMap$?SetWindow@CPluginW2800@@UEAAXH@Z 000000018004195d     ConEmuPlugin2800.obj
 0002:0000e969       $ip2state$?SetWindow@CPluginW2800@@UEAAXH@Z 0000000180041969     ConEmuPlugin2800.obj
 0002:0000e974       $unwind$?UpdateConEmuTabsApi@CPluginW2800@@UEAA_NH@Z 0000000180041974     ConEmuPlugin2800.obj
 0002:0000e9c4       $cppxdata$?UpdateConEmuTabsApi@CPluginW2800@@UEAA_NH@Z 00000001800419c4     ConEmuPlugin2800.obj
 0002:0000e9cd       $stateUnwindMap$?UpdateConEmuTabsApi@CPluginW2800@@UEAA_NH@Z 00000001800419cd     ConEmuPlugin2800.obj
 0002:0000e9df       $ip2state$?UpdateConEmuTabsApi@CPluginW2800@@UEAA_NH@Z 00000001800419df     ConEmuPlugin2800.obj
 0002:0000e9f0       $unwind$?insert@?$vector@UWindowInfo@@V?$MArrayAllocator@UWindowInfo@@@@@std@@QEAA?AV?$_Vector_iterator@V?$_Vector_val@U?$_Simple_types@UWindowInfo@@@std@@@std@@@2@V?$_Vector_const_iterator@V?$_Vector_val@U?$_Simple_types@UWindowInfo@@@std@@@std@@@2@_KAEBUWindowInfo@@@Z 00000001800419f0     ConEmuPlugin2800.obj
 0002:0000ea0c       $cppxdata$?insert@?$vector@UWindowInfo@@V?$MArrayAllocator@UWindowInfo@@@@@std@@QEAA?AV?$_Vector_iterator@V?$_Vector_val@U?$_Simple_types@UWindowInfo@@@std@@@std@@@2@V?$_Vector_const_iterator@V?$_Vector_val@U?$_Simple_types@UWindowInfo@@@std@@@std@@@2@_KAEBUWindowInfo@@@Z 0000000180041a0c     ConEmuPlugin2800.obj
 0002:0000ea19       $stateUnwindMap$??$_Emplace_reallocate@AEBUWindowInfo@@@?$vector@UWindowInfo@@V?$MArrayAllocator@UWindowInfo@@@@@std@@QEAAPEAUWindowInfo@@QEAU2@AEBU2@@Z 0000000180041a19     ConEmuPlugin2800.obj
 0002:0000ea19       $stateUnwindMap$?insert@?$vector@UWindowInfo@@V?$MArrayAllocator@UWindowInfo@@@@@std@@QEAA?AV?$_Vector_iterator@V?$_Vector_val@U?$_Simple_types@UWindowInfo@@@std@@@std@@@2@V?$_Vector_const_iterator@V?$_Vector_val@U?$_Simple_types@UWindowInfo@@@std@@@std@@@2@_KAEBUWindowInfo@@@Z 0000000180041a19     ConEmuPlugin2800.obj
 0002:0000ea1c       $tryMap$?insert@?$vector@UWindowInfo@@V?$MArrayAllocator@UWindowInfo@@@@@std@@QEAA?AV?$_Vector_iterator@V?$_Vector_val@U?$_Simple_types@UWindowInfo@@@std@@@std@@@2@V?$_Vector_const_iterator@V?$_Vector_val@U?$_Simple_types@UWindowInfo@@@std@@@std@@@2@_KAEBUWindowInfo@@@Z 0000000180041a1c     ConEmuPlugin2800.obj
 0002:0000ea24       $handlerMap$?insert@?$vector@UWindowInfo@@V?$MArrayAllocator@UWindowInfo@@@@@std@@QEAA?AV?$_Vector_iterator@V?$_Vector_val@U?$_Simple_types@UWindowInfo@@@std@@@std@@@2@V?$_Vector_const_iterator@V?$_Vector_val@U?$_Simple_types@UWindowInfo@@@std@@@std@@@2@_KAEBUWindowInfo@@@Z 0000000180041a24     ConEmuPlugin2800.obj
 0002:0000ea2b       $ip2state$?insert@?$vector@UWindowInfo@@V?$MArrayAllocator@UWindowInfo@@@@@std@@QEAA?AV?$_Vector_iterator@V?$_Vector_val@U?$_Simple_types@UWindowInfo@@@std@@@std@@@2@V?$_Vector_const_iterator@V?$_Vector_val@U?$_Simple_types@UWindowInfo@@@std@@@std@@@2@_KAEBUWindowInfo@@@Z 0000000180041a2b     ConEmuPlugin2800.obj
 0002:0000ea30       $unwind$?catch$0@?0???$_Emplace_reallocate@AEBUWindowInfo@@@?$vector@UWindowInfo@@V?$MArrayAllocator@UWindowInfo@@@@@std@@QEAAPEAUWindowInfo@@QEAU2@AEBU2@@Z@4HA 0000000180041a30     ConEmuPlugin2800.obj
 0002:0000ea30       $unwind$?catch$0@?0??insert@?$vector@UWindowInfo@@V?$MArrayAllocator@UWindowInfo@@@@@std@@QEAA?AV?$_Vector_iterator@V?$_Vector_val@U?$_Simple_types@UWindowInfo@@@std@@@std@@@2@V?$_Vector_const_iterator@V?$_Vector_val@U?$_Simple_types@UWindowInfo@@@std@@@std@@@2@_KAEBUWindowInfo@@@Z@4HA 0000000180041a30     ConEmuPlugin2800.obj
 0002:0000ea38       $unwind$?erase@?$MArray@UWindowInfo@@@@QEAAX_J0@Z 0000000180041a38     ConEmuPlugin2800.obj
 0002:0000ea48       $unwind$??1?$MArray@UWindowInfo@@@@QEAA@XZ 0000000180041a48     ConEmuPlugin2800.obj
 0002:0000ea58       $cppxdata$??1?$MArray@UWindowInfo@@@@QEAA@XZ 0000000180041a58     ConEmuPlugin2800.obj
 0002:0000ea61       $stateUnwindMap$??1?$MArray@UWindowInfo@@@@QEAA@XZ 0000000180041a61     ConEmuPlugin2800.obj
 0002:0000ea67       $ip2state$??1?$MArray@UWindowInfo@@@@QEAA@XZ 0000000180041a67     ConEmuPlugin2800.obj
 0002:0000ea6c       $unwind$?WLoadWindows@@YA_JAEAV?$MArray@UWindowInfo@@@@H@Z 0000000180041a6c     ConEmuPlugin2800.obj
 0002:0000ea84       $unwind$?CallGuiMacroDlg@@YA_JPEAX_J10@Z 0000000180041a84     ConEmuPlugin2800.obj
 0002:0000eaa4       $unwind$?CallGuiMacroProc@@YAXXZ 0000000180041aa4     ConEmuPlugin2800.obj
 0002:0000eac8       $unwind$??$_Emplace_reallocate@AEBUWindowInfo@@@?$vector@UWindowInfo@@V?$MArrayAllocator@UWindowInfo@@@@@std@@QEAAPEAUWindowInfo@@QEAU2@AEBU2@@Z 0000000180041ac8     ConEmuPlugin2800.obj
 0002:0000eae4       $cppxdata$??$_Emplace_reallocate@AEBUWindowInfo@@@?$vector@UWindowInfo@@V?$MArrayAllocator@UWindowInfo@@@@@std@@QEAAPEAUWindowInfo@@QEAU2@AEBU2@@Z 0000000180041ae4     ConEmuPlugin2800.obj
 0002:0000eaf1       $tryMap$??$_Emplace_reallocate@AEBUWindowInfo@@@?$vector@UWindowInfo@@V?$MArrayAllocator@UWindowInfo@@@@@std@@QEAAPEAUWindowInfo@@QEAU2@AEBU2@@Z 0000000180041af1     ConEmuPlugin2800.obj
 0002:0000eaf9       $handlerMap$??$_Emplace_reallocate@AEBUWindowInfo@@@?$vector@UWindowInfo@@V?$MArrayAllocator@UWindowInfo@@@@@std@@QEAAPEAUWindowInfo@@QEAU2@AEBU2@@Z 0000000180041af9     ConEmuPlugin2800.obj
 0002:0000eb00       $ip2state$??$_Emplace_reallocate@AEBUWindowInfo@@@?$vector@UWindowInfo@@V?$MArrayAllocator@UWindowInfo@@@@@std@@QEAAPEAUWindowInfo@@QEAU2@AEBU2@@Z 0000000180041b00     ConEmuPlugin2800.obj
 0002:0000eb04       $unwind$??0CPluginW995@@QEAA@XZ 0000000180041b04     ConEmuPlugin995.obj
 0002:0000eb20       $cppxdata$??0CPluginW995@@QEAA@XZ 0000000180041b20     ConEmuPlugin995.obj
 0002:0000eb29       $stateUnwindMap$??0CPluginW995@@QEAA@XZ 0000000180041b29     ConEmuPlugin995.obj
 0002:0000eb29       $stateUnwindMap$??0CPluginAnsi@@QEAA@XZ 0000000180041b29     ConEmuPluginA.obj
 0002:0000eb30       $ip2state$??0CPluginW995@@QEAA@XZ 0000000180041b30     ConEmuPlugin995.obj
 0002:0000eb38       $unwind$?GetActiveWindowType@CPluginW995@@UEAAHXZ 0000000180041b38     ConEmuPlugin995.obj
 0002:0000eb38       $unwind$?GetMacroArea@CPluginW995@@UEAAHXZ 0000000180041b38     ConEmuPlugin995.obj
 0002:0000eb38       $unwind$?IsMacroActive@CPluginW995@@UEAA_NXZ 0000000180041b38     ConEmuPlugin995.obj
 0002:0000eb38       $unwind$?PostMacroApi@CPluginW995@@UEAAXPEB_WPEAU_INPUT_RECORD@@_N@Z 0000000180041b38     ConEmuPlugin995.obj
 0002:0000eb38       $unwind$?IsMacroActive@CPluginAnsi@@UEAA_NXZ 0000000180041b38     ConEmuPluginA.obj
 0002:0000eb38       $unwind$fallbackMethod     0000000180041b38     libucrt:strpbrk.obj
 0002:0000eb48       $unwind$?GetEditorModifiedState@CPluginW995@@UEAAKXZ 0000000180041b48     ConEmuPlugin995.obj
 0002:0000eb58       $unwind$?GetPanelInfo@CPluginW995@@UEAA_NKPEAUCEPanelInfo@@@Z 0000000180041b58     ConEmuPlugin995.obj
 0002:0000eb74       $unwind$?GetPanelItemInfo@CPluginW995@@UEAA_NAEBUCEPanelInfo@@_N_JAEAU_WIN32_FIND_DATAW@@PEAPEA_W@Z 0000000180041b74     ConEmuPlugin995.obj
 0002:0000eb90       $cppxdata$?GetPanelItemInfo@CPluginW995@@UEAA_NAEBUCEPanelInfo@@_N_JAEAU_WIN32_FIND_DATAW@@PEAPEA_W@Z 0000000180041b90     ConEmuPlugin995.obj
 0002:0000eb99       $ip2state$?GetPanelItemInfo@CPluginW995@@UEAA_NAEBUCEPanelInfo@@_N_JAEAU_WIN32_FIND_DATAW@@PEAPEA_W@Z 0000000180041b99     ConEmuPlugin995.obj
 0002:0000eba4       $unwind$?GetPanelDir@CPluginW995@@UEAAPEA_WKPEA_WH@Z 0000000180041ba4     ConEmuPlugin995.obj
 0002:0000ebc0       $unwind$?InputBox@CPluginW995@@UEAA_NPEB_W000AEAPEA_W@Z 0000000180041bc0     ConEmuPlugin995.obj
 0002:0000ebdc       $cppxdata$?InputBox@CPluginW995@@UEAA_NPEB_W000AEAPEA_W@Z 0000000180041bdc     ConEmuPlugin995.obj
 0002:0000ebe5       $ip2state$?InputBox@CPluginW995@@UEAA_NPEB_W000AEAPEA_W@Z 0000000180041be5     ConEmuPlugin995.obj
 0002:0000ebec       $unwind$?LoadFarColors@CPluginW995@@UEAAXAEAY0BAA@E@Z 0000000180041bec     ConEmuPlugin995.obj
 0002:0000ebec       $unwind$?LoadFarColors@CPluginAnsi@@UEAAXAEAY0BAA@E@Z 0000000180041bec     ConEmuPluginA.obj
 0002:0000ec04       $unwind$?SetStartupInfoPtr@CPluginW995@@UEAAXPEAX@Z 0000000180041c04     ConEmuPlugin995.obj
 0002:0000ec20       $cppxdata$?SetStartupInfoPtr@CPluginW995@@UEAAXPEAX@Z 0000000180041c20     ConEmuPlugin995.obj
 0002:0000ec29       $ip2state$?SetStartupInfoPtr@CPluginW995@@UEAAXPEAX@Z 0000000180041c29     ConEmuPlugin995.obj
 0002:0000ec34       $unwind$?ShowPluginMenu@CPluginW995@@UEAAHPEAUConEmuPluginMenuItem@@HH@Z 0000000180041c34     ConEmuPlugin995.obj
 0002:0000ec4c       $unwind$?UpdateConEmuTabsApi@CPluginW995@@UEAA_NH@Z 0000000180041c4c     ConEmuPlugin995.obj
 0002:0000ec70       $unwind$?WaitEndSynchro@CPluginW995@@UEAAXXZ 0000000180041c70     ConEmuPlugin995.obj
 0002:0000ec88       $unwind$?CallGuiMacroDlg@@YA_JPEAXHH_J@Z 0000000180041c88     ConEmuPlugin995.obj
 0002:0000eca4       $unwind$?CallGuiMacroProc@@YAXXZ 0000000180041ca4     ConEmuPlugin995.obj
 0002:0000ecc0       $unwind$??0CPluginAnsi@@QEAA@XZ 0000000180041cc0     ConEmuPluginA.obj
 0002:0000ecd0       $cppxdata$??0CPluginAnsi@@QEAA@XZ 0000000180041cd0     ConEmuPluginA.obj
 0002:0000ecd9       $ip2state$??0CPluginAnsi@@QEAA@XZ 0000000180041cd9     ConEmuPluginA.obj
 0002:0000ece0       $unwind$?GetActiveWindowType@CPluginAnsi@@UEAAHXZ 0000000180041ce0     ConEmuPluginA.obj
 0002:0000ecf4       $unwind$?GetMsg@CPluginAnsi@@UEAAPEB_WHPEA_W_K@Z 0000000180041cf4     ConEmuPluginA.obj
 0002:0000ecf4       $unwind$?getStateFromIterators@UWMap4@FH4@@SAHAEBViterator@12@H0H0@Z 0000000180041cf4     libvcruntime:frame.obj
 0002:0000ecf4       $unwind$?_VerifyVersionInfo@@YA_NPEAU_OSVERSIONINFOEXW@@K_K@Z 0000000180041cf4     common-kernel64:WObjects.obj
 0002:0000ed04       $unwind$?GetPanelDir@CPluginAnsi@@UEAAPEA_WKPEA_WH@Z 0000000180041d04     ConEmuPluginA.obj
 0002:0000ed20       $unwind$?GetPanelInfo@CPluginAnsi@@UEAA_NKPEAUCEPanelInfo@@@Z 0000000180041d20     ConEmuPluginA.obj
 0002:0000ed44       $unwind$?GetPanelItemInfo@CPluginAnsi@@UEAA_NAEBUCEPanelInfo@@_N_JAEAU_WIN32_FIND_DATAW@@PEAPEA_W@Z 0000000180041d44     ConEmuPluginA.obj
 0002:0000ed5c       $cppxdata$?GetPanelItemInfo@CPluginAnsi@@UEAA_NAEBUCEPanelInfo@@_N_JAEAU_WIN32_FIND_DATAW@@PEAPEA_W@Z 0000000180041d5c     ConEmuPluginA.obj
 0002:0000ed65       $ip2state$?GetPanelItemInfo@CPluginAnsi@@UEAA_NAEBUCEPanelInfo@@_N_JAEAU_WIN32_FIND_DATAW@@PEAPEA_W@Z 0000000180041d65     ConEmuPluginA.obj
 0002:0000ed6c       $unwind$?InputBox@CPluginAnsi@@UEAA_NPEB_W000AEAPEA_W@Z 0000000180041d6c     ConEmuPluginA.obj
 0002:0000ed90       $unwind$?OpenEditor@CPluginAnsi@@UEAA_NPEB_W_N11HH@Z 0000000180041d90     ConEmuPluginA.obj
 0002:0000edac       $unwind$?PostMacroApi@CPluginAnsi@@UEAAXPEB_WPEAU_INPUT_RECORD@@_N@Z 0000000180041dac     ConEmuPluginA.obj
 0002:0000edc0       $unwind$?SetStartupInfoPtr@CPluginAnsi@@UEAAXPEAX@Z 0000000180041dc0     ConEmuPluginA.obj
 0002:0000edd4       $unwind$?ShowMessage@CPluginAnsi@@UEAAHPEB_WH_N@Z 0000000180041dd4     ConEmuPluginA.obj
 0002:0000edd4       $unwind$?ActivatePlugin@CPluginBase@@QEAA_NKPEAXK@Z 0000000180041dd4     ConEmuPluginBase.obj
 0002:0000edd4       $unwind$?OnWriteConsoleOutput@CPluginBase@@SAHPEAUHookCallbackArg@@@Z 0000000180041dd4     ConEmuPluginBase.obj
 0002:0000edd4       $unwind$?PanelControl@CPluginBase@@QEAA_JPEAXH_J0@Z 0000000180041dd4     ConEmuPluginBase.obj
 0002:0000edd4       $unwind$??$__acrt_mbs_to_wcs_cp@U__crt_win32_buffer_internal_dynamic_resizing@@@@YAHQEBDAEAV?$__crt_win32_buffer@_WU__crt_win32_buffer_internal_dynamic_resizing@@@@I@Z 0000000180041dd4     libucrt:argv_wildcards.obj
 0002:0000edd4       $unwind$?lstrdupW@@YA?AUCEStr@@PEBDI@Z 0000000180041dd4     common-kernel64:MStrDup.obj
 0002:0000edd4       $unwind$?StringCchVPrintfA@@YAJPEAD_KPEBD0@Z 0000000180041dd4     common-kernel64:MStrSafe.obj
 0002:0000edd4       $unwind$?apiCreateThread@@YAPEAXP6AKPEAX@Z0PEAKPEBDH@Z 0000000180041dd4     common-kernel64:WThreads.obj
 0002:0000edd4       $unwind$?IsConEmuExeExist@@YAHPEB_WAEAY0BAF@_W@Z 0000000180041dd4     common-user64:ConEmuCheckEx.obj
 0002:0000edec       $unwind$?ShowPluginMenu@CPluginAnsi@@UEAAHPEAUConEmuPluginMenuItem@@HH@Z 0000000180041dec     ConEmuPluginA.obj
 0002:0000ee08       $unwind$?UpdateConEmuTabsApi@CPluginAnsi@@UEAA_NH@Z 0000000180041e08     ConEmuPluginA.obj
 0002:0000ee30       $unwind$?CallGuiMacroDlg@@YA_JPEAXHH_J@Z 0000000180041e30     ConEmuPluginA.obj
 0002:0000ee4c       $unwind$?CallGuiMacroProc@@YAXXZ 0000000180041e4c     ConEmuPluginA.obj
 0002:0000ee6c       $unwind$?InitRootRegKey@CPluginBase@@IEAAXXZ 0000000180041e6c     ConEmuPluginBase.obj
 0002:0000ee8c       $cppxdata$?InitRootRegKey@CPluginBase@@IEAAXXZ 0000000180041e8c     ConEmuPluginBase.obj
 0002:0000ee95       $ip2state$?InitRootRegKey@CPluginBase@@IEAAXXZ 0000000180041e95     ConEmuPluginBase.obj
 0002:0000eea4       $unwind$?DllMain_ProcessAttach@CPluginBase@@KAXPEAUHINSTANCE__@@@Z 0000000180041ea4     ConEmuPluginBase.obj
 0002:0000eeb4       $cppxdata$?DllMain_ProcessAttach@CPluginBase@@KAXPEAUHINSTANCE__@@@Z 0000000180041eb4     ConEmuPluginBase.obj
 0002:0000eebd       $stateUnwindMap$?DllMain_ProcessAttach@CPluginBase@@KAXPEAUHINSTANCE__@@@Z 0000000180041ebd     ConEmuPluginBase.obj
 0002:0000eec8       $ip2state$?DllMain_ProcessAttach@CPluginBase@@KAXPEAUHINSTANCE__@@@Z 0000000180041ec8     ConEmuPluginBase.obj
 0002:0000eed4       $unwind$?DllCheckUnique@CPluginBase@@KA_N_N@Z 0000000180041ed4     ConEmuPluginBase.obj
 0002:0000ef00       $cppxdata$?DllCheckUnique@CPluginBase@@KA_N_N@Z 0000000180041f00     ConEmuPluginBase.obj
 0002:0000ef09       $stateUnwindMap$?DllCheckUnique@CPluginBase@@KA_N_N@Z 0000000180041f09     ConEmuPluginBase.obj
 0002:0000ef16       $ip2state$?DllCheckUnique@CPluginBase@@KA_N_N@Z 0000000180041f16     ConEmuPluginBase.obj
 0002:0000ef24       $unwind$?ShowProtocolWarning@CPluginBase@@KAXXZ 0000000180041f24     ConEmuPluginBase.obj
 0002:0000ef3c       $cppxdata$?ShowProtocolWarning@CPluginBase@@KAXXZ 0000000180041f3c     ConEmuPluginBase.obj
 0002:0000ef45       $ip2state$?ShowProtocolWarning@CPluginBase@@KAXXZ 0000000180041f45     ConEmuPluginBase.obj
 0002:0000ef50       $unwind$?ShowMessageBox@CPluginBase@@KAHPEB_WI@Z 0000000180041f50     ConEmuPluginBase.obj
 0002:0000ef6c       $unwind$?ShowMessageGui@CPluginBase@@QEAAHHH@Z 0000000180041f6c     ConEmuPluginBase.obj
 0002:0000ef84       $unwind$?UpdatePanelDirs@CPluginBase@@QEAAXXZ 0000000180041f84     ConEmuPluginBase.obj
 0002:0000efa4       $unwind$?StorePanelDirs@CPluginBase@@QEAA_NPEB_W0@Z 0000000180041fa4     ConEmuPluginBase.obj
 0002:0000efa4       $unwind$?try_get_function@@YAPEAXW4function_id@?A0x6b2bd6b2@@QEBDQEBW4module_id@2@2@Z 0000000180041fa4     libvcruntime:winapi_downlevel.obj
 0002:0000efa4       $unwind$?try_get_function@@YAPEAXW4function_id@?A0x391cf84c@@QEBDQEBW4module_id@2@2@Z 0000000180041fa4     libucrt:winapi_thunks.obj
 0002:0000efc0       $unwind$?RunExternalProgram@CPluginBase@@QEAA_NPEA_W@Z 0000000180041fc0     ConEmuPluginBase.obj
 0002:0000efe0       $cppxdata$?RunExternalProgram@CPluginBase@@QEAA_NPEA_W@Z 0000000180041fe0     ConEmuPluginBase.obj
 0002:0000efe9       $stateUnwindMap$?RunExternalProgram@CPluginBase@@QEAA_NPEA_W@Z 0000000180041fe9     ConEmuPluginBase.obj
 0002:0000effc       $ip2state$?RunExternalProgram@CPluginBase@@QEAA_NPEA_W@Z 0000000180041ffc     ConEmuPluginBase.obj
 0002:0000f008       $unwind$?ShowPluginMenu@CPluginBase@@QEAAXW4PluginCallCommands@@@Z 0000000180042008     ConEmuPluginBase.obj
 0002:0000f028       $unwind$?ShowConsoleInfo@CPluginBase@@QEAAXXZ 0000000180042028     ConEmuPluginBase.obj
 0002:0000f050       $unwind$?StartDebugger@CPluginBase@@QEAA_NXZ 0000000180042050     ConEmuPluginBase.obj
 0002:0000f074       $unwind$?Attach2Gui@CPluginBase@@QEAA_N_N@Z 0000000180042074     ConEmuPluginBase.obj
 0002:0000f098       $unwind$?FindServerCmd@CPluginBase@@QEAA_NKAEAK_N@Z 0000000180042098     ConEmuPluginBase.obj
 0002:0000f0b4       $unwind$?ShowMessage@CPluginBase@@QEAAHHH@Z 00000001800420b4     ConEmuPluginBase.obj
 0002:0000f0cc       $unwind$?UpdateConEmuTabs@CPluginBase@@QEAA_N_N@Z 00000001800420cc     ConEmuPluginBase.obj
 0002:0000f0f0       $cppxdata$?UpdateConEmuTabs@CPluginBase@@QEAA_N_N@Z 00000001800420f0     ConEmuPluginBase.obj
 0002:0000f0f9       $stateUnwindMap$?UpdateConEmuTabs@CPluginBase@@QEAA_N_N@Z 00000001800420f9     ConEmuPluginBase.obj
 0002:0000f100       $ip2state$?UpdateConEmuTabs@CPluginBase@@QEAA_N_N@Z 0000000180042100     ConEmuPluginBase.obj
 0002:0000f108       $unwind$?CheckResources@CPluginBase@@QEAAX_N@Z 0000000180042108     ConEmuPluginBase.obj
 0002:0000f124       $unwind$?InitResources@CPluginBase@@QEAAXXZ 0000000180042124     ConEmuPluginBase.obj
 0002:0000f148       $unwind$?OpenPluginCommon@CPluginBase@@QEAAPEAXH_J_N@Z 0000000180042148     ConEmuPluginBase.obj
 0002:0000f160       $unwind$?ProcessSetWindowCommand@CPluginBase@@QEAAXXZ 0000000180042160     ConEmuPluginBase.obj
 0002:0000f174       $unwind$?CommonPluginStartup@CPluginBase@@QEAAXXZ 0000000180042174     ConEmuPluginBase.obj
 0002:0000f188       $unwind$?ProcessCommand@CPluginBase@@QEAA_NKHPEAXPEAPEAUCESERVER_REQ@@_N@Z 0000000180042188     ConEmuPluginBase.obj
 0002:0000f1ac       $cppxdata$?ProcessCommand@CPluginBase@@QEAA_NKHPEAXPEAPEAUCESERVER_REQ@@_N@Z 00000001800421ac     ConEmuPluginBase.obj
 0002:0000f1b5       $stateUnwindMap$?ProcessCommand@CPluginBase@@QEAA_NKHPEAXPEAPEAUCESERVER_REQ@@_N@Z 00000001800421b5     ConEmuPluginBase.obj
 0002:0000f1bc       $ip2state$?ProcessCommand@CPluginBase@@QEAA_NKHPEAXPEAPEAUCESERVER_REQ@@_N@Z 00000001800421bc     ConEmuPluginBase.obj
 0002:0000f1c8       $unwind$?FarSetConsoleSize@CPluginBase@@SA_NFF@Z 00000001800421c8     ConEmuPluginBase.obj
 0002:0000f1e4       $unwind$?ReloadFarInfo@CPluginBase@@QEAA_N_N@Z 00000001800421e4     ConEmuPluginBase.obj
 0002:0000f204       $unwind$?FillUpdateBackground@CPluginBase@@QEAAXPEAUPaintBackgroundArg@@@Z 0000000180042204     ConEmuPluginBase.obj
 0002:0000f21c       $unwind$?GetPanelInfo@CPluginBase@@QEAA_NKPEAUBkPanelInfo@@@Z 000000018004221c     ConEmuPluginBase.obj
 0002:0000f234       $unwind$?ProcessDragFrom@CPluginBase@@QEAAXXZ 0000000180042234     ConEmuPluginBase.obj
 0002:0000f25c       $unwind$?ProcessDragTo@CPluginBase@@QEAAXXZ 000000018004225c     ConEmuPluginBase.obj
 0002:0000f280       $unwind$?IsCurrentTabModal@CPluginBase@@QEAA_NXZ 0000000180042280     ConEmuPluginBase.obj
 0002:0000f290       $cppxdata$?IsCurrentTabModal@CPluginBase@@QEAA_NXZ 0000000180042290     ConEmuPluginBase.obj
 0002:0000f299       $stateUnwindMap$?CreateTabs@CPluginBase@@SA_NH@Z 0000000180042299     ConEmuPluginBase.obj
 0002:0000f299       $stateUnwindMap$?IsCurrentTabModal@CPluginBase@@QEAA_NXZ 0000000180042299     ConEmuPluginBase.obj
 0002:0000f299       $stateUnwindMap$?SendTabs@CPluginBase@@SAXH_N@Z 0000000180042299     ConEmuPluginBase.obj
 0002:0000f2a0       $ip2state$?IsCurrentTabModal@CPluginBase@@QEAA_NXZ 00000001800422a0     ConEmuPluginBase.obj
 0002:0000f2a8       $unwind$?ShowTabsList@CPluginBase@@QEAAXXZ 00000001800422a8     ConEmuPluginBase.obj
 0002:0000f2bc       $unwind$?ShowPanelsList@CPluginBase@@QEAAXXZ 00000001800422bc     ConEmuPluginBase.obj
 0002:0000f2d4       $unwind$?EditViewConsoleOutput@CPluginBase@@QEAAX_N@Z 00000001800422d4     ConEmuPluginBase.obj
 0002:0000f2d4       $unwind$?x_ismbbtype_l@@YAHPEAU__crt_locale_pointers@@IHH@Z 00000001800422d4     libucrt:ismbbyte.obj
 0002:0000f2e4       $unwind$?PrintText@CPluginBase@@QEAA_NPEB_W@Z 00000001800422e4     ConEmuPluginBase.obj
 0002:0000f2fc       $unwind$?cmd_OpenEditorLine@CPluginBase@@QEAA_NPEAUCESERVER_REQ_FAREDITOR@@@Z 00000001800422fc     ConEmuPluginBase.obj
 0002:0000f318       $cppxdata$?cmd_OpenEditorLine@CPluginBase@@QEAA_NPEAUCESERVER_REQ_FAREDITOR@@@Z 0000000180042318     ConEmuPluginBase.obj
 0002:0000f321       $stateUnwindMap$?cmd_OpenEditorLine@CPluginBase@@QEAA_NPEAUCESERVER_REQ_FAREDITOR@@@Z 0000000180042321     ConEmuPluginBase.obj
 0002:0000f328       $ip2state$?cmd_OpenEditorLine@CPluginBase@@QEAA_NPEAUCESERVER_REQ_FAREDITOR@@@Z 0000000180042328     ConEmuPluginBase.obj
 0002:0000f330       $unwind$?cmd_RedrawFarCall@CPluginBase@@QEAA_NAEAPEAUCESERVER_REQ@@PEAPEAU2@@Z 0000000180042330     ConEmuPluginBase.obj
 0002:0000f330       $unwind$_invalid_parameter 0000000180042330     libucrt:invalid_parameter.obj
 0002:0000f344       $unwind$?cmd_LeftClickSync@CPluginBase@@QEAAXPEAX@Z 0000000180042344     ConEmuPluginBase.obj
 0002:0000f358       $unwind$?cmd_EMenu@CPluginBase@@QEAAXPEAX@Z 0000000180042358     ConEmuPluginBase.obj
 0002:0000f374       $unwind$?cmd_ExternalCallback@CPluginBase@@QEAA_NPEAX@Z 0000000180042374     ConEmuPluginBase.obj
 0002:0000f384       $unwind$?cmd_ConSetFont@CPluginBase@@QEAAXPEAX@Z 0000000180042384     ConEmuPluginBase.obj
 0002:0000f394       $unwind$?OnPanelViewCallbacks@CPluginBase@@SA_NPEAUHookCallbackArg@@P6AHPEAXPEAU_INPUT_RECORD@@KPEAKPEAH@Z5@Z 0000000180042394     ConEmuPluginBase.obj
 0002:0000f3ac       $unwind$?OnConsoleReadInputPost@CPluginBase@@SAHPEAUHookCallbackArg@@@Z 00000001800423ac     ConEmuPluginBase.obj
 0002:0000f3cc       $unwind$?OnConsoleDetaching@CPluginBase@@SAHPEAUHookCallbackArg@@@Z 00000001800423cc     ConEmuPluginBase.obj
 0002:0000f3dc       $unwind$?OnLibraryLoaded@CPluginBase@@SAXPEAUHINSTANCE__@@@Z 00000001800423dc     ConEmuPluginBase.obj
 0002:0000f3ec       $unwind$?NotifyConEmuUnloaded@CPluginBase@@SAXXZ 00000001800423ec     ConEmuPluginBase.obj
 0002:0000f408       $unwind$?LoadFarVersion@CPluginBase@@SA_NXZ 0000000180042408     ConEmuPluginBase.obj
 0002:0000f420       $unwind$?UngetDummyMouseEvent@CPluginBase@@SA_N_NPEAUHookCallbackArg@@@Z 0000000180042420     ConEmuPluginBase.obj
 0002:0000f434       $unwind$?OnConsolePeekReadInput@CPluginBase@@SAX_N@Z 0000000180042434     ConEmuPluginBase.obj
 0002:0000f44c       $unwind$?WaitPluginActivation@CPluginBase@@SAKKPEAPEAXHK@Z 000000018004244c     ConEmuPluginBase.obj
 0002:0000f468       $unwind$?MonitorThreadProcW@CPluginBase@@SAKPEAX@Z 0000000180042468     ConEmuPluginBase.obj
 0002:0000f490       $cppxdata$?MonitorThreadProcW@CPluginBase@@SAKPEAX@Z 0000000180042490     ConEmuPluginBase.obj
 0002:0000f499       $stateUnwindMap$?MonitorThreadProcW@CPluginBase@@SAKPEAX@Z 0000000180042499     ConEmuPluginBase.obj
 0002:0000f499       $stateUnwindMap$?RegisterSubplugin@CPluginBackground@@QEAAHPEAURegisterBackgroundArg@@@Z 0000000180042499     PluginBackground.obj
 0002:0000f4a0       $ip2state$?MonitorThreadProcW@CPluginBase@@SAKPEAX@Z 00000001800424a0     ConEmuPluginBase.obj
 0002:0000f4ac       $unwind$?CheckConEmuDetached@CPluginBase@@SAXXZ 00000001800424ac     ConEmuPluginBase.obj
 0002:0000f4cc       $cppxdata$?CheckConEmuDetached@CPluginBase@@SAXXZ 00000001800424cc     ConEmuPluginBase.obj
 0002:0000f4d5       $stateUnwindMap$?CheckConEmuDetached@CPluginBase@@SAXXZ 00000001800424d5     ConEmuPluginBase.obj
 0002:0000f4dc       $ip2state$?CheckConEmuDetached@CPluginBase@@SAXXZ 00000001800424dc     ConEmuPluginBase.obj
 0002:0000f4e4       $unwind$?OpenMapHeader@CPluginBase@@SAHXZ 00000001800424e4     ConEmuPluginBase.obj
 0002:0000f4e4       $unwind$?write_stored_string_tchar@?$output_processor@_WV?$string_output_adapter@_W@__crt_stdio_output@@V?$standard_base@_WV?$string_output_adapter@_W@__crt_stdio_output@@@2@@__crt_stdio_output@@AEAA_N_W@Z 00000001800424e4     libucrt:output.obj
 0002:0000f4f8       $unwind$?InitHWND@CPluginBase@@SAXXZ 00000001800424f8     ConEmuPluginBase.obj
 0002:0000f50c       $unwind$?GetMainThreadId@CPluginBase@@SAKXZ 000000018004250c     ConEmuPluginBase.obj
 0002:0000f524       $unwind$?RunExternalProgramW@CPluginBase@@SA_NPEA_W0_N@Z 0000000180042524     ConEmuPluginBase.obj
 0002:0000f544       $cppxdata$?RunExternalProgramW@CPluginBase@@SA_NPEA_W0_N@Z 0000000180042544     ConEmuPluginBase.obj
 0002:0000f54d       $stateUnwindMap$?RunExternalProgramW@CPluginBase@@SA_NPEA_W0_N@Z 000000018004254d     ConEmuPluginBase.obj
 0002:0000f55f       $ip2state$?RunExternalProgramW@CPluginBase@@SA_NPEA_W0_N@Z 000000018004255f     ConEmuPluginBase.obj
 0002:0000f570       $unwind$?CreateTabs@CPluginBase@@SA_NH@Z 0000000180042570     ConEmuPluginBase.obj
 0002:0000f580       $cppxdata$?CreateTabs@CPluginBase@@SA_NH@Z 0000000180042580     ConEmuPluginBase.obj
 0002:0000f589       $ip2state$?CreateTabs@CPluginBase@@SA_NH@Z 0000000180042589     ConEmuPluginBase.obj
 0002:0000f590       $unwind$?AddTab@CPluginBase@@QEAA_NAEAHH_N1HPEB_W2HHHH@Z 0000000180042590     ConEmuPluginBase.obj
 0002:0000f5b4       $unwind$?SendTabs@CPluginBase@@SAXH_N@Z 00000001800425b4     ConEmuPluginBase.obj
 0002:0000f5c8       $cppxdata$?SendTabs@CPluginBase@@SAXH_N@Z 00000001800425c8     ConEmuPluginBase.obj
 0002:0000f5d1       $ip2state$?SendTabs@CPluginBase@@SAXH_N@Z 00000001800425d1     ConEmuPluginBase.obj
 0002:0000f5dc       $unwind$?CloseTabs@CPluginBase@@SAXXZ 00000001800425dc     ConEmuPluginBase.obj
 0002:0000f5ec       $unwind$?ToUnicode@CPluginBase@@SAPEA_WPEBD@Z 00000001800425ec     ConEmuPluginBase.obj
 0002:0000f5fc       $cppxdata$?ToUnicode@CPluginBase@@SAPEA_WPEBD@Z 00000001800425fc     ConEmuPluginBase.obj
 0002:0000f605       $ip2state$?ToUnicode@CPluginBase@@SAPEA_WPEBD@Z 0000000180042605     ConEmuPluginBase.obj
 0002:0000f610       $unwind$?LoadPanelTabsFromRegistry@CPluginBase@@IEAAXXZ 0000000180042610     ConEmuPluginBase.obj
 0002:0000f624       $cppxdata$?LoadPanelTabsFromRegistry@CPluginBase@@IEAAXXZ 0000000180042624     ConEmuPluginBase.obj
 0002:0000f62d       $ip2state$?LoadPanelTabsFromRegistry@CPluginBase@@IEAAXXZ 000000018004262d     ConEmuPluginBase.obj
 0002:0000f638       $unwind$?Plugin@@YAPEAVCPluginBase@@XZ 0000000180042638     ConEmuPluginBase.obj
 0002:0000f648       $cppxdata$?Plugin@@YAPEAVCPluginBase@@XZ 0000000180042648     ConEmuPluginBase.obj
 0002:0000f651       $stateUnwindMap$?Plugin@@YAPEAVCPluginBase@@XZ 0000000180042651     ConEmuPluginBase.obj
 0002:0000f666       $ip2state$?Plugin@@YAPEAVCPluginBase@@XZ 0000000180042666     ConEmuPluginBase.obj
 0002:0000f67c       $unwind$?LoadModuleVersion@@YA_NPEB_WAEAUtagVS_FIXEDFILEINFO@@PEA_W_K@Z 000000018004267c     ConEmuPluginBase.obj
 0002:0000f69c       $unwind$?LoadFarVersion@@YA_NAEAUFarVersion@@AEAY0CAA@_W@Z 000000018004269c     ConEmuPluginBase.obj
 0002:0000f6b8       $unwind$??1MWow64Disable@@QEAA@XZ 00000001800426b8     ConEmuPluginBase.obj
 0002:0000f6c8       $cppxdata$??1MWow64Disable@@QEAA@XZ 00000001800426c8     ConEmuPluginBase.obj
 0002:0000f6cd       $ip2state$??1MWow64Disable@@QEAA@XZ 00000001800426cd     ConEmuPluginBase.obj
 0002:0000f6d0       $unwind$?InternalOpenCreate@?$MFileMapping@UCESERVER_CONSOLE_MAPPING_HDR@@@@IEAAPEAUCESERVER_CONSOLE_MAPPING_HDR@@_N0H@Z 00000001800426d0     ConEmuPluginBase.obj
 0002:0000f6d0       $unwind$?InternalOpenCreate@?$MFileMapping@UPanelViewSetMapping@@@@IEAAPEAUPanelViewSetMapping@@_N0H@Z 00000001800426d0     PluginBackground.obj
 0002:0000f6d0       $unwind$__C_specific_handler 00000001800426d0     libvcruntime:riscchandler.obj
 0002:0000f6d0       $unwind$?InternalOpenCreate@?$MFileMapping@UConEmuGuiMapping@@@@IEAAPEAUConEmuGuiMapping@@_N0H@Z 00000001800426d0     common-kernel64:ConEmuCheck.obj
 0002:0000f6ec       $unwind$?LoadThSet@CPluginBackground@@IEAAHH@Z 00000001800426ec     PluginBackground.obj
 0002:0000f718       $cppxdata$?LoadThSet@CPluginBackground@@IEAAHH@Z 0000000180042718     PluginBackground.obj
 0002:0000f721       $stateUnwindMap$?LoadThSet@CPluginBackground@@IEAAHH@Z 0000000180042721     PluginBackground.obj
 0002:0000f728       $ip2state$?LoadThSet@CPluginBackground@@IEAAHH@Z 0000000180042728     PluginBackground.obj
 0002:0000f730       $unwind$?UpdateBackground@CPluginBackground@@IEAAXXZ 0000000180042730     PluginBackground.obj
 0002:0000f75c       $cppxdata$?UpdateBackground@CPluginBackground@@IEAAXXZ 000000018004275c     PluginBackground.obj
 0002:0000f765       $stateUnwindMap$?UpdateBackground@CPluginBackground@@IEAAXXZ 0000000180042765     PluginBackground.obj
 0002:0000f76c       $ip2state$?UpdateBackground@CPluginBackground@@IEAAXXZ 000000018004276c     PluginBackground.obj
 0002:0000f778       $unwind$??0CPluginBackground@@QEAA@XZ 0000000180042778     PluginBackground.obj
 0002:0000f794       $cppxdata$??0CPluginBackground@@QEAA@XZ 0000000180042794     PluginBackground.obj
 0002:0000f79d       $stateUnwindMap$??0CPluginBackground@@QEAA@XZ 000000018004279d     PluginBackground.obj
 0002:0000f7a3       $ip2state$??0CPluginBackground@@QEAA@XZ 00000001800427a3     PluginBackground.obj
 0002:0000f7ac       $unwind$??1CPluginBackground@@QEAA@XZ 00000001800427ac     PluginBackground.obj
 0002:0000f7c4       $cppxdata$??1CPluginBackground@@QEAA@XZ 00000001800427c4     PluginBackground.obj
 0002:0000f7c9       $ip2state$??1CPluginBackground@@QEAA@XZ 00000001800427c9     PluginBackground.obj
 0002:0000f7cc       $unwind$?RegisterSubplugin@CPluginBackground@@QEAAHPEAURegisterBackgroundArg@@@Z 00000001800427cc     PluginBackground.obj
 0002:0000f7e8       $cppxdata$?RegisterSubplugin@CPluginBackground@@QEAAHPEAURegisterBackgroundArg@@@Z 00000001800427e8     PluginBackground.obj
 0002:0000f7f1       $ip2state$?RegisterSubplugin@CPluginBackground@@QEAAHPEAURegisterBackgroundArg@@@Z 00000001800427f1     PluginBackground.obj
 0002:0000f7fc       $unwind$?GetTo@?$MFileMapping@UPanelViewSetMapping@@@@QEAA_NPEAUPanelViewSetMapping@@H@Z 00000001800427fc     PluginBackground.obj
 0002:0000f81c       $unwind$?PlugServerStart@@YA_NXZ 000000018004281c     PluginSrv.obj
 0002:0000f824       $unwind$?PlugServerCommand@@YAHPEAXPEAUCESERVER_REQ@@AEAPEAU1@AEAK3_J@Z 0000000180042824     PluginSrv.obj
 0002:0000f848       $cppxdata$?PlugServerCommand@@YAHPEAXPEAUCESERVER_REQ@@AEAPEAU1@AEAK3_J@Z 0000000180042848     PluginSrv.obj
 0002:0000f851       $stateUnwindMap$?PlugServerCommand@@YAHPEAXPEAUCESERVER_REQ@@AEAPEAU1@AEAK3_J@Z 0000000180042851     PluginSrv.obj
 0002:0000f85e       $ip2state$?PlugServerCommand@@YAHPEAXPEAUCESERVER_REQ@@AEAPEAU1@AEAK3_J@Z 000000018004285e     PluginSrv.obj
 0002:0000f86c       $unwind$?PlugServerFree@@YAXPEAUCESERVER_REQ@@_J@Z 000000018004286c     PluginSrv.obj
 0002:0000f86c       $unwind$_putwch_nolock     000000018004286c     libucrt:putwch.obj
 0002:0000f874       $unwind$?DumpError@?$PipeServer@UCESERVER_REQ@@@@IEAAXPEAUPipeInst@1@PEB_WH@Z 0000000180042874     PluginSrv.obj
 0002:0000f890       $unwind$?PipeServerRead@?$PipeServer@UCESERVER_REQ@@@@IEAAHPEAUPipeInst@1@@Z 0000000180042890     PluginSrv.obj
 0002:0000f8b4       $unwind$?PipeServerWrite@?$PipeServer@UCESERVER_REQ@@@@IEAAHPEAUPipeInst@1@PEBXKPEAKH@Z 00000001800428b4     PluginSrv.obj
 0002:0000f8d0       $unwind$?WaitForClient@?$PipeServer@UCESERVER_REQ@@@@IEAA_NPEAUPipeInst@1@AEAH1@Z 00000001800428d0     PluginSrv.obj
 0002:0000f8ec       $unwind$?WriteDummyAnswer@?$PipeServer@UCESERVER_REQ@@@@IEAAHPEAUPipeInst@1@@Z 00000001800428ec     PluginSrv.obj
 0002:0000f900       $unwind$?PipeServerThread@?$PipeServer@UCESERVER_REQ@@@@IEAAKPEAUPipeInst@1@@Z 0000000180042900     PluginSrv.obj
 0002:0000f918       $unwind$?StartPipeInstance@?$PipeServer@UCESERVER_REQ@@@@IEAA_NPEAUPipeInst@1@@Z 0000000180042918     PluginSrv.obj
 0002:0000f930       $unwind$?StartPipeServer@?$PipeServer@UCESERVER_REQ@@@@QEAA_N_NPEB_W_JPEAU_SECURITY_ATTRIBUTES@@P6AHPEAXPEAUCESERVER_REQ@@AEAPEAU3@AEAK72@ZP6AX52@ZP6AH42@ZP6AH42@ZP6AH42@Z@Z 0000000180042930     PluginSrv.obj
 0002:0000f930       $unwind$__GSHandlerCheck_EH4 0000000180042930     LIBCMT:gshandlereh4.obj
 0002:0000f930       $unwind$__GSHandlerCheck_SEH 0000000180042930     LIBCMT:gshandlerseh.obj
 0002:0000f930       $unwind$??$TypeMatchHelper@V__FrameHandler3@@@@YAHPEBU_s_HandlerType@@PEBU_s_CatchableType@@PEBU_s_ThrowInfo@@@Z 0000000180042930     libvcruntime:frame.obj
 0002:0000f930       $unwind$??$TypeMatchHelper@V__FrameHandler4@@@@YAHPEAUHandlerType4@FH4@@PEBU_s_CatchableType@@PEBU_s_ThrowInfo@@@Z 0000000180042930     libvcruntime:frame.obj
 0002:0000f930       $unwind$?initialize_stdio_handles_nolock@@YAXXZ 0000000180042930     libucrt:ioinit.obj
 0002:0000f930       $unwind$__acrt_initialize_stdio 0000000180042930     libucrt:_file.obj
 0002:0000f930       $unwind$?process@?$output_processor@_WV?$string_output_adapter@_W@__crt_stdio_output@@V?$standard_base@_WV?$string_output_adapter@_W@__crt_stdio_output@@@2@@__crt_stdio_output@@QEAAHXZ 0000000180042930     libucrt:output.obj
 0002:0000f930       $unwind$?type_case_integer@?$output_processor@DV?$string_output_adapter@D@__crt_stdio_output@@V?$standard_base@DV?$string_output_adapter@D@__crt_stdio_output@@@2@@__crt_stdio_output@@AEAA_NI_N@Z 0000000180042930     libucrt:output.obj
 0002:0000f930       $unwind$?type_case_integer@?$output_processor@_WV?$string_output_adapter@_W@__crt_stdio_output@@V?$standard_base@_WV?$string_output_adapter@_W@__crt_stdio_output@@@2@@__crt_stdio_output@@AEAA_NI_N@Z 0000000180042930     libucrt:output.obj
 0002:0000f930       $unwind$?ExecuteNewCmd@@YA_NAEAPEAUCESERVER_REQ@@AEAKK_K@Z 0000000180042930     common-kernel64:ConEmuCheck.obj
 0002:0000f930       $unwind$?WaitUnlocked@MSection@@IEAAXKK@Z 0000000180042930     common-kernel64:MSection.obj
 0002:0000f948       $unwind$?GetConEmuHWND@@YAPEAUHWND__@@W4ConEmuWndType@@@Z 0000000180042948     common-kernel64:ConEmuCheck.obj
 0002:0000f95c       $unwind$?GetConEmuWindows@@YA?AUConEmuWindows@@PEAUHWND__@@@Z 000000018004295c     common-kernel64:ConEmuCheck.obj
 0002:0000f97c       $unwind$?GetConEmuWindowsFromEnv@@YA?AUConEmuWindows@@XZ 000000018004297c     common-kernel64:ConEmuCheck.obj
 0002:0000f9a0       $unwind$?myGetConsoleWindow@@YAPEAUHWND__@@XZ 00000001800429a0     common-kernel64:ConEmuCheck.obj
 0002:0000f9ac       $unwind$?IsConsoleWindow@@YA_NPEAUHWND__@@@Z 00000001800429ac     common-kernel64:ConEmuCheck.obj
 0002:0000f9c4       $unwind$?IsPseudoConsoleWindow@@YA_NPEAUHWND__@@@Z 00000001800429c4     common-kernel64:ConEmuCheck.obj
 0002:0000f9d8       $unwind$?GuiMessageBox@@YAHPEAUHWND__@@PEB_W1H@Z 00000001800429d8     common-kernel64:ConEmuCheck.obj
 0002:0000f9f8       $unwind$?ExecuteOpenPipe@@YAPEAXPEB_WAEAY0CAI@_W0KKHPEAXH@Z 00000001800429f8     common-kernel64:ConEmuCheck.obj
 0002:0000fa10       $unwind$__scrt_dllmain_exception_filter 0000000180042a10     LIBCMT:utility.obj
 0002:0000fa10       $unwind$?Is_bad_exception_allowed@@YAEPEBU_s_ESTypeList@@@Z 0000000180042a10     libvcruntime:frame.obj
 0002:0000fa10       $unwind$_ischartype_l      0000000180042a10     libucrt:strtox.obj
 0002:0000fa10       $unwind$_recalloc_base     0000000180042a10     libucrt:recalloc.obj
 0002:0000fa10       $unwind$__acrt_free_locale 0000000180042a10     libucrt:locale_refcounting.obj
 0002:0000fa10       $unwind$__acrt_lowio_create_handle_array 0000000180042a10     libucrt:osfinfo.obj
 0002:0000fa10       $unwind$?setSBCS@@YAXPEAU__crt_multibyte_data@@@Z 0000000180042a10     libucrt:mbctype.obj
 0002:0000fa10       $unwind$_seh_filter_exe    0000000180042a10     libucrt:exception_filter.obj
 0002:0000fa10       $unwind$_initterm          0000000180042a10     libucrt:initterm.obj
 0002:0000fa10       $unwind$??$ensure_buffer_is_big_enough@D@formatting_buffer@__crt_stdio_output@@QEAA_N_K@Z 0000000180042a10     libucrt:output.obj
 0002:0000fa10       $unwind$??$ensure_buffer_is_big_enough@_W@formatting_buffer@__crt_stdio_output@@QEAA_N_K@Z 0000000180042a10     libucrt:output.obj
 0002:0000fa10       $unwind$?Set@CEStr@@QEAAPEB_WPEB_W_J@Z 0000000180042a10     common-kernel64:CEStr.obj
 0002:0000fa10       $unwind$?SetAt@CEStr@@QEAA_W_J_W@Z 0000000180042a10     common-kernel64:CEStr.obj
 0002:0000fa10       $unwind$?ExecuteNewCmd@@YAPEAUCESERVER_REQ@@K_K@Z 0000000180042a10     common-kernel64:ConEmuCheck.obj
 0002:0000fa10       $unwind$?Init@HkFunc@@QEAA_NPEB_WPEAUHINSTANCE__@@@Z 0000000180042a10     common-kernel64:HkFunc.obj
 0002:0000fa10       $unwind$?AddRef@MSection@@IEAAXK@Z 0000000180042a10     common-kernel64:MSection.obj
 0002:0000fa10       $unwind$?Lock@MSection@@IEAAHHK@Z 0000000180042a10     common-kernel64:MSection.obj
 0002:0000fa10       $unwind$?ReleaseRef@MSection@@IEAAHK@Z 0000000180042a10     common-kernel64:MSection.obj
 0002:0000fa10       $unwind$?lstrdup@@YA?AUCEStr@@PEB_W_K@Z 0000000180042a10     common-kernel64:MStrDup.obj
 0002:0000fa10       $unwind$?IsModuleValid@@YA_NPEAUHINSTANCE__@@H@Z 0000000180042a10     common-kernel64:WModuleCheck.obj
 0002:0000fa24       $unwind$??$free_environment@D@@YAXQEAPEAD@Z 0000000180042a24     libucrt:environment_initialization.obj
 0002:0000fa24       $unwind$??$free_environment@_W@@YAXQEAPEA_W@Z 0000000180042a24     libucrt:environment_initialization.obj
 0002:0000fa24       $unwind$?SetCommand@CESERVER_REQ_NEWCMD@@QEAAXPEB_W@Z 0000000180042a24     common-kernel64:Common.obj
 0002:0000fa24       $unwind$?ExecutePrepareCmd@@YAXPEAUCESERVER_REQ@@K_K@Z 0000000180042a24     common-kernel64:ConEmuCheck.obj
 0002:0000fa24       $unwind$?ExecutePrepareCmd@@YAXPEAUCESERVER_REQ_HDR@@K_K@Z 0000000180042a24     common-kernel64:ConEmuCheck.obj
 0002:0000fa30       $unwind$?ExecuteGuiCmd@@YAPEAUCESERVER_REQ@@PEAUHWND__@@PEAU1@0H@Z 0000000180042a30     common-kernel64:ConEmuCheck.obj
 0002:0000fa50       $unwind$?ExecuteSrvCmd@@YAPEAUCESERVER_REQ@@KPEAU1@PEAUHWND__@@HKH@Z 0000000180042a50     common-kernel64:ConEmuCheck.obj
 0002:0000fa74       $unwind$?ExecuteCmd@@YAPEAUCESERVER_REQ@@PEB_WPEAU1@KPEAUHWND__@@HKH@Z 0000000180042a74     common-kernel64:ConEmuCheck.obj
 0002:0000fa98       $unwind$?LoadGuiMapping@@YAHKAEAUConEmuGuiMapping@@@Z 0000000180042a98     common-kernel64:ConEmuCheck.obj
 0002:0000fa98       $unwind$?LoadSrvMapping@@YAHPEAUHWND__@@AEAUCESERVER_CONSOLE_MAPPING_HDR@@@Z 0000000180042a98     common-kernel64:ConEmuCheck.obj
 0002:0000fab8       $unwind$?ModuleName@@YAPEB_WPEB_W@Z 0000000180042ab8     common-kernel64:ConEmuCheck.obj
 0002:0000facc       $unwind$?sprintf_c@@YAHPEAD_JPEBDZZ 0000000180042acc     common-kernel64:MStrSafe.obj
 0002:0000facc       $unwind$?swprintf_c@@YAHPEA_W_JPEB_WZZ 0000000180042acc     common-kernel64:MStrSafe.obj
 0002:0000fad8       $unwind$?msprintf@@YAPEB_WPEA_W_KPEB_WZZ 0000000180042ad8     common-kernel64:MStrSafe.obj
 0002:0000fae0       $unwind$?mvsprintf@@YAPEB_WPEA_W_KPEB_WPEAD@Z 0000000180042ae0     common-kernel64:MStrSafe.obj
 0002:0000fb00       $unwind$?lstrcmpni@@YAHPEB_W0H@Z 0000000180042b00     common-kernel64:MStrSafe.obj
 0002:0000fb1c       $unwind$??0CEStr@@QEAA@PEB_W00000000@Z 0000000180042b1c     common-kernel64:CEStr.obj
 0002:0000fb3c       $unwind$__std_exception_copy 0000000180042b3c     libvcruntime:std_exception.obj
 0002:0000fb3c       $unwind$_free_osfhnd       0000000180042b3c     libucrt:osfinfo.obj
 0002:0000fb3c       $unwind$?GetBuffer@CEStr@@QEAAPEA_W_J@Z 0000000180042b3c     common-kernel64:CEStr.obj
 0002:0000fb50       $unwind$?Append@CEStr@@QEAAPEB_WPEB_W0000000@Z 0000000180042b50     common-kernel64:CEStr.obj
 0002:0000fb58       $unwind$?IsFilePath@@YA_NPEB_W_N@Z 0000000180042b58     common-kernel64:CmdLine.obj
 0002:0000fb70       $unwind$?apiTerminateThreadEx@@YAHPEAXKPEBDH@Z 0000000180042b70     common-kernel64:WThreads.obj
 0002:0000fb8c       $unwind$?SetThreadName@@YAXKPEAD@Z 0000000180042b8c     common-kernel64:WThreads.obj
 0002:0000fbac       $unwind$?apiThreadHelper@@YAKPEAX@Z 0000000180042bac     common-kernel64:WThreads.obj
 0002:0000fbc0       $unwind$?ExpandEnvStr@@YA?AUCEStr@@PEB_W@Z 0000000180042bc0     common-kernel64:EnvVar.obj
 0002:0000fbdc       $unwind$?GetEnvVar@@YA?AUCEStr@@PEB_W@Z 0000000180042bdc     common-kernel64:EnvVar.obj
 0002:0000fbf4       $unwind$?SetEnvStrings@CESERVER_REQ_NEWCMD@@QEAAXPEB_WK@Z 0000000180042bf4     common-kernel64:Common.obj
 0002:0000fc10       $unwind$?LocalSecurity@MNullDesc@@QEAAPEAU_SECURITY_ATTRIBUTES@@XZ 0000000180042c10     common-kernel64:MSecurity.obj
 0002:0000fc2c       $unwind$iswctype           0000000180042c2c     libucrt:iswctype.obj
 0002:0000fc2c       $unwind$?Close@?$MHandleBase@PEAX@@QEAAXXZ 0000000180042c2c     common-kernel64:WObjects.obj
 0002:0000fc38       $unwind$??0MHandle@@QEAA@PEAXV?$function@$$A6AXPEAX@Z@std@@@Z 0000000180042c38     common-kernel64:WObjects.obj
 0002:0000fc48       $unwind$?FileExists@@YA_NPEB_WPEA_K@Z 0000000180042c48     common-kernel64:WObjects.obj
 0002:0000fc6c       $unwind$?IsWinVerOrHigher@@YA_NG@Z 0000000180042c6c     common-kernel64:WObjects.obj
 0002:0000fc80       $unwind$?isTerminalMode@@YA_NXZ 0000000180042c80     common-kernel64:MProcess.obj
 0002:0000fc98       $unwind$__dcrt_lowio_ensure_console_output_initialized 0000000180042c98     libucrt:initcon.obj
 0002:0000fc98       $unwind$_isleadbyte_l      0000000180042c98     libucrt:_wctype.obj
 0002:0000fc98       $unwind$?getSystemCP@@YAHH@Z 0000000180042c98     libucrt:mbctype.obj
 0002:0000fc98       $unwind$?Close@?$MToolHelp@UtagPROCESSENTRY32W@@$1?Process32FirstW@@YAHPEAXPEAU1@@Z$1?Process32NextW@@YAH01@Z@@QEAAXXZ 0000000180042c98     common-kernel64:MProcess.obj
 0002:0000fca0       $unwind$?Find@?$MToolHelp@UtagPROCESSENTRY32W@@$1?Process32FirstW@@YAHPEAXPEAU1@@Z$1?Process32NextW@@YAH01@Z@@QEAA_NAEBV?$function@$$A6A_NAEBUtagPROCESSENTRY32W@@@Z@std@@AEAUtagPROCESSENTRY32W@@@Z 0000000180042ca0     common-kernel64:MProcess.obj
 0002:0000fcb8       $unwind$?Find@MToolHelpProcess@@QEAA_NKAEAUtagPROCESSENTRY32W@@@Z 0000000180042cb8     common-kernel64:MProcess.obj
 0002:0000fcc8       $unwind$??$_Emplace_reallocate@AEBUtagPROCESSENTRY32W@@@?$vector@UtagPROCESSENTRY32W@@V?$MArrayAllocator@UtagPROCESSENTRY32W@@@@@std@@QEAAPEAUtagPROCESSENTRY32W@@QEAU2@AEBU2@@Z 0000000180042cc8     common-kernel64:MProcess.obj
 0002:0000fce4       $unwind$?should_round_up@@YA_NQEBN_KFW4__acrt_rounding_mode@@@Z 0000000180042ce4     libucrt:cvt.obj
 0002:0000fce4       $unwind$??$parse_command_line@D@@YAXPEADPEAPEAD0PEA_K2@Z 0000000180042ce4     libucrt:argv_parsing.obj
 0002:0000fce4       $unwind$?MyEnterCriticalSection@MSection@@IEAA_NK@Z 0000000180042ce4     common-kernel64:MSection.obj
 0002:0000fce4       $unwind$?CheckCallbackPtr@@YA_NPEAUHINSTANCE__@@_KPEAP6A_JXZHHH@Z 0000000180042ce4     common-kernel64:WModuleCheck.obj
 0002:0000fd00       $unwind$?RecreateAndLock@MSectionSimple@@QEAA_NXZ 0000000180042d00     common-kernel64:MSectionSimple.obj
 0002:0000fd08       $unwind$?SetConEmuEnvVar@@YAXPEAUHWND__@@@Z 0000000180042d08     common-user64:SetEnvVar.obj
 0002:0000fd18       $unwind$?SetConEmuEnvHWND@@YAXPEB_WPEAUHWND__@@@Z 0000000180042d18     common-user64:SetEnvVar.obj
 0002:0000fd28       $unwind$?FindConEmuBaseDir@@YAHAEAY0BAF@_W0PEAUHINSTANCE__@@@Z 0000000180042d28     common-user64:ConEmuCheckEx.obj
 0002:0000fd50       $cppxdata$?FindConEmuBaseDir@@YAHAEAY0BAF@_W0PEAUHINSTANCE__@@@Z 0000000180042d50     common-user64:ConEmuCheckEx.obj
 0002:0000fd59       $stateUnwindMap$?FindConEmuBaseDir@@YAHAEAY0BAF@_W0PEAUHINSTANCE__@@@Z 0000000180042d59     common-user64:ConEmuCheckEx.obj
 0002:0000fd66       $ip2state$?FindConEmuBaseDir@@YAHAEAY0BAF@_W0PEAUHINSTANCE__@@@Z 0000000180042d66     common-user64:ConEmuCheckEx.obj
 0002:0000fd74       $unwind$?EvaluateDefaultFontWidth@@YAHHPEB_W@Z 0000000180042d74     common-user64:EmergencyShow.obj
 0002:0000fd90       $unwind$?SetUserFriendlyFont@@YAXPEAUHWND__@@HH@Z 0000000180042d90     common-user64:EmergencyShow.obj
 0002:0000fdb4       $unwind$?CorrectConsolePos@@YAXPEAUHWND__@@@Z 0000000180042db4     common-user64:EmergencyShow.obj
 0002:0000fdcc       $unwind$?EmergencyShow@@YAXPEAUHWND__@@HH@Z 0000000180042dcc     common-user64:EmergencyShow.obj
 0002:0000fde8       $unwind$?SearchAppPaths@@YA_NPEB_WAEAUCEStr@@_NPEAVCEnvRestorer@@@Z 0000000180042de8     common-user64:WFiles.obj
 0002:0000fe10       $cppxdata$?SearchAppPaths@@YA_NPEB_WAEAUCEStr@@_NPEAVCEnvRestorer@@@Z 0000000180042e10     common-user64:WFiles.obj
 0002:0000fe19       $stateUnwindMap$?SearchAppPaths@@YA_NPEB_WAEAUCEStr@@_NPEAVCEnvRestorer@@@Z 0000000180042e19     common-user64:WFiles.obj
 0002:0000fe3c       $ip2state$?SearchAppPaths@@YA_NPEB_WAEAUCEStr@@_NPEAVCEnvRestorer@@@Z 0000000180042e3c     common-user64:WFiles.obj
 0002:0000fe54       $unwind$?SetConsoleInfo@@YAHPEAUHWND__@@PEAUCONSOLE_INFO@@@Z 0000000180042e54     common-user64:WConsoleEx.obj
 0002:0000fe70       $unwind$?GetConsoleSizeInfo@@YAXPEAUCONSOLE_INFO@@@Z 0000000180042e70     common-user64:WConsoleEx.obj
 0002:0000fe80       $unwind$?SetConsoleFontSizeTo@@YAXPEAUHWND__@@HHPEB_WGG@Z 0000000180042e80     common-user64:WConsoleEx.obj
 0002:0000fea0       $unwind$?UpdateComspec@@YAXPEAUConEmuComspec@@_N@Z 0000000180042ea0     common-user64:WUser.obj
 0002:0000fec8       $cppxdata$?UpdateComspec@@YAXPEAUConEmuComspec@@_N@Z 0000000180042ec8     common-user64:WUser.obj
 0002:0000fed1       $stateUnwindMap$?UpdateComspec@@YAXPEAUConEmuComspec@@_N@Z 0000000180042ed1     common-user64:WUser.obj
 0002:0000feeb       $ip2state$?UpdateComspec@@YAXPEAUConEmuComspec@@_N@Z 0000000180042eeb     common-user64:WUser.obj
 0002:0000fefc       $unwind$?write_string@?$string_output_adapter@D@__crt_stdio_output@@QEBAXQEBDHQEAHAEAV__crt_deferred_errno_cache@@@Z 0000000180042efc     libucrt:output.obj
 0002:0000fefc       $unwind$?SetEnvVarExpanded@@YAXPEB_W0@Z 0000000180042efc     common-user64:WUser.obj
 0002:0000ff14       $unwind$?RegGetStringValue@@YAHPEAUHKEY__@@PEB_W1AEAUCEStr@@K@Z 0000000180042f14     common-user64:WRegistry.obj
 0002:0000ff30       $xdatasym                  0000000180042f30     LIBCMT:amdsecgs.obj
 0002:0000ff38       $xdatasym                  0000000180042f38     LIBCMT:chkstk.obj
 0002:0000ff40       $unwind$?dllmain_crt_process_attach@@YAHQEAUHINSTANCE__@@QEAX@Z 0000000180042f40     LIBCMT:dll_dllmain.obj
 0002:0000ff7c       $unwind$?dllmain_crt_process_detach@@YAH_N@Z 0000000180042f7c     LIBCMT:dll_dllmain.obj
 0002:0000ffd0       $unwind$?dllmain_dispatch@@YAHQEAUHINSTANCE__@@KQEAX@Z 0000000180042fd0     LIBCMT:dll_dllmain.obj
 0002:0000fff8       $unwind$?filt$0@?0??dllmain_dispatch@@YAHQEAUHINSTANCE__@@KQEAX@Z@4HA 0000000180042ff8     LIBCMT:dll_dllmain.obj
 0002:0000fff8       $unwind$?filt$0@?0??FrameUnwindToState@__FrameHandler4@@SAXPEA_KPEAU_xDISPATCHER_CONTEXT@@PEAUFuncInfo4@FH4@@H@Z@4HA 0000000180042ff8     libvcruntime:frame.obj
 0002:0000fff8       $unwind$?fin$1@?0??FrameUnwindToState@__FrameHandler4@@SAXPEA_KPEAU_xDISPATCHER_CONTEXT@@PEAUFuncInfo4@FH4@@H@Z@4HA 0000000180042ff8     libvcruntime:frame.obj
 0002:00010000       $unwind$__scrt_is_nonwritable_in_current_image 0000000180043000     LIBCMT:utility.obj
 0002:00010020       $unwind$__scrt_is_nonwritable_in_current_image$filt$0 0000000180043020     LIBCMT:utility.obj
 0002:00010028       $unwind$__report_securityfailure 0000000180043028     LIBCMT:gs_report.obj
 0002:00010030       $unwind$__report_gsfailure 0000000180043030     LIBCMT:gs_report.obj
 0002:00010038       $unwind$capture_current_context 0000000180043038     LIBCMT:gs_report.obj
 0002:00010044       $unwind$capture_previous_context 0000000180043044     LIBCMT:gs_report.obj
 0002:00010050       $unwind$__scrt_fastfail    0000000180043050     LIBCMT:utility_desktop.obj
 0002:00010060       $unwind$__security_init_cookie 0000000180043060     LIBCMT:gs_support.obj
 0002:0001006c       $unwind$__isa_available_init 000000018004306c     LIBCMT:cpu_disp.obj
 0002:00010080       $xdatasym                  0000000180043080     LIBCMT:guard_dispatch.obj
 0002:00010088       $xdatasym                  0000000180043088     LIBCMT:guard_xfg_dispatch.obj
 0002:0001008c       $unwind$?DecompFuncInfo@FH4@@YA_JPEAEAEAUFuncInfo4@1@_KH_N@Z 000000018004308c     libvcruntime:risctrnsctrl.obj
 0002:000100a4       $unwind$?UnwindNestedFrames@__FrameHandler4@@SAXPEA_KPEAUEHExceptionRecord@@PEAU_CONTEXT@@0PEAXPEAUFuncInfo4@FH4@@HHPEAUHandlerType4@5@PEAU_xDISPATCHER_CONTEXT@@E@Z 00000001800430a4     libvcruntime:risctrnsctrl.obj
 0002:000100b8       $unwind$?GetRangeOfTrysToCheck@__FrameHandler4@@SA?AU?$pair@Viterator@TryBlockMap4@FH4@@V123@@std@@AEAVTryBlockMap4@FH4@@HPEAU_xDISPATCHER_CONTEXT@@PEAUFuncInfo4@5@H@Z 00000001800430b8     libvcruntime:risctrnsctrl.obj
 0002:000100d4       $unwind$__CxxFrameHandler4 00000001800430d4     libvcruntime:risctrnsctrl.obj
 0002:000100e8       $unwind$??$_CallSETranslator@V__FrameHandler4@@@@YAHPEAUEHExceptionRecord@@PEA_KPEAU_CONTEXT@@PEAU_xDISPATCHER_CONTEXT@@PEAUFuncInfo4@FH4@@K1H@Z 00000001800430e8     libvcruntime:risctrnsctrl.obj
 0002:00010108       $unwind$?filt$0@?0???$_CallSETranslator@V__FrameHandler4@@@@YAHPEAUEHExceptionRecord@@PEA_KPEAU_CONTEXT@@PEAU_xDISPATCHER_CONTEXT@@PEAUFuncInfo4@FH4@@K1H@Z@4HA 0000000180043108     libvcruntime:risctrnsctrl.obj
 0002:00010118       $xdatasym                  0000000180043118     libvcruntime:memcpy.obj
 0002:00010128       $unwind$wcsstr             0000000180043128     libvcruntime:wcsstr.obj
 0002:00010140       $xdatasym                  0000000180043140     libvcruntime:memset.obj
 0002:00010150       $unwind$__DestructExceptionObject 0000000180043150     libvcruntime:ehhelpers.obj
 0002:00010170       $unwind$__DestructExceptionObject$filt$0 0000000180043170     libvcruntime:ehhelpers.obj
 0002:00010170       $unwind$?fin$1@?0??CxxCallCatchBlock@__FrameHandler4@@SAPEAXPEAU_EXCEPTION_RECORD@@@Z@4HA 0000000180043170     libvcruntime:frame.obj
 0002:0001017c       $unwind$_CxxThrowException 000000018004317c     libvcruntime:throw.obj
 0002:00010190       $xdatasym                  0000000180043190     libvcruntime:memcmp.obj
 0002:00010194       $unwind$?StateFromIp@__FrameHandler4@@SAHPEAUFuncInfo4@FH4@@PEAU_xDISPATCHER_CONTEXT@@_K@Z 0000000180043194     libvcruntime:ehstate.obj
 0002:000101a8       $unwind$?getStartStop@UWMap4@FH4@@QEAAXHHAEAViterator@12@0@Z 00000001800431a8     libvcruntime:frame.obj
 0002:000101c0       $unwind$?FrameUnwindToState@__FrameHandler4@@SAXPEA_KPEAU_xDISPATCHER_CONTEXT@@PEAUFuncInfo4@FH4@@H@Z 00000001800431c0     libvcruntime:frame.obj
 0002:00010208       $unwind$?CxxCallCatchBlock@__FrameHandler4@@SAPEAXPEAU_EXCEPTION_RECORD@@@Z 0000000180043208     libvcruntime:frame.obj
 0002:00010264       $unwind$?IsInExceptionSpec@@YAEPEAUEHExceptionRecord@@PEBU_s_ESTypeList@@@Z 0000000180043264     libvcruntime:frame.obj
 0002:00010280       $unwind$??$__InternalCxxFrameHandler@V__FrameHandler4@@@@YA?AW4_EXCEPTION_DISPOSITION@@PEAUEHExceptionRecord@@PEA_KPEAU_CONTEXT@@PEAU_xDISPATCHER_CONTEXT@@PEAUFuncInfo4@FH4@@H1E@Z 0000000180043280     libvcruntime:frame.obj
 0002:00010298       $unwind$??$BuildCatchObjectHelperInternal@V__FrameHandler4@@@@YAHPEAUEHExceptionRecord@@PEAXPEAUHandlerType4@FH4@@PEBU_s_CatchableType@@@Z 0000000180043298     libvcruntime:frame.obj
 0002:000102d8       $unwind$??$BuildCatchObjectInternal@V__FrameHandler4@@@@YAXPEAUEHExceptionRecord@@PEAXPEAUHandlerType4@FH4@@PEBU_s_CatchableType@@@Z 00000001800432d8     libvcruntime:frame.obj
 0002:00010304       $unwind$??$FindHandler@V__FrameHandler4@@@@YAXPEAUEHExceptionRecord@@PEA_KPEAU_CONTEXT@@PEAU_xDISPATCHER_CONTEXT@@PEAUFuncInfo4@FH4@@EH1@Z 0000000180043304     libvcruntime:frame.obj
 0002:00010324       $unwind$??$CatchIt@V__FrameHandler4@@@@YAXPEAUEHExceptionRecord@@PEA_KPEAU_CONTEXT@@PEAU_xDISPATCHER_CONTEXT@@PEAUFuncInfo4@FH4@@PEAUHandlerType4@4@PEBU_s_CatchableType@@PEAUTryBlockMapEntry4@4@H1EE@Z 0000000180043324     libvcruntime:frame.obj
 0002:0001033c       $unwind$??$FindHandlerForForeignException@V__FrameHandler4@@@@YAXPEAUEHExceptionRecord@@PEA_KPEAU_CONTEXT@@PEAU_xDISPATCHER_CONTEXT@@PEAUFuncInfo4@FH4@@HH1@Z 000000018004333c     libvcruntime:frame.obj
 0002:00010360       $xdatasym                  0000000180043360     libvcruntime:notify.obj
 0002:00010370       $xdatasym                  0000000180043370     libvcruntime:handlers.obj
 0002:00010390       $unwind$??$common_vsprintf@Vstandard_base@__crt_stdio_output@@D@@YAH_KQEAD0QEBDQEAU__crt_locale_pointers@@1@Z 0000000180043390     libucrt:output.obj
 0002:00010390       $unwind$??$common_vsprintf@Vstandard_base@__crt_stdio_output@@_W@@YAH_KQEA_W0QEB_WQEAU__crt_locale_pointers@@QEAD@Z 0000000180043390     libucrt:output.obj
 0002:000103b0       $unwind$?process@?$output_processor@DV?$string_output_adapter@D@__crt_stdio_output@@V?$standard_base@DV?$string_output_adapter@D@__crt_stdio_output@@@2@@__crt_stdio_output@@QEAAHXZ 00000001800433b0     libucrt:output.obj
 0002:000103c0       $unwind$?parse_int_from_format_string@?$output_processor@DV?$string_output_adapter@D@__crt_stdio_output@@V?$standard_base@DV?$string_output_adapter@D@__crt_stdio_output@@@2@@__crt_stdio_output@@AEAA_NQEAH@Z 00000001800433c0     libucrt:output.obj
 0002:000103d4       $unwind$?state_case_type@?$output_processor@DV?$string_output_adapter@D@__crt_stdio_output@@V?$standard_base@DV?$string_output_adapter@D@__crt_stdio_output@@@2@@__crt_stdio_output@@AEAA_NXZ 00000001800433d4     libucrt:output.obj
 0002:000103ec       $unwind$?type_case_a@?$output_processor@DV?$string_output_adapter@D@__crt_stdio_output@@V?$standard_base@DV?$string_output_adapter@D@__crt_stdio_output@@@2@@__crt_stdio_output@@AEAA_NXZ 00000001800433ec     libucrt:output.obj
 0002:000103f8       $unwind$?write_stored_string_tchar@?$output_processor@DV?$string_output_adapter@D@__crt_stdio_output@@V?$standard_base@DV?$string_output_adapter@D@__crt_stdio_output@@@2@@__crt_stdio_output@@AEAA_ND@Z 00000001800433f8     libucrt:output.obj
 0002:00010410       $unwind$?write_string@?$string_output_adapter@_W@__crt_stdio_output@@QEBAXQEB_WHQEAHAEAV__crt_deferred_errno_cache@@@Z 0000000180043410     libucrt:output.obj
 0002:00010428       $unwind$?parse_int_from_format_string@?$output_processor@_WV?$string_output_adapter@_W@__crt_stdio_output@@V?$standard_base@_WV?$string_output_adapter@_W@__crt_stdio_output@@@2@@__crt_stdio_output@@AEAA_NQEAH@Z 0000000180043428     libucrt:output.obj
 0002:0001043c       $unwind$?state_case_type@?$output_processor@_WV?$string_output_adapter@_W@__crt_stdio_output@@V?$standard_base@_WV?$string_output_adapter@_W@__crt_stdio_output@@@2@@__crt_stdio_output@@AEAA_NXZ 000000018004343c     libucrt:output.obj
 0002:00010460       $unwind$?type_case_c_tchar@?$output_processor@_WV?$string_output_adapter@_W@__crt_stdio_output@@V?$standard_base@_WV?$string_output_adapter@_W@__crt_stdio_output@@@2@@__crt_stdio_output@@AEAA_N_W@Z 0000000180043460     libucrt:output.obj
 0002:00010470       $unwind$?type_case_a@?$output_processor@_WV?$string_output_adapter@_W@__crt_stdio_output@@V?$standard_base@_WV?$string_output_adapter@_W@__crt_stdio_output@@@2@@__crt_stdio_output@@AEAA_NXZ 0000000180043470     libucrt:output.obj
 0002:00010480       $unwind$??$write_multiple_characters@V?$string_output_adapter@D@__crt_stdio_output@@D@__crt_stdio_output@@YAXAEBV?$string_output_adapter@D@0@DHQEAH@Z 0000000180043480     libucrt:output.obj
 0002:00010480       $unwind$??$write_multiple_characters@V?$string_output_adapter@_W@__crt_stdio_output@@D@__crt_stdio_output@@YAXAEBV?$string_output_adapter@_W@0@DHQEAH@Z 0000000180043480     libucrt:output.obj
 0002:0001048c       $unwind$??$parse_integer@KV?$c_string_character_source@D@__crt_strtox@@@__crt_strtox@@YAKQEAU__crt_locale_pointers@@V?$c_string_character_source@D@0@H_N@Z 000000018004348c     libucrt:strtox.obj
 0002:000104a8       $unwind$??$parse_integer@KV?$c_string_character_source@_W@__crt_strtox@@@__crt_strtox@@YAKQEAU__crt_locale_pointers@@V?$c_string_character_source@_W@0@H_N@Z 00000001800434a8     libucrt:strtox.obj
 0002:000104c0       $unwind$__acrt_call_reportfault 00000001800434c0     libucrt:invalid_parameter.obj
 0002:000104e0       $unwind$?common_exit@@YAXHW4_crt_exit_cleanup_mode@@W4_crt_exit_return_mode@@@Z 00000001800434e0     libucrt:exit.obj
 0002:000104ec       $unwind$??R<lambda_6e4b09c48022b2350581041d5f6b0c4c>@@QEBA@XZ 00000001800434ec     libucrt:exit.obj
 0002:0001050c       $unwind$??$?RV<lambda_d80eeec6fff315bfe5c115232f3240e3>@@AEAV<lambda_6e4b09c48022b2350581041d5f6b0c4c>@@V<lambda_2358e3775559c9db80273638284d5e45>@@@?$__crt_seh_guarded_call@X@@QEAAX$$QEAV<lambda_d80eeec6fff315bfe5c115232f3240e3>@@AEAV<lambda_6e4b09c48022b2350581041d5f6b0c4c>@@$$QEAV<lambda_2358e3775559c9db80273638284d5e45>@@@Z 000000018004350c     libucrt:exit.obj
 0002:00010530       $unwind$_configure_narrow_argv 0000000180043530     libucrt:argv_parsing.obj
 0002:00010544       $unwind$_register_onexit_function 0000000180043544     libucrt:onexit.obj
 0002:0001054c       $unwind$_execute_onexit_table 000000018004354c     libucrt:onexit.obj
 0002:00010554       $unwind$??R<lambda_22ebabd17bc4fa466a2aca6d8deb888d>@@QEBAHXZ 0000000180043554     libucrt:onexit.obj
 0002:0001056c       $unwind$__acrt_fp_strflt_to_string 000000018004356c     libucrt:_fptostr.obj
 0002:0001056c       $unwind$__acrt_DownlevelLocaleNameToLCID 000000018004356c     libucrt:lcidtoname_downlevel.obj
 0002:0001056c       $unwind$??R<lambda_f03950bc5685219e0bcd2087efbe011e>@@QEBAHXZ 000000018004356c     libucrt:onexit.obj
 0002:00010584       $unwind$??$?RV<lambda_638799b9deba96c50f710eeac98168cd>@@AEAV<lambda_22ebabd17bc4fa466a2aca6d8deb888d>@@V<lambda_a6f7d7db0129f75315ebf26d50c089f1>@@@?$__crt_seh_guarded_call@H@@QEAAH$$QEAV<lambda_638799b9deba96c50f710eeac98168cd>@@AEAV<lambda_22ebabd17bc4fa466a2aca6d8deb888d>@@$$QEAV<lambda_a6f7d7db0129f75315ebf26d50c089f1>@@@Z 0000000180043584     libucrt:onexit.obj
 0002:000105a8       $unwind$??$?RV<lambda_7777bce6b2f8c936911f934f8298dc43>@@AEAV<lambda_f03950bc5685219e0bcd2087efbe011e>@@V<lambda_3883c3dff614d5e0c5f61bb1ac94921c>@@@?$__crt_seh_guarded_call@H@@QEAAH$$QEAV<lambda_7777bce6b2f8c936911f934f8298dc43>@@AEAV<lambda_f03950bc5685219e0bcd2087efbe011e>@@$$QEAV<lambda_3883c3dff614d5e0c5f61bb1ac94921c>@@@Z 00000001800435a8     libucrt:onexit.obj
 0002:000105cc       $unwind$terminate          00000001800435cc     libucrt:terminate.obj
 0002:000105f0       $xdatasym                  00000001800435f0     libucrt:strncmp.obj
 0002:000105f4       $unwind$_free_base         00000001800435f4     libucrt:free_base.obj
 0002:000105f4       $unwind$?destroy_fls@@YAXPEAX@Z 00000001800435f4     libucrt:per_thread_data.obj
 0002:000105f4       $unwind$__acrt_locale_free_numeric 00000001800435f4     libucrt:initnum.obj
 0002:000105f4       $unwind$__acrt_locale_free_lc_time_if_unreferenced 00000001800435f4     libucrt:locale_refcounting.obj
 0002:000105fc       $unwind$?fp_format_e@@YAHQEBNQEAD_K12H_NIQEAU__crt_locale_pointers@@W4__acrt_rounding_mode@@@Z 00000001800435fc     libucrt:cvt.obj
 0002:000105fc       $unwind$_mbtowc_l          00000001800435fc     libucrt:mbtowc.obj
 0002:000105fc       $unwind$__acrt_LCMapStringEx 00000001800435fc     libucrt:winapi_thunks.obj
 0002:00010610       $unwind$_wctomb_s_l        0000000180043610     libucrt:wctomb.obj
 0002:00010620       $unwind$?construct_ptd_array@@YAXQEAU__acrt_ptd@@@Z 0000000180043620     libucrt:per_thread_data.obj
 0002:00010628       $unwind$?destroy_ptd_array@@YAXQEAU__acrt_ptd@@@Z 0000000180043628     libucrt:per_thread_data.obj
 0002:00010630       $unwind$??$?RV<lambda_0ae27a3a962d80f24befdcbee591983d>@@AEAV<lambda_8d0ee55de4b1038c4002e0adecdf1839>@@V<lambda_dc504788e8f1664fe9b84e20bfb512f2>@@@?$__crt_seh_guarded_call@X@@QEAAX$$QEAV<lambda_0ae27a3a962d80f24befdcbee591983d>@@AEAV<lambda_8d0ee55de4b1038c4002e0adecdf1839>@@$$QEAV<lambda_dc504788e8f1664fe9b84e20bfb512f2>@@@Z 0000000180043630     libucrt:per_thread_data.obj
 0002:00010654       $unwind$??$?RV<lambda_aa87e3671a710a21b5dc78c0bdf72e11>@@AEAV<lambda_92619d2358a28f41a33ba319515a20b9>@@V<lambda_6992ecaafeb10aed2b74cb1fae11a551>@@@?$__crt_seh_guarded_call@X@@QEAAX$$QEAV<lambda_aa87e3671a710a21b5dc78c0bdf72e11>@@AEAV<lambda_92619d2358a28f41a33ba319515a20b9>@@$$QEAV<lambda_6992ecaafeb10aed2b74cb1fae11a551>@@@Z 0000000180043654     libucrt:per_thread_data.obj
 0002:00010678       $unwind$??$?RV<lambda_f2e299630e499de9f9a165e60fcd3db5>@@AEAV<lambda_2ae9d31cdba2644fcbeaf08da7c24588>@@V<lambda_40d01ff24d0e7b3814fdbdcee8eab3c7>@@@?$__crt_seh_guarded_call@X@@QEAAX$$QEAV<lambda_f2e299630e499de9f9a165e60fcd3db5>@@AEAV<lambda_2ae9d31cdba2644fcbeaf08da7c24588>@@$$QEAV<lambda_40d01ff24d0e7b3814fdbdcee8eab3c7>@@@Z 0000000180043678     libucrt:per_thread_data.obj
 0002:0001069c       $unwind$??$?RV<lambda_2d41944a1d46af3157314b8a01080d33>@@AEAV<lambda_8f455de75cd7d7f24b4096f044d8b9e6>@@V<lambda_aa500f224e6afead328df44964fe2772>@@@?$__crt_seh_guarded_call@X@@QEAAX$$QEAV<lambda_2d41944a1d46af3157314b8a01080d33>@@AEAV<lambda_8f455de75cd7d7f24b4096f044d8b9e6>@@$$QEAV<lambda_aa500f224e6afead328df44964fe2772>@@@Z 000000018004369c     libucrt:per_thread_data.obj
 0002:000106c0       $unwind$__acrt_fp_format   00000001800436c0     libucrt:cvt.obj
 0002:000106d8       $unwind$?fp_format_e_internal@@YAHQEAD_KH_NIQEAU_strflt@@2QEAU__crt_locale_pointers@@@Z 00000001800436d8     libucrt:cvt.obj
 0002:000106f0       $unwind$?fp_format_a@@YAHQEBNPEAD_KQEAD2H_NIQEAU__crt_locale_pointers@@W4__acrt_rounding_mode@@@Z 00000001800436f0     libucrt:cvt.obj
 0002:0001070c       $unwind$__dcrt_get_narrow_environment_from_os 000000018004370c     libucrt:get_environment_from_os.obj
 0002:0001070c       $unwind$?fp_format_f_internal@@YAHQEAD_KHQEAU_strflt@@_NQEAU__crt_locale_pointers@@@Z 000000018004370c     libucrt:cvt.obj
 0002:0001070c       $unwind$??$__acrt_wcs_to_mbs_cp@U__crt_win32_buffer_internal_dynamic_resizing@@@@YAHQEB_WAEAV?$__crt_win32_buffer@DU__crt_win32_buffer_internal_dynamic_resizing@@@@I@Z 000000018004370c     libucrt:argv_wildcards.obj
 0002:00010724       $unwind$?fp_format_g@@YAHQEBNQEAD_K12H_NIW4__acrt_rounding_mode@@QEAU__crt_locale_pointers@@@Z 0000000180043724     libucrt:cvt.obj
 0002:00010738       $unwind$__acrt_uninitialize_locale 0000000180043738     libucrt:wsetlocale.obj
 0002:00010738       $unwind$__acrt_get_sigabrt_handler 0000000180043738     libucrt:signal.obj
 0002:00010740       $unwind$??$?RV<lambda_410d79af7f07d98d83a3f525b3859a53>@@AEAV<lambda_3e16ef9562a7dcce91392c22ab16ea36>@@V<lambda_38119f0e861e05405d8a144b9b982f0a>@@@?$__crt_seh_guarded_call@X@@QEAAX$$QEAV<lambda_410d79af7f07d98d83a3f525b3859a53>@@AEAV<lambda_3e16ef9562a7dcce91392c22ab16ea36>@@$$QEAV<lambda_38119f0e861e05405d8a144b9b982f0a>@@@Z 0000000180043740     libucrt:wsetlocale.obj
 0002:00010768       $unwind$__acrt_initialize_lowio 0000000180043768     libucrt:ioinit.obj
 0002:00010788       $unwind$?initialize_inherited_file_handles_nolock@@YAXXZ 0000000180043788     libucrt:ioinit.obj
 0002:000107a4       $unwind$_isctype_l         00000001800437a4     libucrt:isctype.obj
 0002:000107c0       $unwind$??$common_expand_argv_wildcards@D@@YAHQEAPEADQEAPEAPEAD@Z 00000001800437c0     libucrt:argv_wildcards.obj
 0002:000107d8       $unwind$??$copy_and_add_argument_to_buffer@D@@YAHQEBD0_KAEAV?$argument_list@D@?A0x5f5c8891@@@Z 00000001800437d8     libucrt:argv_wildcards.obj
 0002:000107f4       $unwind$??$expand_argument_wildcards@D@@YAHQEAD0AEAV?$argument_list@D@?A0x5f5c8891@@@Z 00000001800437f4     libucrt:argv_wildcards.obj
 0002:00010818       $unwind$__acrt_GetModuleFileNameA 0000000180043818     libucrt:getmodulefilenamea.obj
 0002:00010834       $unwind$__dcrt_write_console 0000000180043834     libucrt:initcon.obj
 0002:00010834       $unwind$??$__acrt_wcs_to_mbs_cp@U__crt_win32_buffer_no_resizing@@@@YAHQEB_WAEAV?$__crt_win32_buffer@DU__crt_win32_buffer_no_resizing@@@@I@Z 0000000180043834     libucrt:getmodulefilenamea.obj
 0002:00010848       $unwind$_setmbcp_nolock    0000000180043848     libucrt:mbctype.obj
 0002:00010868       $unwind$?update_thread_multibyte_data_internal@@YAPEAU__crt_multibyte_data@@QEAU__acrt_ptd@@QEAPEAU1@@Z 0000000180043868     libucrt:mbctype.obj
 0002:00010890       $unwind$?setmbcp_internal@@YAHH_NQEAU__acrt_ptd@@QEAPEAU__crt_multibyte_data@@@Z 0000000180043890     libucrt:mbctype.obj
 0002:000108a0       $unwind$?setSBUpLow@@YAXPEAU__crt_multibyte_data@@@Z 00000001800438a0     libucrt:mbctype.obj
 0002:000108bc       $unwind$??$?RV<lambda_efdfa57d1f175319df784efa44bb7b81>@@AEAV<lambda_5f0a4c1567f8adc6734073e5d1e1b35c>@@V<lambda_2e8a7d3640ea6ccb4c2413664c2db6fd>@@@?$__crt_seh_guarded_call@X@@QEAAX$$QEAV<lambda_efdfa57d1f175319df784efa44bb7b81>@@AEAV<lambda_5f0a4c1567f8adc6734073e5d1e1b35c>@@$$QEAV<lambda_2e8a7d3640ea6ccb4c2413664c2db6fd>@@@Z 00000001800438bc     libucrt:mbctype.obj
 0002:000108e0       $unwind$__acrt_WideCharToMultiByte 00000001800438e0     libucrt:widechartomultibyte.obj
 0002:000108ec       $unwind$__acrt_initialize_winapi_thunks 00000001800438ec     libucrt:winapi_thunks.obj
 0002:000108f4       $unwind$_query_new_handler 00000001800438f4     libucrt:new_handler.obj
 0002:00010914       $unwind$raise              0000000180043914     libucrt:signal.obj
 0002:00010950       $unwind$??$?RV<lambda_450d765d439847d4c735a33c368b5fc0>@@AEAV<lambda_44731a7d0e6d81c3e6aa82d741081786>@@V<lambda_601a2a7da3b7a96e9554ac7215c4b07c>@@@?$__crt_seh_guarded_call@P6AXH@Z@@QEAAP6AXH@Z$$QEAV<lambda_450d765d439847d4c735a33c368b5fc0>@@AEAV<lambda_44731a7d0e6d81c3e6aa82d741081786>@@$$QEAV<lambda_601a2a7da3b7a96e9554ac7215c4b07c>@@@Z 0000000180043950     libucrt:signal.obj
 0002:00010974       $unwind$?common_flush_all@@YAH_N@Z 0000000180043974     libucrt:fflush.obj
 0002:0001097c       $unwind$??$?RV<lambda_842d9ff0dc9ef11c61343bbaebe7f885>@@AEAV<lambda_c5860995281e5c4ce005b3de8f5874ee>@@V<lambda_d90129c13df834fdcbf8d2b88dafcf2d>@@@?$__crt_seh_guarded_call@X@@QEAAX$$QEAV<lambda_842d9ff0dc9ef11c61343bbaebe7f885>@@AEAV<lambda_c5860995281e5c4ce005b3de8f5874ee>@@$$QEAV<lambda_d90129c13df834fdcbf8d2b88dafcf2d>@@@Z 000000018004397c     libucrt:fflush.obj
 0002:000109a0       $unwind$??$?RV<lambda_886d6c58226a84441f68b9f2b8217b83>@@AEAV<lambda_ab61a845afdef5b7c387490eaf3616ee>@@V<lambda_f7f22ab5edc0698d5f6905b0d3f44752>@@@?$__crt_seh_guarded_call@X@@QEAAX$$QEAV<lambda_886d6c58226a84441f68b9f2b8217b83>@@AEAV<lambda_ab61a845afdef5b7c387490eaf3616ee>@@$$QEAV<lambda_f7f22ab5edc0698d5f6905b0d3f44752>@@@Z 00000001800439a0     libucrt:fflush.obj
 0002:000109c8       $unwind$?__mbsrtowcs_utf8@__crt_mbstring@@YA_KPEA_WPEAPEBD_KPEAU_Mbstatet@@@Z 00000001800439c8     libucrt:mbrtowc.obj
 0002:000109e0       $unwind$__acrt_update_thread_locale_data 00000001800439e0     libucrt:locale_refcounting.obj
 0002:00010a04       $unwind$__acrt_fltout      0000000180043a04     libucrt:cfout.obj
 0002:00010a24       $unwind$?divide@__crt_strtox@@YA_KAEAUbig_integer@1@AEBU21@@Z 0000000180043a24     libucrt:cfout.obj
 0002:00010a3c       $chain$0$?divide@__crt_strtox@@YA_KAEAUbig_integer@1@AEBU21@@Z 0000000180043a3c     libucrt:cfout.obj
 0002:00010a50       $chain$1$?divide@__crt_strtox@@YA_KAEAUbig_integer@1@AEBU21@@Z 0000000180043a50     libucrt:cfout.obj
 0002:00010a60       $unwind$_fcloseall         0000000180043a60     libucrt:closeall.obj
 0002:00010a84       $unwind$__acrt_locale_free_monetary 0000000180043a84     libucrt:initmon.obj
 0002:00010a8c       $unwind$__acrt_locale_free_time 0000000180043a8c     libucrt:inittime.obj
 0002:00010a9c       $unwind$__acrt_GetStringTypeA 0000000180043a9c     libucrt:getstringtypea.obj
 0002:00010ac4       $unwind$__acrt_lowio_destroy_handle_array 0000000180043ac4     libucrt:osfinfo.obj
 0002:00010ad4       $unwind$__acrt_lowio_ensure_fh_exists 0000000180043ad4     libucrt:osfinfo.obj
 0002:00010b00       $unwind$qsort              0000000180043b00     libucrt:qsort.obj
 0002:00010b18       $chain$4$qsort             0000000180043b18     libucrt:qsort.obj
 0002:00010b3c       $chain$5$qsort             0000000180043b3c     libucrt:qsort.obj
 0002:00010b4c       $unwind$strpbrk            0000000180043b4c     libucrt:strpbrk.obj
 0002:00010b5c       $unwind$_mbsdec_l          0000000180043b5c     libucrt:mbsdec.obj
 0002:00010b68       $unwind$__acrt_LCMapStringA 0000000180043b68     libucrt:lcmapstringa.obj
 0002:00010b78       $unwind$?__acrt_LCMapStringA_stat@@YAHPEAU__crt_locale_pointers@@PEB_WKPEBDHPEADHHH@Z 0000000180043b78     libucrt:lcmapstringa.obj
 0002:00010ba0       $unwind$_close             0000000180043ba0     libucrt:close.obj
 0002:00010ba0       $unwind$_commit            0000000180043ba0     libucrt:commit.obj
 0002:00010ba8       $unwind$??$?RV<lambda_a37b2b86f63e897a80ea819b0eb08c01>@@AEAV<lambda_38ce7e780aa69e748d6df282ebc68efe>@@V<lambda_99fb1378e971ab6e7edea83e3a7a83a2>@@@?$__crt_seh_guarded_call@H@@QEAAH$$QEAV<lambda_a37b2b86f63e897a80ea819b0eb08c01>@@AEAV<lambda_38ce7e780aa69e748d6df282ebc68efe>@@$$QEAV<lambda_99fb1378e971ab6e7edea83e3a7a83a2>@@@Z 0000000180043ba8     libucrt:commit.obj
 0002:00010bcc       $unwind$_write             0000000180043bcc     libucrt:write.obj
 0002:00010bfc       $unwind$_write_nolock      0000000180043bfc     libucrt:write.obj
 0002:00010c14       $unwind$?write_double_translated_ansi_nolock@@YA?AUwrite_result@?A0x17268360@@HQEBDI@Z 0000000180043c14     libucrt:write.obj
 0002:00010c38       $unwind$?write_text_ansi_nolock@@YA?AUwrite_result@?A0x17268360@@HQEBDI@Z 0000000180043c38     libucrt:write.obj
 0002:00010c38       $unwind$?write_text_utf16le_nolock@@YA?AUwrite_result@?A0x17268360@@HQEBDI@Z 0000000180043c38     libucrt:write.obj
 0002:00010c58       $unwind$?write_text_utf8_nolock@@YA?AUwrite_result@?A0x17268360@@HQEBDI@Z 0000000180043c58     libucrt:write.obj
 0002:00010c7c       $unwind$?__mbrtoc32_utf8@__crt_mbstring@@YA_KPEA_UPEBD_KPEAU_Mbstatet@@@Z 0000000180043c7c     libucrt:mbrtoc32.obj
 0002:00010c98       $xdatasym                  0000000180043c98     libucrt:log10.obj
 0002:00010ca4       $unwind$__acrt_fenv_set_control 0000000180043ca4     libucrt:_fenvutils.obj
 0002:00010cb4       $unwind$fclose             0000000180043cb4     libucrt:fclose.obj
 0002:00010cd8       $unwind$common_control87   0000000180043cd8     libucrt:ieee.obj
 0002:00010d04       $unwind$_handle_error      0000000180043d04     libucrt:libm_error.obj
 0002:00010d24       $unwind$__acrt_initialize_fma3 0000000180043d24     libucrt:fma3_available.obj
 0002:00010d2c       $unwind$_log_special_common 0000000180043d2c     libucrt:log_special.obj
 0002:00010d38       $unwind$??$?RV<lambda_751a882b2c74d4b022dec766aa51a29a>@@AEAV<lambda_628dfdc04ba53c8bfc02c9951375f3f5>@@V<lambda_f6c7be5f7998530c34de24c7437d6b54>@@@?$__crt_seh_guarded_call@H@@QEAAH$$QEAV<lambda_751a882b2c74d4b022dec766aa51a29a>@@AEAV<lambda_628dfdc04ba53c8bfc02c9951375f3f5>@@$$QEAV<lambda_f6c7be5f7998530c34de24c7437d6b54>@@@Z 0000000180043d38     libucrt:close.obj
 0002:00010d60       $xdatasym                  0000000180043d60     libucrt:fpsr.obj
 0002:00010d68       $unwind$_raise_exc_ex      0000000180043d68     libucrt:fpexcept.obj
 0002:00010d7c       $unwind$_ctrlfp            0000000180043d7c     libucrt:fpctrl.obj
 0002:00010da4       $unwind$?apiGetConsoleFontSize@@YAHPEAXAEAH1AEAY0CA@_W@Z 0000000180043da4     common-kernel64:WConsole.obj
 0002:00010dc0       $unwind$?apiSetConsoleFontSize@@YAHPEAXHHPEB_W@Z 0000000180043dc0     common-kernel64:WConsole.obj
 0002:00010ddc       $unwind$_IsNonwritableInCurrentImage 0000000180043ddc     LIBCMT:pesect.obj
 0002:00011060       .edata                     0000000180044060     ConEmu.x64.exp
 0002:00011088       rgpv                       0000000180044088     ConEmu.x64.exp
 0002:000110f4       rgszName                   00000001800440f4     ConEmu.x64.exp
 0002:00011160       rgwOrd                     0000000180044160     ConEmu.x64.exp
 0002:00011196       szName                     0000000180044196     ConEmu.x64.exp
 0002:000111a5       $N00001                    00000001800441a5     ConEmu.x64.exp
 0002:000111b5       $N00002                    00000001800441b5     ConEmu.x64.exp
 0002:000111bd       $N00003                    00000001800441bd     ConEmu.x64.exp
 0002:000111c9       $N00004                    00000001800441c9     ConEmu.x64.exp
 0002:000111d4       $N00005                    00000001800441d4     ConEmu.x64.exp
 0002:000111e2       $N00006                    00000001800441e2     ConEmu.x64.exp
 0002:000111f3       $N00007                    00000001800441f3     ConEmu.x64.exp
 0002:00011201       $N00008                    0000000180044201     ConEmu.x64.exp
 0002:00011210       $N00009                    0000000180044210     ConEmu.x64.exp
 0002:00011220       $N00010                    0000000180044220     ConEmu.x64.exp
 0002:0001122b       $N00011                    000000018004422b     ConEmu.x64.exp
 0002:00011231       $N00012                    0000000180044231     ConEmu.x64.exp
 0002:00011244       $N00013                    0000000180044244     ConEmu.x64.exp
 0002:00011257       $N00014                    0000000180044257     ConEmu.x64.exp
