 ConEmuTh

 Timestamp is 613e72bb (Sun Sep 12 23:35:55 2021)

 Preferred load address is 10000000

 Start         Length     Name                   Class
 0001:00000000 000231f5H .text$mn                CODE
 0001:000231f5 00000268H .text$x                 CODE
 0002:00000000 00000328H .idata$5                DATA
 0002:00000328 00000004H .00cfg                  DATA
 0002:0000032c 00000004H .CRT$XCA                DATA
 0002:00000330 00000004H .CRT$XCZ                DATA
 0002:00000334 00000004H .CRT$XIA                DATA
 0002:00000338 0000000cH .CRT$XIC                DATA
 0002:00000344 00000004H .CRT$XIZ                DATA
 0002:00000348 00000004H .CRT$XPA                DATA
 0002:0000034c 00000008H .CRT$XPX                DATA
 0002:00000354 00000004H .CRT$XPXA               DATA
 0002:00000358 00000004H .CRT$XPZ                DATA
 0002:0000035c 00000004H .CRT$XTA                DATA
 0002:00000360 00000010H .CRT$XTZ                DATA
 0002:00000364 00000000H .gfids$x                DATA
 0002:00000364 00000000H .gfids$y                DATA
 0002:00000370 000071d8H .rdata                  DATA
 0002:00007548 00000488H .rdata$r                DATA
 0002:000079d0 0000004cH .rdata$sxdata           DATA
 0002:00007a1c 0000030cH .rdata$zzzdbg           DATA
 0002:00007d28 00000004H .rtc$IAA                DATA
 0002:00007d2c 00000004H .rtc$IZZ                DATA
 0002:00007d30 00000004H .rtc$TAA                DATA
 0002:00007d34 00000004H .rtc$TZZ                DATA
 0002:00007d38 00000868H .xdata$x                DATA
 0002:000085a0 00000168H .edata                  DATA
 0002:00008708 0000008cH .idata$2                DATA
 0002:00008794 00000014H .idata$3                DATA
 0002:000087a8 00000328H .idata$4                DATA
 0002:00008ad0 00000dc8H .idata$6                DATA
 0003:00000000 000007f8H .data                   DATA
 0003:000007f8 00000330H .data$r                 DATA
 0003:00000b28 00029868H .bss                    DATA
 0004:00000000 00000130H .rsrc$01                DATA
 0004:00000130 00001558H .rsrc$02                DATA

  Address         Publics by Value              Rva+Base       Lib:Object

 0000:00000000       ___guard_fids_count        00000000     <absolute>
 0000:00000000       ___hybrid_code_map_count   00000000     <absolute>
 0000:00000000       ___guard_iat_count         00000000     <absolute>
 0000:00000000       ___dynamic_value_reloc_table 00000000     <absolute>
 0000:00000000       ___guard_longjmp_count     00000000     <absolute>
 0000:00000000       __except_list              00000000     <absolute>
 0000:00000000       ___guard_fids_table        00000000     <absolute>
 0000:00000000       ___guard_longjmp_table     00000000     <absolute>
 0000:00000000       ___hybrid_auxiliary_iat    00000000     <absolute>
 0000:00000000       ___guard_iat_table         00000000     <absolute>
 0000:00000000       ___volatile_metadata       00000000     <absolute>
 0000:00000000       ___enclave_config          00000000     <absolute>
 0000:00000000       ___hybrid_code_map         00000000     <absolute>
 0000:00000013       ___safe_se_handler_count   00000013     <absolute>
 0000:00000100       ___guard_flags             00000100     <absolute>
 0000:00000000       ___ImageBase               10000000     <linker-defined>
 0001:00000000       _ExitFARW@0                10001000 f   ConEmuTh.obj
 0001:00000025       _ProcessSynchroEventW@8    10001025 f   ConEmuTh.obj
 0001:00000039       ?ExitFARW3@@YGXPAX@Z       10001039 f   ConEmuTh.obj
 0001:00000067       ??$swprintf_c@$0CAA@@@YAHAAY0CAA@_WPB_WZZ 10001067 f i ConEmuTh.obj
 0001:00000080       ??0?$MFileMapping@UPanelViewSetMapping@@@@QAE@XZ 10001080 f i ConEmuTh.obj
 0001:000000dd       ??0?$MFileMapping@Utag_DetectedDialog@@@@QAE@XZ 100010dd f i ConEmuTh.obj
 0001:0000013a       ??1?$MFileMapping@UPanelViewSetMapping@@@@QAE@XZ 1000113a f i ConEmuTh.obj
 0001:00000144       ??_G?$MFileMapping@Utag_DetectedDialog@@@@QAEPAXI@Z 10001144 f i ConEmuTh.obj
 0001:000002a0       ?CheckConEmu@@YAHH@Z       100012a0 f   ConEmuTh.obj
 0001:0000037b       ?CheckPanelSettings@@YAHH@Z 1000137b f   ConEmuTh.obj
 0001:000003b3       ?CheckVarsInitialized@@YAXXZ 100013b3 f   ConEmuTh.obj
 0001:000004e0       ?CheckWindows@@YA_NXZ      100014e0 f   ConEmuTh.obj
 0001:0000057c       ?CloseMap@?$MFileMapping@UPanelViewSetMapping@@@@QAEXXZ 1000157c f i ConEmuTh.obj
 0001:0000057c       ?CloseMap@?$MFileMapping@Utag_DetectedDialog@@@@QAEXXZ 1000157c f i ConEmuTh.obj
 0001:000005cd       ?ClosePtr@?$MFileMapping@UPanelViewSetMapping@@@@QAEXXZ 100015cd f i ConEmuTh.obj
 0001:000005cd       ?ClosePtr@?$MFileMapping@Utag_DetectedDialog@@@@QAEXXZ 100015cd f i ConEmuTh.obj
 0001:000005e5       ?EntryPoint@@YAXHH_N@Z     100015e5 f   ConEmuTh.obj
 0001:00000750       ?ExecuteInMainThread@@YAXPAUConEmuThSynchroArg@@@Z 10001750 f   ConEmuTh.obj
 0001:000007bf       ?ExitPlugin@@YAXXZ         100017bf f   ConEmuTh.obj
 0001:000008c5       ?FreeItem@CePluginPanelItem@@QAEXXZ 100018c5 f   ConEmuTh.obj
 0001:000008da       ?FreeUserData@CePluginPanelItem@@QAEXXZ 100018da f   ConEmuTh.obj
 0001:0000091b       ?GetActivePanel@@YAPAUCeFullPanelInfo@@XZ 1000191b f   ConEmuTh.obj
 0001:00000960       ?GetFarRect@@YAHPAU_SMALL_RECT@@@Z 10001960 f   ConEmuTh.obj
 0001:000009c6       ?GetFocusedThumbnails@@YAPAUCeFullPanelInfo@@XZ 100019c6 f   ConEmuTh.obj
 0001:00000a16       ?GetMainThreadId@@YAKXZ    10001a16 f   ConEmuTh.obj
 0001:00000aa1       ?GetMsgW@@YAPB_WH@Z        10001aa1 f   ConEmuTh.obj
 0001:00000ada       ?GetPalette@@YAABV?$array@K$0BA@@std@@XZ 10001ada f   ConEmuTh.obj
 0001:00000ae0       ?GetPluginInfoWcmn@@YGXPAX@Z 10001ae0 f   ConEmuTh.obj
 0001:00000b11       ?GetTo@?$MFileMapping@UPanelViewSetMapping@@@@QAE_NPAUPanelViewSetMapping@@H@Z 10001b11 f i ConEmuTh.obj
 0001:00000be0       ?InitName@?$MFileMapping@UPanelViewSetMapping@@@@QAEPB_WPB_WKK@Z 10001be0 f i ConEmuTh.obj
 0001:00000be0       ?InitName@?$MFileMapping@Utag_DetectedDialog@@@@QAEPB_WPB_WKK@Z 10001be0 f i ConEmuTh.obj
 0001:00000c11       ?InternalOpenCreate@?$MFileMapping@Utag_DetectedDialog@@@@IAEPAUtag_DetectedDialog@@_N0H@Z 10001c11 f i ConEmuTh.obj
 0001:00000c11       ?InternalOpenCreate@?$MFileMapping@UPanelViewSetMapping@@@@IAEPAUPanelViewSetMapping@@_N0H@Z 10001c11 f i ConEmuTh.obj
 0001:00000df3       ?IsThumbnailsActive@@YAPAUCeFullPanelInfo@@H@Z 10001df3 f   ConEmuTh.obj
 0001:00000fc4       ?LoadFarVersion@@YAHXZ     10001fc4 f   ConEmuTh.obj
 0001:00001300       ?LoadPanelItemInfo@@YAXPAUCeFullPanelInfo@@H@Z 10002300 f   ConEmuTh.obj
 0001:00001338       ?LoadThSet@@YAHK@Z         10002338 f   ConEmuTh.obj
 0001:000014c9       ?OnPostPeekConsole@@YGHPAXPAU_INPUT_RECORD@@KPAKPAH@Z 100024c9 f   ConEmuTh.obj
 0001:00001513       ?OnPostReadConsole@@YGHPAXPAU_INPUT_RECORD@@KPAKPAH@Z 10002513 f   ConEmuTh.obj
 0001:00001555       ?OnPrePeekConsole@@YGHPAXPAU_INPUT_RECORD@@KPAKPAH@Z 10002555 f   ConEmuTh.obj
 0001:000015f8       ?OnPreReadConsole@@YGHPAXPAU_INPUT_RECORD@@KPAKPAH@Z 100025f8 f   ConEmuTh.obj
 0001:00001618       ?OnPreWriteConsoleOutput@@YGHPAXPBU_CHAR_INFO@@U_COORD@@2PAU_SMALL_RECT@@@Z 10002618 f   ConEmuTh.obj
 0001:0000173a       ?OnReadyForPanelsReload@@YAXXZ 1000273a f   ConEmuTh.obj
 0001:00001888       ?OpenPluginWcmn@@YAPAXHH_N@Z 10002888 f   ConEmuTh.obj
 0001:000018ba       ?OpenW@@YGPAXPBUOpenInfo@@@Z 100028ba f   ConEmuTh.obj
 0001:000018ec       ?PostMacro@@YAXPA_W@Z      100028ec f   ConEmuTh.obj
 0001:00001a22       ?ProcessConsoleInput@@YAHHPAU_INPUT_RECORD@@KPAK@Z 10002a22 f   ConEmuTh.obj
 0001:00001d0a       ?ProcessSynchroEventCommon@@YAHHPAX@Z 10002d0a f   ConEmuTh.obj
 0001:00001e95       ?RefreshPalette@@YAABV?$array@K$0BA@@std@@_N@Z 10002e95 f   ConEmuTh.obj
 0001:00001ec6       ?ReloadPanelsInfo@@YAXXZ   10002ec6 f   ConEmuTh.obj
 0001:00002036       ?ReloadResourcesW@@YAXXZ   10003036 f   ConEmuTh.obj
 0001:00002099       ?ResetUngetBuffer@@YAXXZ   10003099 f   ConEmuTh.obj
 0001:000020a8       ?SavePanelViewState@@YAXHK@Z 100030a8 f   ConEmuTh.obj
 0001:000020dc       ?SetFrom@?$MFileMapping@Utag_DetectedDialog@@@@QAE_NPBUtag_DetectedDialog@@H@Z 100030dc f i ConEmuTh.obj
 0001:00002207       ?SettingsLoad@@YAHPB_WPAK@Z 10003207 f   ConEmuTh.obj
 0001:0000223f       ?SettingsLoadOther@@YAXPB_W@Z 1000323f f   ConEmuTh.obj
 0001:00002337       ?SettingsLoadReg@@YAHPB_W0PAK@Z 10003337 f   ConEmuTh.obj
 0001:00002397       ?SettingsSave@@YAXPB_WPAK@Z 10003397 f   ConEmuTh.obj
 0001:000023cf       ?SettingsSaveReg@@YAXPB_W0PAK@Z 100033cf f   ConEmuTh.obj
 0001:00002419       ?ShowLastError@@YAHXZ      10003419 f   ConEmuTh.obj
 0001:000024a6       ?ShowMessage@@YAHHH@Z      100034a6 f   ConEmuTh.obj
 0001:000024de       ?ShowPluginMenu@@YAHXZ     100034de f   ConEmuTh.obj
 0001:0000250c       ?StartPlugin@@YAXH@Z       1000350c f   ConEmuTh.obj
 0001:00002633       ?StringCchCatW@@YGJPA_WIPB_W@Z 10003633 f i ConEmuTh.obj
 0001:00002671       ?StringCchCopyW@@YGJPA_WIPB_W@Z 10003671 f i ConEmuTh.obj
 0001:000026a5       ?StringCchVPrintfW@@YGJPA_WIPB_WPAD@Z 100036a5 f i ConEmuTh.obj
 0001:000027de       ?UpdateEnvVar@@YAXH@Z      100037de f   ConEmuTh.obj
 0001:000027ff       ?isPreloadByDefault@@YA_NXZ 100037ff f   ConEmuTh.obj
 0001:00002829       _DllMain@12                10003829 f   ConEmuTh.obj
 0001:000028e2       _GetMinFarVersionW@0       100038e2 f   ConEmuTh.obj
 0001:000028e8       _SetStartupInfoW@4         100038e8 f   ConEmuTh.obj
 0001:0000293f       ___local_stdio_printf_options 1000393f f i ConEmuTh.obj
 0001:00002945       __vsnwprintf_l             10003945 f i ConEmuTh.obj
 0001:000029c3       ?CheckFarPanelsW1900@@YA_NXZ 100039c3 f   ConEmuTh1900.obj
 0001:00002a02       ?CheckPanelSettingsW1900@@YAHH@Z 10003a02 f   ConEmuTh1900.obj
 0001:00002a95       ?Color2BgIndex@Far3Color@@SAXKHAAGPBK@Z 10003a95 f i ConEmuTh1900.obj
 0001:00002b67       ?Color2FgIndex@Far3Color@@SAXKAAGPBK@Z 10003b67 f i ConEmuTh1900.obj
 0001:00002c1f       ?ExecuteInMainThreadW1900@@YAXPAUConEmuThSynchroArg@@@Z 10003c1f f   ConEmuTh1900.obj
 0001:00002c3c       ?ExitFARW1900@@YAXXZ       10003c3c f   ConEmuTh1900.obj
 0001:00002c6b       ?FarColor_3_2@@YAEABUFarColor@@_N@Z 10003c6b f i ConEmuTh1900.obj
 0001:00002d16       ?GetFarRectW1900@@YAXPAU_SMALL_RECT@@@Z 10003d16 f   ConEmuTh1900.obj
 0001:00002d86       ?GetMsgW1900@@YAPB_WH@Z    10003d86 f   ConEmuTh1900.obj
 0001:00002dac       ?GetPluginInfoW1900@@YAXPAX@Z 10003dac f   ConEmuTh1900.obj
 0001:00002e10       ?GetStdIndex@Far3Color@@SAHKPBK@Z 10003e10 f i ConEmuTh1900.obj
 0001:00002f41       ?LoadPanelInfoW1900@@YAHH@Z 10003f41 f   ConEmuTh1900.obj
 0001:00003393       ?LoadPanelItemInfoW1900@@YAXPAUCeFullPanelInfo@@H@Z 10004393 f   ConEmuTh1900.obj
 0001:00003516       ?OpenW1900@@YAPAXPBX@Z     10004516 f   ConEmuTh1900.obj
 0001:00003578       ?PostMacroW1900@@YAXPA_W@Z 10004578 f   ConEmuTh1900.obj
 0001:000035f0       ?ReloadPanelsInfoW1900@@YAXXZ 100045f0 f   ConEmuTh1900.obj
 0001:0000360a       ?SetCurrentPanelItemW1900@@YAXHHH@Z 1000460a f   ConEmuTh1900.obj
 0001:0000370a       ?SetStartupInfoW1900@@YAXPAX@Z 1000470a f   ConEmuTh1900.obj
 0001:00003801       ?LoadPanelItemInfoA@@YAXPAUCeFullPanelInfo@@H@Z 10004801 f   ConEmuThA.obj
 0001:00003801       ?OnThreadStopped@?$CQueueProcessor@PAUIMAGE_CACHE_INFO@@@@MAEXXZ 10004801 f   ImgCache.obj
 0001:00003801       ?SettingsLoadOtherW2800@@YAXXZ 10004801 f   ConEmuTh2800.obj
 0001:00003801       ?_Doraise@exception@stdext@@MBEXXZ 10004801 f   common-kernel32:MProcess.obj
 0001:00003801       ?SettingsLoadOtherW1900@@YAXXZ 10004801 f   ConEmuTh1900.obj
 0001:00003801       @_guard_check_icall_nop@4  10004801 f   LIBCMT:guard_support.obj
 0001:00003802       ?SettingsLoadW1900@@YAHPB_WPAK@Z 10004802 f   ConEmuTh1900.obj
 0001:000038ac       ?SettingsSaveW1900@@YAXPB_WPAK@Z 100048ac f   ConEmuTh1900.obj
 0001:00003952       ?ShowMessageW1900@@YAHHH@Z 10004952 f   ConEmuTh1900.obj
 0001:00003987       ?ShowMessageW1900@@YAHPB_WH@Z 10004987 f   ConEmuTh1900.obj
 0001:000039f1       ?ShowPluginMenuW1900@@YAHXZ 100049f1 f   ConEmuTh1900.obj
 0001:00003bba       ??$swprintf_c@$0MI@@@YAHAAY0MI@_WPB_WZZ 10004bba f i ConEmuTh2800.obj
 0001:00003bd3       ?CheckFarPanelsW2800@@YA_NXZ 10004bd3 f   ConEmuTh2800.obj
 0001:00003c30       ?CheckPanelSettingsW2800@@YAHH@Z 10004c30 f   ConEmuTh2800.obj
 0001:00003cc3       ?ExecuteInMainThreadW2800@@YAXPAUConEmuThSynchroArg@@@Z 10004cc3 f   ConEmuTh2800.obj
 0001:00003ce0       ?ExitFARW2800@@YAXXZ       10004ce0 f   ConEmuTh2800.obj
 0001:00003d0f       ?FreePanelItemUserData2800@@YAXPAXKP6GHXZ@Z 10004d0f f   ConEmuTh2800.obj
 0001:00003d3d       ?GetFarRectW2800@@YAXPAU_SMALL_RECT@@@Z 10004d3d f   ConEmuTh2800.obj
 0001:00003db0       ?GetMsgW2800@@YAPB_WH@Z    10004db0 f   ConEmuTh2800.obj
 0001:00003dd6       ?GetPluginInfoW2800@@YAXPAX@Z 10004dd6 f   ConEmuTh2800.obj
 0001:00003e3a       ?IsFarLua@FarVersion@@QBE_NXZ 10004e3a f i ConEmuTh2800.obj
 0001:00003f5d       ?LoadPanelInfoW2800@@YAHH@Z 10004f5d f   ConEmuTh2800.obj
 0001:000043af       ?LoadPanelItemInfoW2800@@YAXPAUCeFullPanelInfo@@H@Z 100053af f   ConEmuTh2800.obj
 0001:0000458d       ?OpenW2800@@YAPAXPBX@Z     1000558d f   ConEmuTh2800.obj
 0001:00004631       ?PostMacroW2800@@YAXPA_W@Z 10005631 f   ConEmuTh2800.obj
 0001:000046ab       ?ProcessSynchroEventW3@@YGHPAX@Z 100056ab f   ConEmuTh2800.obj
 0001:000046c2       ?ReloadPanelsInfoW2800@@YAXXZ 100056c2 f   ConEmuTh2800.obj
 0001:000046dc       ?SetCurrentPanelItemW2800@@YAXHHH@Z 100056dc f   ConEmuTh2800.obj
 0001:000047d5       ?SetCurrentPanelItemW2800Int@@YAXHHH@Z 100057d5 f   ConEmuTh2800.obj
 0001:000048c8       ?SetStartupInfoW2800@@YAXPAX@Z 100058c8 f   ConEmuTh2800.obj
 0001:000049bf       ?SettingsLoadW2800@@YAHPB_WPAK@Z 100059bf f   ConEmuTh2800.obj
 0001:00004a62       ?SettingsSaveW2800@@YAXPB_WPAK@Z 10005a62 f   ConEmuTh2800.obj
 0001:00004b06       ?ShowMessageW2800@@YAHHH@Z 10005b06 f   ConEmuTh2800.obj
 0001:00004b3b       ?ShowMessageW2800@@YAHPB_WH@Z 10005b3b f   ConEmuTh2800.obj
 0001:00004ba5       ?ShowPluginMenuW2800@@YAHXZ 10005ba5 f   ConEmuTh2800.obj
 0001:00004d6e       _GetGlobalInfoW@4          10005d6e f   ConEmuTh2800.obj
 0001:00004e01       ?CheckFarPanelsW995@@YA_NXZ 10005e01 f   ConEmuTh995.obj
 0001:00004e58       ?CheckPanelSettingsW995@@YAHH@Z 10005e58 f   ConEmuTh995.obj
 0001:00004eb4       ?ExecuteInMainThreadW995@@YAXPAUConEmuThSynchroArg@@@Z 10005eb4 f   ConEmuTh995.obj
 0001:00004ecd       ?ExitFARW995@@YAXXZ        10005ecd f   ConEmuTh995.obj
 0001:00004f13       ?GetFarRectW995@@YAXPAU_SMALL_RECT@@@Z 10005f13 f   ConEmuTh995.obj
 0001:00004f38       ?GetMsgW995@@YAPB_WH@Z     10005f38 f   ConEmuTh995.obj
 0001:00004f5c       ?GetPluginInfoW995@@YAXPAX@Z 10005f5c f   ConEmuTh995.obj
 0001:00004fef       ?LoadPanelInfo995@@YAHH@Z  10005fef f   ConEmuTh995.obj
 0001:00005327       ?LoadPanelItemInfoW995@@YAXPAUCeFullPanelInfo@@H@Z 10006327 f   ConEmuTh995.obj
 0001:0000543c       ?PostMacroW995@@YAXPA_W@Z  1000643c f   ConEmuTh995.obj
 0001:000054a4       ?ReloadPanelsInfoW995@@YAXXZ 100064a4 f   ConEmuTh995.obj
 0001:000054be       ?SetCurrentPanelItemW995@@YAXHHH@Z 100064be f   ConEmuTh995.obj
 0001:00005592       ?SetStartupInfoW995@@YAXPAX@Z 10006592 f   ConEmuTh995.obj
 0001:000056cf       ?SettingsLoadOtherW995@@YAXXZ 100066cf f   ConEmuTh995.obj
 0001:000056dc       ?SettingsLoadW995@@YAHPB_WPAK@Z 100066dc f   ConEmuTh995.obj
 0001:000056f5       ?SettingsSaveW995@@YAXPB_WPAK@Z 100066f5 f   ConEmuTh995.obj
 0001:0000570e       ?ShowMessageW995@@YAHHH@Z  1000670e f   ConEmuTh995.obj
 0001:00005741       ?ShowMessageW995@@YAHPB_WH@Z 10006741 f   ConEmuTh995.obj
 0001:0000576f       ?ShowPluginMenuW995@@YAHXZ 1000676f f   ConEmuTh995.obj
 0001:0000589e       _OpenPluginW@8             1000689e f   ConEmuTh995.obj
 0001:000058cd       ?CheckFarPanelsA@@YA_NXZ   100068cd f   ConEmuThA.obj
 0001:00005944       ?CheckPanelSettingsA@@YAHH@Z 10006944 f   ConEmuThA.obj
 0001:000059ac       ?GetMsgA@@YAPB_WHPA_W@Z    100069ac f   ConEmuThA.obj
 0001:00005a5c       ?LoadPanelInfoA@@YAHH@Z    10006a5c f   ConEmuThA.obj
 0001:00005dd5       ?PostMacroA@@YAXPAD@Z      10006dd5 f   ConEmuThA.obj
 0001:00005e41       ?ReloadPanelsInfoA@@YAXXZ  10006e41 f   ConEmuThA.obj
 0001:00005e5b       ?ReloadResourcesA@@YAXXZ   10006e5b f   ConEmuThA.obj
 0001:00005f04       ?SetCurrentPanelItemA@@YAXHHH@Z 10006f04 f   ConEmuThA.obj
 0001:00006005       ?SettingsLoadA@@YAHPB_WPAK@Z 10007005 f   ConEmuThA.obj
 0001:0000601e       ?SettingsLoadOtherA@@YAXXZ 1000701e f   ConEmuThA.obj
 0001:0000602b       ?SettingsSaveA@@YAXPB_WPAK@Z 1000702b f   ConEmuThA.obj
 0001:00006044       ?ShowMessageA@@YAHHH@Z     10007044 f   ConEmuThA.obj
 0001:00006080       ?ShowMessageA@@YAHPBDH@Z   10007080 f   ConEmuThA.obj
 0001:000060b4       ?ShowPluginMenuA@@YAHXZ    100070b4 f   ConEmuThA.obj
 0001:00006242       _ExitFAR@0                 10007242 f   ConEmuThA.obj
 0001:0000628d       _GetMinFarVersion@0        1000728d f   ConEmuThA.obj
 0001:000062ab       _GetPluginInfo@4           100072ab f   ConEmuThA.obj
 0001:0000630f       _OpenPlugin@8              1000730f f   ConEmuThA.obj
 0001:00006337       _SetStartupInfo@4          10007337 f   ConEmuThA.obj
 0001:0000649f       ??$swprintf_c@$0IA@@@YAHAAY0IA@_WPB_WZZ 1000749f f i Display.obj
 0001:000064b8       ?BisItem2CeItem@CeFullPanelInfo@@QAEHHH_KKKHH@Z 100074b8 f   Display.obj
 0001:0000653d       ?CalcTopPanelItem@CeFullPanelInfo@@QAEHHH@Z 1000753d f   Display.obj
 0001:00006611       ?Close@CeFullPanelInfo@@QAEXXZ 10007611 f   Display.obj
 0001:0000664a       ?CreateView@CeFullPanelInfo@@QAEPAUHWND__@@XZ 1000764a f   Display.obj
 0001:0000696c       ?DisplayReloadPanel@CeFullPanelInfo@@QAEXXZ 1000796c f   Display.obj
 0001:0000698f       ?DisplayThread@CeFullPanelInfo@@SGKPAX@Z 1000798f f   Display.obj
 0001:00006aa1       ?DisplayWndProc@CeFullPanelInfo@@SGJPAUHWND__@@IIJ@Z 10007aa1 f   Display.obj
 0001:00006f55       ?DrawItemText@CeFullPanelInfo@@QAEHPAUHDC__@@PAUtagRECT@@1PAUCePluginPanelItem@@PB_WPAUHBRUSH__@@H@Z 10007f55 f   Display.obj
 0001:000075a3       ?FarItem2CeItem@CeFullPanelInfo@@QAEHHPB_W0KU_FILETIME@@_KHPAXKP6GHXZ2K@Z 100085a3 f   Display.obj
 0001:0000784a       ?FinalRelease@CeFullPanelInfo@@QAEXXZ 1000884a f   Display.obj
 0001:00007923       ?GetConCoordFromIndex@CeFullPanelInfo@@QAEHHAAU_COORD@@@Z 10008923 f   Display.obj
 0001:000079b0       ?GetIndexFromWndCoord@CeFullPanelInfo@@QAEHHHAAH@Z 100089b0 f   Display.obj
 0001:00007a27       ?GetItemColors@CeFullPanelInfo@@QAEPAUHBRUSH__@@HPAUCePluginPanelItem@@PAUCePluginPanelItemColor@@HAAK2@Z 10008a27 f   Display.obj
 0001:00007a7e       ?Invalidate@CeFullPanelInfo@@QAEXXZ 10008a7e f   Display.obj
 0001:00007ac2       ?InvalidateAll@CeFullPanelInfo@@SAXXZ 10008ac2 f   Display.obj
 0001:00007aff       ?LoadItemColors@CeFullPanelInfo@@QAEXHPAUCePluginPanelItem@@PAUCePluginPanelItemColor@@HH@Z 10008aff f   Display.obj
 0001:00007d3a       ?OnSettingsChanged@CeFullPanelInfo@@QAEHH@Z 10008d3a f   Display.obj
 0001:00007dcc       ?Paint@CeFullPanelInfo@@QAEXPAUHWND__@@AAUtagPAINTSTRUCT@@AAUtagRECT@@@Z 10008dcc f   Display.obj
 0001:00008585       ?PaintItem@CeFullPanelInfo@@QAEHPAUHDC__@@HHHPAUCePluginPanelItem@@PAUCePluginPanelItemColor@@HHPAUHBRUSH__@@3K@Z 10009585 f   Display.obj
 0001:000089fb       ?ReallocItems@CeFullPanelInfo@@QAEHH@Z 100099fb f   Display.obj
 0001:00008b2e       ?RegisterPanelView@CeFullPanelInfo@@QAEHXZ 10009b2e f   Display.obj
 0001:00008dfa       ?RequestSetPos@CeFullPanelInfo@@QAEXHHH@Z 10009dfa f   Display.obj
 0001:00008eb2       ?StringCchCopyNW@@YGJPA_WIPB_WI@Z 10009eb2 f i Display.obj
 0001:00008f34       ?UnregisterPanelView@CeFullPanelInfo@@QAEH_N@Z 10009f34 f   Display.obj
 0001:00009056       ??$SafeDelete@UMSectionSimple@@@@YAXAAPAUMSectionSimple@@@Z 1000a056 f i ImgCache.obj
 0001:00009087       ??0?$CQueueProcessor@PAUIMAGE_CACHE_INFO@@@@QAE@XZ 1000a087 f i ImgCache.obj
 0001:000090eb       ??0CImgCache@@QAE@PAUHINSTANCE__@@@Z 1000a0eb f   ImgCache.obj
 0001:00009235       ??1?$CQueueProcessor@PAUIMAGE_CACHE_INFO@@@@UAE@XZ 1000a235 f i ImgCache.obj
 0001:000092be       ??1CImgCache@@QAE@XZ       1000a2be f   ImgCache.obj
 0001:0000938b       ??_G?$CQueueProcessor@PAUIMAGE_CACHE_INFO@@@@UAEPAXI@Z 1000a38b f i ImgCache.obj
 0001:0000938b       ??_E?$CQueueProcessor@PAUIMAGE_CACHE_INFO@@@@UAEPAXI@Z 1000a38b f i ImgCache.obj
 0001:000093ad       ??_GCImgLoader@@UAEPAXI@Z  1000a3ad f i ImgCache.obj
 0001:000093ad       ??_ECImgLoader@@UAEPAXI@Z  1000a3ad f i ImgCache.obj
 0001:000093cf       ?OnItemReady@?$CQueueProcessor@PAUIMAGE_CACHE_INFO@@@@MAEXAAPAUIMAGE_CACHE_INFO@@J@Z 1000a3cf f i ImgCache.obj
 0001:000093cf       ?ApplyChanges@?$CQueueProcessor@PAUIMAGE_CACHE_INFO@@@@MAEXAAPAUIMAGE_CACHE_INFO@@ABQAU2@@Z 1000a3cf f i ImgCache.obj
 0001:000093cf       ?OnItemFailed@?$CQueueProcessor@PAUIMAGE_CACHE_INFO@@@@MAEXAAPAUIMAGE_CACHE_INFO@@J@Z 1000a3cf f i ImgCache.obj
 0001:000093d2       ?CheckDrawDibCreated@CImgCache@@IAEHXZ 1000a3d2 f   ImgCache.obj
 0001:000094ed       ?CheckHighPriority@CImgLoader@@UAE_NABQAUIMAGE_CACHE_INFO@@@Z 1000a4ed f i ImgCache.obj
 0001:000094ed       ?Filter@?$MToolHelp@UtagPROCESSENTRY32W@@$1?Process32FirstW@@YGHPAXPAU1@@Z$1?Process32NextW@@YGH01@Z@@MAE_NABUtagPROCESSENTRY32W@@@Z 1000a4ed f i common-kernel32:MProcess.obj
 0001:000094ed       ?CheckHighPriority@?$CQueueProcessor@PAUIMAGE_CACHE_INFO@@@@MAE_NABQAUIMAGE_CACHE_INFO@@@Z 1000a4ed f i ImgCache.obj
 0001:000094f2       ?CheckLoadDibCreated@CImgCache@@IAEHXZ 1000a4f2 f   ImgCache.obj
 0001:0000960d       ?CheckThread@?$CQueueProcessor@PAUIMAGE_CACHE_INFO@@@@IAEJXZ 1000a60d f i ImgCache.obj
 0001:0000969e       ?CheckWaitingCount@?$CQueueProcessor@PAUIMAGE_CACHE_INFO@@@@AAEXXZ 1000a69e f i ImgCache.obj
 0001:000096e0       ?ClearQueue@?$CQueueProcessor@PAUIMAGE_CACHE_INFO@@@@AAEXXZ 1000a6e0 f i ImgCache.obj
 0001:0000973b       ?CopyBits@CImgCache@@IAEXU_COORD@@PAEK01@Z 1000a73b f   ImgCache.obj
 0001:00009796       ?CopyItem@?$CQueueProcessor@PAUIMAGE_CACHE_INFO@@@@MAEXPBQAUIMAGE_CACHE_INFO@@PAPAU2@@Z 1000a796 f i ImgCache.obj
 0001:000097b3       ?FindInCache@CImgCache@@IAEHPAUCePluginPanelItem@@PAHI@Z 1000a7b3 f   ImgCache.obj
 0001:000099bf       ?FindOrCreate@?$CQueueProcessor@PAUIMAGE_CACHE_INFO@@@@AAEPAUProcessingItem@1@ABQAUIMAGE_CACHE_INFO@@J_NW4ProcessingPriority@@@Z 1000a9bf f i ImgCache.obj
 0001:00009b2c       ?FreeItem@?$CQueueProcessor@PAUIMAGE_CACHE_INFO@@@@MAEXABQAUIMAGE_CACHE_INFO@@@Z 1000ab2c f i ImgCache.obj
 0001:00009b2f       ?FreeModules@CImgCache@@IAEXXZ 1000ab2f f   ImgCache.obj
 0001:00009b80       ?Init@CImgCache@@QAEXK@Z   1000ab80 f   ImgCache.obj
 0001:00009bc9       ?InitializeQueue@?$CQueueProcessor@PAUIMAGE_CACHE_INFO@@@@AAEXH@Z 1000abc9 f i ImgCache.obj
 0001:00009c4a       ?IsEqual@?$CQueueProcessor@PAUIMAGE_CACHE_INFO@@@@MAE_NABQAUIMAGE_CACHE_INFO@@J0J@Z 1000ac4a f i ImgCache.obj
 0001:00009c77       ?IsEqual@CImgLoader@@UAE_NABQAUIMAGE_CACHE_INFO@@J0J@Z 1000ac77 f i ImgCache.obj
 0001:00009c98       ?IsStopRequested@?$CQueueProcessor@PAUIMAGE_CACHE_INFO@@@@UAE_NABQAUIMAGE_CACHE_INFO@@@Z 1000ac98 f i ImgCache.obj
 0001:00009ca9       ?IsTerminationRequested@?$CQueueProcessor@PAUIMAGE_CACHE_INFO@@@@MAE_NXZ 1000aca9 f i ImgCache.obj
 0001:00009ca9       ?IsTerminationRequested@CImgLoader@@UAE_NXZ 1000aca9 f i ImgCache.obj
 0001:00009cad       ?LoadModules@CImgCache@@IAEXXZ 1000acad f   ImgCache.obj
 0001:00009ec7       ?LoadShellIcon@CImgCache@@QAEHPAUIMAGE_CACHE_INFO@@H@Z 1000aec7 f   ImgCache.obj
 0001:0000a1b6       ?LoadThumbnail@CImgCache@@QAEHPAUIMAGE_CACHE_INFO@@@Z 1000b1b6 f   ImgCache.obj
 0001:0000a5e5       ?OnThreadStarted@?$CQueueProcessor@PAUIMAGE_CACHE_INFO@@@@MAEJXZ 1000b5e5 f i ImgCache.obj
 0001:0000a5e8       ?OnThreadStarted@CImgLoader@@UAEJXZ 1000b5e8 f i ImgCache.obj
 0001:0000a607       ?OnThreadStopped@CImgLoader@@UAEXXZ 1000b607 f i ImgCache.obj
 0001:0000a618       ?PaintItem@CImgCache@@QAEHPAUHDC__@@HHHPAUCePluginPanelItem@@PAPB_WPAH@Z 1000b618 f   ImgCache.obj
 0001:0000aaa3       ?ProcessItem@?$CQueueProcessor@PAUIMAGE_CACHE_INFO@@@@IAEJPAUProcessingItem@1@@Z 1000baa3 f i ImgCache.obj
 0001:0000aaec       ?ProcessItem@?$CQueueProcessor@PAUIMAGE_CACHE_INFO@@@@MAEJAAPAUIMAGE_CACHE_INFO@@J@Z 1000baec f i ImgCache.obj
 0001:0000aaf4       ?ProcessItem@CImgLoader@@UAEJAAPAUIMAGE_CACHE_INFO@@J@Z 1000baf4 f i ImgCache.obj
 0001:0000ab39       ?ProcessingStep@?$CQueueProcessor@PAUIMAGE_CACHE_INFO@@@@IAE_NXZ 1000bb39 f i ImgCache.obj
 0001:0000acc5       ?ProcessingThread@?$CQueueProcessor@PAUIMAGE_CACHE_INFO@@@@KGKPAX@Z 1000bcc5 f i ImgCache.obj
 0001:0000aceb       ?RequestItem@?$CQueueProcessor@PAUIMAGE_CACHE_INFO@@@@QAEJ_NW4ProcessingPriority@@QAUIMAGE_CACHE_INFO@@J@Z 1000bceb f i ImgCache.obj
 0001:0000ad89       ?RequestItem@CImgCache@@QAEHPAUCePluginPanelItem@@I@Z 1000bd89 f   ImgCache.obj
 0001:0000ae3c       ?Reset@CImgCache@@QAEXXZ   1000be3c f   ImgCache.obj
 0001:0000af89       ?SetCacheLocation@CImgCache@@QAEXPB_W@Z 1000bf89 f   ImgCache.obj
 0001:0000afe6       ?Terminate@?$CQueueProcessor@PAUIMAGE_CACHE_INFO@@@@QAEXK@Z 1000bfe6 f i ImgCache.obj
 0001:0000b036       _GetFileVersionInfoSizeW@8 1000c036 f   version:VERSION.dll
 0001:0000b03c       _GetFileVersionInfoW@16    1000c03c f   version:VERSION.dll
 0001:0000b042       _VerQueryValueW@16         1000c042 f   version:VERSION.dll
 0001:0000b048       _CreateToolhelp32Snapshot@8 1000c048 f   kernel32:KERNEL32.dll
 0001:0000b04e       _Thread32First@8           1000c04e f   kernel32:KERNEL32.dll
 0001:0000b054       _Thread32Next@8            1000c054 f   kernel32:KERNEL32.dll
 0001:0000b05a       ??2@YAPAXI@Z               1000c05a f   common-kernel32:Memory.obj
 0001:0000b07b       ??_V@YAXPAX@Z              1000c07b f   common-kernel32:Memory.obj
 0001:0000b07b       ??3@YAXPAX@Z               1000c07b f   common-kernel32:Memory.obj
 0001:0000b080       ??_U@YAPAXI@Z              1000c080 f   common-kernel32:Memory.obj
 0001:0000b089       ?HeapDeinitialize@@YAXXZ   1000c089 f   common-kernel32:Memory.obj
 0001:0000b0df       ?HeapInitialize@@YA_NXZ    1000c0df f   common-kernel32:Memory.obj
 0001:0000b10d       ?xf_calloc@@YAPAXII@Z      1000c10d f   common-kernel32:Memory.obj
 0001:0000b138       ?xf_free@@YAXPAX@Z         1000c138 f   common-kernel32:Memory.obj
 0001:0000b178       ?xf_malloc@@YAPAXI@Z       1000c178 f   common-kernel32:Memory.obj
 0001:0000b19e       ?xf_realloc@@YAPAXPAXI@Z   1000c19e f   common-kernel32:Memory.obj
 0001:0000b1c5       ?StringCchVPrintfA@@YGJPADIPBD0@Z 1000c1c5 f i common-kernel32:MStrSafe.obj
 0001:0000b21a       ?msprintf@@YAPB_WPA_WIPB_WZZ 1000c21a f   common-kernel32:MStrSafe.obj
 0001:0000b234       ?mvsprintf@@YAPB_WPA_WIPB_WPAD@Z 1000c234 f   common-kernel32:MStrSafe.obj
 0001:0000b697       ?sprintf_c@@YAHPADHPBDZZ   1000c697 f   common-kernel32:MStrSafe.obj
 0001:0000b6ba       ?swprintf_c@@YAHPA_WHPB_WZZ 1000c6ba f   common-kernel32:MStrSafe.obj
 0001:0000b6dd       __vsnprintf_l              1000c6dd f i common-kernel32:MStrSafe.obj
 0001:0000b70f       ?CommonShutdown@@YAXXZ     1000c70f f   common-kernel32:Common.obj
 0001:0000b71e       ??0MNullDesc@@QAE@XZ       1000c71e f i common-kernel32:MSecurity.obj
 0001:0000b740       ??1MNullDesc@@QAE@XZ       1000c740 f i common-kernel32:MSecurity.obj
 0001:0000b778       ?LoadAdvApi@MNullDesc@@IAEHXZ 1000c778 f i common-kernel32:MSecurity.obj
 0001:0000b850       ?LocalSecurity@@YAPAU_SECURITY_ATTRIBUTES@@XZ 1000c850 f   common-kernel32:MSecurity.obj
 0001:0000b87c       ?LocalSecurity@MNullDesc@@QAEPAU_SECURITY_ATTRIBUTES@@XZ 1000c87c f i common-kernel32:MSecurity.obj
 0001:0000b999       ?ShutdownSecurity@@YAXXZ   1000c999 f   common-kernel32:MSecurity.obj
 0001:0000b9be       ?UnloadAdvApi@MNullDesc@@IAEXXZ 1000c9be f i common-kernel32:MSecurity.obj
 0001:0000b9d6       ?ExecuteCmd@@YAPAUCESERVER_REQ@@PB_WPAU1@KPAUHWND__@@HKH@Z 1000c9d6 f   common-kernel32:ConEmuCheck.obj
 0001:0000bbab       ?ExecuteFreeResult@@YAXAAPAUCESERVER_REQ@@@Z 1000cbab f   common-kernel32:ConEmuCheck.obj
 0001:0000bbc3       ?ExecuteGuiCmd@@YAPAUCESERVER_REQ@@PAUHWND__@@PAU1@0H@Z 1000cbc3 f   common-kernel32:ConEmuCheck.obj
 0001:0000bc44       ?ExecuteNewCmd@@YAPAUCESERVER_REQ@@KI@Z 1000cc44 f   common-kernel32:ConEmuCheck.obj
 0001:0000bc82       ?ExecuteOpenPipe@@YAPAXPB_WAAY0CAI@_W0KKHPAXH@Z 1000cc82 f   common-kernel32:ConEmuCheck.obj
 0001:0000bdbc       ?ExecutePrepareCmd@@YAXPAUCESERVER_REQ@@KI@Z 1000cdbc f   common-kernel32:ConEmuCheck.obj
 0001:0000bdf3       ?ExecutePrepareCmd@@YAXPAUCESERVER_REQ_HDR@@KI@Z 1000cdf3 f   common-kernel32:ConEmuCheck.obj
 0001:0000be5b       ?ModuleName@@YAPB_WPB_W@Z  1000ce5b f   common-kernel32:ConEmuCheck.obj
 0001:0000bef1       ??$_Emplace_reallocate@ABUtagPROCESSENTRY32W@@@?$vector@UtagPROCESSENTRY32W@@V?$MArrayAllocator@UtagPROCESSENTRY32W@@@@@std@@QAEPAUtagPROCESSENTRY32W@@QAU2@ABU2@@Z 1000cef1 f i common-kernel32:MProcess.obj
 0001:0000bfb4       ??$emplace_back@ABUtagPROCESSENTRY32W@@@?$vector@UtagPROCESSENTRY32W@@V?$MArrayAllocator@UtagPROCESSENTRY32W@@@@@std@@QAEXABUtagPROCESSENTRY32W@@@Z 1000cfb4 f i common-kernel32:MProcess.obj
 0001:0000bfe7       ??0?$MToolHelp@UtagPROCESSENTRY32W@@$1?Process32FirstW@@YGHPAXPAU1@@Z$1?Process32NextW@@YGH01@Z@@QAE@KK@Z 1000cfe7 f i common-kernel32:MProcess.obj
 0001:0000c055       ??0bad_alloc@stdext@@QAE@ABV01@@Z 1000d055 f i common-kernel32:MProcess.obj
 0001:0000c073       ??0bad_alloc@stdext@@QAE@XZ 1000d073 f i common-kernel32:MProcess.obj
 0001:0000c083       ??0exception@stdext@@QAE@ABV01@@Z 1000d083 f i common-kernel32:MProcess.obj
 0001:0000c09b       ??1?$MToolHelp@UtagPROCESSENTRY32W@@$1?Process32FirstW@@YGHPAXPAU1@@Z$1?Process32NextW@@YGH01@Z@@UAE@XZ 1000d09b f i common-kernel32:MProcess.obj
 0001:0000c0b5       ??1bad_alloc@stdext@@UAE@XZ 1000d0b5 f i common-kernel32:MProcess.obj
 0001:0000c0bc       ??_G?$MToolHelp@UtagPROCESSENTRY32W@@$1?Process32FirstW@@YGHPAXPAU1@@Z$1?Process32NextW@@YGH01@Z@@UAEPAXI@Z 1000d0bc f i common-kernel32:MProcess.obj
 0001:0000c0bc       ??_EMToolHelpProcess@@UAEPAXI@Z 1000d0bc f i common-kernel32:MProcess.obj
 0001:0000c0bc       ??_GMToolHelpProcess@@UAEPAXI@Z 1000d0bc f i common-kernel32:MProcess.obj
 0001:0000c0bc       ??_E?$MToolHelp@UtagPROCESSENTRY32W@@$1?Process32FirstW@@YGHPAXPAU1@@Z$1?Process32NextW@@YGH01@Z@@UAEPAXI@Z 1000d0bc f i common-kernel32:MProcess.obj
 0001:0000c0e1       ??_Gexception@stdext@@UAEPAXI@Z 1000d0e1 f i common-kernel32:MProcess.obj
 0001:0000c0e1       ??_Gbad_alloc@stdext@@UAEPAXI@Z 1000d0e1 f i common-kernel32:MProcess.obj
 0001:0000c0e1       ??_Ebad_alloc@stdext@@UAEPAXI@Z 1000d0e1 f i common-kernel32:MProcess.obj
 0001:0000c0e1       ??_Eexception@stdext@@UAEPAXI@Z 1000d0e1 f i common-kernel32:MProcess.obj
 0001:0000c104       ?Close@?$MToolHelp@UtagPROCESSENTRY32W@@$1?Process32FirstW@@YGHPAXPAU1@@Z$1?Process32NextW@@YGH01@Z@@QAEXXZ 1000d104 f i common-kernel32:MProcess.obj
 0001:0000c171       ?Find@?$MToolHelp@UtagPROCESSENTRY32W@@$1?Process32FirstW@@YGHPAXPAU1@@Z$1?Process32NextW@@YGH01@Z@@QAE_NABV?$function@$$A6A_NABUtagPROCESSENTRY32W@@@Z@std@@AAUtagPROCESSENTRY32W@@@Z 1000d171 f i common-kernel32:MProcess.obj
 0001:0000c20b       ?Find@MToolHelpProcess@@QAE_NKAAUtagPROCESSENTRY32W@@@Z 1000d20b f i common-kernel32:MProcess.obj
 0001:0000c254       ?Next@?$MToolHelp@UtagPROCESSENTRY32W@@$1?Process32FirstW@@YGHPAXPAU1@@Z$1?Process32NextW@@YGH01@Z@@QAE_NAAUtagPROCESSENTRY32W@@@Z 1000d254 f i common-kernel32:MProcess.obj
 0001:0000c2ac       ?Open@?$MToolHelp@UtagPROCESSENTRY32W@@$1?Process32FirstW@@YGHPAXPAU1@@Z$1?Process32NextW@@YGH01@Z@@QAE_NXZ 1000d2ac f i common-kernel32:MProcess.obj
 0001:0000c30b       ?_Calculate_growth@?$vector@UtagPROCESSENTRY32W@@V?$MArrayAllocator@UtagPROCESSENTRY32W@@@@@std@@ABEII@Z 1000d30b f i common-kernel32:MProcess.obj
 0001:0000c338       ?_Change_array@?$vector@UtagPROCESSENTRY32W@@V?$MArrayAllocator@UtagPROCESSENTRY32W@@@@@std@@AAEXQAUtagPROCESSENTRY32W@@II@Z 1000d338 f i common-kernel32:MProcess.obj
 0001:0000c36d       ?_Copy@?$_Func_impl_no_alloc@V<lambda_9e7323793ed24b1a5fadb4d27ba29021>@@_NABUtagPROCESSENTRY32W@@@std@@EBEPAV?$_Func_base@_NABUtagPROCESSENTRY32W@@@2@PAX@Z 1000d36d f i common-kernel32:MProcess.obj
 0001:0000c36d       ?_Move@?$_Func_impl_no_alloc@V<lambda_9e7323793ed24b1a5fadb4d27ba29021>@@_NABUtagPROCESSENTRY32W@@@std@@EAEPAV?$_Func_base@_NABUtagPROCESSENTRY32W@@@2@PAX@Z 1000d36d f i common-kernel32:MProcess.obj
 0001:0000c383       ?_Delete_this@?$_Func_impl_no_alloc@P6GHPAX@ZXPAX@std@@EAEX_N@Z 1000d383 f i common-kernel32:WObjects.obj
 0001:0000c383       ?_Delete_this@?$_Func_impl_no_alloc@V<lambda_9e7323793ed24b1a5fadb4d27ba29021>@@_NABUtagPROCESSENTRY32W@@@std@@EAEX_N@Z 1000d383 f i common-kernel32:MProcess.obj
 0001:0000c39a       ?_Do_call@?$_Func_impl_no_alloc@V<lambda_9e7323793ed24b1a5fadb4d27ba29021>@@_NABUtagPROCESSENTRY32W@@@std@@EAE_NABUtagPROCESSENTRY32W@@@Z 1000d39a f i common-kernel32:MProcess.obj
 0001:0000c3ad       ?_Doraise@bad_alloc@stdext@@MBEXXZ 1000d3ad f i common-kernel32:MProcess.obj
 0001:0000c3ba       ?_Get@?$_Func_impl_no_alloc@V<lambda_9e7323793ed24b1a5fadb4d27ba29021>@@_NABUtagPROCESSENTRY32W@@@std@@EBEPBXXZ 1000d3ba f i common-kernel32:MProcess.obj
 0001:0000c3ba       ?_Get@?$_Func_impl_no_alloc@P6GHPAX@ZXPAX@std@@EBEPBXXZ 1000d3ba f i common-kernel32:WObjects.obj
 0001:0000c3be       ?_Target_type@?$_Func_impl_no_alloc@V<lambda_9e7323793ed24b1a5fadb4d27ba29021>@@_NABUtagPROCESSENTRY32W@@@std@@EBEABVtype_info@@XZ 1000d3be f i common-kernel32:MProcess.obj
 0001:0000c3c4       ?_Tidy@?$_Func_class@XPAX@std@@IAEXXZ 1000d3c4 f i common-kernel32:WObjects.obj
 0001:0000c3c4       ?_Tidy@?$_Func_class@_NABUtagPROCESSENTRY32W@@@std@@IAEXXZ 1000d3c4 f i common-kernel32:MProcess.obj
 0001:0000c3e2       ?_Tidy@?$vector@UtagPROCESSENTRY32W@@V?$MArrayAllocator@UtagPROCESSENTRY32W@@@@@std@@AAEXXZ 1000d3e2 f i common-kernel32:MProcess.obj
 0001:0000c3fe       ?_Xlength@?$vector@UtagPROCESSENTRY32W@@V?$MArrayAllocator@UtagPROCESSENTRY32W@@@@@std@@CAXXZ 1000d3fe f i common-kernel32:MProcess.obj
 0001:0000c409       ?allocate@?$MArrayAllocator@UtagPROCESSENTRY32W@@@@QAEPAUtagPROCESSENTRY32W@@I@Z 1000d409 f i common-kernel32:MProcess.obj
 0001:0000c43b       ?getNext@?$MToolHelp@UtagPROCESSENTRY32W@@$1?Process32FirstW@@YGHPAXPAU1@@Z$1?Process32NextW@@YGH01@Z@@IAE_NXZ 1000d43b f i common-kernel32:MProcess.obj
 0001:0000c4bc       ?isTerminalMode@@YA_NXZ    1000d4bc f   common-kernel32:MProcess.obj
 0001:0000c5af       ?push_back@?$MArray@UtagPROCESSENTRY32W@@@@QAEHABUtagPROCESSENTRY32W@@@Z 1000d5af f i common-kernel32:MProcess.obj
 0001:0000c5d1       ?swap@?$vector@UtagPROCESSENTRY32W@@V?$MArrayAllocator@UtagPROCESSENTRY32W@@@@@std@@QAEXAAV12@@Z 1000d5d1 f i common-kernel32:MProcess.obj
 0001:0000c605       ?what@exception@stdext@@UBEPBDXZ 1000d605 f i common-kernel32:MProcess.obj
 0001:0000c613       ?Init@HkFunc@@QAE_NPB_WPAUHINSTANCE__@@@Z 1000d613 f   common-kernel32:HkFunc.obj
 0001:0000c671       ??0MSection@@QAE@XZ        1000d671 f   common-kernel32:MSection.obj
 0001:0000c6d0       ??0MSectionLock@@QAE@XZ    1000d6d0 f   common-kernel32:MSection.obj
 0001:0000c6dd       ??1MSection@@QAE@XZ        1000d6dd f   common-kernel32:MSection.obj
 0001:0000c737       ??1MSectionLock@@QAE@XZ    1000d737 f   common-kernel32:MSection.obj
 0001:0000c750       ?AddRef@MSection@@IAEXK@Z  1000d750 f   common-kernel32:MSection.obj
 0001:0000c7b9       ?Lock@MSection@@IAEHHK@Z   1000d7b9 f   common-kernel32:MSection.obj
 0001:0000c87f       ?Lock@MSectionLock@@QAEHPAVMSection@@HK@Z 1000d87f f   common-kernel32:MSection.obj
 0001:0000c8ca       ?MyEnterCriticalSection@MSection@@IAE_NK@Z 1000d8ca f   common-kernel32:MSection.obj
 0001:0000c9b2       ?ReleaseRef@MSection@@IAEHK@Z 1000d9b2 f   common-kernel32:MSection.obj
 0001:0000ca1f       ?Unlock@MSection@@IAEXH@Z  1000da1f f   common-kernel32:MSection.obj
 0001:0000ca5d       ?Unlock@MSectionLock@@QAEXXZ 1000da5d f   common-kernel32:MSection.obj
 0001:0000ca7a       ?WaitUnlocked@MSection@@IAEXKK@Z 1000da7a f   common-kernel32:MSection.obj
 0001:0000cad5       ??$sprintf_c@$0CI@@@YAHAAY0CI@DPBDZZ 1000dad5 f i common-kernel32:WThreads.obj
 0001:0000caeb       ?SetThreadName@@YAXKPAD@Z  1000daeb f   common-kernel32:WThreads.obj
 0001:0000cb44       ?apiCreateThread@@YAPAXP6GKPAX@Z0PAKPBDH@Z 1000db44 f   common-kernel32:WThreads.obj
 0001:0000cc3c       ?apiTerminateThreadEx@@YAHPAXKPBDH@Z 1000dc3c f   common-kernel32:WThreads.obj
 0001:0000cd10       ?apiThreadHelper@@YGKPAX@Z 1000dd10 f   common-kernel32:WThreads.obj
 0001:0000ce9c       ??$?0P6GHPAX@ZX@?$function@$$A6AXPAX@Z@std@@QAE@P6GHPAX@Z@Z 1000de9c f i common-kernel32:WObjects.obj
 0001:0000cebc       ??$GetProcAddress@$$A6GHPAU_OSVERSIONINFOEXW@@K_K@Z@MModule@@QBE_NQBDAAP6GHPAU_OSVERSIONINFOEXW@@K_K@Z@Z 1000debc f i common-kernel32:WObjects.obj
 0001:0000cef9       ??0?$MHandleBase@PAX@@QAE@PAXV?$function@$$A6AXPAX@Z@std@@@Z 1000def9 f i common-kernel32:WObjects.obj
 0001:0000cf23       ??0MHandle@@QAE@PAXV?$function@$$A6AXPAX@Z@std@@@Z 1000df23 f i common-kernel32:WObjects.obj
 0001:0000cf54       ??0MWow64Disable@@QAE@XZ   1000df54 f i common-kernel32:WObjects.obj
 0001:0000cf99       ??R?$_Func_class@XPAX@std@@QBEXPAX@Z 1000df99 f i common-kernel32:WObjects.obj
 0001:0000cfb6       ?Close@?$MHandleBase@PAX@@QAEXXZ 1000dfb6 f i common-kernel32:WObjects.obj
 0001:0000cfe3       ?Disable@MWow64Disable@@QAEXXZ 1000dfe3 f i common-kernel32:WObjects.obj
 0001:0000cffd       ?FileExists@@YA_NPB_WPA_K@Z 1000dffd f   common-kernel32:WObjects.obj
 0001:0000d1e5       ?IsWin7@@YA_NXZ            1000e1e5 f   common-kernel32:WObjects.obj
 0001:0000d213       ?IsWinVerOrHigher@@YA_NG@Z 1000e213 f   common-kernel32:WObjects.obj
 0001:0000d290       ?IsWindows64@@YA_NXZ       1000e290 f   common-kernel32:WObjects.obj
 0001:0000d300       ?MakeOsVersionEx@@YA?AU_OSVERSIONINFOEXW@@KK@Z 1000e300 f   common-kernel32:WObjects.obj
 0001:0000d331       ?Restore@MWow64Disable@@QAEXXZ 1000e331 f i common-kernel32:WObjects.obj
 0001:0000d348       ?SetHandle@?$MHandleBase@PAX@@QAE_NPAXV?$function@$$A6AXPAX@Z@std@@@Z 1000e348 f i common-kernel32:WObjects.obj
 0001:0000d39c       ?_Move@?$_Func_impl_no_alloc@P6GHPAX@ZXPAX@std@@EAEPAV?$_Func_base@XPAX@2@PAX@Z 1000e39c f i common-kernel32:WObjects.obj
 0001:0000d39c       ?_Copy@?$_Func_impl_no_alloc@P6GHPAX@ZXPAX@std@@EBEPAV?$_Func_base@XPAX@2@PAX@Z 1000e39c f i common-kernel32:WObjects.obj
 0001:0000d3b2       ?_Do_call@?$_Func_impl_no_alloc@P6GHPAX@ZXPAX@std@@EAEX$$QAPAX@Z 1000e3b2 f i common-kernel32:WObjects.obj
 0001:0000d3c1       ?_Reset_move@?$_Func_class@XPAX@std@@IAEX$$QAV12@@Z 1000e3c1 f i common-kernel32:WObjects.obj
 0001:0000d3f5       ?_Target_type@?$_Func_impl_no_alloc@P6GHPAX@ZXPAX@std@@EBEABVtype_info@@XZ 1000e3f5 f i common-kernel32:WObjects.obj
 0001:0000d3fb       ?_VerifyVersionInfo@@YA_NPAU_OSVERSIONINFOEXW@@K_K@Z 1000e3fb f   common-kernel32:WObjects.obj
 0001:0000d475       ??0CEStr@@QAE@$$QAU0@@Z    1000e475 f   common-kernel32:CEStr.obj
 0001:0000d49e       ??0CEStr@@QAE@PB_W00000000@Z 1000e49e f   common-kernel32:CEStr.obj
 0001:0000d59f       ??0CEStr@@QAE@XZ           1000e59f f   common-kernel32:CEStr.obj
 0001:0000d5a9       ??1CEStr@@QAE@XZ           1000e5a9 f   common-kernel32:CEStr.obj
 0001:0000d5ae       ??4CEStr@@QAEAAU0@$$QAU0@@Z 1000e5ae f   common-kernel32:CEStr.obj
 0001:0000d5e3       ??4CEStr@@QAEAAU0@PB_W@Z   1000e5e3 f   common-kernel32:CEStr.obj
 0001:0000d5ff       ?data@CEStr@@QBEPA_WXZ     1000e5ff f   common-kernel32:CEStr.obj
 0001:0000d5ff       ??BCEStr@@QBEPB_WXZ        1000e5ff f   common-kernel32:CEStr.obj
 0001:0000d602       ??BCEStr@@QBE_NXZ          1000e602 f   common-kernel32:CEStr.obj
 0001:0000d60a       ?Clear@CEStr@@QAEXXZ       1000e60a f   common-kernel32:CEStr.obj
 0001:0000d618       ?Compare@CEStr@@QBEHPB_W_N@Z 1000e618 f   common-kernel32:CEStr.obj
 0001:0000d653       ?Detach@CEStr@@QAEPA_WXZ   1000e653 f   common-kernel32:CEStr.obj
 0001:0000d65d       ?GetBuffer@CEStr@@QAEPA_WH@Z 1000e65d f   common-kernel32:CEStr.obj
 0001:0000d6f3       ?GetLen@CEStr@@QBEHXZ      1000e6f3 f   common-kernel32:CEStr.obj
 0001:0000d71d       ?GetMaxCount@CEStr@@QAEHXZ 1000e71d f   common-kernel32:CEStr.obj
 0001:0000d739       ?IsEmpty@CEStr@@QBE_NXZ    1000e739 f   common-kernel32:CEStr.obj
 0001:0000d749       ?Release@CEStr@@QAEXXZ     1000e749 f   common-kernel32:CEStr.obj
 0001:0000d75e       ?Set@CEStr@@QAEPB_WPB_WH@Z 1000e75e f   common-kernel32:CEStr.obj
 0001:0000d823       ?SetAt@CEStr@@QAE_WH_W@Z   1000e823 f   common-kernel32:CEStr.obj
 0001:0000d859       ?PointToExt@@YAPB_WPB_W@Z  1000e859 f   common-kernel32:CmdLine.obj
 0001:0000d877       ?PointToName@@YAPB_WPB_W@Z 1000e877 f   common-kernel32:CmdLine.obj
 0001:0000d8b9       ?Unquote@@YAPB_WPA_W_N@Z   1000e8b9 f   common-kernel32:CmdLine.obj
 0001:0000d904       ?lstrdup@@YA?AUCEStr@@PB_WI@Z 1000e904 f   common-kernel32:MStrDup.obj
 0001:0000d956       ??0MSectionLockSimple@@QAE@XZ 1000e956 f   common-kernel32:MSectionSimple.obj
 0001:0000d960       ??0MSectionSimple@@QAE@_N@Z 1000e960 f   common-kernel32:MSectionSimple.obj
 0001:0000d98a       ??1MSectionLockSimple@@QAE@XZ 1000e98a f   common-kernel32:MSectionSimple.obj
 0001:0000d995       ??1MSectionSimple@@QAE@XZ  1000e995 f   common-kernel32:MSectionSimple.obj
 0001:0000d99a       ?Close@MSectionSimple@@QAEXXZ 1000e99a f   common-kernel32:MSectionSimple.obj
 0001:0000d9b0       ?Enter@MSectionSimple@@QAEXXZ 1000e9b0 f   common-kernel32:MSectionSimple.obj
 0001:0000d9b8       ?Init@MSectionSimple@@QAEXXZ 1000e9b8 f   common-kernel32:MSectionSimple.obj
 0001:0000d9ce       ?Leave@MSectionSimple@@QAEXXZ 1000e9ce f   common-kernel32:MSectionSimple.obj
 0001:0000d9d6       ?Lock@MSectionLockSimple@@QAEHPAUMSectionSimple@@K@Z 1000e9d6 f   common-kernel32:MSectionSimple.obj
 0001:0000da3c       ?RecreateAndLock@MSectionSimple@@QAE_NXZ 1000ea3c f   common-kernel32:MSectionSimple.obj
 0001:0000da83       ?TryEnter@MSectionSimple@@QAE_NXZ 1000ea83 f   common-kernel32:MSectionSimple.obj
 0001:0000daa2       ?Unlock@MSectionLockSimple@@QAEXXZ 1000eaa2 f   common-kernel32:MSectionSimple.obj
 0001:0000dccb       ?Clear@CEnvRestorer@@QAEXXZ 1000eccb f   common-kernel32:EnvVar.obj
 0001:0000dce2       ?ExpandEnvStr@@YA?AUCEStr@@PB_W@Z 1000ece2 f   common-kernel32:EnvVar.obj
 0001:0000dd03       ?GetEnvVar@@YA?AUCEStr@@PB_W@Z 1000ed03 f   common-kernel32:EnvVar.obj
 0001:0000dd1f       ?SavePathVar@CEnvRestorer@@QAEXPB_W@Z 1000ed1f f   common-kernel32:EnvVar.obj
 0001:0000dd4b       ??0MModule@@QAE@PAUHINSTANCE__@@@Z 1000ed4b f   common-kernel32:MModule.obj
 0001:0000dd61       ??1MModule@@QAE@XZ         1000ed61 f   common-kernel32:MModule.obj
 0001:0000dd66       ?Free@MModule@@QAEXXZ      1000ed66 f   common-kernel32:MModule.obj
 0001:0000dd91       ??0CRgnDetect@@QAE@XZ      1000ed91 f   common-user32:RgnDetect.obj
 0001:0000de52       ??1CRgnDetect@@QAE@XZ      1000ee52 f   common-user32:RgnDetect.obj
 0001:0000decd       ?DetectDialog@CRgnDetect@@IAE_NPA_WPAUtag_CharAttr@@HHHHPAH2@Z 1000eecd f   common-user32:RgnDetect.obj
 0001:0000e130       ?ExpandDialogFrame@CRgnDetect@@IAE_NPA_WPAUtag_CharAttr@@HHAAH2HH22@Z 1000f130 f   common-user32:RgnDetect.obj
 0001:0000e432       ?FindByBackground@CRgnDetect@@IAE_NPA_WPAUtag_CharAttr@@HHAAH222AA_N@Z 1000f432 f   common-user32:RgnDetect.obj
 0001:0000e537       ?FindDialog_Any@CRgnDetect@@IAE_NPA_WPAUtag_CharAttr@@HHAAH222AA_N@Z 1000f537 f   common-user32:RgnDetect.obj
 0001:0000e742       ?FindDialog_Inner@CRgnDetect@@IAE_NPA_WPAUtag_CharAttr@@HHAAH2@Z 1000f742 f   common-user32:RgnDetect.obj
 0001:0000e880       ?FindDialog_Left@CRgnDetect@@IAE_NPA_WPAUtag_CharAttr@@HHAAH222AA_N@Z 1000f880 f   common-user32:RgnDetect.obj
 0001:0000e9e4       ?FindDialog_Right@CRgnDetect@@IAE_NPA_WPAUtag_CharAttr@@HHAAH222AA_N@Z 1000f9e4 f   common-user32:RgnDetect.obj
 0001:0000eaa8       ?FindDialog_TopLeft@CRgnDetect@@IAE_NPA_WPAUtag_CharAttr@@HHAAH222AA_N@Z 1000faa8 f   common-user32:RgnDetect.obj
 0001:0000eb2f       ?FindDialog_TopRight@CRgnDetect@@IAE_NPA_WPAUtag_CharAttr@@HHAAH222AA_N@Z 1000fb2f f   common-user32:RgnDetect.obj
 0001:0000ebc2       ?FindFrameBottom_ByLeft@CRgnDetect@@IAE_NPA_WPAUtag_CharAttr@@HHAAH22@Z 1000fbc2 f   common-user32:RgnDetect.obj
 0001:0000ec62       ?FindFrameBottom_ByRight@CRgnDetect@@IAE_NPA_WPAUtag_CharAttr@@HHABH2AAH@Z 1000fc62 f   common-user32:RgnDetect.obj
 0001:0000ed42       ?FindFrameLeft_ByBottom@CRgnDetect@@IAE_NPA_WPAUtag_CharAttr@@HHAAH22@Z 1000fd42 f   common-user32:RgnDetect.obj
 0001:0000edf9       ?FindFrameLeft_ByTop@CRgnDetect@@IAE_NPA_WPAUtag_CharAttr@@HHAAH22@Z 1000fdf9 f   common-user32:RgnDetect.obj
 0001:0000ef4b       ?FindFrameRight_ByBottom@CRgnDetect@@IAE_NPA_WPAUtag_CharAttr@@HHAAH22@Z 1000ff4b f   common-user32:RgnDetect.obj
 0001:0000f005       ?FindFrameRight_ByTop@CRgnDetect@@IAE_NPA_WPAUtag_CharAttr@@HHAAH22@Z 10010005 f   common-user32:RgnDetect.obj
 0001:0000f142       ?FindFrameTop_ByLeft@CRgnDetect@@IAE_NPA_WPAUtag_CharAttr@@HHAAH22@Z 10010142 f   common-user32:RgnDetect.obj
 0001:0000f1c3       ?FindFrameTop_ByRight@CRgnDetect@@IAE_NPA_WPAUtag_CharAttr@@HHAAH22@Z 100101c3 f   common-user32:RgnDetect.obj
 0001:0000f271       ?FindFrame_TopLeft@CRgnDetect@@IAE_NPA_WPAUtag_CharAttr@@HHAAH222@Z 10010271 f   common-user32:RgnDetect.obj
 0001:0000f330       ?GetCharAttr@CRgnDetect@@QAEHHHAA_WAAUtag_CharAttr@@@Z 10010330 f   common-user32:RgnDetect.obj
 0001:0000f3a2       ?GetDetectedDialogsPtr@CRgnDetect@@QBEPBUtag_DetectedDialog@@XZ 100103a2 f   common-user32:RgnDetect.obj
 0001:0000f3a6       ?GetFlags@CRgnDetect@@QBEKXZ 100103a6 f   common-user32:RgnDetect.obj
 0001:0000f3ad       ?InitializeSBI@CRgnDetect@@QAEHABV?$array@K$0BA@@std@@@Z 100103ad f   common-user32:RgnDetect.obj
 0001:0000f727       ?MarkDialog@CRgnDetect@@IAEHPA_WPAUtag_CharAttr@@HHHHHHI_NK@Z 10010727 f   common-user32:RgnDetect.obj
 0001:0000fef3       ?OnWindowSizeChanged@CRgnDetect@@QAEXXZ 10010ef3 f   common-user32:RgnDetect.obj
 0001:0000fefb       ?OnWriteConsoleOutput@CRgnDetect@@QAEXPBU_CHAR_INFO@@U_COORD@@1PAU_SMALL_RECT@@ABV?$array@K$0BA@@std@@@Z 10010efb f   common-user32:RgnDetect.obj
 0001:00010178       ?PrepareTransparent@CRgnDetect@@QAEXPBUCEFAR_INFO_MAPPING@@ABV?$array@K$0BA@@std@@PBU_CONSOLE_SCREEN_BUFFER_INFO@@PA_WPAUtag_CharAttr@@HH_N@Z 10011178 f   common-user32:RgnDetect.obj
 0001:0001082c       ?PrepareTransparent@CRgnDetect@@QAEXPBUCEFAR_INFO_MAPPING@@ABV?$array@K$0BA@@std@@_N@Z 1001182c f   common-user32:RgnDetect.obj
 0001:000108d8       ?SetFarRect@CRgnDetect@@QAEXPAU_SMALL_RECT@@@Z 100118d8 f   common-user32:RgnDetect.obj
 0001:00010966       ?TextHeight@CRgnDetect@@QAEHXZ 10011966 f   common-user32:RgnDetect.obj
 0001:0001098e       ?TextWidth@CRgnDetect@@QAEHXZ 1001198e f   common-user32:RgnDetect.obj
 0001:000109b6       _wmemcmp                   100119b6 f i common-user32:RgnDetect.obj
 0001:000109ec       ?SearchAppPaths@@YA_NPB_WAAUCEStr@@_NPAVCEnvRestorer@@@Z 100119ec f   common-user32:WFiles.obj
 0001:00010de6       ?apiShowWindow@@YA_NPAUHWND__@@H@Z 10011de6 f   common-user32:WUser.obj
 0001:00010dfc       ?RegGetStringValue@@YAHPAUHKEY__@@PB_W1AAUCEStr@@K@Z 10011dfc f   common-user32:WRegistry.obj
 0001:00010f56       ??0bad_function_call@std@@QAE@ABV01@@Z 10011f56 f i libcpmt:xthrow.obj
 0001:00010f71       ??0bad_function_call@std@@QAE@XZ 10011f71 f i libcpmt:xthrow.obj
 0001:00010f82       ??0exception@std@@QAE@ABV01@@Z 10011f82 f i libcpmt:xthrow.obj
 0001:00010fae       ??0exception@std@@QAE@QBD@Z 10011fae f i libcpmt:xthrow.obj
 0001:00010fe3       ??0length_error@std@@QAE@ABV01@@Z 10011fe3 f i libcpmt:xthrow.obj
 0001:00010ffe       ??0length_error@std@@QAE@PBD@Z 10011ffe f i libcpmt:xthrow.obj
 0001:0001101d       ??0logic_error@std@@QAE@ABV01@@Z 1001201d f i libcpmt:xthrow.obj
 0001:00011038       ??1bad_function_call@std@@UAE@XZ 10012038 f i libcpmt:xthrow.obj
 0001:00011038       ??1bad_exception@std@@UAE@XZ 10012038 f i libvcruntime:frame.obj
 0001:00011038       ??1length_error@std@@UAE@XZ 10012038 f i libcpmt:xthrow.obj
 0001:00011049       ??_Elength_error@std@@UAEPAXI@Z 10012049 f i libcpmt:xthrow.obj
 0001:00011049       ??_Ebad_exception@std@@UAEPAXI@Z 10012049 f i libvcruntime:frame.obj
 0001:00011049       ??_Gbad_exception@std@@UAEPAXI@Z 10012049 f i libvcruntime:frame.obj
 0001:00011049       ??_Gexception@std@@UAEPAXI@Z 10012049 f i libcpmt:xthrow.obj
 0001:00011049       ??_Glogic_error@std@@UAEPAXI@Z 10012049 f i libcpmt:xthrow.obj
 0001:00011049       ??_Elogic_error@std@@UAEPAXI@Z 10012049 f i libcpmt:xthrow.obj
 0001:00011049       ??_Ebad_function_call@std@@UAEPAXI@Z 10012049 f i libcpmt:xthrow.obj
 0001:00011049       ??_Gbad_function_call@std@@UAEPAXI@Z 10012049 f i libcpmt:xthrow.obj
 0001:00011049       ??_Eexception@std@@UAEPAXI@Z 10012049 f i libcpmt:xthrow.obj
 0001:00011049       ??_Glength_error@std@@UAEPAXI@Z 10012049 f i libcpmt:xthrow.obj
 0001:00011076       ?_Xbad_function_call@std@@YAXXZ 10012076 f   libcpmt:xthrow.obj
 0001:00011093       ?_Xlength_error@std@@YAXPBD@Z 10012093 f   libcpmt:xthrow.obj
 0001:000110b3       ?what@bad_function_call@std@@UBEPBDXZ 100120b3 f i libcpmt:xthrow.obj
 0001:000110b9       ?what@exception@std@@UBEPBDXZ 100120b9 f i libcpmt:xthrow.obj
 0001:000110c6       ??3@YAXPAXI@Z              100120c6 f   LIBCMT:delete_scalar_size.obj
 0001:000110d4       @__security_check_cookie@4 100120d4 f   LIBCMT:secchk.obj
 0001:000110e5       __EH_epilog3               100120e5 f   LIBCMT:ehprolg3.obj
 0001:000110fa       __EH_epilog3_GS            100120fa f   LIBCMT:ehprolg3.obj
 0001:0001110b       __EH_prolog3               1001210b f   LIBCMT:ehprolg3.obj
 0001:0001113f       __EH_prolog3_GS            1001213f f   LIBCMT:ehprolg3.obj
 0001:00011176       __EH_prolog3_catch         10012176 f   LIBCMT:ehprolg3.obj
 0001:000111b0       __SEH_prolog4              100121b0 f   LIBCMT:sehprolg4.obj
 0001:000111f6       __SEH_epilog4              100121f6 f   LIBCMT:sehprolg4.obj
 0001:00011210       __alldiv                   10012210 f   LIBCMT:lldiv.obj
 0001:000112ba       ??_Gtype_info@@UAEPAXI@Z   100122ba f i LIBCMT:std_type_info_static.obj
 0001:000112ba       ??_Etype_info@@UAEPAXI@Z   100122ba f i LIBCMT:std_type_info_static.obj
 0001:000115fd       __DllMainCRTStartup@12     100125fd f   LIBCMT:dll_dllmain.obj
 0001:00011620       __chkstk                   10012620 f   LIBCMT:chkstk.obj
 0001:00011620       __alloca_probe             10012620 f   LIBCMT:chkstk.obj
 0001:0001164d       ___raise_securityfailure   1001264d f   LIBCMT:gs_report.obj
 0001:00011675       ___report_gsfailure        10012675 f   LIBCMT:gs_report.obj
 0001:000117bb       ___security_init_cookie    100127bb f   LIBCMT:gs_support.obj
 0001:00011806       ?__scrt_initialize_type_info@@YAXXZ 10012806 f   LIBCMT:tncleanup.obj
 0001:00011812       ?__scrt_uninitialize_type_info@@YAXXZ 10012812 f   LIBCMT:tncleanup.obj
 0001:0001181e       ___local_stdio_scanf_options 1001281e f i LIBCMT:default_local_stdio_options.obj
 0001:00011824       ___scrt_initialize_default_local_stdio_options 10012824 f   LIBCMT:default_local_stdio_options.obj
 0001:00011885       ___scrt_acquire_startup_lock 10012885 f   LIBCMT:utility.obj
 0001:000118b7       ___scrt_dllmain_after_initialize_c 100128b7 f   LIBCMT:utility.obj
 0001:000118e2       ___scrt_dllmain_before_initialize_c 100128e2 f   LIBCMT:utility.obj
 0001:000118f0       ___scrt_dllmain_crt_thread_attach 100128f0 f   LIBCMT:utility.obj
 0001:0001190f       ___scrt_dllmain_crt_thread_detach 1001290f f   LIBCMT:utility.obj
 0001:0001191c       ___scrt_dllmain_exception_filter 1001291c f   LIBCMT:utility.obj
 0001:00011950       ___scrt_dllmain_uninitialize_c 10012950 f   LIBCMT:utility.obj
 0001:00011973       ___scrt_dllmain_uninitialize_critical 10012973 f   LIBCMT:utility.obj
 0001:00011980       ___scrt_initialize_crt     10012980 f   LIBCMT:utility.obj
 0001:000119b9       ___scrt_initialize_onexit_tables 100129b9 f   LIBCMT:utility.obj
 0001:00011a5e       ___scrt_is_nonwritable_in_current_image 10012a5e f   LIBCMT:utility.obj
 0001:00011af2       ___scrt_release_startup_lock 10012af2 f   LIBCMT:utility.obj
 0001:00011b0f       ___scrt_uninitialize_crt   10012b0f f   LIBCMT:utility.obj
 0001:00011b37       ___scrt_get_dyn_tls_init_callback 10012b37 f   LIBCMT:dyn_tls_init.obj
 0001:00011b3d       ___scrt_fastfail           10012b3d f   LIBCMT:utility_desktop.obj
 0001:00011c57       __crt_debugger_hook        10012c57 f   LIBCMT:utility_desktop.obj
 0001:00011c5f       __RTC_Initialize           10012c5f f   LIBCMT:initsect.obj
 0001:00011c8b       __RTC_Terminate            10012c8b f   LIBCMT:initsect.obj
 0001:00011cb7       ___isa_available_init      10012cb7 f   LIBCMT:cpu_disp.obj
 0001:00011e4e       __get_startup_argv_mode    10012e4e f   LIBCMT:argv_mode.obj
 0001:00011e52       ___scrt_is_ucrt_dll_in_use 10012e52 f   LIBCMT:ucrt_detection.obj
 0001:00011e5e       _wcsrchr                   10012e5e f   libvcruntime:wcsrchr.obj
 0001:00011f00       ?GetRangeOfTrysToCheck@__FrameHandler3@@SA?AU?$pair@Viterator@TryBlockMap@__FrameHandler3@@V123@@std@@AAVTryBlockMap@1@HH@Z 10012f00 f   libvcruntime:trnsctrl.obj
 0001:00011f82       ?_CallCatchBlock2@@YAPAXPAUEHRegistrationNode@@PBU_s_FuncInfo@@PAXHK@Z 10012f82 f   libvcruntime:trnsctrl.obj
 0001:00011fe0       ?_CallSETranslator@@YAHPAUEHExceptionRecord@@PAUEHRegistrationNode@@PAX2PBU_s_FuncInfo@@H1@Z 10012fe0 f   libvcruntime:trnsctrl.obj
 0001:000120bb       ?_JumpToContinuation@@YGXPAXPAUEHRegistrationNode@@@Z 100130bb f   libvcruntime:trnsctrl.obj
 0001:000120eb       ?_UnwindNestedFrames@@YGXPAUEHRegistrationNode@@PAUEHExceptionRecord@@@Z 100130eb f   libvcruntime:trnsctrl.obj
 0001:0001213e       __CatchGuardHandler        1001313e f   libvcruntime:trnsctrl.obj
 0001:0001216f       __CreateFrameInfo          1001316f f   libvcruntime:trnsctrl.obj
 0001:00012193       __FindAndUnlinkFrame       10013193 f   libvcruntime:trnsctrl.obj
 0001:000121d8       __TranslatorGuardHandler   100131d8 f   libvcruntime:trnsctrl.obj
 0001:00012275       ___CxxFrameHandler3        10013275 f   libvcruntime:trnsctrl.obj
 0001:000122f0       __except_handler4          100132f0 f   libvcruntime:chandler4.obj
 0001:00012447       _memcmp                    10013447 f   libvcruntime:memcmp.obj
 0001:000133f0       _memmove                   100143f0 f   libvcruntime:memmove.obj
 0001:00013970       _memset                    10014970 f   libvcruntime:memset.obj
 0001:00013aca       _wcschr                    10014aca f   libvcruntime:wcschr.obj
 0001:00013b91       __CxxThrowException@8      10014b91 f   libvcruntime:throw.obj
 0001:00013c00       _strchr                    10014c00 f   libvcruntime:strchr.obj
 0001:00013c6e       ___from_strstr_to_strchr   10014c6e     libvcruntime:strchr.obj
 0001:00013d30       _strrchr                   10014d30 f   libvcruntime:strrchr.obj
 0001:00013e70       _memchr                    10014e70 f   libvcruntime:memchr.obj
 0001:00013f1d       ___std_exception_copy      10014f1d f   libvcruntime:std_exception.obj
 0001:00013f80       ___std_exception_destroy   10014f80 f   libvcruntime:std_exception.obj
 0001:00013f9f       ___std_type_info_compare   10014f9f f   libvcruntime:std_type_info.obj
 0001:00013fdb       ___std_type_info_destroy_list 10014fdb f   libvcruntime:std_type_info.obj
 0001:00013ffe       ___vcrt_initialize         10014ffe f   libvcruntime:initialization.obj
 0001:00014027       ___vcrt_thread_attach      10015027 f   libvcruntime:initialization.obj
 0001:00014032       ___vcrt_thread_detach      10015032 f   libvcruntime:initialization.obj
 0001:0001403d       ___vcrt_uninitialize       1001503d f   libvcruntime:initialization.obj
 0001:0001405c       ___vcrt_uninitialize_critical 1001505c f   libvcruntime:initialization.obj
 0001:00014064       ___vcrt_freefls@4          10015064 f   libvcruntime:per_thread_data.obj
 0001:00014080       ___vcrt_freeptd            10015080 f   libvcruntime:per_thread_data.obj
 0001:000140b6       ___vcrt_getptd             100150b6 f   libvcruntime:per_thread_data.obj
 0001:000140c4       ___vcrt_getptd_noexit      100150c4 f   libvcruntime:per_thread_data.obj
 0001:00014156       ___vcrt_initialize_ptd     10015156 f   libvcruntime:per_thread_data.obj
 0001:00014189       ___vcrt_uninitialize_ptd   10015189 f   libvcruntime:per_thread_data.obj
 0001:0001489b       ??$TypeMatchHelper@$$CBU_s_HandlerType@@@@YAHPBU_s_HandlerType@@PBU_s_CatchableType@@PBU_s_ThrowInfo@@@Z 1001589b f i libvcruntime:frame.obj
 0001:00014929       ??$__InternalCxxFrameHandler@V__FrameHandler3@@@@YA?AW4_EXCEPTION_DISPOSITION@@PAUEHExceptionRecord@@PAUEHRegistrationNode@@PAU_CONTEXT@@PAXPBU_s_FuncInfo@@H1E@Z 10015929 f i libvcruntime:frame.obj
 0001:00014a2b       ??0bad_exception@std@@QAE@ABV01@@Z 10015a2b f i libvcruntime:frame.obj
 0001:00014a46       ??0bad_exception@std@@QAE@XZ 10015a46 f i libvcruntime:frame.obj
 0001:00014a5e       ??8type_info@@QBE_NABV0@@Z 10015a5e f i libvcruntime:frame.obj
 0001:00014cc5       ?FrameUnwindToEmptyState@__FrameHandler3@@SAXPAUEHRegistrationNode@@PAXPBU_s_FuncInfo@@@Z 10015cc5 f   libvcruntime:frame.obj
 0001:00014cdd       ?FrameUnwindToState@__FrameHandler3@@SAXPAUEHRegistrationNode@@PAXPBU_s_FuncInfo@@H@Z 10015cdd f   libvcruntime:frame.obj
 0001:00014e5f       ?_CallMemberFunction1@@YGXQAX00@Z 10015e5f f i libvcruntime:frame.obj
 0001:00014e6f       ?_CallMemberFunction2@@YGXQAX00H@Z 10015e6f f i libvcruntime:frame.obj
 0001:00014e82       ?getESTypes@__FrameHandler3@@SAPBU_s_ESTypeList@@PBU_s_FuncInfo@@@Z 10015e82 f i libvcruntime:frame.obj
 0001:00014e90       __CallSettingFrame@12      10015e90 f   libvcruntime:lowhelpr.obj
 0001:00014eb7       __NLG_Return               10015eb7     libvcruntime:lowhelpr.obj
 0001:00014edc       ___except_validate_context_record 10015edc f   libvcruntime:jbcxrval.obj
 0001:00014f0c       ___except_validate_jump_buffer 10015f0c f   libvcruntime:jbcxrval.obj
 0001:00014f40       __local_unwind4            10015f40 f   libvcruntime:exsup4.obj
 0001:00015018       __seh_longjmp_unwind4@4    10016018 f   libvcruntime:exsup4.obj
 0001:00015040       @_EH4_CallFilterFunc@8     10016040 f   libvcruntime:exsup4.obj
 0001:00015058       @_EH4_TransferToHandler@8  10016058 f   libvcruntime:exsup4.obj
 0001:00015074       @_EH4_GlobalUnwind2@8      10016074 f   libvcruntime:exsup4.obj
 0001:00015090       @_EH4_LocalUnwind@16       10016090 f   libvcruntime:exsup4.obj
 0001:000150a7       ___vcrt_initialize_locks   100160a7 f   libvcruntime:locks.obj
 0001:000150e3       ___vcrt_uninitialize_locks 100160e3 f   libvcruntime:locks.obj
 0001:00015112       ??$__crt_fast_encode_pointer@PAX@@YAPAXQAX@Z 10016112 f i libvcruntime:winapi_downlevel.obj
 0001:00015262       ___vcrt_FlsAlloc           10016262 f   libvcruntime:winapi_downlevel.obj
 0001:0001529d       ___vcrt_FlsFree            1001629d f   libvcruntime:winapi_downlevel.obj
 0001:000152d8       ___vcrt_FlsGetValue        100162d8 f   libvcruntime:winapi_downlevel.obj
 0001:00015313       ___vcrt_FlsSetValue        10016313 f   libvcruntime:winapi_downlevel.obj
 0001:00015351       ___vcrt_InitializeCriticalSectionEx 10016351 f   libvcruntime:winapi_downlevel.obj
 0001:00015398       ___vcrt_initialize_winapi_thunks 10016398 f   libvcruntime:winapi_downlevel.obj
 0001:000153c1       ___vcrt_uninitialize_winapi_thunks 100163c1 f   libvcruntime:winapi_downlevel.obj
 0001:000153f3       ___vcrt_initialize_pure_virtual_call_handler 100163f3 f   libvcruntime:purevirt_data.obj
 0001:000153fe       _unexpected                100163fe f   libvcruntime:unexpected.obj
 0001:0001541b       ?GetCurrentState@__FrameHandler3@@SAHPAUEHRegistrationNode@@PAXPBU_s_FuncInfo@@@Z 1001641b f   libvcruntime:ehstate.obj
 0001:00015438       ?SetState@__FrameHandler3@@SAXPAUEHRegistrationNode@@PBU_s_FuncInfo@@H@Z 10016438 f   libvcruntime:ehstate.obj
 0001:00015446       ___DestructExceptionObject 10016446 f   libvcruntime:ehhelpers.obj
 0001:000154e6       ?_CallMemberFunction0@@YGXQAX0@Z 100164e6 f i libvcruntime:ehhelpers.obj
 0001:000154f3       __IsExceptionObjectToBeDestroyed 100164f3 f   libvcruntime:ehhelpers.obj
 0001:00015519       ___AdjustPointer           10016519 f   libvcruntime:ehhelpers.obj
 0001:0001553e       ___FrameUnwindFilter       1001653e f   libvcruntime:ehhelpers.obj
 0001:00015590       __global_unwind2           10016590 f   libvcruntime:exsup.obj
 0001:000155f6       __local_unwind2            100165f6 f   libvcruntime:exsup.obj
 0001:0001567a       __abnormal_termination     1001667a f   libvcruntime:exsup.obj
 0001:000156a0       __NLG_Notify1              100166a0 f   libvcruntime:exsup.obj
 0001:000156ac       __NLG_Notify               100166ac f   libvcruntime:exsup.obj
 0001:000156c3       __NLG_Dispatch2            100166c3     libvcruntime:exsup.obj
 0001:000156c3       __NLG_Dispatch             100166c3     libvcruntime:exsup.obj
 0001:000156cb       __NLG_Call                 100166cb f   libvcruntime:exsup.obj
 0001:000156cd       __NLG_Return2              100166cd     libvcruntime:exsup.obj
 0001:000156d0       _memcpy                    100166d0 f   libvcruntime:memcpy.obj
 0001:00015c44       ?initialize@?$dual_state_global@PAPAD@__crt_state_management@@QAEXQAPAD@Z 10016c44 f i libucrt:environment_initialization.obj
 0001:00015c44       ?initialize@?$dual_state_global@P6AHI@Z@__crt_state_management@@QAEXQ6AHI@Z@Z 10016c44 f i libucrt:new_handler.obj
 0001:00015c44       ?initialize@?$dual_state_global@P6AXH@Z@__crt_state_management@@QAEXQ6AXH@Z@Z 10016c44 f i libucrt:signal.obj
 0001:00015c44       ?initialize@?$dual_state_global@P6AXPB_W00II@Z@__crt_state_management@@QAEXQ6AXPB_W00II@Z@Z 10016c44 f i libucrt:invalid_parameter.obj
 0001:00015c44       ?initialize@?$dual_state_global@PAU__crt_locale_data@@@__crt_state_management@@QAEXQAU__crt_locale_data@@@Z 10016c44 f i libucrt:initialization.obj
 0001:00015c44       ?initialize@?$dual_state_global@P6AHPAU_exception@@@Z@__crt_state_management@@QAEXQ6AHPAU_exception@@@Z@Z 10016c44 f i libucrt:matherr.obj
 0001:00015c75       ___acrt_call_reportfault   10016c75 f   libucrt:invalid_parameter.obj
 0001:00015db0       ___acrt_initialize_invalid_parameter_handler 10016db0 f   libucrt:invalid_parameter.obj
 0001:00015dc4       __invalid_parameter        10016dc4 f   libucrt:invalid_parameter.obj
 0001:00015e3f       __invalid_parameter_noinfo 10016e3f f   libucrt:invalid_parameter.obj
 0001:00015e4f       __invoke_watson            10016e4f f   libucrt:invalid_parameter.obj
 0001:00015e82       ___acrt_errno_from_os_error 10016e82 f   libucrt:errno.obj
 0001:00015ec5       ___acrt_errno_map_os_error 10016ec5 f   libucrt:errno.obj
 0001:00015ee8       ___doserrno                10016ee8 f   libucrt:errno.obj
 0001:00015efb       __errno                    10016efb f   libucrt:errno.obj
 0001:0001620f       ??$count@D@formatting_buffer@__crt_stdio_output@@QBEIXZ 1001720f f i libucrt:output.obj
 0001:00016227       ??$ensure_buffer_is_big_enough@D@formatting_buffer@__crt_stdio_output@@QAE_NI@Z 10017227 f i libucrt:output.obj
 0001:000162ad       ??$is_wide_character_specifier@D@__crt_stdio_output@@YA_N_KDW4length_modifier@0@@Z 100172ad f i libucrt:output.obj
 0001:000162ed       ??$is_wide_character_specifier@_W@__crt_stdio_output@@YA_N_K_WW4length_modifier@0@@Z 100172ed f i libucrt:output.obj
 0001:0001633c       ??$scratch_data@D@formatting_buffer@__crt_stdio_output@@QAEPADXZ 1001733c f i libucrt:output.obj
 0001:0001635a       ??$type_case_integer_parse_into_buffer@I@?$output_processor@DV?$string_output_adapter@D@__crt_stdio_output@@V?$standard_base@DV?$string_output_adapter@D@__crt_stdio_output@@@2@@__crt_stdio_output@@AAEXII_N@Z 1001735a f i libucrt:output.obj
 0001:0001635a       ??$type_case_integer_parse_into_buffer@I@?$output_processor@_WV?$string_output_adapter@_W@__crt_stdio_output@@V?$standard_base@_WV?$string_output_adapter@_W@__crt_stdio_output@@@2@@__crt_stdio_output@@AAEXII_N@Z 1001735a f i libucrt:output.obj
 0001:000163cf       ??$type_case_integer_parse_into_buffer@_K@?$output_processor@_WV?$string_output_adapter@_W@__crt_stdio_output@@V?$standard_base@_WV?$string_output_adapter@_W@__crt_stdio_output@@@2@@__crt_stdio_output@@AAEX_KI_N@Z 100173cf f i libucrt:output.obj
 0001:000163cf       ??$type_case_integer_parse_into_buffer@_K@?$output_processor@DV?$string_output_adapter@D@__crt_stdio_output@@V?$standard_base@DV?$string_output_adapter@D@__crt_stdio_output@@@2@@__crt_stdio_output@@AAEX_KI_N@Z 100173cf f i libucrt:output.obj
 0001:00016457       ??$write_multiple_characters@V?$string_output_adapter@D@__crt_stdio_output@@D@__crt_stdio_output@@YAXABV?$string_output_adapter@D@0@DHQAH@Z 10017457 f i libucrt:output.obj
 0001:00016483       ??$write_multiple_characters@V?$string_output_adapter@_W@__crt_stdio_output@@D@__crt_stdio_output@@YAXABV?$string_output_adapter@_W@0@DHQAH@Z 10017483 f i libucrt:output.obj
 0001:000164b4       ??0?$common_data@D@__crt_stdio_output@@IAE@XZ 100174b4 f i libucrt:output.obj
 0001:000164fb       ??0?$common_data@_W@__crt_stdio_output@@IAE@XZ 100174fb f i libucrt:output.obj
 0001:00016547       ??0?$output_adapter_data@DV?$string_output_adapter@D@__crt_stdio_output@@@__crt_stdio_output@@IAE@ABV?$string_output_adapter@D@1@_KQBDQAU__crt_locale_pointers@@QAD@Z 10017547 f i libucrt:output.obj
 0001:00016583       ??0?$output_adapter_data@_WV?$string_output_adapter@_W@__crt_stdio_output@@@__crt_stdio_output@@IAE@ABV?$string_output_adapter@_W@1@_KQB_WQAU__crt_locale_pointers@@QAD@Z 10017583 f i libucrt:output.obj
 0001:000165bf       ??0?$output_processor@DV?$string_output_adapter@D@__crt_stdio_output@@V?$standard_base@DV?$string_output_adapter@D@__crt_stdio_output@@@2@@__crt_stdio_output@@QAE@ABV?$string_output_adapter@D@1@_KQBDQAU__crt_locale_pointers@@QAD@Z 100175bf f i libucrt:output.obj
 0001:000165f4       ??0?$output_processor@_WV?$string_output_adapter@_W@__crt_stdio_output@@V?$standard_base@_WV?$string_output_adapter@_W@__crt_stdio_output@@@2@@__crt_stdio_output@@QAE@ABV?$string_output_adapter@_W@1@_KQB_WQAU__crt_locale_pointers@@QAD@Z 100175f4 f i libucrt:output.obj
 0001:00016629       ??0_LocaleUpdate@@QAE@QAU__crt_locale_pointers@@@Z 10017629 f i libucrt:output.obj
 0001:000166ac       ??1formatting_buffer@__crt_stdio_output@@QAE@XZ 100176ac f i libucrt:output.obj
 0001:000166c6       ??4?$__crt_unique_heap_ptr@DU__crt_internal_free_policy@@@@QAEAAV0@$$QAV0@@Z 100176c6 f i libucrt:output.obj
 0001:000166ea       ?crop_zeroes@__crt_stdio_output@@YAXPADQAU__crt_locale_pointers@@@Z 100176ea f i libucrt:output.obj
 0001:00016741       ?find_next_state@?$output_processor@DV?$string_output_adapter@D@__crt_stdio_output@@V?$standard_base@DV?$string_output_adapter@D@__crt_stdio_output@@@2@@__crt_stdio_output@@ABE?AW4state@2@DW432@@Z 10017741 f i libucrt:output.obj
 0001:00016773       ?find_next_state@?$output_processor@_WV?$string_output_adapter@_W@__crt_stdio_output@@V?$standard_base@_WV?$string_output_adapter@_W@__crt_stdio_output@@@2@@__crt_stdio_output@@ABE?AW4state@2@_WW432@@Z 10017773 f i libucrt:output.obj
 0001:000167a7       ?force_decimal_point@__crt_stdio_output@@YAXPADQAU__crt_locale_pointers@@@Z 100177a7 f i libucrt:output.obj
 0001:00016803       ?parse_int_from_format_string@?$output_processor@DV?$string_output_adapter@D@__crt_stdio_output@@V?$standard_base@DV?$string_output_adapter@D@__crt_stdio_output@@@2@@__crt_stdio_output@@AAE_NQAH@Z 10017803 f i libucrt:output.obj
 0001:0001685f       ?parse_int_from_format_string@?$output_processor@_WV?$string_output_adapter@_W@__crt_stdio_output@@V?$standard_base@_WV?$string_output_adapter@_W@__crt_stdio_output@@@2@@__crt_stdio_output@@AAE_NQAH@Z 1001785f f i libucrt:output.obj
 0001:000168bd       ?process@?$output_processor@DV?$string_output_adapter@D@__crt_stdio_output@@V?$standard_base@DV?$string_output_adapter@D@__crt_stdio_output@@@2@@__crt_stdio_output@@QAEHXZ 100178bd f i libucrt:output.obj
 0001:000169d9       ?process@?$output_processor@_WV?$string_output_adapter@_W@__crt_stdio_output@@V?$standard_base@_WV?$string_output_adapter@_W@__crt_stdio_output@@@2@@__crt_stdio_output@@QAEHXZ 100179d9 f i libucrt:output.obj
 0001:00016af9       ?state_case_flag@?$output_processor@DV?$string_output_adapter@D@__crt_stdio_output@@V?$standard_base@DV?$string_output_adapter@D@__crt_stdio_output@@@2@@__crt_stdio_output@@AAE_NXZ 10017af9 f i libucrt:output.obj
 0001:00016b36       ?state_case_flag@?$output_processor@_WV?$string_output_adapter@_W@__crt_stdio_output@@V?$standard_base@_WV?$string_output_adapter@_W@__crt_stdio_output@@@2@@__crt_stdio_output@@AAE_NXZ 10017b36 f i libucrt:output.obj
 0001:00016b73       ?state_case_normal@?$output_processor@DV?$string_output_adapter@D@__crt_stdio_output@@V?$standard_base@DV?$string_output_adapter@D@__crt_stdio_output@@@2@@__crt_stdio_output@@AAE_NXZ 10017b73 f i libucrt:output.obj
 0001:00016b92       ?state_case_normal@?$output_processor@_WV?$string_output_adapter@_W@__crt_stdio_output@@V?$standard_base@_WV?$string_output_adapter@_W@__crt_stdio_output@@@2@@__crt_stdio_output@@AAE_NXZ 10017b92 f i libucrt:output.obj
 0001:00016bb1       ?state_case_normal_common@?$output_processor@DV?$string_output_adapter@D@__crt_stdio_output@@V?$standard_base@DV?$string_output_adapter@D@__crt_stdio_output@@@2@@__crt_stdio_output@@AAE_NXZ 10017bb1 f i libucrt:output.obj
 0001:00016bdb       ?state_case_normal_common@?$output_processor@_WV?$string_output_adapter@_W@__crt_stdio_output@@V?$standard_base@_WV?$string_output_adapter@_W@__crt_stdio_output@@@2@@__crt_stdio_output@@AAE_NXZ 10017bdb f i libucrt:output.obj
 0001:00016bf6       ?state_case_normal_tchar@?$output_processor@DV?$string_output_adapter@D@__crt_stdio_output@@V?$standard_base@DV?$string_output_adapter@D@__crt_stdio_output@@@2@@__crt_stdio_output@@AAE_ND@Z 10017bf6 f i libucrt:output.obj
 0001:00016c57       ?state_case_precision@?$output_processor@DV?$string_output_adapter@D@__crt_stdio_output@@V?$standard_base@DV?$string_output_adapter@D@__crt_stdio_output@@@2@@__crt_stdio_output@@AAE_NXZ 10017c57 f i libucrt:output.obj
 0001:00016c7f       ?state_case_precision@?$output_processor@_WV?$string_output_adapter@_W@__crt_stdio_output@@V?$standard_base@_WV?$string_output_adapter@_W@__crt_stdio_output@@@2@@__crt_stdio_output@@AAE_NXZ 10017c7f f i libucrt:output.obj
 0001:00016ca8       ?state_case_size@?$output_processor@DV?$string_output_adapter@D@__crt_stdio_output@@V?$standard_base@DV?$string_output_adapter@D@__crt_stdio_output@@@2@@__crt_stdio_output@@AAE_NXZ 10017ca8 f i libucrt:output.obj
 0001:00016e11       ?state_case_size@?$output_processor@_WV?$string_output_adapter@_W@__crt_stdio_output@@V?$standard_base@_WV?$string_output_adapter@_W@__crt_stdio_output@@@2@@__crt_stdio_output@@AAE_NXZ 10017e11 f i libucrt:output.obj
 0001:00016f8d       ?state_case_type@?$output_processor@DV?$string_output_adapter@D@__crt_stdio_output@@V?$standard_base@DV?$string_output_adapter@D@__crt_stdio_output@@@2@@__crt_stdio_output@@AAE_NXZ 10017f8d f i libucrt:output.obj
 0001:000171bc       ?state_case_type@?$output_processor@_WV?$string_output_adapter@_W@__crt_stdio_output@@V?$standard_base@_WV?$string_output_adapter@_W@__crt_stdio_output@@@2@@__crt_stdio_output@@AAE_NXZ 100181bc f i libucrt:output.obj
 0001:00017419       ?state_case_width@?$output_processor@DV?$string_output_adapter@D@__crt_stdio_output@@V?$standard_base@DV?$string_output_adapter@D@__crt_stdio_output@@@2@@__crt_stdio_output@@AAE_NXZ 10018419 f i libucrt:output.obj
 0001:00017444       ?state_case_width@?$output_processor@_WV?$string_output_adapter@_W@__crt_stdio_output@@V?$standard_base@_WV?$string_output_adapter@_W@__crt_stdio_output@@@2@@__crt_stdio_output@@AAE_NXZ 10018444 f i libucrt:output.obj
 0001:00017470       ?to_integer_size@__crt_stdio_output@@YAIW4length_modifier@1@@Z 10018470 f i libucrt:output.obj
 0001:000174cc       ?type_case_Z@?$output_processor@DV?$string_output_adapter@D@__crt_stdio_output@@V?$standard_base@DV?$string_output_adapter@D@__crt_stdio_output@@@2@@__crt_stdio_output@@AAE_NXZ 100184cc f i libucrt:output.obj
 0001:0001752f       ?type_case_Z@?$output_processor@_WV?$string_output_adapter@_W@__crt_stdio_output@@V?$standard_base@_WV?$string_output_adapter@_W@__crt_stdio_output@@@2@@__crt_stdio_output@@AAE_NXZ 1001852f f i libucrt:output.obj
 0001:00017592       ?type_case_a@?$output_processor@DV?$string_output_adapter@D@__crt_stdio_output@@V?$standard_base@DV?$string_output_adapter@D@__crt_stdio_output@@@2@@__crt_stdio_output@@AAE_NXZ 10018592 f i libucrt:output.obj
 0001:000176ec       ?type_case_a@?$output_processor@_WV?$string_output_adapter@_W@__crt_stdio_output@@V?$standard_base@_WV?$string_output_adapter@_W@__crt_stdio_output@@@2@@__crt_stdio_output@@AAE_NXZ 100186ec f i libucrt:output.obj
 0001:0001785e       ?type_case_c_tchar@?$output_processor@DV?$string_output_adapter@D@__crt_stdio_output@@V?$standard_base@DV?$string_output_adapter@D@__crt_stdio_output@@@2@@__crt_stdio_output@@AAE_ND@Z 1001885e f i libucrt:output.obj
 0001:000178ee       ?type_case_c_tchar@?$output_processor@_WV?$string_output_adapter@_W@__crt_stdio_output@@V?$standard_base@_WV?$string_output_adapter@_W@__crt_stdio_output@@@2@@__crt_stdio_output@@AAE_N_W@Z 100188ee f i libucrt:output.obj
 0001:00017986       ?type_case_integer@?$output_processor@DV?$string_output_adapter@D@__crt_stdio_output@@V?$standard_base@DV?$string_output_adapter@D@__crt_stdio_output@@@2@@__crt_stdio_output@@AAE_NI_N@Z 10018986 f i libucrt:output.obj
 0001:00017986       ?type_case_integer@?$output_processor@_WV?$string_output_adapter@_W@__crt_stdio_output@@V?$standard_base@_WV?$string_output_adapter@_W@__crt_stdio_output@@@2@@__crt_stdio_output@@AAE_NI_N@Z 10018986 f i libucrt:output.obj
 0001:00017ad0       ?type_case_n@?$output_processor@_WV?$string_output_adapter@_W@__crt_stdio_output@@V?$standard_base@_WV?$string_output_adapter@_W@__crt_stdio_output@@@2@@__crt_stdio_output@@AAE_NXZ 10018ad0 f i libucrt:output.obj
 0001:00017ad0       ?type_case_n@?$output_processor@DV?$string_output_adapter@D@__crt_stdio_output@@V?$standard_base@DV?$string_output_adapter@D@__crt_stdio_output@@@2@@__crt_stdio_output@@AAE_NXZ 10018ad0 f i libucrt:output.obj
 0001:00017b44       ?type_case_o@?$output_processor@DV?$string_output_adapter@D@__crt_stdio_output@@V?$standard_base@DV?$string_output_adapter@D@__crt_stdio_output@@@2@@__crt_stdio_output@@AAE_NXZ 10018b44 f i libucrt:output.obj
 0001:00017b44       ?type_case_o@?$output_processor@_WV?$string_output_adapter@_W@__crt_stdio_output@@V?$standard_base@_WV?$string_output_adapter@_W@__crt_stdio_output@@@2@@__crt_stdio_output@@AAE_NXZ 10018b44 f i libucrt:output.obj
 0001:00017b63       ?type_case_p@?$output_processor@_WV?$string_output_adapter@_W@__crt_stdio_output@@V?$standard_base@_WV?$string_output_adapter@_W@__crt_stdio_output@@@2@@__crt_stdio_output@@AAE_NXZ 10018b63 f i libucrt:output.obj
 0001:00017b63       ?type_case_p@?$output_processor@DV?$string_output_adapter@D@__crt_stdio_output@@V?$standard_base@DV?$string_output_adapter@D@__crt_stdio_output@@@2@@__crt_stdio_output@@AAE_NXZ 10018b63 f i libucrt:output.obj
 0001:00017b7b       ?type_case_s@?$output_processor@DV?$string_output_adapter@D@__crt_stdio_output@@V?$standard_base@DV?$string_output_adapter@D@__crt_stdio_output@@@2@@__crt_stdio_output@@AAE_NXZ 10018b7b f i libucrt:output.obj
 0001:00017bee       ?type_case_s@?$output_processor@_WV?$string_output_adapter@_W@__crt_stdio_output@@V?$standard_base@_WV?$string_output_adapter@_W@__crt_stdio_output@@@2@@__crt_stdio_output@@AAE_NXZ 10018bee f i libucrt:output.obj
 0001:00017c62       ?type_case_s_compute_narrow_string_length@?$output_processor@_WV?$string_output_adapter@_W@__crt_stdio_output@@V?$standard_base@_WV?$string_output_adapter@_W@__crt_stdio_output@@@2@@__crt_stdio_output@@ABEHH_W@Z 10018c62 f i libucrt:output.obj
 0001:00017ca2       ?validate@?$c_string_character_source@D@__crt_strtox@@QBE_NXZ 10018ca2 f i libucrt:strtox.obj
 0001:00017ca2       ?validate@?$c_string_character_source@_W@__crt_strtox@@QBE_NXZ 10018ca2 f i libucrt:strtox.obj
 0001:00017ca2       ?validate@?$string_output_adapter@_W@__crt_stdio_output@@QBE_NXZ 10018ca2 f i libucrt:output.obj
 0001:00017ca2       ?validate@?$string_output_adapter@D@__crt_stdio_output@@QBE_NXZ 10018ca2 f i libucrt:output.obj
 0001:00017cbd       ?write_character@?$string_output_adapter@D@__crt_stdio_output@@QBE_NDQAH@Z 10018cbd f i libucrt:output.obj
 0001:00017cff       ?write_character@?$string_output_adapter@_W@__crt_stdio_output@@QBE_N_WQAH@Z 10018cff f i libucrt:output.obj
 0001:00017d44       ?write_stored_string_tchar@?$output_processor@DV?$string_output_adapter@D@__crt_stdio_output@@V?$standard_base@DV?$string_output_adapter@D@__crt_stdio_output@@@2@@__crt_stdio_output@@AAE_ND@Z 10018d44 f i libucrt:output.obj
 0001:00017deb       ?write_stored_string_tchar@?$output_processor@_WV?$string_output_adapter@_W@__crt_stdio_output@@V?$standard_base@_WV?$string_output_adapter@_W@__crt_stdio_output@@@2@@__crt_stdio_output@@AAE_N_W@Z 10018deb f i libucrt:output.obj
 0001:00017e76       ?write_string@?$string_output_adapter@D@__crt_stdio_output@@QBEXQBDHQAH1@Z 10018e76 f i libucrt:output.obj
 0001:00017f09       ?write_string@?$string_output_adapter@_W@__crt_stdio_output@@QBEXQB_WHQAH1@Z 10018f09 f i libucrt:output.obj
 0001:00017fa3       ___stdio_common_vsprintf   10018fa3 f   libucrt:output.obj
 0001:00017fc7       ___stdio_common_vswprintf  10018fc7 f   libucrt:output.obj
 0001:00017feb       _wcsncmp                   10018feb f   libucrt:wcsncmp.obj
 0001:00018025       ??$is_overflow_condition@K@__crt_strtox@@YA_NIK@Z 10019025 f i libucrt:strtox.obj
 0001:00018058       ??$make_c_string_character_source@DPAPAD@__crt_strtox@@YA?AV?$c_string_character_source@D@0@QBDQAPAD@Z 10019058 f i libucrt:strtox.obj
 0001:00018058       ??$make_c_string_character_source@_WPAPA_W@__crt_strtox@@YA?AV?$c_string_character_source@_W@0@QB_WQAPA_W@Z 10019058 f i libucrt:strtox.obj
 0001:00018073       ??$parse_integer@KV?$c_string_character_source@D@__crt_strtox@@@__crt_strtox@@YAKQAU__crt_locale_pointers@@V?$c_string_character_source@D@0@H_N@Z 10019073 f i libucrt:strtox.obj
 0001:0001829b       ??$parse_integer@KV?$c_string_character_source@_W@__crt_strtox@@@__crt_strtox@@YAKQAU__crt_locale_pointers@@V?$c_string_character_source@_W@0@H_N@Z 1001929b f i libucrt:strtox.obj
 0001:00018980       ?unget@?$c_string_character_source@D@__crt_strtox@@QAEXD@Z 10019980 f i libucrt:strtox.obj
 0001:000189a8       ?unget@?$c_string_character_source@_W@__crt_strtox@@QAEX_W@Z 100199a8 f i libucrt:strtox.obj
 0001:000189d4       __chvalidchk_l             100199d4 f i libucrt:strtox.obj
 0001:000189fe       __ischartype_l             100199fe f i libucrt:strtox.obj
 0001:00018a31       _strtol                    10019a31 f   libucrt:strtox.obj
 0001:00018a5d       _wcstol                    10019a5d f   libucrt:strtox.obj
 0001:00018a89       _wcspbrk                   10019a89 f   libucrt:wcspbrk.obj
 0001:00018ace       __initterm                 10019ace f   libucrt:initterm.obj
 0001:00018b2a       __initterm_e               10019b2a f   libucrt:initterm.obj
 0001:00018b6f       __seh_filter_dll           10019b6f f   libucrt:exception_filter.obj
 0001:00018b8f       __seh_filter_exe           10019b8f f   libucrt:exception_filter.obj
 0001:00018f1d       ___acrt_initialize_thread_local_exit_callback 10019f1d f   libucrt:exit.obj
 0001:00018f2c       __cexit                    10019f2c f   libucrt:exit.obj
 0001:00018f3b       __exit                     10019f3b f   libucrt:exit.obj
 0001:00018f51       __is_c_termination_complete 10019f51 f   libucrt:exit.obj
 0001:000191f0       ___acrt_allocate_buffer_for_argv 1001a1f0 f   libucrt:argv_parsing.obj
 0001:00019245       __configure_narrow_argv    1001a245 f   libucrt:argv_parsing.obj
 0001:000193a9       ??$uninitialize@A6AXAAPAPAD@Z@?$dual_state_global@PAPAD@__crt_state_management@@QAEXA6AXAAPAPAD@Z@Z 1001a3a9 f i libucrt:environment_initialization.obj
 0001:000193a9       ??$uninitialize@A6AXAAPAPA_W@Z@?$dual_state_global@PAPA_W@__crt_state_management@@QAEXA6AXAAPAPA_W@Z@Z 1001a3a9 f i libucrt:environment_initialization.obj
 0001:0001941f       ___dcrt_uninitialize_environments_nolock 1001a41f f   libucrt:environment_initialization.obj
 0001:00019456       __initialize_narrow_environment 1001a456 f   libucrt:environment_initialization.obj
 0001:0001945b       ??$?RV<lambda_995298e7d72eb4c2aab26c0585b3abe5>@@AAV<lambda_275893d493268fdec8709772e3fcec0e>@@V<lambda_293819299cbf9a7022e18b56a874bb5c>@@@?$__crt_seh_guarded_call@H@@QAEH$$QAV<lambda_995298e7d72eb4c2aab26c0585b3abe5>@@AAV<lambda_275893d493268fdec8709772e3fcec0e>@@$$QAV<lambda_293819299cbf9a7022e18b56a874bb5c>@@@Z 1001a45b f i libucrt:onexit.obj
 0001:000194ac       ??$__acrt_lock_and_call@V<lambda_275893d493268fdec8709772e3fcec0e>@@@@YAHW4__acrt_lock_id@@$$QAV<lambda_275893d493268fdec8709772e3fcec0e>@@@Z 1001a4ac f i libucrt:onexit.obj
 0001:000195f4       __execute_onexit_table     1001a5f4 f   libucrt:onexit.obj
 0001:00019611       __initialize_onexit_table  1001a611 f   libucrt:onexit.obj
 0001:0001967a       ___acrt_uninitialize_command_line 1001a67a f   libucrt:argv_data.obj
 0001:00019742       ___acrt_initialize         1001a742 f   libucrt:initialization.obj
 0001:00019754       ___acrt_thread_attach      1001a754 f   libucrt:initialization.obj
 0001:0001975f       ___acrt_thread_detach      1001a75f f   libucrt:initialization.obj
 0001:00019767       ___acrt_uninitialize       1001a767 f   libucrt:initialization.obj
 0001:00019779       ___acrt_uninitialize_critical 1001a779 f   libucrt:initialization.obj
 0001:0001978b       _terminate                 1001a78b f   libucrt:terminate.obj
 0001:000197c7       _free                      1001a7c7 f   libucrt:free.obj
 0001:000197cc       _malloc                    1001a7cc f   libucrt:malloc.obj
 0001:000197d7       _strcpy_s                  1001a7d7 f   libucrt:strcpy_s.obj
 0001:00019831       _abort                     1001a831 f   libucrt:abort.obj
 0001:00019874       _calloc                    1001a874 f   libucrt:calloc.obj
 0001:00019880       _strncmp                   1001a880 f   libucrt:strncmp.obj
 0001:000198f8       ??$?RV<lambda_3518db117f0e7cdb002338c5d3c47b6c>@@AAV<lambda_b2ea41f6bbb362cd97d94c6828d90b61>@@V<lambda_abdedf541bb04549bc734292b4a045d4>@@@?$__crt_seh_guarded_call@X@@QAEX$$QAV<lambda_3518db117f0e7cdb002338c5d3c47b6c>@@AAV<lambda_b2ea41f6bbb362cd97d94c6828d90b61>@@$$QAV<lambda_abdedf541bb04549bc734292b4a045d4>@@@Z 1001a8f8 f i libucrt:per_thread_data.obj
 0001:00019948       ??$?RV<lambda_51b6e8b1eb166f2a3faf91f424b38130>@@AAV<lambda_6250bd4b2a391816dd638c3bf72b0bcb>@@V<lambda_0b5a4a3e68152e1d9b943535f5f47bed>@@@?$__crt_seh_guarded_call@X@@QAEX$$QAV<lambda_51b6e8b1eb166f2a3faf91f424b38130>@@AAV<lambda_6250bd4b2a391816dd638c3bf72b0bcb>@@$$QAV<lambda_0b5a4a3e68152e1d9b943535f5f47bed>@@@Z 1001a948 f i libucrt:per_thread_data.obj
 0001:000199a9       ??$?RV<lambda_5b71d36f03204c0beab531769a5b5694>@@AAV<lambda_be2b3da3f62db62e9dad5dc70221a656>@@V<lambda_8f9ce462984622f9bf76b59e2aaaf805>@@@?$__crt_seh_guarded_call@X@@QAEX$$QAV<lambda_5b71d36f03204c0beab531769a5b5694>@@AAV<lambda_be2b3da3f62db62e9dad5dc70221a656>@@$$QAV<lambda_8f9ce462984622f9bf76b59e2aaaf805>@@@Z 1001a9a9 f i libucrt:per_thread_data.obj
 0001:000199f4       ??$?RV<lambda_9df27f884b057bc3edfc946cb5b7cf47>@@AAV<lambda_e69574bed617af4e071282c136b37893>@@V<lambda_cc0d902bcbbeb830f749456577db4721>@@@?$__crt_seh_guarded_call@X@@QAEX$$QAV<lambda_9df27f884b057bc3edfc946cb5b7cf47>@@AAV<lambda_e69574bed617af4e071282c136b37893>@@$$QAV<lambda_cc0d902bcbbeb830f749456577db4721>@@@Z 1001a9f4 f i libucrt:per_thread_data.obj
 0001:00019a3c       ??$__acrt_lock_and_call@V<lambda_6250bd4b2a391816dd638c3bf72b0bcb>@@@@YAXW4__acrt_lock_id@@$$QAV<lambda_6250bd4b2a391816dd638c3bf72b0bcb>@@@Z 1001aa3c f i libucrt:per_thread_data.obj
 0001:00019a64       ??$__acrt_lock_and_call@V<lambda_b2ea41f6bbb362cd97d94c6828d90b61>@@@@YAXW4__acrt_lock_id@@$$QAV<lambda_b2ea41f6bbb362cd97d94c6828d90b61>@@@Z 1001aa64 f i libucrt:per_thread_data.obj
 0001:00019a8c       ??$__acrt_lock_and_call@V<lambda_be2b3da3f62db62e9dad5dc70221a656>@@@@YAXW4__acrt_lock_id@@$$QAV<lambda_be2b3da3f62db62e9dad5dc70221a656>@@@Z 1001aa8c f i libucrt:per_thread_data.obj
 0001:00019ab4       ??$__acrt_lock_and_call@V<lambda_e69574bed617af4e071282c136b37893>@@@@YAXW4__acrt_lock_id@@$$QAV<lambda_e69574bed617af4e071282c136b37893>@@@Z 1001aab4 f i libucrt:per_thread_data.obj
 0001:00019c6a       ___acrt_freeptd            1001ac6a f   libucrt:per_thread_data.obj
 0001:00019c96       ___acrt_getptd             1001ac96 f   libucrt:per_thread_data.obj
 0001:00019d1a       ___acrt_getptd_noexit      1001ad1a f   libucrt:per_thread_data.obj
 0001:00019d9f       ___acrt_initialize_ptd     1001ad9f f   libucrt:per_thread_data.obj
 0001:00019dcb       ___acrt_uninitialize_ptd   1001adcb f   libucrt:per_thread_data.obj
 0001:00019de5       __isdigit_l                1001ade5 f i libucrt:_ctype.obj
 0001:00019e1d       _isdigit                   1001ae1d f i libucrt:_ctype.obj
 0001:00019fb1       __tolower_l                1001afb1 f   libucrt:tolower_toupper.obj
 0001:00019fcb       _tolower                   1001afcb f   libucrt:tolower_toupper.obj
 0001:00019ffb       __free_base                1001affb f   libucrt:free_base.obj
 0001:0001a035       __malloc_base              1001b035 f   libucrt:malloc_base.obj
 0001:0001a083       __mbtowc_l                 1001b083 f   libucrt:mbtowc.obj
 0001:0001a17d       _mbtowc                    1001b17d f   libucrt:mbtowc.obj
 0001:0001a197       __wctomb_s_l               1001b197 f   libucrt:wctomb.obj
 0001:0001a2b8       _wctomb_s                  1001b2b8 f   libucrt:wctomb.obj
 0001:0001a2d5       _strnlen                   1001b2d5 f   libucrt:strnlen.obj
 0001:0001a3fc       _wcsnlen                   1001b3fc f   libucrt:strnlen.obj
 0001:0001a5b3       ___acrt_update_locale_info 1001b5b3 f   libucrt:locale_update.obj
 0001:0001a5e0       ___acrt_update_multibyte_info 1001b5e0 f   libucrt:locale_update.obj
 0001:0001a60d       ?__acrt_fp_classify@@YA?AW4__acrt_fp_class@@ABN@Z 1001b60d f i libucrt:cvt.obj
 0001:0001a679       ?__acrt_fp_is_negative@@YA_NABN@Z 1001b679 f i libucrt:cvt.obj
 0001:0001aed8       ___acrt_fp_format          1001bed8 f   libucrt:cvt.obj
 0001:0001b022       __fileno                   1001c022 f   libucrt:fileno.obj
 0001:0001b048       ___acrt_initialize_stdio   1001c048 f   libucrt:_file.obj
 0001:0001b110       ___acrt_uninitialize_stdio 1001c110 f   libucrt:_file.obj
 0001:0001b15c       __lock_file                1001c15c f   libucrt:_file.obj
 0001:0001b170       __unlock_file              1001c170 f   libucrt:_file.obj
 0001:0001b184       __get_printf_count_output  1001c184 f   libucrt:printf_count_output.obj
 0001:0001b199       ___acrt_set_locale_changed 1001c199 f   libucrt:wsetlocale.obj
 0001:0001b1a4       ___acrt_uninitialize_locale 1001c1a4 f   libucrt:wsetlocale.obj
 0001:0001b362       ___acrt_initialize_lowio   1001c362 f   libucrt:ioinit.obj
 0001:0001b3b8       ___acrt_uninitialize_lowio 1001c3b8 f   libucrt:ioinit.obj
 0001:0001b3e4       ___pctype_func             1001c3e4 f   libucrt:ctype.obj
 0001:0001b40a       _iswctype                  1001c40a f   libucrt:iswctype.obj
 0001:0001b469       __isctype_l                1001c469 f   libucrt:isctype.obj
 0001:0001b53b       ___acrt_initialize_locks   1001c53b f   libucrt:locks.obj
 0001:0001b57c       ___acrt_lock               1001c57c f   libucrt:locks.obj
 0001:0001b593       ___acrt_uninitialize_locks 1001c593 f   libucrt:locks.obj
 0001:0001b5c4       ___acrt_unlock             1001c5c4 f   libucrt:locks.obj
 0001:0001b6f2       ___acrt_FlsAlloc@4         1001c6f2 f   libucrt:winapi_thunks.obj
 0001:0001b748       ___acrt_FlsFree@4          1001c748 f   libucrt:winapi_thunks.obj
 0001:0001b79e       ___acrt_FlsGetValue@4      1001c79e f   libucrt:winapi_thunks.obj
 0001:0001b7f4       ___acrt_FlsSetValue@8      1001c7f4 f   libucrt:winapi_thunks.obj
 0001:0001b84d       ___acrt_InitializeCriticalSectionEx@12 1001c84d f   libucrt:winapi_thunks.obj
 0001:0001b8af       ___acrt_LCMapStringEx@36   1001c8af f   libucrt:winapi_thunks.obj
 0001:0001b937       ___acrt_LocaleNameToLCID@8 1001c937 f   libucrt:winapi_thunks.obj
 0001:0001b993       ___acrt_initialize_winapi_thunks 1001c993 f   libucrt:winapi_thunks.obj
 0001:0001b9b9       ___acrt_is_packaged_app    1001c9b9 f   libucrt:winapi_thunks.obj
 0001:0001ba40       ___acrt_uninitialize_winapi_thunks 1001ca40 f   libucrt:winapi_thunks.obj
 0001:0001ba76       __calloc_base              1001ca76 f   libucrt:calloc_base.obj
 0001:0001be95       ??1?$argument_list@D@?A0xb0e4b824@@QAE@XZ 1001ce95 f i libucrt:argv_wildcards.obj
 0001:0001beba       ?append@?$argument_list@D@?A0xb0e4b824@@QAEHQAD@Z 1001ceba f i libucrt:argv_wildcards.obj
 0001:0001beef       ?expand_if_necessary@?$argument_list@D@?A0xb0e4b824@@AAEHXZ 1001ceef f i libucrt:argv_wildcards.obj
 0001:0001bf76       ___acrt_expand_narrow_argv_wildcards 1001cf76 f   libucrt:argv_wildcards.obj
 0001:0001bf81       ??$?RV<lambda_978dc153c237d78434369da87b74ff60>@@AAV<lambda_ad1ced32f4ac17aa236e5ef05d6b3b7c>@@V<lambda_4a8533e2866a575feecb8298ce776b0d>@@@?$__crt_seh_guarded_call@X@@QAEX$$QAV<lambda_978dc153c237d78434369da87b74ff60>@@AAV<lambda_ad1ced32f4ac17aa236e5ef05d6b3b7c>@@$$QAV<lambda_4a8533e2866a575feecb8298ce776b0d>@@@Z 1001cf81 f i libucrt:mbctype.obj
 0001:0001bfc4       ??$__acrt_lock_and_call@V<lambda_ad1ced32f4ac17aa236e5ef05d6b3b7c>@@@@YAXW4__acrt_lock_id@@$$QAV<lambda_ad1ced32f4ac17aa236e5ef05d6b3b7c>@@@Z 1001cfc4 f i libucrt:mbctype.obj
 0001:0001c45d       ___acrt_initialize_multibyte 1001d45d f   libucrt:mbctype.obj
 0001:0001c47b       ___acrt_update_thread_multibyte_data 1001d47b f   libucrt:mbctype.obj
 0001:0001c51d       __setmbcp_nolock           1001d51d f   libucrt:mbctype.obj
 0001:0001c7e8       __ismbblead                1001d7e8 f   libucrt:ismbbyte.obj
 0001:0001c800       ___acrt_initialize_command_line 1001d800 f   libucrt:argv_data.obj
 0001:0001c850       ___dcrt_get_narrow_environment_from_os 1001d850 f   libucrt:get_environment_from_os.obj
 0001:0001c8d3       __recalloc                 1001d8d3 f   libucrt:recalloc.obj
 0001:0001c8de       __recalloc_base            1001d8de f   libucrt:recalloc.obj
 0001:0001c94b       ___acrt_initialize_heap    1001d94b f   libucrt:heap_handle.obj
 0001:0001c95c       ___acrt_uninitialize_heap  1001d95c f   libucrt:heap_handle.obj
 0001:0001c966       ___acrt_execute_initializers 1001d966 f   libucrt:shared_initialization.obj
 0001:0001c9e9       ___acrt_execute_uninitializers 1001d9e9 f   libucrt:shared_initialization.obj
 0001:0001ca36       ___acrt_initialize_new_handler 1001da36 f   libucrt:new_handler.obj
 0001:0001ca4a       __callnewh                 1001da4a f   libucrt:new_handler.obj
 0001:0001ca8e       __query_new_handler        1001da8e f   libucrt:new_handler.obj
 0001:0001cae0       ??$?RV<lambda_a048d3beccc847880fc8490e18b82769>@@AAV<lambda_ec61778202f4f5fc7e7711acc23c3bca>@@V<lambda_f7496a158712204296dd6628a163878e>@@@?$__crt_seh_guarded_call@P6AXH@Z@@QAEP6AXH@Z$$QAV<lambda_a048d3beccc847880fc8490e18b82769>@@AAV<lambda_ec61778202f4f5fc7e7711acc23c3bca>@@$$QAV<lambda_f7496a158712204296dd6628a163878e>@@@Z 1001dae0 f i libucrt:signal.obj
 0001:0001cb3a       ??$__acrt_lock_and_call@V<lambda_ec61778202f4f5fc7e7711acc23c3bca>@@@@YAP6AXH@ZW4__acrt_lock_id@@$$QAV<lambda_ec61778202f4f5fc7e7711acc23c3bca>@@@Z 1001db3a f i libucrt:signal.obj
 0001:0001cbcc       ___acrt_get_sigabrt_handler 1001dbcc f   libucrt:signal.obj
 0001:0001cbe3       ___acrt_initialize_signal_handlers 1001dbe3 f   libucrt:signal.obj
 0001:0001cc1e       ___fpecode                 1001dc1e f   libucrt:signal.obj
 0001:0001cc27       _raise                     1001dc27 f   libucrt:signal.obj
 0001:0001ce2f       ___acrt_has_user_matherr   1001de2f f   libucrt:matherr.obj
 0001:0001ce48       ___acrt_initialize_user_matherr 1001de48 f   libucrt:matherr.obj
 0001:0001ce5c       ___acrt_invoke_user_matherr 1001de5c f   libucrt:matherr.obj
 0001:0001cea5       ___acrt_add_locale_ref     1001dea5 f   libucrt:locale_refcounting.obj
 0001:0001cf22       ___acrt_free_locale        1001df22 f   libucrt:locale_refcounting.obj
 0001:0001d06c       ___acrt_locale_add_lc_time_reference 1001e06c f   libucrt:locale_refcounting.obj
 0001:0001d095       ___acrt_locale_free_lc_time_if_unreferenced 1001e095 f   libucrt:locale_refcounting.obj
 0001:0001d0c5       ___acrt_locale_release_lc_time_reference 1001e0c5 f   libucrt:locale_refcounting.obj
 0001:0001d0ee       ___acrt_release_locale_ref 1001e0ee f   libucrt:locale_refcounting.obj
 0001:0001d16f       ___acrt_update_thread_locale_data 1001e16f f   libucrt:locale_refcounting.obj
 0001:0001d1e6       __updatetlocinfoEx_nolock  1001e1e6 f   libucrt:locale_refcounting.obj
 0001:0001d236       __isleadbyte_l             1001e236 f i libucrt:_wctype.obj
 0001:0001d48c       ___acrt_LCMapStringA       1001e48c f   libucrt:lcmapstringa.obj
 0001:0001d4d7       __freea_crt                1001e4d7 f i libucrt:lcmapstringa.obj
 0001:0001d4f7       __query_new_mode           1001e4f7 f   libucrt:new_mode.obj
 0001:0001d4fd       ___acrt_fp_strflt_to_string 1001e4fd f   libucrt:_fptostr.obj
 0001:0001d5b9       ??0scoped_fp_state_reset@?A0x48fbfdd4@@QAE@XZ 1001e5b9 f i libucrt:cfout.obj
 0001:0001d5f0       ?divide@__crt_strtox@@YA_KAAUbig_integer@1@ABU21@@Z 1001e5f0 f i libucrt:cfout.obj
 0001:0001da9e       ___acrt_fltout             1001ea9e f   libucrt:cfout.obj
 0001:0001ee3a       __fcloseall                1001fe3a f   libucrt:closeall.obj
 0001:0001eeda       ___acrt_stdio_flush_nolock 1001feda f   libucrt:fflush.obj
 0001:0001ef40       __fflush_nolock            1001ff40 f   libucrt:fflush.obj
 0001:0001ef87       __flushall                 1001ff87 f   libucrt:fflush.obj
 0001:0001f068       ___acrt_stdio_free_buffer_nolock 10020068 f   libucrt:_freebuf.obj
 0001:0001f0a6       __isatty                   100200a6 f   libucrt:isatty.obj
 0001:0001f0fc       ___acrt_locale_free_monetary 100200fc f   libucrt:initmon.obj
 0001:0001f1fa       ___acrt_locale_free_numeric 100201fa f   libucrt:initnum.obj
 0001:0001f29f       ___acrt_locale_free_time   1002029f f   libucrt:inittime.obj
 0001:0001f383       ___acrt_GetStringTypeA     10020383 f   libucrt:getstringtypea.obj
 0001:0001f4a0       ___acrt_lowio_create_handle_array 100204a0 f   libucrt:osfinfo.obj
 0001:0001f51a       ___acrt_lowio_destroy_handle_array 1002051a f   libucrt:osfinfo.obj
 0001:0001f54f       ___acrt_lowio_ensure_fh_exists 1002054f f   libucrt:osfinfo.obj
 0001:0001f5e7       ___acrt_lowio_lock_fh      100205e7 f   libucrt:osfinfo.obj
 0001:0001f60a       ___acrt_lowio_unlock_fh    1002060a f   libucrt:osfinfo.obj
 0001:0001f62d       __free_osfhnd              1002062d f   libucrt:osfinfo.obj
 0001:0001f6be       __get_osfhandle            100206be f   libucrt:osfinfo.obj
 0001:0001f7e4       ___acrt_DownlevelLocaleNameToLCID 100207e4 f   libucrt:lcidtoname_downlevel.obj
 0001:0001f8f0       _qsort                     100208f0 f   libucrt:qsort.obj
 0001:0001fd3b       _strncpy_s                 10020d3b f   libucrt:strncpy_s.obj
 0001:0001fd50       _strpbrk                   10020d50 f   libucrt:strpbrk.obj
 0001:0001fd90       __mbsdec                   10020d90 f   libucrt:mbsdec.obj
 0001:0001fda7       __mbsdec_l                 10020da7 f   libucrt:mbsdec.obj
 0001:0001fe43       __msize                    10020e43 f   libucrt:msize.obj
 0001:0001fe76       __realloc_base             10020e76 f   libucrt:realloc_base.obj
 0001:0001fedf       ___strncnt                 10020edf f   libucrt:strncnt.obj
 0001:0001fefb       _fegetenv                  10020efb f   libucrt:fegetenv.obj
 0001:0001ff18       _fesetenv                  10020f18 f   libucrt:fesetenv.obj
 0001:0001ff61       _feholdexcept              10020f61 f   libucrt:feholdexcept.obj
 0001:0001ffb0       _log10                     10020fb0 f   libucrt:log10.obj
 0001:0001fff0       __CIlog10                  10020ff0 f   libucrt:log10.obj
 0001:0002002b       __CIlog10_default          1002102b f   libucrt:log10.obj
 0001:0002003f       __log10_default            1002103f     libucrt:log10.obj
 0001:00020100       _ceil                      10021100 f   libucrt:ceil_pentium4.obj
 0001:00020140       __ceil_pentium4            10021140 f   libucrt:ceil_pentium4.obj
 0001:000207ad       __write                    100217ad f   libucrt:write.obj
 0001:00020898       __write_nolock             10021898 f   libucrt:write.obj
 0001:00020b22       __lseeki64_nolock          10021b22 f   libucrt:lseek.obj
 0001:00020b3d       __fclose_nolock            10021b3d f   libucrt:fclose.obj
 0001:00020bb3       _fclose                    10021bb3 f   libucrt:fclose.obj
 0001:00020c33       ??$?RV<lambda_61cee617f5178ae960314fd4d05640a0>@@AAV<lambda_6978c1fb23f02e42e1d9e99668cc68aa>@@V<lambda_9cd88cf8ad10232537feb2133f08c833>@@@?$__crt_seh_guarded_call@H@@QAEH$$QAV<lambda_61cee617f5178ae960314fd4d05640a0>@@AAV<lambda_6978c1fb23f02e42e1d9e99668cc68aa>@@$$QAV<lambda_9cd88cf8ad10232537feb2133f08c833>@@@Z 10021c33 f i libucrt:commit.obj
 0001:00020ccb       ??$__acrt_lowio_lock_fh_and_call@V<lambda_6978c1fb23f02e42e1d9e99668cc68aa>@@@@YAHH$$QAV<lambda_6978c1fb23f02e42e1d9e99668cc68aa>@@@Z 10021ccb f i libucrt:commit.obj
 0001:00020cf3       __commit                   10021cf3 f   libucrt:commit.obj
 0001:00020d62       __query_app_type           10021d62 f   libucrt:report_runtime_error.obj
 0001:0002100b       __getfpcontrolword         1002200b f   libucrt:_fenvutils.obj
 0001:0002104e       __getfpstatusword          1002204e f   libucrt:_fenvutils.obj
 0001:000210f6       __setfpcontrolword         100220f6 f   libucrt:_fenvutils.obj
 0001:00021176       __setfpstatusword          10022176 f   libucrt:_fenvutils.obj
 0001:000211f6       __clearfp                  100221f6 f   libucrt:ieee87.obj
 0001:000212d4       ___acrt_initialize_sse2    100222d4 f   libucrt:mathfcns.obj
 0001:000212f0       __CIlog10_pentium4         100222f0 f   libucrt:log10_pentium4.obj
 0001:00021308       __log10_pentium4           10022308     libucrt:log10_pentium4.obj
 0001:00021591       __fFEXP                    10022591     libucrt:87tran.obj
 0001:000215e8       __rtinfpopse               100225e8     libucrt:87tran.obj
 0001:000215ea       __rtinfnpopse              100225ea     libucrt:87tran.obj
 0001:000215fa       __fFLN                     100225fa     libucrt:87tran.obj
 0001:000216af       __rtinfpop                 100226af     libucrt:87tran.obj
 0001:000216b1       __rtinfnpop                100226b1     libucrt:87tran.obj
 0001:000216ce       __ffexpm1                  100226ce     libucrt:87tran.obj
 0001:00021780       __trandisp1                10022780 f   libucrt:87disp.obj
 0001:000217e7       __trandisp2                100227e7 f   libucrt:87disp.obj
 0001:00021873       __rttospopde               10022873     libucrt:87disp.obj
 0001:00021878       __rttospop                 10022878     libucrt:87disp.obj
 0001:0002187a       __rtnospop                 1002287a     libucrt:87disp.obj
 0001:0002187c       __rttosnpop                1002287c     libucrt:87disp.obj
 0001:0002187d       __rtnospopde               1002287d     libucrt:87disp.obj
 0001:00021884       __rtzeropop                10022884     libucrt:87disp.obj
 0001:00021886       __rtzeronpop               10022886     libucrt:87disp.obj
 0001:0002188b       __rtzerospop               1002288b     libucrt:87disp.obj
 0001:00021898       __rtonepop                 10022898     libucrt:87disp.obj
 0001:0002189a       __rtonenpop                1002289a     libucrt:87disp.obj
 0001:0002189f       __tosnan1                  1002289f     libucrt:87disp.obj
 0001:000218ca       __nosnan2                  100228ca     libucrt:87disp.obj
 0001:000218cc       __tosnan2                  100228cc     libucrt:87disp.obj
 0001:000218f4       __nan2                     100228f4     libucrt:87disp.obj
 0001:00021933       __rtindfpop                10022933     libucrt:87disp.obj
 0001:00021935       __rtindfnpop               10022935     libucrt:87disp.obj
 0001:00021946       __rttosnpopde              10022946     libucrt:87disp.obj
 0001:00021950       __rtatan2inf               10022950     libucrt:87disp.obj
 0001:0002196d       __rtchsifneg               1002296d     libucrt:87disp.obj
 0001:00021980       __twoToTOS                 10022980 f   libucrt:common.obj
 0001:00021995       __load_CW                  10022995 f   libucrt:common.obj
 0001:000219ac       __convertTOStoQNaN         100229ac f   libucrt:common.obj
 0001:000219c5       __fload_withFB             100229c5 f   libucrt:common.obj
 0001:00021a08       __checkTOS_withFB          10022a08 f   libucrt:common.obj
 0001:00021a1e       __fast_exit                10022a1e f   libucrt:common.obj
 0001:00021a2b       __math_exit                10022a2b f   libucrt:common.obj
 0001:00021a55       __check_overflow_exit      10022a55 f   libucrt:common.obj
 0001:00021a69       __check_range_exit         10022a69 f   libucrt:common.obj
 0001:00021b10       __startTwoArgErrorHandling 10022b10 f   libucrt:genexcep.obj
 0001:00021b27       __startOneArgErrorHandling 10022b27 f   libucrt:genexcep.obj
 0001:00021b63       ___libm_error_support      10022b63 f   libucrt:libm_error.obj
 0001:00021d7b       __ceil_default             10022d7b f   libucrt:ceil.obj
 0001:00021e34       __putwch_nolock            10022e34 f   libucrt:putwch.obj
 0001:00021e79       ??$?RV<lambda_123407a5e2ac06da108355a851863b7a>@@AAV<lambda_2fe9b910cf3cbf4a0ab98a02ba45b3ec>@@V<lambda_ae55bdf541ad94d75914d381c370e64d>@@@?$__crt_seh_guarded_call@H@@QAEH$$QAV<lambda_123407a5e2ac06da108355a851863b7a>@@AAV<lambda_2fe9b910cf3cbf4a0ab98a02ba45b3ec>@@$$QAV<lambda_ae55bdf541ad94d75914d381c370e64d>@@@Z 10022e79 f i libucrt:close.obj
 0001:00021efb       ??$__acrt_lowio_lock_fh_and_call@V<lambda_2fe9b910cf3cbf4a0ab98a02ba45b3ec>@@@@YAHH$$QAV<lambda_2fe9b910cf3cbf4a0ab98a02ba45b3ec>@@@Z 10022efb f i libucrt:close.obj
 0001:00021f23       __close                    10022f23 f   libucrt:close.obj
 0001:00021fa2       __close_nolock             10022fa2 f   libucrt:close.obj
 0001:0002203e       ?__acrt_stdio_free_stream@@YAXV__crt_stdio_stream@@@Z 1002303e f   libucrt:stream.obj
 0001:00022080       ___ascii_strnicmp          10023080 f   libucrt:_strnicm.obj
 0001:000220e1       __clrfp                    100230e1 f   libucrt:fpctrl.obj
 0001:000220f4       __ctrlfp                   100230f4 f   libucrt:fpctrl.obj
 0001:00022120       __set_statfp               10023120 f   libucrt:fpctrl.obj
 0001:0002217b       __statfp                   1002317b f   libucrt:fpctrl.obj
 0001:0002218d       __d_inttype                1002318d f   libucrt:powhlp.obj
 0001:000221f7       __powhlp                   100231f7 f   libucrt:powhlp.obj
 0001:00022322       __87except                 10023322 f   libucrt:87except.obj
 0001:0002242d       __frnd                     1002342d f   libucrt:frnd.obj
 0001:00022443       __errcode                  10023443 f   libucrt:fpexcept.obj
 0001:00022477       __except1                  10023477 f   libucrt:fpexcept.obj
 0001:00022545       __handle_exc               10023545 f   libucrt:fpexcept.obj
 0001:00022725       __raise_exc                10023725 f   libucrt:fpexcept.obj
 0001:00022748       __raise_exc_ex             10023748 f   libucrt:fpexcept.obj
 0001:00022a39       __set_errno_from_matherr   10023a39 f   libucrt:fpexcept.obj
 0001:00022a68       __umatherr                 10023a68 f   libucrt:fpexcept.obj
 0001:00022b0a       __decomp                   10023b0a f   libucrt:util.obj
 0001:00022bde       __set_exp                  10023bde f   libucrt:util.obj
 0001:00022c0d       __sptype                   10023c0d f   libucrt:util.obj
 0001:00022c6b       ___dcrt_lowio_initialize_console_output 10023c6b f   libucrt:initcon.obj
 0001:00022c8a       ___dcrt_terminate_console_output 10023c8a f   libucrt:initcon.obj
 0001:00022ca1       __fpclass                  10023ca1 f   libucrt:ieeemisc.obj
 0001:00022d45       _Process32FirstW@8         10023d45 f   kernel32:KERNEL32.dll
 0001:00022d4b       _Process32NextW@8          10023d4b f   kernel32:KERNEL32.dll
 0001:00022d51       _IsProcessorFeaturePresent@4 10023d51 f   kernel32:KERNEL32.dll
 0001:00022d60       __FindPESection            10023d60 f   LIBCMT:pesect.obj
 0001:00022db0       __IsNonwritableInCurrentImage 10023db0 f   LIBCMT:pesect.obj
 0001:00022e70       __ValidateImageBase        10023e70 f   LIBCMT:pesect.obj
 0001:00022eb0       __aulldvrm                 10023eb0 f   LIBCMT:ulldvrm.obj
 0001:00022f50       __allmul                   10023f50 f   LIBCMT:llmul.obj
 0001:00022f90       __SEH_prolog4_GS           10023f90 f   LIBCMT:sehprolg4gs.obj
 0001:00022fd9       __SEH_epilog4_GS           10023fd9 f   LIBCMT:sehprolg4gs.obj
 0001:00022ff0       __alldvrm                  10023ff0 f   LIBCMT:lldvrm.obj
 0001:000230d0       __aullshr                  100240d0 f   LIBCMT:ullshr.obj
 0001:000230f0       __alloca_probe_16          100240f0 f   LIBCMT:alloca16.obj
 0001:00023106       __alloca_probe_8           10024106     LIBCMT:alloca16.obj
 0001:00023120       __allshl                   10024120 f   LIBCMT:llshl.obj
 0001:00023140       __ftol2_sse                10024140 f   LIBCMT:ftol2.obj
 0001:00023149       __ftol2_pentium4           10024149 f   LIBCMT:ftol2.obj
 0001:0002315c       __ftol2_sse_excpt          1002415c f   LIBCMT:ftol2.obj
 0001:00023180       __ftol2                    10024180 f   LIBCMT:ftol2.obj
 0002:00000000       __imp__RegSetValueExW@24   10025000     advapi32:ADVAPI32.dll
 0002:00000004       __imp__RegQueryValueExW@24 10025004     advapi32:ADVAPI32.dll
 0002:00000008       __imp__RegOpenKeyExW@20    10025008     advapi32:ADVAPI32.dll
 0002:0000000c       __imp__RegCreateKeyExW@36  1002500c     advapi32:ADVAPI32.dll
 0002:00000010       __imp__RegCloseKey@4       10025010     advapi32:ADVAPI32.dll
 0002:00000014       \177ADVAPI32_NULL_THUNK_DATA 10025014     advapi32:ADVAPI32.dll
 0002:00000018       __imp__GdiFlush@0          10025018     gdi32:GDI32.dll
 0002:0000001c       __imp__GetObjectW@12       1002501c     gdi32:GDI32.dll
 0002:00000020       __imp__CreateDIBSection@24 10025020     gdi32:GDI32.dll
 0002:00000024       __imp__GdiAlphaBlend@44    10025024     gdi32:GDI32.dll
 0002:00000028       __imp__SetStretchBltMode@8 10025028     gdi32:GDI32.dll
 0002:0000002c       __imp__StretchBlt@44       1002502c     gdi32:GDI32.dll
 0002:00000030       __imp__MoveToEx@16         10025030     gdi32:GDI32.dll
 0002:00000034       __imp__SetTextColor@8      10025034     gdi32:GDI32.dll
 0002:00000038       __imp__SetBkColor@8        10025038     gdi32:GDI32.dll
 0002:0000003c       __imp__SelectObject@8      1002503c     gdi32:GDI32.dll
 0002:00000040       __imp__Rectangle@20        10025040     gdi32:GDI32.dll
 0002:00000044       __imp__LineTo@12           10025044     gdi32:GDI32.dll
 0002:00000048       __imp__GetStockObject@4    10025048     gdi32:GDI32.dll
 0002:0000004c       __imp__DeleteObject@4      1002504c     gdi32:GDI32.dll
 0002:00000050       __imp__DeleteDC@4          10025050     gdi32:GDI32.dll
 0002:00000054       __imp__CreateSolidBrush@4  10025054     gdi32:GDI32.dll
 0002:00000058       __imp__CreatePen@12        10025058     gdi32:GDI32.dll
 0002:0000005c       __imp__CreateFontW@56      1002505c     gdi32:GDI32.dll
 0002:00000060       __imp__CreateCompatibleDC@4 10025060     gdi32:GDI32.dll
 0002:00000064       __imp__CreateCompatibleBitmap@12 10025064     gdi32:GDI32.dll
 0002:00000068       __imp__BitBlt@36           10025068     gdi32:GDI32.dll
 0002:0000006c       \177GDI32_NULL_THUNK_DATA  1002506c     gdi32:GDI32.dll
 0002:00000070       __imp__WaitForMultipleObjects@16 10025070     kernel32:KERNEL32.dll
 0002:00000074       __imp__Sleep@4             10025074     kernel32:KERNEL32.dll
 0002:00000078       __imp__FileTimeToSystemTime@8 10025078     kernel32:KERNEL32.dll
 0002:0000007c       __imp__CreateEventW@16     1002507c     kernel32:KERNEL32.dll
 0002:00000080       __imp__FreeLibrary@4       10025080     kernel32:KERNEL32.dll
 0002:00000084       __imp__ResetEvent@4        10025084     kernel32:KERNEL32.dll
 0002:00000088       __imp__FindClose@4         10025088     kernel32:KERNEL32.dll
 0002:0000008c       __imp__GetTickCount@0      1002508c     kernel32:KERNEL32.dll
 0002:00000090       __imp__lstrcatW@8          10025090     kernel32:KERNEL32.dll
 0002:00000094       __imp__LoadLibraryW@4      10025094     kernel32:KERNEL32.dll
 0002:00000098       __imp__GetTempPathW@8      10025098     kernel32:KERNEL32.dll
 0002:0000009c       __imp__CreateFileW@28      1002509c     kernel32:KERNEL32.dll
 0002:000000a0       __imp__FindFirstFileW@8    100250a0     kernel32:KERNEL32.dll
 0002:000000a4       __imp__FindNextFileW@8     100250a4     kernel32:KERNEL32.dll
 0002:000000a8       __imp__IsBadReadPtr@8      100250a8     kernel32:KERNEL32.dll
 0002:000000ac       __imp__GetProcAddress@8    100250ac     kernel32:KERNEL32.dll
 0002:000000b0       __imp__LocalFree@4         100250b0     kernel32:KERNEL32.dll
 0002:000000b4       __imp__VirtualProtect@16   100250b4     kernel32:KERNEL32.dll
 0002:000000b8       __imp__WriteConsoleW@20    100250b8     kernel32:KERNEL32.dll
 0002:000000bc       __imp__DecodePointer@4     100250bc     kernel32:KERNEL32.dll
 0002:000000c0       __imp__FlushFileBuffers@4  100250c0     kernel32:KERNEL32.dll
 0002:000000c4       __imp__SetFilePointerEx@20 100250c4     kernel32:KERNEL32.dll
 0002:000000c8       __imp__GetConsoleMode@8    100250c8     kernel32:KERNEL32.dll
 0002:000000cc       __imp__GetConsoleCP@0      100250cc     kernel32:KERNEL32.dll
 0002:000000d0       __imp__SetEvent@4          100250d0     kernel32:KERNEL32.dll
 0002:000000d4       __imp__SetStdHandle@8      100250d4     kernel32:KERNEL32.dll
 0002:000000d8       __imp__UnmapViewOfFile@4   100250d8     kernel32:KERNEL32.dll
 0002:000000dc       __imp__GetProcessHeap@0    100250dc     kernel32:KERNEL32.dll
 0002:000000e0       __imp__GetEnvironmentStringsW@0 100250e0     kernel32:KERNEL32.dll
 0002:000000e4       __imp__GetCommandLineW@0   100250e4     kernel32:KERNEL32.dll
 0002:000000e8       __imp__GetCommandLineA@0   100250e8     kernel32:KERNEL32.dll
 0002:000000ec       __imp__GetCPInfo@8         100250ec     kernel32:KERNEL32.dll
 0002:000000f0       __imp__GetOEMCP@0          100250f0     kernel32:KERNEL32.dll
 0002:000000f4       __imp__IsValidCodePage@4   100250f4     kernel32:KERNEL32.dll
 0002:000000f8       __imp__FindNextFileA@8     100250f8     kernel32:KERNEL32.dll
 0002:000000fc       __imp__FindFirstFileExA@24 100250fc     kernel32:KERNEL32.dll
 0002:00000100       __imp__LCMapStringW@24     10025100     kernel32:KERNEL32.dll
 0002:00000104       __imp__GetStringTypeW@16   10025104     kernel32:KERNEL32.dll
 0002:00000108       __imp__GetFileType@4       10025108     kernel32:KERNEL32.dll
 0002:0000010c       __imp__GetACP@0            1002510c     kernel32:KERNEL32.dll
 0002:00000110       __imp__GetModuleFileNameA@12 10025110     kernel32:KERNEL32.dll
 0002:00000114       __imp__GetModuleHandleExW@12 10025114     kernel32:KERNEL32.dll
 0002:00000118       __imp__GetExitCodeThread@8 10025118     kernel32:KERNEL32.dll
 0002:0000011c       __imp__LocalAlloc@8        1002511c     kernel32:KERNEL32.dll
 0002:00000120       __imp__MultiByteToWideChar@24 10025120     kernel32:KERNEL32.dll
 0002:00000124       __imp__lstrlenA@4          10025124     kernel32:KERNEL32.dll
 0002:00000128       __imp__lstrcpynA@12        10025128     kernel32:KERNEL32.dll
 0002:0000012c       __imp__lstrcmpW@8          1002512c     kernel32:KERNEL32.dll
 0002:00000130       __imp__Thread32Next@8      10025130     kernel32:KERNEL32.dll
 0002:00000134       __imp__Thread32First@8     10025134     kernel32:KERNEL32.dll
 0002:00000138       __imp__CreateToolhelp32Snapshot@8 10025138     kernel32:KERNEL32.dll
 0002:0000013c       __imp__WriteConsoleInputW@16 1002513c     kernel32:KERNEL32.dll
 0002:00000140       __imp__ReadConsoleInputW@16 10025140     kernel32:KERNEL32.dll
 0002:00000144       __imp__WideCharToMultiByte@32 10025144     kernel32:KERNEL32.dll
 0002:00000148       __imp__SetEnvironmentVariableW@8 10025148     kernel32:KERNEL32.dll
 0002:0000014c       __imp__GetModuleHandleW@4  1002514c     kernel32:KERNEL32.dll
 0002:00000150       __imp__GetModuleFileNameW@12 10025150     kernel32:KERNEL32.dll
 0002:00000154       __imp__OpenFileMappingW@12 10025154     kernel32:KERNEL32.dll
 0002:00000158       __imp__CreateFileMappingW@24 10025158     kernel32:KERNEL32.dll
 0002:0000015c       __imp__lstrlenW@4          1002515c     kernel32:KERNEL32.dll
 0002:00000160       __imp__lstrcpyW@8          10025160     kernel32:KERNEL32.dll
 0002:00000164       __imp__lstrcpynW@12        10025164     kernel32:KERNEL32.dll
 0002:00000168       __imp__HeapSize@12         10025168     kernel32:KERNEL32.dll
 0002:0000016c       __imp__lstrcmpiW@8         1002516c     kernel32:KERNEL32.dll
 0002:00000170       __imp__CloseHandle@4       10025170     kernel32:KERNEL32.dll
 0002:00000174       __imp__GetStdHandle@4      10025174     kernel32:KERNEL32.dll
 0002:00000178       __imp__WaitForSingleObject@8 10025178     kernel32:KERNEL32.dll
 0002:0000017c       __imp__GetLastError@0      1002517c     kernel32:KERNEL32.dll
 0002:00000180       __imp__GetCurrentThreadId@0 10025180     kernel32:KERNEL32.dll
 0002:00000184       __imp__ExitProcess@4       10025184     kernel32:KERNEL32.dll
 0002:00000188       __imp__LoadLibraryExW@12   10025188     kernel32:KERNEL32.dll
 0002:0000018c       __imp__GetCurrentProcessId@0 1002518c     kernel32:KERNEL32.dll
 0002:00000190       __imp__VirtualQuery@12     10025190     kernel32:KERNEL32.dll
 0002:00000194       __imp__TlsFree@4           10025194     kernel32:KERNEL32.dll
 0002:00000198       __imp__HeapCreate@12       10025198     kernel32:KERNEL32.dll
 0002:0000019c       __imp__HeapDestroy@4       1002519c     kernel32:KERNEL32.dll
 0002:000001a0       __imp__HeapAlloc@12        100251a0     kernel32:KERNEL32.dll
 0002:000001a4       __imp__HeapReAlloc@16      100251a4     kernel32:KERNEL32.dll
 0002:000001a8       __imp__HeapFree@12         100251a8     kernel32:KERNEL32.dll
 0002:000001ac       __imp__DebugBreak@0        100251ac     kernel32:KERNEL32.dll
 0002:000001b0       __imp__SetLastError@4      100251b0     kernel32:KERNEL32.dll
 0002:000001b4       __imp__IsDebuggerPresent@0 100251b4     kernel32:KERNEL32.dll
 0002:000001b8       __imp__WriteFile@20        100251b8     kernel32:KERNEL32.dll
 0002:000001bc       __imp__ReadFile@20         100251bc     kernel32:KERNEL32.dll
 0002:000001c0       __imp__SetNamedPipeHandleState@16 100251c0     kernel32:KERNEL32.dll
 0002:000001c4       __imp__TransactNamedPipe@28 100251c4     kernel32:KERNEL32.dll
 0002:000001c8       __imp__GetEnvironmentVariableW@12 100251c8     kernel32:KERNEL32.dll
 0002:000001cc       __imp__WaitNamedPipeW@8    100251cc     kernel32:KERNEL32.dll
 0002:000001d0       __imp__Process32FirstW@8   100251d0     kernel32:KERNEL32.dll
 0002:000001d4       __imp__Process32NextW@8    100251d4     kernel32:KERNEL32.dll
 0002:000001d8       __imp__OpenThread@12       100251d8     kernel32:KERNEL32.dll
 0002:000001dc       __imp__RaiseException@16   100251dc     kernel32:KERNEL32.dll
 0002:000001e0       __imp__CreateThread@24     100251e0     kernel32:KERNEL32.dll
 0002:000001e4       __imp__TerminateThread@8   100251e4     kernel32:KERNEL32.dll
 0002:000001e8       __imp__ResumeThread@4      100251e8     kernel32:KERNEL32.dll
 0002:000001ec       __imp__VerSetConditionMask@16 100251ec     kernel32:KERNEL32.dll
 0002:000001f0       __imp__GetCurrentProcess@0 100251f0     kernel32:KERNEL32.dll
 0002:000001f4       __imp__GetFileInformationByHandle@8 100251f4     kernel32:KERNEL32.dll
 0002:000001f8       __imp__VerifyVersionInfoW@16 100251f8     kernel32:KERNEL32.dll
 0002:000001fc       __imp__InitializeCriticalSection@4 100251fc     kernel32:KERNEL32.dll
 0002:00000200       __imp__EnterCriticalSection@4 10025200     kernel32:KERNEL32.dll
 0002:00000204       __imp__LeaveCriticalSection@4 10025204     kernel32:KERNEL32.dll
 0002:00000208       __imp__TryEnterCriticalSection@4 10025208     kernel32:KERNEL32.dll
 0002:0000020c       __imp__DeleteCriticalSection@4 1002520c     kernel32:KERNEL32.dll
 0002:00000210       __imp__FreeEnvironmentStringsW@4 10025210     kernel32:KERNEL32.dll
 0002:00000214       __imp__ExpandEnvironmentStringsW@12 10025214     kernel32:KERNEL32.dll
 0002:00000218       __imp__ReadConsoleOutputW@20 10025218     kernel32:KERNEL32.dll
 0002:0000021c       __imp__GetConsoleScreenBufferInfo@8 1002521c     kernel32:KERNEL32.dll
 0002:00000220       __imp__UnhandledExceptionFilter@4 10025220     kernel32:KERNEL32.dll
 0002:00000224       __imp__SetUnhandledExceptionFilter@4 10025224     kernel32:KERNEL32.dll
 0002:00000228       __imp__TerminateProcess@8  10025228     kernel32:KERNEL32.dll
 0002:0000022c       __imp__IsProcessorFeaturePresent@4 1002522c     kernel32:KERNEL32.dll
 0002:00000230       __imp__QueryPerformanceCounter@4 10025230     kernel32:KERNEL32.dll
 0002:00000234       __imp__GetSystemTimeAsFileTime@4 10025234     kernel32:KERNEL32.dll
 0002:00000238       __imp__InitializeSListHead@4 10025238     kernel32:KERNEL32.dll
 0002:0000023c       __imp__GetStartupInfoW@4   1002523c     kernel32:KERNEL32.dll
 0002:00000240       __imp__RtlUnwind@16        10025240     kernel32:KERNEL32.dll
 0002:00000244       __imp__InterlockedFlushSList@4 10025244     kernel32:KERNEL32.dll
 0002:00000248       __imp__EncodePointer@4     10025248     kernel32:KERNEL32.dll
 0002:0000024c       __imp__InitializeCriticalSectionAndSpinCount@8 1002524c     kernel32:KERNEL32.dll
 0002:00000250       __imp__TlsAlloc@0          10025250     kernel32:KERNEL32.dll
 0002:00000254       __imp__TlsGetValue@4       10025254     kernel32:KERNEL32.dll
 0002:00000258       __imp__TlsSetValue@8       10025258     kernel32:KERNEL32.dll
 0002:0000025c       __imp__MapViewOfFile@20    1002525c     kernel32:KERNEL32.dll
 0002:00000260       \177KERNEL32_NULL_THUNK_DATA 10025260     kernel32:KERNEL32.dll
 0002:00000264       __imp__SHGetFileInfoW@20   10025264     shell32:SHELL32.dll
 0002:00000268       \177SHELL32_NULL_THUNK_DATA 10025268     shell32:SHELL32.dll
 0002:0000026c       __imp__GetIconInfo@8       1002526c     user32:USER32.dll
 0002:00000270       __imp__DrawIconEx@36       10025270     user32:USER32.dll
 0002:00000274       __imp__DestroyIcon@4       10025274     user32:USER32.dll
 0002:00000278       __imp__LoadIconW@8         10025278     user32:USER32.dll
 0002:0000027c       __imp__ReleaseDC@8         1002527c     user32:USER32.dll
 0002:00000280       __imp__GetDC@4             10025280     user32:USER32.dll
 0002:00000284       __imp__LoadCursorW@8       10025284     user32:USER32.dll
 0002:00000288       __imp__SetWindowLongW@12   10025288     user32:USER32.dll
 0002:0000028c       __imp__GetWindowLongW@8    1002528c     user32:USER32.dll
 0002:00000290       __imp__FillRect@12         10025290     user32:USER32.dll
 0002:00000294       __imp__InvalidateRect@12   10025294     user32:USER32.dll
 0002:00000298       __imp__EndPaint@8          10025298     user32:USER32.dll
 0002:0000029c       __imp__BeginPaint@8        1002529c     user32:USER32.dll
 0002:000002a0       __imp__DrawTextW@20        100252a0     user32:USER32.dll
 0002:000002a4       __imp__ShowWindowAsync@8   100252a4     user32:USER32.dll
 0002:000002a8       __imp__DestroyWindow@4     100252a8     user32:USER32.dll
 0002:000002ac       __imp__IsWindow@4          100252ac     user32:USER32.dll
 0002:000002b0       __imp__CreateWindowExW@48  100252b0     user32:USER32.dll
 0002:000002b4       __imp__UnregisterClassW@8  100252b4     user32:USER32.dll
 0002:000002b8       __imp__RegisterClassW@4    100252b8     user32:USER32.dll
 0002:000002bc       __imp__DefWindowProcW@16   100252bc     user32:USER32.dll
 0002:000002c0       __imp__PostThreadMessageW@16 100252c0     user32:USER32.dll
 0002:000002c4       __imp__PostMessageW@16     100252c4     user32:USER32.dll
 0002:000002c8       __imp__DispatchMessageW@4  100252c8     user32:USER32.dll
 0002:000002cc       __imp__GetMessageW@16      100252cc     user32:USER32.dll
 0002:000002d0       __imp__RegisterWindowMessageW@4 100252d0     user32:USER32.dll
 0002:000002d4       __imp__wsprintfW           100252d4     user32:USER32.dll
 0002:000002d8       __imp__GetWindowThreadProcessId@8 100252d8     user32:USER32.dll
 0002:000002dc       __imp__GetClassNameW@12    100252dc     user32:USER32.dll
 0002:000002e0       __imp__IntersectRect@12    100252e0     user32:USER32.dll
 0002:000002e4       __imp__ChildWindowFromPointEx@16 100252e4     user32:USER32.dll
 0002:000002e8       __imp__WindowFromPoint@8   100252e8     user32:USER32.dll
 0002:000002ec       __imp__MapWindowPoints@16  100252ec     user32:USER32.dll
 0002:000002f0       __imp__MessageBoxW@16      100252f0     user32:USER32.dll
 0002:000002f4       __imp__GetClientRect@8     100252f4     user32:USER32.dll
 0002:000002f8       __imp__MapVirtualKeyW@8    100252f8     user32:USER32.dll
 0002:000002fc       __imp__ShowWindow@8        100252fc     user32:USER32.dll
 0002:00000300       __imp__GetKeyState@4       10025300     user32:USER32.dll
 0002:00000304       __imp__IsWindowVisible@4   10025304     user32:USER32.dll
 0002:00000308       \177USER32_NULL_THUNK_DATA 10025308     user32:USER32.dll
 0002:0000030c       __imp__GetFileVersionInfoW@16 1002530c     version:VERSION.dll
 0002:00000310       __imp__GetFileVersionInfoSizeW@8 10025310     version:VERSION.dll
 0002:00000314       __imp__VerQueryValueW@16   10025314     version:VERSION.dll
 0002:00000318       \177VERSION_NULL_THUNK_DATA 10025318     version:VERSION.dll
 0002:0000031c       __imp__CoUninitialize@0    1002531c     ole32:ole32.dll
 0002:00000320       __imp__CoInitializeEx@8    10025320     ole32:ole32.dll
 0002:00000324       \177ole32_NULL_THUNK_DATA  10025324     ole32:ole32.dll
 0002:00000328       ___guard_check_icall_fptr  10025328     LIBCMT:guard_support.obj
 0002:0000032c       ___xc_a                    1002532c     LIBCMT:initializers.obj
 0002:00000330       ___xc_z                    10025330     LIBCMT:initializers.obj
 0002:00000334       ___xi_a                    10025334     LIBCMT:initializers.obj
 0002:00000338       ___acrt_stdio_initializer  10025338     libucrt:stdio_initializer.obj
 0002:0000033c       ___acrt_multibyte_initializer 1002533c     libucrt:multibyte_initializer.obj
 0002:00000340       ___acrt_tran_sse2_initializer 10025340     libucrt:sse2_initializer.obj
 0002:00000344       ___xi_z                    10025344     LIBCMT:initializers.obj
 0002:00000348       ___xp_a                    10025348     LIBCMT:initializers.obj
 0002:0000034c       ___acrt_locale_terminator  1002534c     libucrt:locale_initializer.obj
 0002:00000350       ___dcrt_console_output_terminator 10025350     libucrt:console_output_initializer.obj
 0002:00000354       ___acrt_stdio_terminator   10025354     libucrt:stdio_initializer.obj
 0002:00000358       ___xp_z                    10025358     LIBCMT:initializers.obj
 0002:0000035c       ___xt_a                    1002535c     LIBCMT:initializers.obj
 0002:00000360       ___xt_z                    10025360     LIBCMT:initializers.obj
 0002:00000370       ??_C@_08BCACMCCB@ExitFARW@ 10025370     ConEmuTh.obj
 0002:0000037c       ??_C@_0BF@NLPJFAHE@ProcessSynchroEventW@ 1002537c     ConEmuTh.obj
 0002:00000394       ??_C@_11LOCGONAA@@         10025394     ConEmuTh.obj
 0002:00000398       ??_C@_13FPGAJAPJ@?$AA?2@   10025398     ConEmuTh.obj
 0002:000003a0       ??_C@_1FG@DPPGENBC@?$AAL?$AAo?$AAa?$AAd?$AAA?$AAp?$AAp?$AAV?$AAe?$AAr?$AAs?$AAi?$AAo?$AAn?$AA?4@ 100253a0     ConEmuTh.obj
 0002:000003f8       ??_C@_1FK@HILEEFML@?$AAL?$AAo?$AAa?$AAd?$AAA?$AAp?$AAp?$AAV?$AAe?$AAr?$AAs?$AAi?$AAo?$AAn?$AA?4@ 100253f8     ConEmuTh.obj
 0002:00000458       ??_C@_1GC@BINFLBDC@?$AAL?$AAo?$AAa?$AAd?$AAA?$AAp?$AAp?$AAV?$AAe?$AAr?$AAs?$AAi?$AAo?$AAn?$AA?5@ 10025458     ConEmuTh.obj
 0002:000004c0       ??_C@_1GC@CPPHDKJK@?$AAL?$AAo?$AAa?$AAd?$AAA?$AAp?$AAp?$AAV?$AAe?$AAr?$AAs?$AAi?$AAo?$AAn?$AA?4@ 100254c0     ConEmuTh.obj
 0002:00000528       ??_C@_1EG@IINOBDEG@?$AAI?$AAn?$AAv?$AAa?$AAl?$AAi?$AAd?$AA?5?$AAa?$AAs?$AAM?$AAo?$AAd?$AAu?$AAl@ 10025528     ConEmuTh.obj
 0002:00000570       ??_C@_1CA@GGFPMHLH@?$AA?6?$AAE?$AAr?$AAr?$AAC?$AAo?$AAd?$AAe?$AA?$DN?$AA0?$AAx?$AA?$CF?$AA0?$AA8?$AAX@ 10025570     ConEmuTh.obj
 0002:00000590       ??_C@_1FG@LNADFPCE@?$AAL?$AAo?$AAa?$AAd?$AAF?$AAa?$AAr?$AAV?$AAe?$AAr?$AAs?$AAi?$AAo?$AAn?$AA?4@ 10025590     ConEmuTh.obj
 0002:000005e8       ??_C@_1BK@GAMFFEOB@?$AAC?$AAo?$AAn?$AAE?$AAm?$AAu?$AAT?$AAh?$AA?4?$AAd?$AAl?$AAl@ 100255e8     ConEmuTh.obj
 0002:00000604       ??_C@_1BG@NBIHKCLP@?$AAC?$AAo?$AAn?$AAE?$AAm?$AAu?$AA?4?$AAd?$AAl?$AAl@ 10025604     ConEmuTh.obj
 0002:0000061c       ??_C@_0BC@MKJHPCEO@RegisterPanelView@ 1002561c     ConEmuTh.obj
 0002:00000630       ??_C@_0M@FMNOKGGE@GetFarHWND2@ 10025630     ConEmuTh.obj
 0002:0000063c       ??_C@_1BM@HEIDIPPL@?$AAL?$AAe?$AAf?$AAt?$AAP?$AAa?$AAn?$AAe?$AAl?$AAV?$AAi?$AAe?$AAw@ 1002563c     ConEmuTh.obj
 0002:00000658       ??_C@_1BO@KCLMEFLE@?$AAR?$AAi?$AAg?$AAh?$AAt?$AAP?$AAa?$AAn?$AAe?$AAl?$AAV?$AAi?$AAe?$AAw@ 10025658     ConEmuTh.obj
 0002:00000678       ??_C@_0DF@PGCFAFLO@c?3?2users?2conemu?2src?2conemu?2src?2@ 10025678     ConEmuTh.obj
 0002:000006b0       ??_C@_1DM@JLCDNDHD@?$AAC?$AAo?$AAn?$AAE?$AAm?$AAu?$AAP?$AAa?$AAn?$AAe?$AAl?$AAV?$AAi?$AAe?$AAw@ 100256b0     ConEmuTh.obj
 0002:000006ec       ??_C@_1O@EMLLFJNI@?$AAA?$AAc?$AAt?$AAi?$AAv?$AAe@ 100256ec     ConEmuTh.obj
 0002:000006fc       ??_C@_1BM@OLHABKH@?$AAF?$AAa?$AAr?$AAT?$AAh?$AAu?$AAm?$AAb?$AAn?$AAa?$AAi?$AAl?$AAs@ 100256fc     ConEmuTh.obj
 0002:00000718       ??_C@_1DG@DBEAEOKG@?$AAF?$AAa?$AAr?$AAP?$AAi?$AAc?$AAt?$AAu?$AAr?$AAe?$AAV?$AAi?$AAe?$AAw?$AAC@ 10025718     ConEmuTh.obj
 0002:00000750       ??_C@_1DC@FOGHAECG@?$AAF?$AAa?$AAr?$AAM?$AAu?$AAl?$AAt?$AAi?$AAV?$AAi?$AAe?$AAw?$AAC?$AAo?$AAn@ 10025750     ConEmuTh.obj
 0002:00000784       ??_C@_1DA@BMIFHIMF@?$AAC?$AAo?$AAn?$AAE?$AAm?$AAu?$AAV?$AAi?$AAe?$AAw?$AAS?$AAe?$AAt?$AAM?$AAa@ 10025784     ConEmuTh.obj
 0002:000007b4       ??_C@_1BC@DJOGOIHN@?$AAC?$AAo?$AAn?$AAE?$AAm?$AAu?$AAT?$AAh@ 100257b4     ConEmuTh.obj
 0002:000007c8       ??_C@_1DM@OLPDHEPA@?$AAF?$AAa?$AAi?$AAl?$AAe?$AAd?$AA?5?$AAt?$AAo?$AA?5?$AAg?$AAe?$AAt?$AA?5?$AAC@ 100257c8     ConEmuTh.obj
 0002:00000804       ??_C@_1CG@HOMCPCN@?$AA?2?$AAP?$AAl?$AAu?$AAg?$AAi?$AAn?$AAs?$AA?2?$AAP?$AAa?$AAn?$AAe?$AAl?$AAT@ 10025804     ConEmuTh.obj
 0002:0000082c       ??_C@_1BK@NFAPLMGI@?$AAS?$AAe?$AAp?$AAa?$AAr?$AAa?$AAt?$AAe?$AAT?$AAa?$AAb?$AAs@ 1002582c     ConEmuTh.obj
 0002:00000848       ??_C@_1BI@GILFJGEK@?$AAB?$AAu?$AAt?$AAt?$AAo?$AAn?$AAC?$AAo?$AAl?$AAo?$AAr@ 10025848     ConEmuTh.obj
 0002:00000860       ??_C@_1GA@OEMDGAOF@?$AAI?$AAn?$AAt?$AAe?$AAr?$AAn?$AAa?$AAl?$AA?5?$AAe?$AAr?$AAr?$AAo?$AAr?$AA?4@ 10025860     ConEmuTh.obj
 0002:000008c0       ??_C@_1GM@GDPJFBAE@?$AAI?$AAn?$AAt?$AAe?$AAr?$AAn?$AAa?$AAl?$AA?5?$AAe?$AAr?$AAr?$AAo?$AAr?$AA?4@ 100258c0     ConEmuTh.obj
 0002:00000930       ??_C@_1GG@HCDDBFEK@?$AAI?$AAn?$AAt?$AAe?$AAr?$AAn?$AAa?$AAl?$AA?5?$AAe?$AAr?$AAr?$AAo?$AAr?$AA?4@ 10025930     ConEmuTh.obj
 0002:00000998       ??_C@_1GM@GIBGIKH@?$AAI?$AAn?$AAt?$AAe?$AAr?$AAn?$AAa?$AAl?$AA?5?$AAe?$AAr?$AAr?$AAo?$AAr?$AA?4@ 10025998     ConEmuTh.obj
 0002:00000a08       ??_C@_1GE@BPNCLMMD@?$AAI?$AAn?$AAt?$AAe?$AAr?$AAn?$AAa?$AAl?$AA?5?$AAe?$AAr?$AAr?$AAo?$AAr?$AA?4@ 10025a08     ConEmuTh.obj
 0002:00000a70       ??_C@_1GK@OGACKIKJ@?$AAI?$AAn?$AAt?$AAe?$AAr?$AAn?$AAa?$AAl?$AA?5?$AAe?$AAr?$AAr?$AAo?$AAr?$AA?4@ 10025a70     ConEmuTh.obj
 0002:00000adc       ??_C@_1O@KBENBEFG@?$AAc?$AAr?$AAe?$AAa?$AAt?$AAe@ 10025adc     ConEmuTh.obj
 0002:00000aec       ??_C@_19BDAJEHDN@?$AAo?$AAp?$AAe?$AAn@ 10025aec     ConEmuTh.obj
 0002:00000af8       ??_C@_1GM@LGOLGABE@?$AAC?$AAa?$AAn?$AA?8?$AAt?$AA?5?$AA?$CF?$AAs?$AA?5?$AAc?$AAo?$AAn?$AAs?$AAo?$AAl@ 10025af8     ConEmuTh.obj
 0002:00000b64       ??_C@_1BE@HADLJAO@?$AAR?$AAe?$AAa?$AAd?$AAW?$AAr?$AAi?$AAt?$AAe@ 10025b64     ConEmuTh.obj
 0002:00000b78       ??_C@_19EOHDNDII@?$AAR?$AAe?$AAa?$AAd@ 10025b78     ConEmuTh.obj
 0002:00000b88       ??_C@_1FO@BGAPBIGG@?$AAC?$AAa?$AAn?$AA?8?$AAt?$AA?5?$AAm?$AAa?$AAp?$AA?5?$AAc?$AAo?$AAn?$AAs?$AAo@ 10025b88     ConEmuTh.obj
 0002:00000be8       ??_C@_1II@OIMPCJAG@?$AAC?$AAa?$AAn?$AA?8?$AAt?$AA?5?$AAm?$AAa?$AAp?$AA?5?$AAc?$AAo?$AAn?$AAs?$AAo@ 10025be8     ConEmuTh.obj
 0002:00000c70       ??_C@_1JM@IDPBKCIF@?$AAC?$AAa?$AAn?$AA?8?$AAt?$AA?5?$AAm?$AAa?$AAp?$AA?5?$AAc?$AAo?$AAn?$AAs?$AAo@ 10025c70     ConEmuTh.obj
 0002:00000d0c       ??_C@_17JLFEDMMI@?$AA?$DP?$AA?$DP?$AA?$DP@ 10025d0c     ConEmuTh1900.obj
 0002:00000d14       ??_C@_1BI@EKLHEFDO@?$AAS?$AAh?$AAo?$AAw?$AAM?$AAe?$AAn?$AAu?$AAB?$AAa?$AAr@ 10025d14     ConEmuTh1900.obj
 0002:00000d2c       ??_C@_1O@PDEOIOBG@?$AAK?$AAe?$AAy?$AAB?$AAa?$AAr@ 10025d2c     ConEmuTh1900.obj
 0002:00000d3c       ??_C@_1BK@MBFACEDG@?$AAC?$AAo?$AAl?$AAu?$AAm?$AAn?$AAT?$AAi?$AAt?$AAl?$AAe?$AAs@ 10025d3c     ConEmuTh1900.obj
 0002:00000d58       ??_C@_1BG@MHMKAABO@?$AAS?$AAt?$AAa?$AAt?$AAu?$AAs?$AAL?$AAi?$AAn?$AAe@ 10025d58     ConEmuTh1900.obj
 0002:00000d70       ??_C@_1BC@IALIJCAM@?$AAS?$AAo?$AAr?$AAt?$AAM?$AAo?$AAd?$AAe@ 10025d70     ConEmuTh1900.obj
 0002:00000d84       ??_C@_1CG@DMGPLFKD@?$AAC?$AAo?$AAn?$AAE?$AAm?$AAu?$AA?5?$AAP?$AAa?$AAn?$AAe?$AAl?$AA?5?$AAV?$AAi@ 10025d84     ConEmuTh2800.obj
 0002:00000db0       ??_C@_1EM@OOFEGLCO@?$AAT?$AAh?$AAu?$AAm?$AAb?$AAn?$AAa?$AAi?$AAl?$AAs?$AA?5?$AAa?$AAn?$AAd?$AA?5@ 10025db0     ConEmuTh2800.obj
 0002:00000dfc       ??_C@_1DE@DJEAMLPH@?$AAC?$AAo?$AAn?$AAE?$AAm?$AAu?$AA?4?$AAM?$AAa?$AAx?$AAi?$AAm?$AAu?$AAs?$AA5@ 10025dfc     ConEmuTh2800.obj
 0002:00000e30       ??_C@_1BG@LBJCGLOJ@?$AAS?$AAe?$AAt?$AAC?$AAu?$AAr?$AAI?$AAt?$AAe?$AAm@ 10025e30     ConEmuTh2800.obj
 0002:00000e48       ??_C@_1EI@PNMHLKGC@?$AAi?$AAf?$AA?5?$AAA?$AAr?$AAe?$AAa?$AA?4?$AAS?$AAe?$AAa?$AAr?$AAc?$AAh?$AA?5@ 10025e48     ConEmuTh2800.obj
 0002:00000e90       ??_C@_1CA@GIGEMLLA@?$AAP?$AAl?$AAu?$AAg?$AAi?$AAn?$AA?4?$AAS?$AAy?$AAn?$AAc?$AAC?$AAa?$AAl?$AAl@ 10025e90     ConEmuTh2800.obj
 0002:00000eb0       ??_C@_1CM@IICFOBPI@?$AA$?$AAi?$AAf?$AA?5?$AA?$CI?$AAS?$AAe?$AAa?$AAr?$AAc?$AAh?$AA?$CJ?$AA?5?$AAE?$AAs@ 10025eb0     ConEmuTh2800.obj
 0002:00000edc       ??_C@_1BG@PKDGNNAF@?$AAc?$AAa?$AAl?$AAl?$AAp?$AAl?$AAu?$AAg?$AAi?$AAn@ 10025edc     ConEmuTh2800.obj
 0002:00000ef8       ??_C@_1HI@BNDPAPFP@?$AA?$CF?$AAs?$AA?5?$AA?$CF?$AAs?$AA?$CI?$AA?$CC?$AAb?$AAd?$AA4?$AA5?$AA4?$AAd?$AA4?$AA8@ 10025ef8     ConEmuTh2800.obj
 0002:00000f70       ??_C@_1BE@LFJLOEAN@?$AAC?$AAo?$AAn?$AAE?$AAm?$AAu?$AAT?$AAh?$AA?2@ 10025f70     ConEmuTh995.obj
 0002:00000f90       __xmm@00000000000000000000000000000006 10025f90     ConEmuTh995.obj
 0002:00000fc0       ??_C@_0BG@FGMCOIHO@Thumbs?3?3DisplayThread@ 10025fc0     Display.obj
 0002:00000fd8       ??_C@_19DKAIAFPE@?$AAL?$AAe?$AAf?$AAt@ 10025fd8     Display.obj
 0002:00000fe4       ??_C@_1M@KDEMMBOH@?$AAR?$AAi?$AAg?$AAh?$AAt@ 10025fe4     Display.obj
 0002:00000ff0       ??_C@_1CM@MJKKOLFD@?$AAC?$AAo?$AAn?$AAE?$AAm?$AAu?$AA?4?$AA?$CF?$AAs?$AAP?$AAa?$AAn?$AAe?$AAl?$AAV@ 10025ff0     Display.obj
 0002:0000101c       ??_C@_1BO@IPKBELC@?$AAC?$AAo?$AAn?$AAE?$AAm?$AAu?$AAT?$AAh?$AA?3?$AA?3?$AAF?$AAa?$AAd?$AAe@ 1002601c     Display.obj
 0002:0000103c       ??_C@_1CG@OILEFJJN@?$AAC?$AAo?$AAn?$AAE?$AAm?$AAu?$AAT?$AAh?$AA?3?$AA?3?$AAS?$AAe?$AAt?$AAt?$AAi@ 1002603c     Display.obj
 0002:00001064       ??_C@_1CI@GNBJKMME@?$AAC?$AAo?$AAn?$AAE?$AAm?$AAu?$AAT?$AAh?$AA?3?$AA?3?$AAM?$AAa?$AAp?$AAC?$AAo@ 10026064     Display.obj
 0002:0000108c       ??_C@_1CO@LEOKLKOD@?$AA?$CF?$AA0?$AA2?$AAi?$AA?4?$AA?$CF?$AA0?$AA2?$AAi?$AA?4?$AA?$CF?$AA0?$AA2?$AAi?$AA?5@ 1002608c     Display.obj
 0002:000010bc       ??_C@_1O@NLGMKEDN@?$AAB?$AAK?$AAM?$AAG?$AAT?$AAP@ 100260bc     Display.obj
 0002:000010cc       ??_C@_1BG@NLGHAGA@?$AA?$CF?$AAi?$AA?0?$AA?$CF?$AA0?$AA3?$AAi?$AA?5?$AA?$CF?$AAc@ 100260cc     Display.obj
 0002:000010e4       ??_C@_1M@KOMOBEPM@?$AA?$CF?$AAi?$AA?5?$AA?$CF?$AAc@ 100260e4     Display.obj
 0002:000010f0       ??_C@_1EK@NOCLDABL@?$AAi?$AAf?$AA?5?$AA?$CF?$AAc?$AAP?$AAa?$AAn?$AAe?$AAl?$AA?4?$AAL?$AAe?$AAf?$AAt@ 100260f0     Display.obj
 0002:0000113c       ??_C@_1DI@DLGGKEIH@?$AA$?$AAI?$AAf?$AA?5?$AA?$CI?$AA?$CF?$AAc?$AAP?$AAa?$AAn?$AAe?$AAl?$AA?4?$AAL?$AAe@ 1002613c     Display.obj
 0002:00001178       ??_7?$CQueueProcessor@PAUIMAGE_CACHE_INFO@@@@6B@ 10026178     ImgCache.obj
 0002:000011b0       ??_7CImgLoader@@6B@        100261b0     ImgCache.obj
 0002:000011e4       ??_C@_1M@NHGOODCJ@?$AA?$CK?$AA?4?$AAt?$AA3?$AA2@ 100261e4     ImgCache.obj
 0002:000011f0       ??_C@_08DHJJJJMJ@CET_Init@ 100261f0     ImgCache.obj
 0002:000011fc       ??_C@_08CBCDAPII@CET_Done@ 100261fc     ImgCache.obj
 0002:00001208       ??_C@_08DBEDCDF@CET_Load@  10026208     ImgCache.obj
 0002:00001214       ??_C@_08PFMFDMEL@CET_Free@ 10026214     ImgCache.obj
 0002:00001220       ??_C@_0L@DOHHADLD@CET_Cancel@ 10026220     ImgCache.obj
 0002:0000122c       ??_C@_1BO@EOFABIPH@?$AAC?$AAo?$AAn?$AAE?$AAm?$AAu?$AAT?$AAh?$AA?4?$AAc?$AAa?$AAc?$AAh?$AAe@ 1002622c     ImgCache.obj
 0002:0000124c       ??_C@_15DDHGOCBH@?$AA?4?$AA?4@ 1002624c     ImgCache.obj
 0002:00001254       ??_C@_19DDLLJDOO@?$AAF?$AAi?$AAl?$AAe@ 10026254     ImgCache.obj
 0002:00001260       ??_C@_19HKLPDE@?$AA?4?$AAb?$AAm?$AAp@ 10026260     ImgCache.obj
 0002:0000126c       ??_C@_19KGHJPLAF@?$AA?4?$AAg?$AAi?$AAf@ 1002626c     ImgCache.obj
 0002:00001278       ??_C@_19GPGAIFNL@?$AA?4?$AAi?$AAc?$AAo@ 10026278     ImgCache.obj
 0002:00001284       ??_C@_19HFLOJEOK@?$AA?4?$AAp?$AAn?$AAg@ 10026284     ImgCache.obj
 0002:00001290       ??_C@_19EBFDIIDI@?$AA?4?$AAw?$AAm?$AAf@ 10026290     ImgCache.obj
 0002:0000129c       ??_C@_1BE@DFPCIADA@?$AAP?$AAB?$AAF?$AAa?$AAr?$AA?4?$AAd?$AAl?$AAl@ 1002629c     ImgCache.obj
 0002:000012b0       ??_C@_0N@DDFPJHDO@_GetFileData@ 100262b0     ImgCache.obj
 0002:000012c0       ??_C@_0DJ@PNFAJJHL@c?3?2users?2conemu?2src?2conemu?2src?2@ 100262c0     ImgCache.obj
 0002:000012fc       ??_C@_0BJ@KDNBOADC@Thumbs?3?3ProcessingThread@ 100262fc     ImgCache.obj
 0002:00001320       __xmm@00000020000000200000000000000000 10026320     ImgCache.obj
 0002:00001330       ??_C@_1BC@LMIJMNIA@?$AA0?$AA0?$AA0?$AA0?$AA0?$AA0?$AA0?$AA0@ 10026330     common-kernel32:MStrSafe.obj
 0002:00001344       ??_C@_19FBKLJMA@?$AA0?$AA0?$AA0?$AA0@ 10026344     common-kernel32:MStrSafe.obj
 0002:00001350       ??_C@_1BO@HJHEFHMO@?$AAK?$AAe?$AAr?$AAn?$AAe?$AAl?$AAB?$AAa?$AAs?$AAe?$AA?4?$AAd?$AAl?$AAl@ 10026350     common-kernel32:MSecurity.obj
 0002:00001370       ??_C@_1BK@BIGILECK@?$AAA?$AAd?$AAv?$AAa?$AAp?$AAi?$AA3?$AA2?$AA?4?$AAd?$AAl?$AAl@ 10026370     common-kernel32:MSecurity.obj
 0002:0000138c       ??_C@_0BE@IPKPLIM@AddAccessAllowedAce@ 1002638c     common-kernel32:MSecurity.obj
 0002:000013a0       ??_C@_0BD@EIGAJLOG@AddAccessDeniedAce@ 100263a0     common-kernel32:MSecurity.obj
 0002:000013b4       ??_C@_0BJ@ECIKFEOL@AllocateAndInitializeSid@ 100263b4     common-kernel32:MSecurity.obj
 0002:000013d0       ??_C@_0N@HBKDHKNL@GetLengthSid@ 100263d0     common-kernel32:MSecurity.obj
 0002:000013e0       ??_C@_0O@GKCEJBAA@InitializeAcl@ 100263e0     common-kernel32:MSecurity.obj
 0002:000013f0       ??_C@_0BN@FNLANPJJ@InitializeSecurityDescriptor@ 100263f0     common-kernel32:MSecurity.obj
 0002:00001410       ??_C@_0BK@DNNLOFO@SetSecurityDescriptorDacl@ 10026410     common-kernel32:MSecurity.obj
 0002:0000142c       ??_C@_1BA@LEPJIIOK@?$AAU?$AAn?$AAk?$AAn?$AAo?$AAw?$AAn@ 1002642c     common-kernel32:ConEmuCheck.obj
 0002:00001440       ??_C@_1EM@INHGIPLC@?$AA?$CF?$AAs?$AA?4?$AA?$CF?$AAu?$AA?3?$AA?5?$AAC?$AAr?$AAe?$AAa?$AAt?$AAe?$AAF?$AAi@ 10026440     common-kernel32:ConEmuCheck.obj
 0002:0000148c       ??_C@_13JOFGPIOO@?$AA?4@   1002648c     common-kernel32:ConEmuCheck.obj
 0002:00001490       ??_C@_1DC@MJLCOFMA@?$AA?2?$AA?2?$AA?$CF?$AAs?$AA?2?$AAp?$AAi?$AAp?$AAe?$AA?2?$AAC?$AAo?$AAn?$AAE?$AAm@ 10026490     common-kernel32:ConEmuCheck.obj
 0002:000014c8       ??_7exception@stdext@@6B@  100264c8     common-kernel32:MProcess.obj
 0002:000014d4       ??_C@_0BC@BDKFLDHL@unknown?5exception@ 100264d4     common-kernel32:MProcess.obj
 0002:000014ec       ??_7bad_alloc@stdext@@6B@  100264ec     common-kernel32:MProcess.obj
 0002:000014f8       ??_C@_0P@GHFPNOJB@bad?5allocation@ 100264f8     common-kernel32:MProcess.obj
 0002:0000150c       ??_7?$MToolHelp@UtagPROCESSENTRY32W@@$1?Process32FirstW@@YGHPAXPAU1@@Z$1?Process32NextW@@YGH01@Z@@6B@ 1002650c     common-kernel32:MProcess.obj
 0002:00001518       ??_7MToolHelpProcess@@6B@  10026518     common-kernel32:MProcess.obj
 0002:00001520       ??_C@_1BK@HHKNEJDC@?$AAt?$AAl?$AAn?$AAt?$AAs?$AAe?$AAs?$AAs?$AA?4?$AAe?$AAx?$AAe@ 10026520     common-kernel32:MProcess.obj
 0002:0000153c       ??_C@_1BI@MPDCNJBA@?$AAt?$AAl?$AAn?$AAt?$AAs?$AAv?$AAr?$AA?4?$AAe?$AAx?$AAe@ 1002653c     common-kernel32:MProcess.obj
 0002:00001554       ??_C@_0BD@OLBABOEK@vector?$DMT?$DO?5too?5long@ 10026554     common-kernel32:MProcess.obj
 0002:0000156c       ??_7?$_Func_impl_no_alloc@V<lambda_9e7323793ed24b1a5fadb4d27ba29021>@@_NABUtagPROCESSENTRY32W@@@std@@6B@ 1002656c     common-kernel32:MProcess.obj
 0002:00001584       ??_C@_1BK@FLBMCLFA@?$AAC?$AAo?$AAn?$AAE?$AAm?$AAu?$AAH?$AAk?$AA?4?$AAd?$AAl?$AAl@ 10026584     common-kernel32:HkFunc.obj
 0002:000015a0       ??_C@_0BD@HGJIAJJM@RequestTrampolines@ 100265a0     common-kernel32:HkFunc.obj
 0002:000015b4       ??_C@_05LCABBMOG@?$CFs?3?$CFi@ 100265b4     common-kernel32:WThreads.obj
 0002:000015bc       ??_C@_1BK@MGMFAEKH@?$AAk?$AAe?$AAr?$AAn?$AAe?$AAl?$AA3?$AA2?$AA?4?$AAd?$AAl?$AAl@ 100265bc     common-kernel32:WObjects.obj
 0002:000015d8       ??_C@_0BP@OODKCJPP@Wow64DisableWow64FsRedirection@ 100265d8     common-kernel32:WObjects.obj
 0002:000015f8       ??_C@_0BO@KOCOEJCM@Wow64RevertWow64FsRedirection@ 100265f8     common-kernel32:WObjects.obj
 0002:00001618       ??_C@_19DOGDICKI@?$AA?4?$AAe?$AAx?$AAe@ 10026618     common-kernel32:WObjects.obj
 0002:00001624       ??_C@_1BE@GJOFHIHD@?$AAn?$AAt?$AAd?$AAl?$AAl?$AA?4?$AAd?$AAl?$AAl@ 10026624     common-kernel32:WObjects.obj
 0002:00001638       ??_C@_0BF@LOGLPPDD@RtlVerifyVersionInfo@ 10026638     common-kernel32:WObjects.obj
 0002:00001650       ??_C@_0P@LKABJJMO@IsWow64Process@ 10026650     common-kernel32:WObjects.obj
 0002:00001664       ??_7?$_Func_impl_no_alloc@P6GHPAX@ZXPAX@std@@6B@ 10026664     common-kernel32:WObjects.obj
 0002:00001820       ??_C@_1BC@DDAIKLEO@?$AAA?$AAC?$AAT?$AAI?$AAV?$AAA?$AAT?$AAE@ 10026820     common-kernel32:CmdLine.obj
 0002:00001834       ??_C@_1M@IAAEIFGC@?$AAA?$AAL?$AAI?$AAA?$AAS@ 10026834     common-kernel32:CmdLine.obj
 0002:00001840       ??_C@_1M@NBMJEEAL@?$AAA?$AAS?$AAS?$AAO?$AAC@ 10026840     common-kernel32:CmdLine.obj
 0002:0000184c       ??_C@_1O@HDDJOIFH@?$AAA?$AAT?$AAT?$AAR?$AAI?$AAB@ 1002684c     common-kernel32:CmdLine.obj
 0002:0000185c       ??_C@_19HDNPBIOA@?$AAB?$AAE?$AAE?$AAP@ 1002685c     common-kernel32:CmdLine.obj
 0002:00001868       ??_C@_1M@MPPIMPG@?$AAB?$AAR?$AAE?$AAA?$AAK@ 10026868     common-kernel32:CmdLine.obj
 0002:00001874       ??_C@_19CFJHMEML@?$AAC?$AAA?$AAL?$AAL@ 10026874     common-kernel32:CmdLine.obj
 0002:00001880       ??_C@_17LNHAGCII@?$AAC?$AAD?$AAD@ 10026880     common-kernel32:CmdLine.obj
 0002:00001888       ??_C@_19NBEBIFBC@?$AAC?$AAH?$AAC?$AAP@ 10026888     common-kernel32:CmdLine.obj
 0002:00001894       ??_C@_1M@ENFOKIIP@?$AAC?$AAO?$AAL?$AAO?$AAR@ 10026894     common-kernel32:CmdLine.obj
 0002:000018a0       ??_C@_19CDMOLDLE@?$AAC?$AAO?$AAP?$AAY@ 100268a0     common-kernel32:CmdLine.obj
 0002:000018ac       ??_C@_19FFMGBAMO@?$AAD?$AAA?$AAT?$AAE@ 100268ac     common-kernel32:CmdLine.obj
 0002:000018b8       ??_C@_1BA@KDAEEGIF@?$AAD?$AAE?$AAF?$AAA?$AAU?$AAL?$AAT@ 100268b8     common-kernel32:CmdLine.obj
 0002:000018c8       ??_C@_17LJFNJANL@?$AAD?$AAE?$AAL@ 100268c8     common-kernel32:CmdLine.obj
 0002:000018d0       ??_C@_1M@MDOPDHLI@?$AAD?$AAE?$AAL?$AAA?$AAY@ 100268d0     common-kernel32:CmdLine.obj
 0002:000018dc       ??_C@_1BC@EBILLKF@?$AAD?$AAE?$AAS?$AAC?$AAR?$AAI?$AAB?$AAE@ 100268dc     common-kernel32:CmdLine.obj
 0002:000018f0       ??_C@_1O@FMDFNCGD@?$AAD?$AAE?$AAT?$AAA?$AAC?$AAH@ 100268f0     common-kernel32:CmdLine.obj
 0002:00001900       ??_C@_17HOFJHAAM@?$AAD?$AAI?$AAR@ 10026900     common-kernel32:CmdLine.obj
 0002:00001908       ??_C@_1BG@NDOBACJO@?$AAD?$AAI?$AAR?$AAH?$AAI?$AAS?$AAT?$AAO?$AAR?$AAY@ 10026908     common-kernel32:CmdLine.obj
 0002:00001920       ??_C@_19CFAIOACF@?$AAD?$AAI?$AAR?$AAS@ 10026920     common-kernel32:CmdLine.obj
 0002:0000192c       ??_C@_1BA@EEGPDNCN@?$AAD?$AAR?$AAA?$AAW?$AAB?$AAO?$AAX@ 1002692c     common-kernel32:CmdLine.obj
 0002:0000193c       ??_C@_1BE@MFLGFCAF@?$AAD?$AAR?$AAA?$AAW?$AAH?$AAL?$AAI?$AAN?$AAE@ 1002693c     common-kernel32:CmdLine.obj
 0002:00001950       ??_C@_1BE@CAJPGMOH@?$AAD?$AAR?$AAA?$AAW?$AAV?$AAL?$AAI?$AAN?$AAE@ 10026950     common-kernel32:CmdLine.obj
 0002:00001964       ??_C@_19ODIIFOAJ@?$AAE?$AAC?$AAH?$AAO@ 10026964     common-kernel32:CmdLine.obj
 0002:00001970       ??_C@_1BA@GCFKHCBD@?$AAE?$AAC?$AAH?$AAO?$AAE?$AAR?$AAR@ 10026970     common-kernel32:CmdLine.obj
 0002:00001980       ??_C@_1M@IEKJIEHO@?$AAE?$AAC?$AAH?$AAO?$AAS@ 10026980     common-kernel32:CmdLine.obj
 0002:0000198c       ??_C@_1BC@OCCODNGM@?$AAE?$AAC?$AAH?$AAO?$AAS?$AAE?$AAR?$AAR@ 1002698c     common-kernel32:CmdLine.obj
 0002:000019a0       ??_C@_1BC@HIHGAEJA@?$AAE?$AAN?$AAD?$AAL?$AAO?$AAC?$AAA?$AAL@ 100269a0     common-kernel32:CmdLine.obj
 0002:000019b4       ??_C@_1M@FCOMLPCA@?$AAE?$AAR?$AAA?$AAS?$AAE@ 100269b4     common-kernel32:CmdLine.obj
 0002:000019c0       ??_C@_1BG@GOAOIOCC@?$AAE?$AAR?$AAR?$AAO?$AAR?$AAL?$AAE?$AAV?$AAE?$AAL@ 100269c0     common-kernel32:CmdLine.obj
 0002:000019d8       ??_C@_19KELFKMGC@?$AAE?$AAS?$AAE?$AAT@ 100269d8     common-kernel32:CmdLine.obj
 0002:000019e4       ??_C@_1O@INDINDHO@?$AAE?$AAX?$AAC?$AAE?$AAP?$AAT@ 100269e4     common-kernel32:CmdLine.obj
 0002:000019f4       ??_C@_1M@HOIOAEKG@?$AAE?$AAX?$AAI?$AAS?$AAT@ 100269f4     common-kernel32:CmdLine.obj
 0002:00001a00       ??_C@_19IOBNHAEP@?$AAE?$AAX?$AAI?$AAT@ 10026a00     common-kernel32:CmdLine.obj
 0002:00001a0c       ??_C@_1M@NPCGCBNH@?$AAF?$AAF?$AAI?$AAN?$AAD@ 10026a0c     common-kernel32:CmdLine.obj
 0002:00001a18       ??_C@_17OKCFJEGM@?$AAF?$AAO?$AAR@ 10026a18     common-kernel32:CmdLine.obj
 0002:00001a20       ??_C@_19GLINCHAF@?$AAF?$AAR?$AAE?$AAE@ 10026a20     common-kernel32:CmdLine.obj
 0002:00001a2c       ??_C@_1M@BKGEFKH@?$AAF?$AAT?$AAY?$AAP?$AAE@ 10026a2c     common-kernel32:CmdLine.obj
 0002:00001a38       ??_C@_1O@COJGIGIJ@?$AAG?$AAL?$AAO?$AAB?$AAA?$AAL@ 10026a38     common-kernel32:CmdLine.obj
 0002:00001a48       ??_C@_19MEMGFJJL@?$AAG?$AAO?$AAT?$AAO@ 10026a48     common-kernel32:CmdLine.obj
 0002:00001a54       ??_C@_19EDPCNJOB@?$AAH?$AAE?$AAL?$AAP@ 10026a54     common-kernel32:CmdLine.obj
 0002:00001a60       ??_C@_1BA@FNCCECPF@?$AAH?$AAI?$AAS?$AAT?$AAO?$AAR?$AAY@ 10026a60     common-kernel32:CmdLine.obj
 0002:00001a70       ??_C@_15NIBFACBJ@?$AAI?$AAF@ 10026a70     common-kernel32:CmdLine.obj
 0002:00001a78       ??_C@_17MLHBBHMA@?$AAI?$AAF?$AAF@ 10026a78     common-kernel32:CmdLine.obj
 0002:00001a80       ??_C@_1M@DEPEIGKO@?$AAI?$AAN?$AAK?$AAE?$AAY@ 10026a80     common-kernel32:CmdLine.obj
 0002:00001a8c       ??_C@_1M@OEJJHBJF@?$AAI?$AAN?$AAP?$AAU?$AAT@ 10026a8c     common-kernel32:CmdLine.obj
 0002:00001a98       ??_C@_1M@KBMHGKGK@?$AAK?$AAE?$AAY?$AAB?$AAD@ 10026a98     common-kernel32:CmdLine.obj
 0002:00001aa4       ??_C@_19OJGLFOCE@?$AAK?$AAE?$AAY?$AAS@ 10026aa4     common-kernel32:CmdLine.obj
 0002:00001ab0       ??_C@_1M@CFNEBGLF@?$AAL?$AAA?$AAB?$AAE?$AAL@ 10026ab0     common-kernel32:CmdLine.obj
 0002:00001abc       ??_C@_19GAFEELMN@?$AAL?$AAI?$AAS?$AAT@ 10026abc     common-kernel32:CmdLine.obj
 0002:00001ac8       ??_C@_17BMCCCPAJ@?$AAL?$AAO?$AAG@ 10026ac8     common-kernel32:CmdLine.obj
 0002:00001ad0       ??_C@_15OJINIIIE@?$AAM?$AAD@ 10026ad0     common-kernel32:CmdLine.obj
 0002:00001ad8       ??_C@_1O@BMHNHEPH@?$AAM?$AAE?$AAM?$AAO?$AAR?$AAY@ 10026ad8     common-kernel32:CmdLine.obj
 0002:00001ae8       ??_C@_1M@KIDICDED@?$AAM?$AAK?$AAD?$AAI?$AAR@ 10026ae8     common-kernel32:CmdLine.obj
 0002:00001af4       ??_C@_19PBJBIIDN@?$AAM?$AAO?$AAV?$AAE@ 10026af4     common-kernel32:CmdLine.obj
 0002:00001b00       ??_C@_1O@HEILMPND@?$AAM?$AAS?$AAG?$AAB?$AAO?$AAX@ 10026b00     common-kernel32:CmdLine.obj
 0002:00001b10       ??_C@_17BMKLNAAF@?$AAN?$AAO?$AAT@ 10026b10     common-kernel32:CmdLine.obj
 0002:00001b18       ??_C@_15MLPIMJOL@?$AAO?$AAN@ 10026b18     common-kernel32:CmdLine.obj
 0002:00001b20       ??_C@_1O@GPKPHHA@?$AAO?$AAP?$AAT?$AAI?$AAO?$AAN@ 10026b20     common-kernel32:CmdLine.obj
 0002:00001b30       ??_C@_19IJOJOJIB@?$AAP?$AAA?$AAT?$AAH@ 10026b30     common-kernel32:CmdLine.obj
 0002:00001b3c       ??_C@_1M@PCDPCAPG@?$AAP?$AAA?$AAU?$AAS?$AAE@ 10026b3c     common-kernel32:CmdLine.obj
 0002:00001b48       ??_C@_19ENCEAGBN@?$AAP?$AAO?$AAP?$AAD@ 10026b48     common-kernel32:CmdLine.obj
 0002:00001b54       ??_C@_1O@EMMHJCCF@?$AAP?$AAR?$AAO?$AAM?$AAP?$AAT@ 10026b54     common-kernel32:CmdLine.obj
 0002:00001b64       ??_C@_1M@MLLIJNNO@?$AAP?$AAU?$AAS?$AAH?$AAD@ 10026b64     common-kernel32:CmdLine.obj
 0002:00001b70       ??_C@_15BLANDIMK@?$AAR?$AAD@ 10026b70     common-kernel32:CmdLine.obj
 0002:00001b78       ??_C@_1O@JAHCGOHI@?$AAR?$AAE?$AAB?$AAO?$AAO?$AAT@ 10026b78     common-kernel32:CmdLine.obj
 0002:00001b88       ??_C@_17KJIAGAPM@?$AAR?$AAE?$AAN@ 10026b88     common-kernel32:CmdLine.obj
 0002:00001b90       ??_C@_1O@DKKJANDF@?$AAR?$AAE?$AAN?$AAA?$AAM?$AAE@ 10026b90     common-kernel32:CmdLine.obj
 0002:00001ba0       ??_C@_1M@NLKKCBIJ@?$AAR?$AAM?$AAD?$AAI?$AAR@ 10026ba0     common-kernel32:CmdLine.obj
 0002:00001bac       ??_C@_1O@MKBBCDFD@?$AAS?$AAC?$AAR?$AAE?$AAE?$AAN@ 10026bac     common-kernel32:CmdLine.obj
 0002:00001bbc       ??_C@_1O@MCDIKJHM@?$AAS?$AAC?$AAR?$AAP?$AAU?$AAT@ 10026bbc     common-kernel32:CmdLine.obj
 0002:00001bcc       ??_C@_1O@PFLGGDAO@?$AAS?$AAE?$AAL?$AAE?$AAC?$AAT@ 10026bcc     common-kernel32:CmdLine.obj
 0002:00001bdc       ??_C@_17FKIONHJJ@?$AAS?$AAE?$AAT@ 10026bdc     common-kernel32:CmdLine.obj
 0002:00001be4       ??_C@_1O@OHHAFKEO@?$AAS?$AAE?$AAT?$AAD?$AAO?$AAS@ 10026be4     common-kernel32:CmdLine.obj
 0002:00001bf4       ??_C@_1BC@GEMAPDNM@?$AAS?$AAE?$AAT?$AAL?$AAO?$AAC?$AAA?$AAL@ 10026bf4     common-kernel32:CmdLine.obj
 0002:00001c08       ??_C@_1M@OJBOFOHK@?$AAS?$AAH?$AAI?$AAF?$AAT@ 10026c08     common-kernel32:CmdLine.obj
 0002:00001c14       ??_C@_1BC@HJGKBLNP@?$AAS?$AAH?$AAR?$AAA?$AAL?$AAI?$AAA?$AAS@ 10026c14     common-kernel32:CmdLine.obj
 0002:00001c28       ??_C@_1M@JPCOGECE@?$AAS?$AAT?$AAA?$AAR?$AAT@ 10026c28     common-kernel32:CmdLine.obj
 0002:00001c34       ??_C@_17LIOOOOHK@?$AAT?$AAE?$AAE@ 10026c34     common-kernel32:CmdLine.obj
 0002:00001c3c       ??_C@_19IFFENJMA@?$AAT?$AAI?$AAM?$AAE@ 10026c3c     common-kernel32:CmdLine.obj
 0002:00001c48       ??_C@_1M@FFPBPPED@?$AAT?$AAI?$AAM?$AAE?$AAR@ 10026c48     common-kernel32:CmdLine.obj
 0002:00001c54       ??_C@_1M@NMMEOLKN@?$AAT?$AAI?$AAT?$AAL?$AAE@ 10026c54     common-kernel32:CmdLine.obj
 0002:00001c60       ??_C@_1M@BOEMPBHM@?$AAT?$AAO?$AAU?$AAC?$AAH@ 10026c60     common-kernel32:CmdLine.obj
 0002:00001c6c       ??_C@_19EINGHGNA@?$AAT?$AAR?$AAE?$AAE@ 10026c6c     common-kernel32:CmdLine.obj
 0002:00001c78       ??_C@_1BC@DJLLAHAG@?$AAT?$AAR?$AAU?$AAE?$AAN?$AAA?$AAM?$AAE@ 10026c78     common-kernel32:CmdLine.obj
 0002:00001c8c       ??_C@_19EGKHPJKO@?$AAT?$AAY?$AAP?$AAE@ 10026c8c     common-kernel32:CmdLine.obj
 0002:00001c98       ??_C@_1BA@CPEILPFL@?$AAU?$AAN?$AAA?$AAL?$AAI?$AAA?$AAS@ 10026c98     common-kernel32:CmdLine.obj
 0002:00001ca8       ??_C@_1M@GANCNEJA@?$AAU?$AAN?$AAS?$AAE?$AAT@ 10026ca8     common-kernel32:CmdLine.obj
 0002:00001cb4       ??_C@_17DHAFIGCB@?$AAV?$AAE?$AAR@ 10026cb4     common-kernel32:CmdLine.obj
 0002:00001cbc       ??_C@_1O@LNHKOABJ@?$AAV?$AAE?$AAR?$AAI?$AAF?$AAY@ 10026cbc     common-kernel32:CmdLine.obj
 0002:00001ccc       ??_C@_17CGFIIFOL@?$AAV?$AAO?$AAL@ 10026ccc     common-kernel32:CmdLine.obj
 0002:00001cd4       ??_C@_1BA@GEPADKGO@?$AAV?$AAS?$AAC?$AAR?$AAP?$AAU?$AAT@ 10026cd4     common-kernel32:CmdLine.obj
 0002:00001ce4       ??_C@_1O@EEDIBOKC@?$AAW?$AAI?$AAN?$AAD?$AAO?$AAW@ 10026ce4     common-kernel32:CmdLine.obj
 0002:00001cf4       ??_C@_13GILOGAML@?$AAY@    10026cf4     common-kernel32:CmdLine.obj
 0002:00001cf8       ??_C@_1CA@DHOHMJCG@?$AAU?$AAn?$AAi?$AAc?$AAo?$AAd?$AAe?$AA?5?$AAC?$AAh?$AAa?$AAr?$AAM?$AAa?$AAp@ 10026cf8     common-user32:RgnDetect.obj
 0002:00001d18       ??_C@_1GK@PPEHOOAL@?$AAS?$AAO?$AAF?$AAT?$AAW?$AAA?$AAR?$AAE?$AA?2?$AAM?$AAi?$AAc?$AAr?$AAo?$AAs@ 10026d18     common-user32:WFiles.obj
 0002:00001d84       ??_C@_13PJJBFPED@?$AA?$DL@ 10026d84     common-user32:WFiles.obj
 0002:00001d90       ??_7exception@std@@6B@     10026d90     libcpmt:xthrow.obj
 0002:00001d98       ??_C@_0BC@EOODALEL@Unknown?5exception@ 10026d98     libcpmt:xthrow.obj
 0002:00001db0       ??_7logic_error@std@@6B@   10026db0     libcpmt:xthrow.obj
 0002:00001dbc       ??_7length_error@std@@6B@  10026dbc     libcpmt:xthrow.obj
 0002:00001dc8       ??_7bad_function_call@std@@6B@ 10026dc8     libcpmt:xthrow.obj
 0002:00001dd0       ??_C@_0BC@DPJNKNAF@bad?5function?5call@ 10026dd0     libcpmt:xthrow.obj
 0002:00001de8       ??_7type_info@@6B@         10026de8     LIBCMT:std_type_info_static.obj
 0002:00001dec       __pDefaultRawDllMain       10026dec     LIBCMT:dll_dllmain.obj
 0002:00001dec       __pRawDllMain              10026dec     LIBCMT:dll_dllmain.obj
 0002:00001e1c       ??_7bad_exception@std@@6B@ 10026e1c     libvcruntime:frame.obj
 0002:00001e24       ??_C@_0O@DPKOEFFH@bad?5exception@ 10026e24     libvcruntime:frame.obj
 0002:00001fd4       ??_C@_08EHJDFFNH@__based?$CI@ 10026fd4     libvcruntime:undname.obj
 0002:00001fe0       ??_C@_07KOLFKCDI@__cdecl@  10026fe0     libvcruntime:undname.obj
 0002:00001fe8       ??_C@_08GHMPAG@__pascal@   10026fe8     libvcruntime:undname.obj
 0002:00001ff4       ??_C@_09IFJBGAPI@__stdcall@ 10026ff4     libvcruntime:undname.obj
 0002:00002000       ??_C@_0L@NPHFGOKO@__thiscall@ 10027000     libvcruntime:undname.obj
 0002:0000200c       ??_C@_0L@JMKHOMEK@__fastcall@ 1002700c     libvcruntime:undname.obj
 0002:00002018       ??_C@_0N@BCKKPABJ@__vectorcall@ 10027018     libvcruntime:undname.obj
 0002:00002028       ??_C@_09HIJEGCPM@__clrcall@ 10027028     libvcruntime:undname.obj
 0002:00002034       ??_C@_06GHPCKEAG@__eabi@   10027034     libvcruntime:undname.obj
 0002:0000203c       ??_C@_09IOPIDJLG@__swift_1@ 1002703c     libvcruntime:undname.obj
 0002:00002048       ??_C@_09KFNFGKHF@__swift_2@ 10027048     libvcruntime:undname.obj
 0002:00002054       ??_C@_07JOMMBBKO@__ptr64@  10027054     libvcruntime:undname.obj
 0002:0000205c       ??_C@_0L@PILCLIHE@__restrict@ 1002705c     libvcruntime:undname.obj
 0002:00002068       ??_C@_0M@GFIIJFMG@__unaligned@ 10027068     libvcruntime:undname.obj
 0002:00002074       ??_C@_09DHDLOLLB@restrict?$CI@ 10027074     libvcruntime:undname.obj
 0002:0000207e       ??_C@_00CNPNBAHC@@         1002707e     libvcruntime:undname.obj
 0002:00002080       ??_C@_04NIHEBCM@?5new@     10027080     libvcruntime:undname.obj
 0002:00002088       ??_C@_07FPCDHGMM@?5delete@ 10027088     libvcruntime:undname.obj
 0002:00002090       ??_C@_01NEMOKFLO@?$DN@     10027090     libvcruntime:undname.obj
 0002:00002094       ??_C@_02GPIOPFAK@?$DO?$DO@ 10027094     libvcruntime:undname.obj
 0002:00002098       ??_C@_02FODMEDOG@?$DM?$DM@ 10027098     libvcruntime:undname.obj
 0002:0000209c       ??_C@_01DCLJPIOD@?$CB@     1002709c     libvcruntime:undname.obj
 0002:000020a0       ??_C@_02EGOFBIJA@?$DN?$DN@ 100270a0     libvcruntime:undname.obj
 0002:000020a4       ??_C@_02FDNJECIE@?$CB?$DN@ 100270a4     libvcruntime:undname.obj
 0002:000020a8       ??_C@_02GPECMEKF@?$FL?$FN@ 100270a8     libvcruntime:undname.obj
 0002:000020ac       ??_C@_08LHJFAFGD@operator@ 100270ac     libvcruntime:undname.obj
 0002:000020b8       ??_C@_02HBOOOICD@?9?$DO@   100270b8     libvcruntime:undname.obj
 0002:000020bc       ??_C@_01NBENCBCI@?$CK@     100270bc     libvcruntime:undname.obj
 0002:000020c0       ??_C@_02ECNGHCIF@?$CL?$CL@ 100270c0     libvcruntime:undname.obj
 0002:000020c4       ??_C@_02BAABKJLB@?9?9@     100270c4     libvcruntime:undname.obj
 0002:000020c8       ??_C@_01JOAMLHOP@?9@       100270c8     libvcruntime:undname.obj
 0002:000020cc       ??_C@_01MIFGBAGJ@?$CL@     100270cc     libvcruntime:undname.obj
 0002:000020d0       ??_C@_01HNPIGOCE@?$CG@     100270d0     libvcruntime:undname.obj
 0002:000020d4       ??_C@_03MNHNFDLC@?9?$DO?$CK@ 100270d4     libvcruntime:undname.obj
 0002:000020d8       ??_C@_01KMDKNFGN@?1@       100270d8     libvcruntime:undname.obj
 0002:000020dc       ??_C@_01FGNFDNOH@?$CF@     100270dc     libvcruntime:undname.obj
 0002:000020e0       ??_C@_01MNNFJEPP@?$DM@     100270e0     libvcruntime:undname.obj
 0002:000020e4       ??_C@_02EHCHHCKH@?$DM?$DN@ 100270e4     libvcruntime:undname.obj
 0002:000020e8       ??_C@_01PPODPGHN@?$DO@     100270e8     libvcruntime:undname.obj
 0002:000020ec       ??_C@_02EEKDKGMJ@?$DO?$DN@ 100270ec     libvcruntime:undname.obj
 0002:000020f0       ??_C@_01IHBHIGKO@?0@       100270f0     libvcruntime:undname.obj
 0002:000020f4       ??_C@_02HCKGKOFO@?$CI?$CJ@ 100270f4     libvcruntime:undname.obj
 0002:000020f8       ??_C@_01PJKLJHI@?$HO@      100270f8     libvcruntime:undname.obj
 0002:000020fc       ??_C@_01JKBOJNNK@?$FO@     100270fc     libvcruntime:undname.obj
 0002:00002100       ??_C@_01DNKMNLPK@?$HM@     10027100     libvcruntime:undname.obj
 0002:00002104       ??_C@_02PPKAJPJL@?$CG?$CG@ 10027104     libvcruntime:undname.obj
 0002:00002108       ??_C@_02NONPIBCD@?$HM?$HM@ 10027108     libvcruntime:undname.obj
 0002:0000210c       ??_C@_02FPIMKNGF@?$CK?$DN@ 1002710c     libvcruntime:undname.obj
 0002:00002110       ??_C@_02FOEOMHFC@?$CL?$DN@ 10027110     libvcruntime:undname.obj
 0002:00002114       ??_C@_02FKMDLLOA@?9?$DN@   10027114     libvcruntime:undname.obj
 0002:00002118       ??_C@_02FJEHGPIO@?1?$DN@   10027118     libvcruntime:undname.obj
 0002:0000211c       ??_C@_02FENAOKFI@?$CF?$DN@ 1002711c     libvcruntime:undname.obj
 0002:00002120       ??_C@_03IKFCCPFF@?$DO?$DO?$DN@ 10027120     libvcruntime:undname.obj
 0002:00002124       ??_C@_03CDNPDDLA@?$DM?$DM?$DN@ 10027124     libvcruntime:undname.obj
 0002:00002128       ??_C@_02FGJGFEAB@?$CG?$DN@ 10027128     libvcruntime:undname.obj
 0002:0000212c       ??_C@_02DHLNPPGH@?$HM?$DN@ 1002712c     libvcruntime:undname.obj
 0002:00002130       ??_C@_02MHEGNOJ@?$FO?$DN@  10027130     libvcruntime:undname.obj
 0002:00002134       ??_C@_09IFPLHPGF@?$GAvftable?8@ 10027134     libvcruntime:undname.obj
 0002:00002140       ??_C@_09BLBHBJP@?$GAvbtable?8@ 10027140     libvcruntime:undname.obj
 0002:0000214c       ??_C@_07FEEIOKP@?$GAvcall?8@ 1002714c     libvcruntime:undname.obj
 0002:00002154       ??_C@_08LLFFHHDJ@?$GAtypeof?8@ 10027154     libvcruntime:undname.obj
 0002:00002160       ??_C@_0BF@KDPPACIK@?$GAlocal?5static?5guard?8@ 10027160     libvcruntime:undname.obj
 0002:00002178       ??_C@_08OBABFOLI@?$GAstring?8@ 10027178     libvcruntime:undname.obj
 0002:00002184       ??_C@_0BD@JDLKDPAB@?$GAvbase?5destructor?8@ 10027184     libvcruntime:undname.obj
 0002:00002198       ??_C@_0BN@DEGPLNFK@?$GAvector?5deleting?5destructor?8@ 10027198     libvcruntime:undname.obj
 0002:000021b8       ??_C@_0BO@OBMKPJIG@?$GAdefault?5constructor?5closure?8@ 100271b8     libvcruntime:undname.obj
 0002:000021d8       ??_C@_0BN@IMDCHIKM@?$GAscalar?5deleting?5destructor?8@ 100271d8     libvcruntime:undname.obj
 0002:000021f8       ??_C@_0BO@PFGOCPJJ@?$GAvector?5constructor?5iterator?8@ 100271f8     libvcruntime:undname.obj
 0002:00002218       ??_C@_0BN@LFPFMEDL@?$GAvector?5destructor?5iterator?8@ 10027218     libvcruntime:undname.obj
 0002:00002238       ??_C@_0CE@IKBNEHA@?$GAvector?5vbase?5constructor?5itera@ 10027238     libvcruntime:undname.obj
 0002:0000225c       ??_C@_0BL@NILFHHPC@?$GAvirtual?5displacement?5map?8@ 1002725c     libvcruntime:undname.obj
 0002:00002278       ??_C@_0CB@JONCMFFK@?$GAeh?5vector?5constructor?5iterator@ 10027278     libvcruntime:undname.obj
 0002:0000229c       ??_C@_0CA@GCEOPDGL@?$GAeh?5vector?5destructor?5iterator?8@ 1002729c     libvcruntime:undname.obj
 0002:000022bc       ??_C@_0CH@OOJPLCPH@?$GAeh?5vector?5vbase?5constructor?5it@ 100272bc     libvcruntime:undname.obj
 0002:000022e4       ??_C@_0BL@LLKPOHJI@?$GAcopy?5constructor?5closure?8@ 100272e4     libvcruntime:undname.obj
 0002:00002300       ??_C@_0BA@KBCDOMBN@?$GAudt?5returning?8@ 10027300     libvcruntime:undname.obj
 0002:00002310       ??_C@_03KLGMFNMG@?$GAEH@   10027310     libvcruntime:undname.obj
 0002:00002314       ??_C@_05KHLCHHI@?$GARTTI@  10027314     libvcruntime:undname.obj
 0002:0000231c       ??_C@_0BA@KKLDJDLB@?$GAlocal?5vftable?8@ 1002731c     libvcruntime:undname.obj
 0002:0000232c       ??_C@_0CE@IIHCMGGL@?$GAlocal?5vftable?5constructor?5clos@ 1002732c     libvcruntime:undname.obj
 0002:00002350       ??_C@_06FHBGPFGH@?5new?$FL?$FN@ 10027350     libvcruntime:undname.obj
 0002:00002358       ??_C@_09LBNFPBCA@?5delete?$FL?$FN@ 10027358     libvcruntime:undname.obj
 0002:00002364       ??_C@_0P@HJKNJFNN@?$GAomni?5callsig?8@ 10027364     libvcruntime:undname.obj
 0002:00002374       ??_C@_0BL@CNOONJFP@?$GAplacement?5delete?5closure?8@ 10027374     libvcruntime:undname.obj
 0002:00002390       ??_C@_0BN@CKNJLHMB@?$GAplacement?5delete?$FL?$FN?5closure?8@ 10027390     libvcruntime:undname.obj
 0002:000023b0       ??_C@_0CG@CFDHKGGD@?$GAmanaged?5vector?5constructor?5ite@ 100273b0     libvcruntime:undname.obj
 0002:000023d8       ??_C@_0CF@IMGKMJNO@?$GAmanaged?5vector?5destructor?5iter@ 100273d8     libvcruntime:undname.obj
 0002:00002400       ??_C@_0CG@HLDDJMAG@?$GAeh?5vector?5copy?5constructor?5ite@ 10027400     libvcruntime:undname.obj
 0002:00002428       ??_C@_0CM@FCBBDIGB@?$GAeh?5vector?5vbase?5copy?5construct@ 10027428     libvcruntime:undname.obj
 0002:00002454       ??_C@_0BL@CLIPGLGB@?$GAdynamic?5initializer?5for?5?8@ 10027454     libvcruntime:undname.obj
 0002:00002470       ??_C@_0CB@PDBIFEP@?$GAdynamic?5atexit?5destructor?5for?5@ 10027470     libvcruntime:undname.obj
 0002:00002494       ??_C@_0CD@CGAJBKEJ@?$GAvector?5copy?5constructor?5iterat@ 10027494     libvcruntime:undname.obj
 0002:000024b8       ??_C@_0CJ@GJELGAMM@?$GAvector?5vbase?5copy?5constructor?5@ 100274b8     libvcruntime:undname.obj
 0002:000024e4       ??_C@_0CL@FGIJHLCE@?$GAmanaged?5vector?5copy?5constructo@ 100274e4     libvcruntime:undname.obj
 0002:00002510       ??_C@_0BM@PMGGMLDN@?$GAlocal?5static?5thread?5guard?8@ 10027510     libvcruntime:undname.obj
 0002:0000252c       ??_C@_0N@BDNMDMOL@operator?5?$CC?$CC?5@ 1002752c     libvcruntime:undname.obj
 0002:0000253c       ??_C@_0BC@GGEBGALA@operator?5co_await@ 1002753c     libvcruntime:undname.obj
 0002:00002550       ??_C@_0BC@DAFEJGAK@?5Type?5Descriptor?8@ 10027550     libvcruntime:undname.obj
 0002:00002564       ??_C@_0BM@LDKODKLH@?5Base?5Class?5Descriptor?5at?5?$CI@ 10027564     libvcruntime:undname.obj
 0002:00002580       ??_C@_0BD@LGICGFMM@?5Base?5Class?5Array?8@ 10027580     libvcruntime:undname.obj
 0002:00002594       ??_C@_0BN@MECKDCOJ@?5Class?5Hierarchy?5Descriptor?8@ 10027594     libvcruntime:undname.obj
 0002:000025b4       ??_C@_0BK@CFCOFLF@?5Complete?5Object?5Locator?8@ 100275b4     libvcruntime:undname.obj
 0002:000025dc       ??_C@_1DM@KHCHBNEB@?$AAa?$AAp?$AAi?$AA?9?$AAm?$AAs?$AA?9?$AAw?$AAi?$AAn?$AA?9?$AAc?$AAo?$AAr?$AAe@ 100275dc     libvcruntime:winapi_downlevel.obj
 0002:00002618       ??_C@_1DK@LPPGFMPP@?$AAa?$AAp?$AAi?$AA?9?$AAm?$AAs?$AA?9?$AAw?$AAi?$AAn?$AA?9?$AAc?$AAo?$AAr?$AAe@ 10027618     libvcruntime:winapi_downlevel.obj
 0002:00002654       ??_C@_1BC@GDMECMAK@?$AAk?$AAe?$AAr?$AAn?$AAe?$AAl?$AA3?$AA2@ 10027654     libvcruntime:winapi_downlevel.obj
 0002:00002668       ??_C@_1BA@PFFKHIOG@?$AAa?$AAp?$AAi?$AA?9?$AAm?$AAs?$AA?9@ 10027668     libvcruntime:winapi_downlevel.obj
 0002:00002678       ??_C@_1BA@IAIFMGEF@?$AAe?$AAx?$AAt?$AA?9?$AAm?$AAs?$AA?9@ 10027678     libvcruntime:winapi_downlevel.obj
 0002:00002690       ??_C@_08KNHFBNJ@FlsAlloc@  10027690     libvcruntime:winapi_downlevel.obj
 0002:000026a4       ??_C@_07PEJMOBNF@FlsFree@  100276a4     libvcruntime:winapi_downlevel.obj
 0002:000026b4       ??_C@_0M@GDNOONDI@FlsGetValue@ 100276b4     libvcruntime:winapi_downlevel.obj
 0002:000026c8       ??_C@_0M@JCPCPOEF@FlsSetValue@ 100276c8     libvcruntime:winapi_downlevel.obj
 0002:000026dc       ??_C@_0BM@HCFOFFN@InitializeCriticalSectionEx@ 100276dc     libvcruntime:winapi_downlevel.obj
 0002:000026f8       __pDestructExceptionObject 100276f8     libvcruntime:ehhelpers.obj
 0002:00002868       _standard_lookup_table     10027868     libucrt:output.obj
 0002:000028c4       ??_C@_06OJHGLDPL@?$CInull?$CJ?$AA@ 100278c4     libucrt:output.obj
 0002:000028cc       ??_C@_1O@CEDCILHN@?$AA?$CI?$AAn?$AAu?$AAl?$AAl?$AA?$CJ?$AA?$AA@ 100278cc     libucrt:output.obj
 0002:000028e0       ___acrt_exception_action_table 100278e0     libucrt:exception_filter.obj
 0002:00002970       ___acrt_signal_action_table_count 10027970     libucrt:exception_filter.obj
 0002:00002974       ___acrt_signal_action_first_fpe_index 10027974     libucrt:exception_filter.obj
 0002:00002978       ___acrt_signal_action_fpe_count 10027978     libucrt:exception_filter.obj
 0002:0000297c       ??_C@_1BI@BGOHAHKC@?$AAm?$AAs?$AAc?$AAo?$AAr?$AAe?$AAe?$AA?4?$AAd?$AAl?$AAl?$AA?$AA@ 1002797c     libucrt:exit.obj
 0002:00002994       ??_C@_0P@MIGLKIOC@CorExitProcess?$AA@ 10027994     libucrt:exit.obj
 0002:00002a20       ??_C@_03OEIAHPBN@INF?$AA@  10027a20     libucrt:cvt.obj
 0002:00002a24       ??_C@_03OJHLLCGB@inf?$AA@  10027a24     libucrt:cvt.obj
 0002:00002a28       ??_C@_03LKNCIKJB@NAN?$AA@  10027a28     libucrt:cvt.obj
 0002:00002a2c       ??_C@_03LHCJEHON@nan?$AA@  10027a2c     libucrt:cvt.obj
 0002:00002a30       ??_C@_09OFJJIMPC@NAN?$CISNAN?$CJ?$AA@ 10027a30     libucrt:cvt.obj
 0002:00002a3c       ??_C@_09IPFBKMDL@nan?$CIsnan?$CJ?$AA@ 10027a3c     libucrt:cvt.obj
 0002:00002a48       ??_C@_08IKHNHAJ@NAN?$CIIND?$CJ?$AA@ 10027a48     libucrt:cvt.obj
 0002:00002a54       ??_C@_08OFCDMILK@nan?$CIind?$CJ?$AA@ 10027a54     libucrt:cvt.obj
 0002:00002a60       ??_C@_05KLBDPFGC@e?$CL000?$AA@ 10027a60     libucrt:cvt.obj
 0002:00002a68       ??_C@_03KOEHGMDN@Sun?$AA@  10027a68     libucrt:nlsdata.obj
 0002:00002a6c       ??_C@_03PDAGKDH@Mon?$AA@   10027a6c     libucrt:nlsdata.obj
 0002:00002a70       ??_C@_03NAGEINEP@Tue?$AA@  10027a70     libucrt:nlsdata.obj
 0002:00002a74       ??_C@_03MHOMLAJA@Wed?$AA@  10027a74     libucrt:nlsdata.obj
 0002:00002a78       ??_C@_03IOFIKPDN@Thu?$AA@  10027a78     libucrt:nlsdata.obj
 0002:00002a7c       ??_C@_03IDIOELNC@Fri?$AA@  10027a7c     libucrt:nlsdata.obj
 0002:00002a80       ??_C@_03FEFJNEK@Sat?$AA@   10027a80     libucrt:nlsdata.obj
 0002:00002a84       ??_C@_06OOPIFAJ@Sunday?$AA@ 10027a84     libucrt:nlsdata.obj
 0002:00002a8c       ??_C@_06JLEDEDGH@Monday?$AA@ 10027a8c     libucrt:nlsdata.obj
 0002:00002a94       ??_C@_07BAAGCFCM@Tuesday?$AA@ 10027a94     libucrt:nlsdata.obj
 0002:00002a9c       ??_C@_09DLIGFAKA@Wednesday?$AA@ 10027a9c     libucrt:nlsdata.obj
 0002:00002aa8       ??_C@_08HACCIKIA@Thursday?$AA@ 10027aa8     libucrt:nlsdata.obj
 0002:00002ab4       ??_C@_06JECMNKMI@Friday?$AA@ 10027ab4     libucrt:nlsdata.obj
 0002:00002abc       ??_C@_08INBOOONO@Saturday?$AA@ 10027abc     libucrt:nlsdata.obj
 0002:00002ac8       ??_C@_03JIHJHPIE@Jan?$AA@  10027ac8     libucrt:nlsdata.obj
 0002:00002acc       ??_C@_03HJBDCHOM@Feb?$AA@  10027acc     libucrt:nlsdata.obj
 0002:00002ad0       ??_C@_03ODNJBKGA@Mar?$AA@  10027ad0     libucrt:nlsdata.obj
 0002:00002ad4       ??_C@_03LEOLGMJP@Apr?$AA@  10027ad4     libucrt:nlsdata.obj
 0002:00002ad8       ??_C@_03CNMDKL@May?$AA@    10027ad8     libucrt:nlsdata.obj
 0002:00002adc       ??_C@_03IDFGHECI@Jun?$AA@  10027adc     libucrt:nlsdata.obj
 0002:00002ae0       ??_C@_03LBGABGKK@Jul?$AA@  10027ae0     libucrt:nlsdata.obj
 0002:00002ae4       ??_C@_03IFJFEIGA@Aug?$AA@  10027ae4     libucrt:nlsdata.obj
 0002:00002ae8       ??_C@_03GGCAPAJC@Sep?$AA@  10027ae8     libucrt:nlsdata.obj
 0002:00002aec       ??_C@_03BMAOKBAD@Oct?$AA@  10027aec     libucrt:nlsdata.obj
 0002:00002af0       ??_C@_03JPJOFNIA@Nov?$AA@  10027af0     libucrt:nlsdata.obj
 0002:00002af4       ??_C@_03MKABNOCG@Dec?$AA@  10027af4     libucrt:nlsdata.obj
 0002:00002af8       ??_C@_07CGJPFGJA@January?$AA@ 10027af8     libucrt:nlsdata.obj
 0002:00002b00       ??_C@_08GNJGEPFN@February?$AA@ 10027b00     libucrt:nlsdata.obj
 0002:00002b0c       ??_C@_05HPCKOFNC@March?$AA@ 10027b0c     libucrt:nlsdata.obj
 0002:00002b14       ??_C@_05DMJDNLEJ@April?$AA@ 10027b14     libucrt:nlsdata.obj
 0002:00002b1c       ??_C@_04CNLMGBGM@June?$AA@ 10027b1c     libucrt:nlsdata.obj
 0002:00002b24       ??_C@_04MIEPOIFP@July?$AA@ 10027b24     libucrt:nlsdata.obj
 0002:00002b2c       ??_C@_06LBBHFDDG@August?$AA@ 10027b2c     libucrt:nlsdata.obj
 0002:00002b34       ??_C@_09BHHEALKD@September?$AA@ 10027b34     libucrt:nlsdata.obj
 0002:00002b40       ??_C@_07JJNFCEND@October?$AA@ 10027b40     libucrt:nlsdata.obj
 0002:00002b48       ??_C@_08HCHEGEOA@November?$AA@ 10027b48     libucrt:nlsdata.obj
 0002:00002b54       ??_C@_08EDHMEBNP@December?$AA@ 10027b54     libucrt:nlsdata.obj
 0002:00002b60       ??_C@_02DEDBPAFC@AM?$AA@   10027b60     libucrt:nlsdata.obj
 0002:00002b64       ??_C@_02CJNFDJBF@PM?$AA@   10027b64     libucrt:nlsdata.obj
 0002:00002b68       ??_C@_08BPBNCDIB@MM?1dd?1yy?$AA@ 10027b68     libucrt:nlsdata.obj
 0002:00002b74       ??_C@_0BE@CKGJFCPC@dddd?0?5MMMM?5dd?0?5yyyy?$AA@ 10027b74     libucrt:nlsdata.obj
 0002:00002b88       ??_C@_08JCCMCCIL@HH?3mm?3ss?$AA@ 10027b88     libucrt:nlsdata.obj
 0002:00002b94       ??_C@_17MBGCMIPB@?$AAS?$AAu?$AAn?$AA?$AA@ 10027b94     libucrt:nlsdata.obj
 0002:00002b9c       ??_C@_17KBOMKBF@?$AAM?$AAo?$AAn?$AA?$AA@ 10027b9c     libucrt:nlsdata.obj
 0002:00002ba4       ??_C@_17BMKGEGOJ@?$AAT?$AAu?$AAe?$AA?$AA@ 10027ba4     libucrt:nlsdata.obj
 0002:00002bac       ??_C@_17CJEDCEPE@?$AAW?$AAe?$AAd?$AA?$AA@ 10027bac     libucrt:nlsdata.obj
 0002:00002bb4       ??_C@_17PDPHAADD@?$AAT?$AAh?$AAu?$AA?$AA@ 10027bb4     libucrt:nlsdata.obj
 0002:00002bbc       ??_C@_17HFOLPPLP@?$AAF?$AAr?$AAi?$AA?$AA@ 10027bbc     libucrt:nlsdata.obj
 0002:00002bc4       ??_C@_17GGIBDPIH@?$AAS?$AAa?$AAt?$AA?$AA@ 10027bc4     libucrt:nlsdata.obj
 0002:00002bcc       ??_C@_1O@IHNHDHPB@?$AAS?$AAu?$AAn?$AAd?$AAa?$AAy?$AA?$AA@ 10027bcc     libucrt:nlsdata.obj
 0002:00002bdc       ??_C@_1O@MMNBFLIA@?$AAM?$AAo?$AAn?$AAd?$AAa?$AAy?$AA?$AA@ 10027bdc     libucrt:nlsdata.obj
 0002:00002bec       ??_C@_1BA@ENFBFFEK@?$AAT?$AAu?$AAe?$AAs?$AAd?$AAa?$AAy?$AA?$AA@ 10027bec     libucrt:nlsdata.obj
 0002:00002bfc       ??_C@_1BE@EBOGMDOH@?$AAW?$AAe?$AAd?$AAn?$AAe?$AAs?$AAd?$AAa?$AAy?$AA?$AA@ 10027bfc     libucrt:nlsdata.obj
 0002:00002c10       ??_C@_1BC@HHMNLIHE@?$AAT?$AAh?$AAu?$AAr?$AAs?$AAd?$AAa?$AAy?$AA?$AA@ 10027c10     libucrt:nlsdata.obj
 0002:00002c24       ??_C@_1O@PDICJHAG@?$AAF?$AAr?$AAi?$AAd?$AAa?$AAy?$AA?$AA@ 10027c24     libucrt:nlsdata.obj
 0002:00002c34       ??_C@_1BC@ENMNNPAJ@?$AAS?$AAa?$AAt?$AAu?$AAr?$AAd?$AAa?$AAy?$AA?$AA@ 10027c34     libucrt:nlsdata.obj
 0002:00002c48       ??_C@_17DKNBKCHM@?$AAJ?$AAa?$AAn?$AA?$AA@ 10027c48     libucrt:nlsdata.obj
 0002:00002c50       ??_C@_17LMDJEKJN@?$AAF?$AAe?$AAb?$AA?$AA@ 10027c50     libucrt:nlsdata.obj
 0002:00002c58       ??_C@_17CKNLEDEC@?$AAM?$AAa?$AAr?$AA?$AA@ 10027c58     libucrt:nlsdata.obj
 0002:00002c60       ??_C@_17LFPOIHDD@?$AAA?$AAp?$AAr?$AA?$AA@ 10027c60     libucrt:nlsdata.obj
 0002:00002c68       ??_C@_17PNNKMEED@?$AAM?$AAa?$AAy?$AA?$AA@ 10027c68     libucrt:nlsdata.obj
 0002:00002c70       ??_C@_17KCJGOCPB@?$AAJ?$AAu?$AAn?$AA?$AA@ 10027c70     libucrt:nlsdata.obj
 0002:00002c78       ??_C@_17IJPCKHK@?$AAJ?$AAu?$AAl?$AA?$AA@ 10027c78     libucrt:nlsdata.obj
 0002:00002c80       ??_C@_17ICPELBCN@?$AAA?$AAu?$AAg?$AA?$AA@ 10027c80     libucrt:nlsdata.obj
 0002:00002c88       ??_C@_17HCHCOKMG@?$AAS?$AAe?$AAp?$AA?$AA@ 10027c88     libucrt:nlsdata.obj
 0002:00002c90       ??_C@_17FNLKOI@?$AAO?$AAc?$AAt?$AA?$AA@ 10027c90     libucrt:nlsdata.obj
 0002:00002c98       ??_C@_17BBDMLCIG@?$AAN?$AAo?$AAv?$AA?$AA@ 10027c98     libucrt:nlsdata.obj
 0002:00002ca0       ??_C@_17EGKACKIF@?$AAD?$AAe?$AAc?$AA?$AA@ 10027ca0     libucrt:nlsdata.obj
 0002:00002ca8       ??_C@_1BA@EFMEIEBA@?$AAJ?$AAa?$AAn?$AAu?$AAa?$AAr?$AAy?$AA?$AA@ 10027ca8     libucrt:nlsdata.obj
 0002:00002cb8       ??_C@_1BC@JGDDFFAM@?$AAF?$AAe?$AAb?$AAr?$AAu?$AAa?$AAr?$AAy?$AA?$AA@ 10027cb8     libucrt:nlsdata.obj
 0002:00002ccc       ??_C@_1M@IKEENEDF@?$AAM?$AAa?$AAr?$AAc?$AAh?$AA?$AA@ 10027ccc     libucrt:nlsdata.obj
 0002:00002cd8       ??_C@_1M@GJNLMHFD@?$AAA?$AAp?$AAr?$AAi?$AAl?$AA?$AA@ 10027cd8     libucrt:nlsdata.obj
 0002:00002ce4       ??_C@_19EPFLPGAP@?$AAJ?$AAu?$AAn?$AAe?$AA?$AA@ 10027ce4     libucrt:nlsdata.obj
 0002:00002cf0       ??_C@_19BIFMLPCD@?$AAJ?$AAu?$AAl?$AAy?$AA?$AA@ 10027cf0     libucrt:nlsdata.obj
 0002:00002cfc       ??_C@_1O@PAHLKOAC@?$AAA?$AAu?$AAg?$AAu?$AAs?$AAt?$AA?$AA@ 10027cfc     libucrt:nlsdata.obj
 0002:00002d0c       ??_C@_1BE@DKAAMBJL@?$AAS?$AAe?$AAp?$AAt?$AAe?$AAm?$AAb?$AAe?$AAr?$AA?$AA@ 10027d0c     libucrt:nlsdata.obj
 0002:00002d20       ??_C@_1BA@EPANDLNG@?$AAO?$AAc?$AAt?$AAo?$AAb?$AAe?$AAr?$AA?$AA@ 10027d20     libucrt:nlsdata.obj
 0002:00002d30       ??_C@_1BC@BGLIFPF@?$AAN?$AAo?$AAv?$AAe?$AAm?$AAb?$AAe?$AAr?$AA?$AA@ 10027d30     libucrt:nlsdata.obj
 0002:00002d44       ??_C@_1BC@FEMKIFH@?$AAD?$AAe?$AAc?$AAe?$AAm?$AAb?$AAe?$AAr?$AA?$AA@ 10027d44     libucrt:nlsdata.obj
 0002:00002d58       ??_C@_15ODEHAHHF@?$AAA?$AAM?$AA?$AA@ 10027d58     libucrt:nlsdata.obj
 0002:00002d60       ??_C@_15CLMNNGEL@?$AAP?$AAM?$AA?$AA@ 10027d60     libucrt:nlsdata.obj
 0002:00002d68       ??_C@_1BC@IEBCMHCM@?$AAM?$AAM?$AA?1?$AAd?$AAd?$AA?1?$AAy?$AAy?$AA?$AA@ 10027d68     libucrt:nlsdata.obj
 0002:00002d7c       ??_C@_1CI@KNAKOEBC@?$AAd?$AAd?$AAd?$AAd?$AA?0?$AA?5?$AAM?$AAM?$AAM?$AAM?$AA?5?$AAd?$AAd?$AA?0?$AA?5?$AAy?$AAy?$AAy?$AAy?$AA?$AA@ 10027d7c     libucrt:nlsdata.obj
 0002:00002da4       ??_C@_1BC@GDGBMEMK@?$AAH?$AAH?$AA?3?$AAm?$AAm?$AA?3?$AAs?$AAs?$AA?$AA@ 10027da4     libucrt:nlsdata.obj
 0002:00002db8       ??_C@_1M@BMHNFIME@?$AAe?$AAn?$AA?9?$AAU?$AAS?$AA?$AA@ 10027db8     libucrt:nlsdata.obj
 0002:00002dc8       ___lc_time_c               10027dc8     libucrt:nlsdata.obj
 0002:00002f30       __wctype                   10027f30     libucrt:ctype.obj
 0002:00003138       ___newctype                10028138     libucrt:ctype.obj
 0002:00003438       ___newclmap                10028438     libucrt:ctype.obj
 0002:000035b8       ___newcumap                100285b8     libucrt:ctype.obj
 0002:00003788       ??_C@_1EG@CNNIPFIM@?$AAa?$AAp?$AAi?$AA?9?$AAm?$AAs?$AA?9?$AAw?$AAi?$AAn?$AA?9?$AAa?$AAp?$AAp?$AAm?$AAo?$AAd?$AAe?$AAl?$AA?9?$AAr?$AAu?$AAn?$AAt?$AAi?$AAm?$AAe?$AA?9?$AAl?$AA1?$AA?9?$AA1@ 10028788     libucrt:winapi_thunks.obj
 0002:000037d0       ??_C@_1EA@JGEFHKEI@?$AAa?$AAp?$AAi?$AA?9?$AAm?$AAs?$AA?9?$AAw?$AAi?$AAn?$AA?9?$AAc?$AAo?$AAr?$AAe?$AA?9?$AAd?$AAa?$AAt?$AAe?$AAt?$AAi?$AAm?$AAe?$AA?9?$AAl?$AA1?$AA?9?$AA1?$AA?9?$AA1?$AA?$AA@ 100287d0     libucrt:winapi_thunks.obj
 0002:00003810       ??_C@_1DM@KHCHBNEB@?$AAa?$AAp?$AAi?$AA?9?$AAm?$AAs?$AA?9?$AAw?$AAi?$AAn?$AA?9?$AAc?$AAo?$AAr?$AAe?$AA?9?$AAf?$AAi?$AAb?$AAe?$AAr?$AAs?$AA?9?$AAl?$AA1?$AA?9?$AA1?$AA?9?$AA1?$AA?$AA@ 10028810     libucrt:winapi_thunks.obj
 0002:0000384c       ??_C@_1DI@GCIAAENM@?$AAa?$AAp?$AAi?$AA?9?$AAm?$AAs?$AA?9?$AAw?$AAi?$AAn?$AA?9?$AAc?$AAo?$AAr?$AAe?$AA?9?$AAf?$AAi?$AAl?$AAe?$AA?9?$AAl?$AA2?$AA?9?$AA1?$AA?9?$AA1?$AA?$AA@ 1002884c     libucrt:winapi_thunks.obj
 0002:00003888       ??_C@_1EI@MPIAOHOC@?$AAa?$AAp?$AAi?$AA?9?$AAm?$AAs?$AA?9?$AAw?$AAi?$AAn?$AA?9?$AAc?$AAo?$AAr?$AAe?$AA?9?$AAl?$AAo?$AAc?$AAa?$AAl?$AAi?$AAz?$AAa?$AAt?$AAi?$AAo?$AAn?$AA?9?$AAl?$AA1?$AA?9@ 10028888     libucrt:winapi_thunks.obj
 0002:000038d0       ??_C@_1FK@FPHCKFIE@?$AAa?$AAp?$AAi?$AA?9?$AAm?$AAs?$AA?9?$AAw?$AAi?$AAn?$AA?9?$AAc?$AAo?$AAr?$AAe?$AA?9?$AAl?$AAo?$AAc?$AAa?$AAl?$AAi?$AAz?$AAa?$AAt?$AAi?$AAo?$AAn?$AA?9?$AAo?$AAb?$AAs@ 100288d0     libucrt:winapi_thunks.obj
 0002:00003930       ??_C@_1EM@DILCGIIO@?$AAa?$AAp?$AAi?$AA?9?$AAm?$AAs?$AA?9?$AAw?$AAi?$AAn?$AA?9?$AAc?$AAo?$AAr?$AAe?$AA?9?$AAp?$AAr?$AAo?$AAc?$AAe?$AAs?$AAs?$AAt?$AAh?$AAr?$AAe?$AAa?$AAd?$AAs?$AA?9?$AAl@ 10028930     libucrt:winapi_thunks.obj
 0002:0000397c       ??_C@_1DM@LNCGDDPN@?$AAa?$AAp?$AAi?$AA?9?$AAm?$AAs?$AA?9?$AAw?$AAi?$AAn?$AA?9?$AAc?$AAo?$AAr?$AAe?$AA?9?$AAs?$AAt?$AAr?$AAi?$AAn?$AAg?$AA?9?$AAl?$AA1?$AA?9?$AA1?$AA?9?$AA0?$AA?$AA@ 1002897c     libucrt:winapi_thunks.obj
 0002:000039b8       ??_C@_1DK@LPPGFMPP@?$AAa?$AAp?$AAi?$AA?9?$AAm?$AAs?$AA?9?$AAw?$AAi?$AAn?$AA?9?$AAc?$AAo?$AAr?$AAe?$AA?9?$AAs?$AAy?$AAn?$AAc?$AAh?$AA?9?$AAl?$AA1?$AA?9?$AA2?$AA?9?$AA0?$AA?$AA@ 100289b8     libucrt:winapi_thunks.obj
 0002:000039f4       ??_C@_1DO@FPAPJEMD@?$AAa?$AAp?$AAi?$AA?9?$AAm?$AAs?$AA?9?$AAw?$AAi?$AAn?$AA?9?$AAc?$AAo?$AAr?$AAe?$AA?9?$AAs?$AAy?$AAs?$AAi?$AAn?$AAf?$AAo?$AA?9?$AAl?$AA1?$AA?9?$AA2?$AA?9?$AA1?$AA?$AA@ 100289f4     libucrt:winapi_thunks.obj
 0002:00003a34       ??_C@_1DK@NDHNAHIO@?$AAa?$AAp?$AAi?$AA?9?$AAm?$AAs?$AA?9?$AAw?$AAi?$AAn?$AA?9?$AAc?$AAo?$AAr?$AAe?$AA?9?$AAw?$AAi?$AAn?$AAr?$AAt?$AA?9?$AAl?$AA1?$AA?9?$AA1?$AA?9?$AA0?$AA?$AA@ 10028a34     libucrt:winapi_thunks.obj
 0002:00003a70       ??_C@_1DM@KGHDGBCM@?$AAa?$AAp?$AAi?$AA?9?$AAm?$AAs?$AA?9?$AAw?$AAi?$AAn?$AA?9?$AAc?$AAo?$AAr?$AAe?$AA?9?$AAx?$AAs?$AAt?$AAa?$AAt?$AAe?$AA?9?$AAl?$AA2?$AA?9?$AA1?$AA?9?$AA0?$AA?$AA@ 10028a70     libucrt:winapi_thunks.obj
 0002:00003ab0       ??_C@_1EO@IJIOEFOH@?$AAa?$AAp?$AAi?$AA?9?$AAm?$AAs?$AA?9?$AAw?$AAi?$AAn?$AA?9?$AAr?$AAt?$AAc?$AAo?$AAr?$AAe?$AA?9?$AAn?$AAt?$AAu?$AAs?$AAe?$AAr?$AA?9?$AAw?$AAi?$AAn?$AAd?$AAo?$AAw?$AA?9@ 10028ab0     libucrt:winapi_thunks.obj
 0002:00003b00       ??_C@_1FG@HHGEKANL@?$AAa?$AAp?$AAi?$AA?9?$AAm?$AAs?$AA?9?$AAw?$AAi?$AAn?$AA?9?$AAs?$AAe?$AAc?$AAu?$AAr?$AAi?$AAt?$AAy?$AA?9?$AAs?$AAy?$AAs?$AAt?$AAe?$AAm?$AAf?$AAu?$AAn?$AAc?$AAt?$AAi@ 10028b00     libucrt:winapi_thunks.obj
 0002:00003b58       ??_C@_1FG@NCKKOLKO@?$AAe?$AAx?$AAt?$AA?9?$AAm?$AAs?$AA?9?$AAw?$AAi?$AAn?$AA?9?$AAk?$AAe?$AAr?$AAn?$AAe?$AAl?$AA3?$AA2?$AA?9?$AAp?$AAa?$AAc?$AAk?$AAa?$AAg?$AAe?$AA?9?$AAc?$AAu?$AAr?$AAr@ 10028b58     libucrt:winapi_thunks.obj
 0002:00003bb0       ??_C@_1EG@DBIOJECG@?$AAe?$AAx?$AAt?$AA?9?$AAm?$AAs?$AA?9?$AAw?$AAi?$AAn?$AA?9?$AAn?$AAt?$AAu?$AAs?$AAe?$AAr?$AA?9?$AAd?$AAi?$AAa?$AAl?$AAo?$AAg?$AAb?$AAo?$AAx?$AA?9?$AAl?$AA1?$AA?9?$AA1@ 10028bb0     libucrt:winapi_thunks.obj
 0002:00003bf8       ??_C@_1EO@FIHMJCLF@?$AAe?$AAx?$AAt?$AA?9?$AAm?$AAs?$AA?9?$AAw?$AAi?$AAn?$AA?9?$AAn?$AAt?$AAu?$AAs?$AAe?$AAr?$AA?9?$AAw?$AAi?$AAn?$AAd?$AAo?$AAw?$AAs?$AAt?$AAa?$AAt?$AAi?$AAo?$AAn?$AA?9@ 10028bf8     libucrt:winapi_thunks.obj
 0002:00003c48       ??_C@_1BC@DNHGCMLG@?$AAa?$AAd?$AAv?$AAa?$AAp?$AAi?$AA3?$AA2?$AA?$AA@ 10028c48     libucrt:winapi_thunks.obj
 0002:00003c5c       ??_C@_1BC@GDMECMAK@?$AAk?$AAe?$AAr?$AAn?$AAe?$AAl?$AA3?$AA2?$AA?$AA@ 10028c5c     libucrt:winapi_thunks.obj
 0002:00003c70       ??_C@_1O@BCCLBEOE@?$AAu?$AAs?$AAe?$AAr?$AA3?$AA2?$AA?$AA@ 10028c70     libucrt:winapi_thunks.obj
 0002:00003c88       ??_C@_08KNHFBNJ@FlsAlloc?$AA@ 10028c88     libucrt:winapi_thunks.obj
 0002:00003c9c       ??_C@_07PEJMOBNF@FlsFree?$AA@ 10028c9c     libucrt:winapi_thunks.obj
 0002:00003cac       ??_C@_0M@GDNOONDI@FlsGetValue?$AA@ 10028cac     libucrt:winapi_thunks.obj
 0002:00003cc0       ??_C@_0M@JCPCPOEF@FlsSetValue?$AA@ 10028cc0     libucrt:winapi_thunks.obj
 0002:00003cd4       ??_C@_0BE@JOGNEJCI@GetCurrentPackageId?$AA@ 10028cd4     libucrt:winapi_thunks.obj
 0002:00003cf0       ??_C@_0BM@HCFOFFN@InitializeCriticalSectionEx?$AA@ 10028cf0     libucrt:winapi_thunks.obj
 0002:00003d14       ??_C@_0O@KKBNKAPF@LCMapStringEx?$AA@ 10028d14     libucrt:winapi_thunks.obj
 0002:00003d2c       ??_C@_0BB@HBDEELFH@LocaleNameToLCID?$AA@ 10028d2c     libucrt:winapi_thunks.obj
 0002:00003d50       ??_C@_1M@HPNHIDJI@?$AAj?$AAa?$AA?9?$AAJ?$AAP?$AA?$AA@ 10028d50     libucrt:mbctype.obj
 0002:00003d5c       ??_C@_1M@BIBDDEMK@?$AAz?$AAh?$AA?9?$AAC?$AAN?$AA?$AA@ 10028d5c     libucrt:mbctype.obj
 0002:00003d68       ??_C@_1M@JLOOOEGK@?$AAk?$AAo?$AA?9?$AAK?$AAR?$AA?$AA@ 10028d68     libucrt:mbctype.obj
 0002:00003d74       ??_C@_1M@CLNBBOPM@?$AAz?$AAh?$AA?9?$AAT?$AAW?$AA?$AA@ 10028d74     libucrt:mbctype.obj
 0002:00003d80       ?large_power_data@?1??multiply_by_power_of_ten@__crt_strtox@@YA_NAAUbig_integer@2@I@Z@4QBIB 10028d80     libucrt:cfout.obj
 0002:00004688       ?large_power_indices@?1??multiply_by_power_of_ten@__crt_strtox@@YA_NAAUbig_integer@2@I@Z@4QBUunpack_index@?1??12@YA_N0I@Z@B 10029688     libucrt:cfout.obj
 0002:00004720       ?small_powers_of_ten@?6??multiply_by_power_of_ten@__crt_strtox@@YA_NAAUbig_integer@2@I@Z@4QBIB 10029720     libucrt:cfout.obj
 0002:00004744       ??_C@_01GBGANLPD@0?$AA@    10029744     libucrt:cfout.obj
 0002:00004748       ??_C@_05DNEBIAHO@1?$CDINF?$AA@ 10029748     libucrt:cfout.obj
 0002:00004750       ??_C@_06IMKFLFPG@1?$CDQNAN?$AA@ 10029750     libucrt:cfout.obj
 0002:00004758       ??_C@_06PGGFOGJG@1?$CDSNAN?$AA@ 10029758     libucrt:cfout.obj
 0002:00004760       ??_C@_05PHHOCPM@1?$CDIND?$AA@ 10029760     libucrt:cfout.obj
 0002:00004768       ??_C@_15PJPFLCCM@?$AAu?$AAk?$AA?$AA@ 10029768     libucrt:get_qualified_locale.obj
 0002:00004e90       ??_C@_15EMKDOKLE@?$AAa?$AAr?$AA?$AA@ 10029e90     libucrt:lcidtoname_downlevel.obj
 0002:00004e98       ??_C@_15KNPADPLH@?$AAb?$AAg?$AA?$AA@ 10029e98     libucrt:lcidtoname_downlevel.obj
 0002:00004ea0       ??_C@_15EDMHLDMO@?$AAc?$AAa?$AA?$AA@ 10029ea0     libucrt:lcidtoname_downlevel.obj
 0002:00004ea8       ??_C@_1O@BPEAJADD@?$AAz?$AAh?$AA?9?$AAC?$AAH?$AAS?$AA?$AA@ 10029ea8     libucrt:lcidtoname_downlevel.obj
 0002:00004eb8       ??_C@_15LJNHCMNK@?$AAc?$AAs?$AA?$AA@ 10029eb8     libucrt:lcidtoname_downlevel.obj
 0002:00004ec0       ??_C@_15FOMCIDHG@?$AAd?$AAa?$AA?$AA@ 10029ec0     libucrt:lcidtoname_downlevel.obj
 0002:00004ec8       ??_C@_15NBKABECB@?$AAd?$AAe?$AA?$AA@ 10029ec8     libucrt:lcidtoname_downlevel.obj
 0002:00004ed0       ??_C@_15GHPEIIAO@?$AAe?$AAl?$AA?$AA@ 10029ed0     libucrt:lcidtoname_downlevel.obj
 0002:00004ed8       ??_C@_15MNPNEAIF@?$AAe?$AAn?$AA?$AA@ 10029ed8     libucrt:lcidtoname_downlevel.obj
 0002:00004ee0       ??_C@_15GPIOMPMH@?$AAe?$AAs?$AA?$AA@ 10029ee0     libucrt:lcidtoname_downlevel.obj
 0002:00004ee8       ??_C@_15NGLOAKJC@?$AAf?$AAi?$AA?$AA@ 10029ee8     libucrt:lcidtoname_downlevel.obj
 0002:00004ef0       ??_C@_15FBKGNKAM@?$AAf?$AAr?$AA?$AA@ 10029ef0     libucrt:lcidtoname_downlevel.obj
 0002:00004ef8       ??_C@_15KGGCNEFK@?$AAh?$AAe?$AA?$AA@ 10029ef8     libucrt:lcidtoname_downlevel.obj
 0002:00004f00       ??_C@_15PGHLIDMF@?$AAh?$AAu?$AA?$AA@ 10029f00     libucrt:lcidtoname_downlevel.obj
 0002:00004f08       ??_C@_15BIEMAPLM@?$AAi?$AAs?$AA?$AA@ 10029f08     libucrt:lcidtoname_downlevel.obj
 0002:00004f10       ??_C@_15IFJLDHAF@?$AAi?$AAt?$AA?$AA@ 10029f10     libucrt:lcidtoname_downlevel.obj
 0002:00004f18       ??_C@_15GEMIOCAG@?$AAj?$AAa?$AA?$AA@ 10029f18     libucrt:lcidtoname_downlevel.obj
 0002:00004f20       ??_C@_15EPELEGJA@?$AAk?$AAo?$AA?$AA@ 10029f20     libucrt:lcidtoname_downlevel.obj
 0002:00004f28       ??_C@_15NDDHIMN@?$AAn?$AAl?$AA?$AA@ 10029f28     libucrt:lcidtoname_downlevel.obj
 0002:00004f30       ??_C@_15BPIGNHCD@?$AAn?$AAo?$AA?$AA@ 10029f30     libucrt:lcidtoname_downlevel.obj
 0002:00004f38       ??_C@_15DEOPBLCG@?$AAp?$AAl?$AA?$AA@ 10029f38     libucrt:lcidtoname_downlevel.obj
 0002:00004f40       ??_C@_15KBECGEFG@?$AAp?$AAt?$AA?$AA@ 10029f40     libucrt:lcidtoname_downlevel.obj
 0002:00004f48       ??_C@_15GLJCBFMD@?$AAr?$AAo?$AA?$AA@ 10029f48     libucrt:lcidtoname_downlevel.obj
 0002:00004f50       ??_C@_15FEDGKCDI@?$AAr?$AAu?$AA?$AA@ 10029f50     libucrt:lcidtoname_downlevel.obj
 0002:00004f58       ??_C@_15GLKMLLHM@?$AAh?$AAr?$AA?$AA@ 10029f58     libucrt:lcidtoname_downlevel.obj
 0002:00004f60       ??_C@_15CPKMFBDB@?$AAs?$AAk?$AA?$AA@ 10029f60     libucrt:lcidtoname_downlevel.obj
 0002:00004f68       ??_C@_15BAAIOGMK@?$AAs?$AAq?$AA?$AA@ 10029f68     libucrt:lcidtoname_downlevel.obj
 0002:00004f70       ??_C@_15INNPNOHD@?$AAs?$AAv?$AA?$AA@ 10029f70     libucrt:lcidtoname_downlevel.obj
 0002:00004f78       ??_C@_15CABMMOGH@?$AAt?$AAh?$AA?$AA@ 10029f78     libucrt:lcidtoname_downlevel.obj
 0002:00004f80       ??_C@_15BPLIHJJM@?$AAt?$AAr?$AA?$AA@ 10029f80     libucrt:lcidtoname_downlevel.obj
 0002:00004f88       ??_C@_15NEOEKKDJ@?$AAu?$AAr?$AA?$AA@ 10029f88     libucrt:lcidtoname_downlevel.obj
 0002:00004f90       ??_C@_15NFICGAJK@?$AAi?$AAd?$AA?$AA@ 10029f90     libucrt:lcidtoname_downlevel.obj
 0002:00004f98       ??_C@_15HPJPHDM@?$AAb?$AAe?$AA?$AA@ 10029f98     libucrt:lcidtoname_downlevel.obj
 0002:00004fa0       ??_C@_15LCHLGJII@?$AAs?$AAl?$AA?$AA@ 10029fa0     libucrt:lcidtoname_downlevel.obj
 0002:00004fa8       ??_C@_15PCFJPHHO@?$AAe?$AAt?$AA?$AA@ 10029fa8     libucrt:lcidtoname_downlevel.obj
 0002:00004fb0       ??_C@_15HPFPGODN@?$AAl?$AAv?$AA?$AA@ 10029fb0     libucrt:lcidtoname_downlevel.obj
 0002:00004fb8       ??_C@_15NFFGKGLG@?$AAl?$AAt?$AA?$AA@ 10029fb8     libucrt:lcidtoname_downlevel.obj
 0002:00004fc0       ??_C@_15BDAKCCHN@?$AAf?$AAa?$AA?$AA@ 10029fc0     libucrt:lcidtoname_downlevel.obj
 0002:00004fc8       ??_C@_15NFGIAIAJ@?$AAv?$AAi?$AA?$AA@ 10029fc8     libucrt:lcidtoname_downlevel.obj
 0002:00004fd0       ??_C@_15LMKNDMHN@?$AAh?$AAy?$AA?$AA@ 10029fd0     libucrt:lcidtoname_downlevel.obj
 0002:00004fd8       ??_C@_15IJBHMCFL@?$AAa?$AAz?$AA?$AA@ 10029fd8     libucrt:lcidtoname_downlevel.obj
 0002:00004fe0       ??_C@_15EKOFJABL@?$AAe?$AAu?$AA?$AA@ 10029fe0     libucrt:lcidtoname_downlevel.obj
 0002:00004fe8       ??_C@_15BGHADCNK@?$AAm?$AAk?$AA?$AA@ 10029fe8     libucrt:lcidtoname_downlevel.obj
 0002:00004ff0       ??_C@_15JDNICKHM@?$AAa?$AAf?$AA?$AA@ 10029ff0     libucrt:lcidtoname_downlevel.obj
 0002:00004ff8       ??_C@_15KPJEDBKD@?$AAk?$AAa?$AA?$AA@ 10029ff8     libucrt:lcidtoname_downlevel.obj
 0002:00005000       ??_C@_15PDNFFFEO@?$AAf?$AAo?$AA?$AA@ 1002a000     libucrt:lcidtoname_downlevel.obj
 0002:00005008       ??_C@_15OMLEGLOC@?$AAh?$AAi?$AA?$AA@ 1002a008     libucrt:lcidtoname_downlevel.obj
 0002:00005010       ??_C@_15IDNNENKK@?$AAm?$AAs?$AA?$AA@ 1002a010     libucrt:lcidtoname_downlevel.obj
 0002:00005018       ??_C@_15MACJNBMH@?$AAk?$AAk?$AA?$AA@ 1002a018     libucrt:lcidtoname_downlevel.obj
 0002:00005020       ??_C@_15DKDJEOND@?$AAk?$AAy?$AA?$AA@ 1002a020     libucrt:lcidtoname_downlevel.obj
 0002:00005028       ??_C@_15DFGDLJBG@?$AAs?$AAw?$AA?$AA@ 1002a028     libucrt:lcidtoname_downlevel.obj
 0002:00005030       ??_C@_15BBFAICNG@?$AAu?$AAz?$AA?$AA@ 1002a030     libucrt:lcidtoname_downlevel.obj
 0002:00005038       ??_C@_15DKNDCGEA@?$AAt?$AAt?$AA?$AA@ 1002a038     libucrt:lcidtoname_downlevel.obj
 0002:00005040       ??_C@_15MGIFMDPL@?$AAp?$AAa?$AA?$AA@ 1002a040     libucrt:lcidtoname_downlevel.obj
 0002:00005048       ??_C@_15HCNDBBA@?$AAg?$AAu?$AA?$AA@ 1002a048     libucrt:lcidtoname_downlevel.obj
 0002:00005050       ??_C@_15FNBEIBON@?$AAt?$AAa?$AA?$AA@ 1002a050     libucrt:lcidtoname_downlevel.obj
 0002:00005058       ??_C@_15NCHGBGLK@?$AAt?$AAe?$AA?$AA@ 1002a058     libucrt:lcidtoname_downlevel.obj
 0002:00005060       ??_C@_15PHPHCBPF@?$AAk?$AAn?$AA?$AA@ 1002a060     libucrt:lcidtoname_downlevel.obj
 0002:00005068       ??_C@_15DLGBCKMP@?$AAm?$AAr?$AA?$AA@ 1002a068     libucrt:lcidtoname_downlevel.obj
 0002:00005070       ??_C@_15EABBLBFF@?$AAs?$AAa?$AA?$AA@ 1002a070     libucrt:lcidtoname_downlevel.obj
 0002:00005078       ??_C@_15CBKOMCOI@?$AAm?$AAn?$AA?$AA@ 1002a078     libucrt:lcidtoname_downlevel.obj
 0002:00005080       ??_C@_15CKDMCJAF@?$AAg?$AAl?$AA?$AA@ 1002a080     libucrt:lcidtoname_downlevel.obj
 0002:00005088       ??_C@_17CNJFBPG@?$AAk?$AAo?$AAk?$AA?$AA@ 1002a088     libucrt:lcidtoname_downlevel.obj
 0002:00005090       ??_C@_17FFBJICPL@?$AAs?$AAy?$AAr?$AA?$AA@ 1002a090     libucrt:lcidtoname_downlevel.obj
 0002:00005098       ??_C@_17KPNDCPAF@?$AAd?$AAi?$AAv?$AA?$AA@ 1002a098     libucrt:lcidtoname_downlevel.obj
 0002:000050a0       ??_C@_11LOCGONAA@?$AA?$AA@ 1002a0a0     libucrt:lcidtoname_downlevel.obj
 0002:000050a4       ??_C@_1M@OKAHONE@?$AAa?$AAr?$AA?9?$AAS?$AAA?$AA?$AA@ 1002a0a4     libucrt:lcidtoname_downlevel.obj
 0002:000050b0       ??_C@_1M@FFFIGIGK@?$AAb?$AAg?$AA?9?$AAB?$AAG?$AA?$AA@ 1002a0b0     libucrt:lcidtoname_downlevel.obj
 0002:000050bc       ??_C@_1M@BJNKEDC@?$AAc?$AAa?$AA?9?$AAE?$AAS?$AA?$AA@ 1002a0bc     libucrt:lcidtoname_downlevel.obj
 0002:000050c8       ??_C@_1M@IJJHFJHA@?$AAc?$AAs?$AA?9?$AAC?$AAZ?$AA?$AA@ 1002a0c8     libucrt:lcidtoname_downlevel.obj
 0002:000050d4       ??_C@_1M@CLPEOBGI@?$AAd?$AAa?$AA?9?$AAD?$AAK?$AA?$AA@ 1002a0d4     libucrt:lcidtoname_downlevel.obj
 0002:000050e0       ??_C@_1M@MCMADGCB@?$AAd?$AAe?$AA?9?$AAD?$AAE?$AA?$AA@ 1002a0e0     libucrt:lcidtoname_downlevel.obj
 0002:000050ec       ??_C@_1M@OOCKEMAM@?$AAe?$AAl?$AA?9?$AAG?$AAR?$AA?$AA@ 1002a0ec     libucrt:lcidtoname_downlevel.obj
 0002:000050f8       ??_C@_1M@DDNJFGID@?$AAf?$AAi?$AA?9?$AAF?$AAI?$AA?$AA@ 1002a0f8     libucrt:lcidtoname_downlevel.obj
 0002:00005104       ??_C@_1M@GLIPPMAC@?$AAf?$AAr?$AA?9?$AAF?$AAR?$AA?$AA@ 1002a104     libucrt:lcidtoname_downlevel.obj
 0002:00005110       ??_C@_1M@GFMCHPE@?$AAh?$AAe?$AA?9?$AAI?$AAL?$AA?$AA@ 1002a110     libucrt:lcidtoname_downlevel.obj
 0002:0000511c       ??_C@_1M@MHLPGNKM@?$AAh?$AAu?$AA?9?$AAH?$AAU?$AA?$AA@ 1002a11c     libucrt:lcidtoname_downlevel.obj
 0002:00005128       ??_C@_1M@LPDDNNPN@?$AAi?$AAs?$AA?9?$AAI?$AAS?$AA?$AA@ 1002a128     libucrt:lcidtoname_downlevel.obj
 0002:00005134       ??_C@_1M@MADIPODN@?$AAi?$AAt?$AA?9?$AAI?$AAT?$AA?$AA@ 1002a134     libucrt:lcidtoname_downlevel.obj
 0002:00005140       ??_C@_1M@IHBJJGG@?$AAn?$AAl?$AA?9?$AAN?$AAL?$AA?$AA@ 1002a140     libucrt:lcidtoname_downlevel.obj
 0002:0000514c       ??_C@_1M@EANAGDL@?$AAn?$AAb?$AA?9?$AAN?$AAO?$AA?$AA@ 1002a14c     libucrt:lcidtoname_downlevel.obj
 0002:00005158       ??_C@_1M@NEIEMEGP@?$AAp?$AAl?$AA?9?$AAP?$AAL?$AA?$AA@ 1002a158     libucrt:lcidtoname_downlevel.obj
 0002:00005164       ??_C@_1M@BOCFIGEP@?$AAp?$AAt?$AA?9?$AAB?$AAR?$AA?$AA@ 1002a164     libucrt:lcidtoname_downlevel.obj
 0002:00005170       ??_C@_1M@IMPFOPBG@?$AAr?$AAo?$AA?9?$AAR?$AAO?$AA?$AA@ 1002a170     libucrt:lcidtoname_downlevel.obj
 0002:0000517c       ??_C@_1M@IDNNEJMM@?$AAr?$AAu?$AA?9?$AAR?$AAU?$AA?$AA@ 1002a17c     libucrt:lcidtoname_downlevel.obj
 0002:00005188       ??_C@_1M@LILEEOGM@?$AAh?$AAr?$AA?9?$AAH?$AAR?$AA?$AA@ 1002a188     libucrt:lcidtoname_downlevel.obj
 0002:00005194       ??_C@_1M@FKIFEHPB@?$AAs?$AAk?$AA?9?$AAS?$AAK?$AA?$AA@ 1002a194     libucrt:lcidtoname_downlevel.obj
 0002:000051a0       ??_C@_1M@LJMAMNPJ@?$AAs?$AAq?$AA?9?$AAA?$AAL?$AA?$AA@ 1002a1a0     libucrt:lcidtoname_downlevel.obj
 0002:000051ac       ??_C@_1M@GIAKDKJK@?$AAs?$AAv?$AA?9?$AAS?$AAE?$AA?$AA@ 1002a1ac     libucrt:lcidtoname_downlevel.obj
 0002:000051b8       ??_C@_1M@MKJKIKCL@?$AAt?$AAh?$AA?9?$AAT?$AAH?$AA?$AA@ 1002a1b8     libucrt:lcidtoname_downlevel.obj
 0002:000051c4       ??_C@_1M@MFLCCMPB@?$AAt?$AAr?$AA?9?$AAT?$AAR?$AA?$AA@ 1002a1c4     libucrt:lcidtoname_downlevel.obj
 0002:000051d0       ??_C@_1M@OIJHDKJN@?$AAu?$AAr?$AA?9?$AAP?$AAK?$AA?$AA@ 1002a1d0     libucrt:lcidtoname_downlevel.obj
 0002:000051dc       ??_C@_1M@LHIPCIEK@?$AAi?$AAd?$AA?9?$AAI?$AAD?$AA?$AA@ 1002a1dc     libucrt:lcidtoname_downlevel.obj
 0002:000051e8       ??_C@_1M@MFMOBGI@?$AAu?$AAk?$AA?9?$AAU?$AAA?$AA?$AA@ 1002a1e8     libucrt:lcidtoname_downlevel.obj
 0002:000051f4       ??_C@_1M@OBGLJIPL@?$AAb?$AAe?$AA?9?$AAB?$AAY?$AA?$AA@ 1002a1f4     libucrt:lcidtoname_downlevel.obj
 0002:00005200       ??_C@_1M@BCFAJEAD@?$AAs?$AAl?$AA?9?$AAS?$AAI?$AA?$AA@ 1002a200     libucrt:lcidtoname_downlevel.obj
 0002:0000520c       ??_C@_1M@FKFFEDDN@?$AAe?$AAt?$AA?9?$AAE?$AAE?$AA?$AA@ 1002a20c     libucrt:lcidtoname_downlevel.obj
 0002:00005218       ??_C@_1M@KGKKAACI@?$AAl?$AAv?$AA?9?$AAL?$AAV?$AA?$AA@ 1002a218     libucrt:lcidtoname_downlevel.obj
 0002:00005224       ??_C@_1M@IFGBIJO@?$AAl?$AAt?$AA?9?$AAL?$AAT?$AA?$AA@ 1002a224     libucrt:lcidtoname_downlevel.obj
 0002:00005230       ??_C@_1M@FGEAHEDM@?$AAf?$AAa?$AA?9?$AAI?$AAR?$AA?$AA@ 1002a230     libucrt:lcidtoname_downlevel.obj
 0002:0000523c       ??_C@_1M@KBMAIBFN@?$AAv?$AAi?$AA?9?$AAV?$AAN?$AA?$AA@ 1002a23c     libucrt:lcidtoname_downlevel.obj
 0002:00005248       ??_C@_1M@GPCBKDJK@?$AAh?$AAy?$AA?9?$AAA?$AAM?$AA?$AA@ 1002a248     libucrt:lcidtoname_downlevel.obj
 0002:00005254       ??_C@_1BG@BECMDDJB@?$AAa?$AAz?$AA?9?$AAA?$AAZ?$AA?9?$AAL?$AAa?$AAt?$AAn?$AA?$AA@ 1002a254     libucrt:lcidtoname_downlevel.obj
 0002:0000526c       ??_C@_1M@MAOFCAEA@?$AAe?$AAu?$AA?9?$AAE?$AAS?$AA?$AA@ 1002a26c     libucrt:lcidtoname_downlevel.obj
 0002:00005278       ??_C@_1M@IGHABKPI@?$AAm?$AAk?$AA?9?$AAM?$AAK?$AA?$AA@ 1002a278     libucrt:lcidtoname_downlevel.obj
 0002:00005284       ??_C@_1M@IAIGNEJG@?$AAt?$AAn?$AA?9?$AAZ?$AAA?$AA?$AA@ 1002a284     libucrt:lcidtoname_downlevel.obj
 0002:00005290       ??_C@_1M@IIJCOJFA@?$AAx?$AAh?$AA?9?$AAZ?$AAA?$AA?$AA@ 1002a290     libucrt:lcidtoname_downlevel.obj
 0002:0000529c       ??_C@_1M@LGPJHNJH@?$AAz?$AAu?$AA?9?$AAZ?$AAA?$AA?$AA@ 1002a29c     libucrt:lcidtoname_downlevel.obj
 0002:000052a8       ??_C@_1M@HOKAOIO@?$AAa?$AAf?$AA?9?$AAZ?$AAA?$AA?$AA@ 1002a2a8     libucrt:lcidtoname_downlevel.obj
 0002:000052b4       ??_C@_1M@DPCLHLIE@?$AAk?$AAa?$AA?9?$AAG?$AAE?$AA?$AA@ 1002a2b4     libucrt:lcidtoname_downlevel.obj
 0002:000052c0       ??_C@_1M@BLKMHJBI@?$AAf?$AAo?$AA?9?$AAF?$AAO?$AA?$AA@ 1002a2c0     libucrt:lcidtoname_downlevel.obj
 0002:000052cc       ??_C@_1M@LGGJAPPB@?$AAh?$AAi?$AA?9?$AAI?$AAN?$AA?$AA@ 1002a2cc     libucrt:lcidtoname_downlevel.obj
 0002:000052d8       ??_C@_1M@FIKPIHFE@?$AAm?$AAt?$AA?9?$AAM?$AAT?$AA?$AA@ 1002a2d8     libucrt:lcidtoname_downlevel.obj
 0002:000052e4       ??_C@_1M@HEGGPBFA@?$AAs?$AAe?$AA?9?$AAN?$AAO?$AA?$AA@ 1002a2e4     libucrt:lcidtoname_downlevel.obj
 0002:000052f0       ??_C@_1M@EIBJEEPA@?$AAm?$AAs?$AA?9?$AAM?$AAY?$AA?$AA@ 1002a2f0     libucrt:lcidtoname_downlevel.obj
 0002:000052fc       ??_C@_1M@FHLBGMPP@?$AAk?$AAk?$AA?9?$AAK?$AAZ?$AA?$AA@ 1002a2fc     libucrt:lcidtoname_downlevel.obj
 0002:00005308       ??_C@_1M@NGJJLCGI@?$AAk?$AAy?$AA?9?$AAK?$AAG?$AA?$AA@ 1002a308     libucrt:lcidtoname_downlevel.obj
 0002:00005314       ??_C@_1M@GIENNBFC@?$AAs?$AAw?$AA?9?$AAK?$AAE?$AA?$AA@ 1002a314     libucrt:lcidtoname_downlevel.obj
 0002:00005320       ??_C@_1BG@NDGMJIMJ@?$AAu?$AAz?$AA?9?$AAU?$AAZ?$AA?9?$AAL?$AAa?$AAt?$AAn?$AA?$AA@ 1002a320     libucrt:lcidtoname_downlevel.obj
 0002:00005338       ??_C@_1M@IDCCIHBC@?$AAt?$AAt?$AA?9?$AAR?$AAU?$AA?$AA@ 1002a338     libucrt:lcidtoname_downlevel.obj
 0002:00005344       ??_C@_1M@LOICPMOJ@?$AAb?$AAn?$AA?9?$AAI?$AAN?$AA?$AA@ 1002a344     libucrt:lcidtoname_downlevel.obj
 0002:00005350       ??_C@_1M@KPKKNEAH@?$AAp?$AAa?$AA?9?$AAI?$AAN?$AA?$AA@ 1002a350     libucrt:lcidtoname_downlevel.obj
 0002:0000535c       ??_C@_1M@PJGPPBOG@?$AAg?$AAu?$AA?9?$AAI?$AAN?$AA?$AA@ 1002a35c     libucrt:lcidtoname_downlevel.obj
 0002:00005368       ??_C@_1M@KMKMOPHI@?$AAt?$AAa?$AA?9?$AAI?$AAN?$AA?$AA@ 1002a368     libucrt:lcidtoname_downlevel.obj
 0002:00005374       ??_C@_1M@KFEHEPAC@?$AAt?$AAe?$AA?9?$AAI?$AAN?$AA?$AA@ 1002a374     libucrt:lcidtoname_downlevel.obj
 0002:00005380       ??_C@_1M@CDCLMGHI@?$AAk?$AAn?$AA?9?$AAI?$AAN?$AA?$AA@ 1002a380     libucrt:lcidtoname_downlevel.obj
 0002:0000538c       ??_C@_1M@MIODLDKF@?$AAm?$AAl?$AA?9?$AAI?$AAN?$AA?$AA@ 1002a38c     libucrt:lcidtoname_downlevel.obj
 0002:00005398       ??_C@_1M@PBIEACPO@?$AAm?$AAr?$AA?9?$AAI?$AAN?$AA?$AA@ 1002a398     libucrt:lcidtoname_downlevel.obj
 0002:000053a4       ??_C@_1M@NIDEAGPH@?$AAs?$AAa?$AA?9?$AAI?$AAN?$AA?$AA@ 1002a3a4     libucrt:lcidtoname_downlevel.obj
 0002:000053b0       ??_C@_1M@FHIHCBIO@?$AAm?$AAn?$AA?9?$AAM?$AAN?$AA?$AA@ 1002a3b0     libucrt:lcidtoname_downlevel.obj
 0002:000053bc       ??_C@_1M@JAIJPENP@?$AAc?$AAy?$AA?9?$AAG?$AAB?$AA?$AA@ 1002a3bc     libucrt:lcidtoname_downlevel.obj
 0002:000053c8       ??_C@_1M@PHGFBEPN@?$AAg?$AAl?$AA?9?$AAE?$AAS?$AA?$AA@ 1002a3c8     libucrt:lcidtoname_downlevel.obj
 0002:000053d4       ??_C@_1O@KPIPDNCP@?$AAk?$AAo?$AAk?$AA?9?$AAI?$AAN?$AA?$AA@ 1002a3d4     libucrt:lcidtoname_downlevel.obj
 0002:000053e4       ??_C@_1O@KNHJLDJA@?$AAs?$AAy?$AAr?$AA?9?$AAS?$AAY?$AA?$AA@ 1002a3e4     libucrt:lcidtoname_downlevel.obj
 0002:000053f4       ??_C@_1O@MKEKBLAH@?$AAd?$AAi?$AAv?$AA?9?$AAM?$AAV?$AA?$AA@ 1002a3f4     libucrt:lcidtoname_downlevel.obj
 0002:00005404       ??_C@_1O@OHDCKDDF@?$AAq?$AAu?$AAz?$AA?9?$AAB?$AAO?$AA?$AA@ 1002a404     libucrt:lcidtoname_downlevel.obj
 0002:00005414       ??_C@_1M@LEPJNLFD@?$AAn?$AAs?$AA?9?$AAZ?$AAA?$AA?$AA@ 1002a414     libucrt:lcidtoname_downlevel.obj
 0002:00005420       ??_C@_1M@OMLEIIJB@?$AAm?$AAi?$AA?9?$AAN?$AAZ?$AA?$AA@ 1002a420     libucrt:lcidtoname_downlevel.obj
 0002:0000542c       ??_C@_1M@PMPEAILG@?$AAa?$AAr?$AA?9?$AAI?$AAQ?$AA?$AA@ 1002a42c     libucrt:lcidtoname_downlevel.obj
 0002:00005438       ??_C@_1M@CNKPNOEE@?$AAd?$AAe?$AA?9?$AAC?$AAH?$AA?$AA@ 1002a438     libucrt:lcidtoname_downlevel.obj
 0002:00005444       ??_C@_1M@LKMGMLKO@?$AAe?$AAn?$AA?9?$AAG?$AAB?$AA?$AA@ 1002a444     libucrt:lcidtoname_downlevel.obj
 0002:00005450       ??_C@_1M@PGKJFFGL@?$AAe?$AAs?$AA?9?$AAM?$AAX?$AA?$AA@ 1002a450     libucrt:lcidtoname_downlevel.obj
 0002:0000545c       ??_C@_1M@DNNANBDC@?$AAf?$AAr?$AA?9?$AAB?$AAE?$AA?$AA@ 1002a45c     libucrt:lcidtoname_downlevel.obj
 0002:00005468       ??_C@_1M@HLGMDFHM@?$AAi?$AAt?$AA?9?$AAC?$AAH?$AA?$AA@ 1002a468     libucrt:lcidtoname_downlevel.obj
 0002:00005474       ??_C@_1M@CLLBGJH@?$AAn?$AAl?$AA?9?$AAB?$AAE?$AA?$AA@ 1002a474     libucrt:lcidtoname_downlevel.obj
 0002:00005480       ??_C@_1M@BODBOGLF@?$AAn?$AAn?$AA?9?$AAN?$AAO?$AA?$AA@ 1002a480     libucrt:lcidtoname_downlevel.obj
 0002:0000548c       ??_C@_1M@HFFAHKAD@?$AAp?$AAt?$AA?9?$AAP?$AAT?$AA?$AA@ 1002a48c     libucrt:lcidtoname_downlevel.obj
 0002:00005498       ??_C@_1BG@LNOAKHIE@?$AAs?$AAr?$AA?9?$AAS?$AAP?$AA?9?$AAL?$AAa?$AAt?$AAn?$AA?$AA@ 1002a498     libucrt:lcidtoname_downlevel.obj
 0002:000054b0       ??_C@_1M@HBMHBGAK@?$AAs?$AAv?$AA?9?$AAF?$AAI?$AA?$AA@ 1002a4b0     libucrt:lcidtoname_downlevel.obj
 0002:000054bc       ??_C@_1BG@DGCJGJBE@?$AAa?$AAz?$AA?9?$AAA?$AAZ?$AA?9?$AAC?$AAy?$AAr?$AAl?$AA?$AA@ 1002a4bc     libucrt:lcidtoname_downlevel.obj
 0002:000054d4       ??_C@_1M@KEJDAAHB@?$AAs?$AAe?$AA?9?$AAS?$AAE?$AA?$AA@ 1002a4d4     libucrt:lcidtoname_downlevel.obj
 0002:000054e0       ??_C@_1M@HEIBJJAD@?$AAm?$AAs?$AA?9?$AAB?$AAN?$AA?$AA@ 1002a4e0     libucrt:lcidtoname_downlevel.obj
 0002:000054ec       ??_C@_1BG@PBGJMCEM@?$AAu?$AAz?$AA?9?$AAU?$AAZ?$AA?9?$AAC?$AAy?$AAr?$AAl?$AA?$AA@ 1002a4ec     libucrt:lcidtoname_downlevel.obj
 0002:00005504       ??_C@_1O@LAOBCMDF@?$AAq?$AAu?$AAz?$AA?9?$AAE?$AAC?$AA?$AA@ 1002a504     libucrt:lcidtoname_downlevel.obj
 0002:00005514       ??_C@_1M@POEEMAIO@?$AAa?$AAr?$AA?9?$AAE?$AAG?$AA?$AA@ 1002a514     libucrt:lcidtoname_downlevel.obj
 0002:00005520       ??_C@_1M@EFAKDEDL@?$AAz?$AAh?$AA?9?$AAH?$AAK?$AA?$AA@ 1002a520     libucrt:lcidtoname_downlevel.obj
 0002:0000552c       ??_C@_1M@HKKIJHGI@?$AAd?$AAe?$AA?9?$AAA?$AAT?$AA?$AA@ 1002a52c     libucrt:lcidtoname_downlevel.obj
 0002:00005538       ??_C@_1M@KBFBEHJF@?$AAe?$AAn?$AA?9?$AAA?$AAU?$AA?$AA@ 1002a538     libucrt:lcidtoname_downlevel.obj
 0002:00005544       ??_C@_1M@MNPLFAAH@?$AAe?$AAs?$AA?9?$AAE?$AAS?$AA?$AA@ 1002a544     libucrt:lcidtoname_downlevel.obj
 0002:00005550       ??_C@_1M@HJOOJFMA@?$AAf?$AAr?$AA?9?$AAC?$AAA?$AA?$AA@ 1002a550     libucrt:lcidtoname_downlevel.obj
 0002:0000555c       ??_C@_1BG@JPOFPNAB@?$AAs?$AAr?$AA?9?$AAS?$AAP?$AA?9?$AAC?$AAy?$AAr?$AAl?$AA?$AA@ 1002a55c     libucrt:lcidtoname_downlevel.obj
 0002:00005574       ??_C@_1M@LNFOCMOB@?$AAs?$AAe?$AA?9?$AAF?$AAI?$AA?$AA@ 1002a574     libucrt:lcidtoname_downlevel.obj
 0002:00005580       ??_C@_1O@MGJBOAMB@?$AAq?$AAu?$AAz?$AA?9?$AAP?$AAE?$AA?$AA@ 1002a580     libucrt:lcidtoname_downlevel.obj
 0002:00005590       ??_C@_1M@GJINLBOK@?$AAa?$AAr?$AA?9?$AAL?$AAY?$AA?$AA@ 1002a590     libucrt:lcidtoname_downlevel.obj
 0002:0000559c       ??_C@_1M@GGMNHJNL@?$AAz?$AAh?$AA?9?$AAS?$AAG?$AA?$AA@ 1002a59c     libucrt:lcidtoname_downlevel.obj
 0002:000055a8       ??_C@_1M@HOIKODND@?$AAd?$AAe?$AA?9?$AAL?$AAU?$AA?$AA@ 1002a5a8     libucrt:lcidtoname_downlevel.obj
 0002:000055b4       ??_C@_1M@DDOCCGFG@?$AAe?$AAn?$AA?9?$AAC?$AAA?$AA?$AA@ 1002a5b4     libucrt:lcidtoname_downlevel.obj
 0002:000055c0       ??_C@_1M@BNOEMJLF@?$AAe?$AAs?$AA?9?$AAG?$AAT?$AA?$AA@ 1002a5c0     libucrt:lcidtoname_downlevel.obj
 0002:000055cc       ??_C@_1M@EOGNKEK@?$AAf?$AAr?$AA?9?$AAC?$AAH?$AA?$AA@ 1002a5cc     libucrt:lcidtoname_downlevel.obj
 0002:000055d8       ??_C@_1M@FLIDJFHL@?$AAh?$AAr?$AA?9?$AAB?$AAA?$AA?$AA@ 1002a5d8     libucrt:lcidtoname_downlevel.obj
 0002:000055e4       ??_C@_1O@FMCELNAJ@?$AAs?$AAm?$AAj?$AA?9?$AAN?$AAO?$AA?$AA@ 1002a5e4     libucrt:lcidtoname_downlevel.obj
 0002:000055f4       ??_C@_1M@JHGLJMGJ@?$AAa?$AAr?$AA?9?$AAD?$AAZ?$AA?$AA@ 1002a5f4     libucrt:lcidtoname_downlevel.obj
 0002:00005600       ??_C@_1M@JKKFDCNP@?$AAz?$AAh?$AA?9?$AAM?$AAO?$AA?$AA@ 1002a600     libucrt:lcidtoname_downlevel.obj
 0002:0000560c       ??_C@_1M@GEEFALPE@?$AAd?$AAe?$AA?9?$AAL?$AAI?$AA?$AA@ 1002a60c     libucrt:lcidtoname_downlevel.obj
 0002:00005618       ??_C@_1M@IGEOFBG@?$AAe?$AAn?$AA?9?$AAN?$AAZ?$AA?$AA@ 1002a618     libucrt:lcidtoname_downlevel.obj
 0002:00005624       ??_C@_1M@KDBONEHP@?$AAe?$AAs?$AA?9?$AAC?$AAR?$AA?$AA@ 1002a624     libucrt:lcidtoname_downlevel.obj
 0002:00005630       ??_C@_1M@FHMDOHNN@?$AAf?$AAr?$AA?9?$AAL?$AAU?$AA?$AA@ 1002a630     libucrt:lcidtoname_downlevel.obj
 0002:0000563c       ??_C@_1BG@NFKKMAFG@?$AAb?$AAs?$AA?9?$AAB?$AAA?$AA?9?$AAL?$AAa?$AAt?$AAn?$AA?$AA@ 1002a63c     libucrt:lcidtoname_downlevel.obj
 0002:00005654       ??_C@_1O@IMNBEMCI@?$AAs?$AAm?$AAj?$AA?9?$AAS?$AAE?$AA?$AA@ 1002a654     libucrt:lcidtoname_downlevel.obj
 0002:00005664       ??_C@_1M@DHHMBNDP@?$AAa?$AAr?$AA?9?$AAM?$AAA?$AA?$AA@ 1002a664     libucrt:lcidtoname_downlevel.obj
 0002:00005670       ??_C@_1M@BNBLJCGH@?$AAe?$AAn?$AA?9?$AAI?$AAE?$AA?$AA@ 1002a670     libucrt:lcidtoname_downlevel.obj
 0002:0000567c       ??_C@_1M@GEPAFMDL@?$AAe?$AAs?$AA?9?$AAP?$AAA?$AA?$AA@ 1002a67c     libucrt:lcidtoname_downlevel.obj
 0002:00005688       ??_C@_1M@OJONDMDL@?$AAf?$AAr?$AA?9?$AAM?$AAC?$AA?$AA@ 1002a688     libucrt:lcidtoname_downlevel.obj
 0002:00005694       ??_C@_1BG@OBCNFJB@?$AAs?$AAr?$AA?9?$AAB?$AAA?$AA?9?$AAL?$AAa?$AAt?$AAn?$AA?$AA@ 1002a694     libucrt:lcidtoname_downlevel.obj
 0002:000056ac       ??_C@_1O@KEMEEGPO@?$AAs?$AAm?$AAa?$AA?9?$AAN?$AAO?$AA?$AA@ 1002a6ac     libucrt:lcidtoname_downlevel.obj
 0002:000056bc       ??_C@_1M@ELMGFODK@?$AAa?$AAr?$AA?9?$AAT?$AAN?$AA?$AA@ 1002a6bc     libucrt:lcidtoname_downlevel.obj
 0002:000056c8       ??_C@_1M@BHDLHFAF@?$AAe?$AAn?$AA?9?$AAZ?$AAA?$AA?$AA@ 1002a6c8     libucrt:lcidtoname_downlevel.obj
 0002:000056d4       ??_C@_1M@BMGIGLIF@?$AAe?$AAs?$AA?9?$AAD?$AAO?$AA?$AA@ 1002a6d4     libucrt:lcidtoname_downlevel.obj
 0002:000056e0       ??_C@_1BG@CMBHIPBE@?$AAs?$AAr?$AA?9?$AAB?$AAA?$AA?9?$AAC?$AAy?$AAr?$AAl?$AA?$AA@ 1002a6e0     libucrt:lcidtoname_downlevel.obj
 0002:000056f8       ??_C@_1O@HEDBLHNP@?$AAs?$AAm?$AAa?$AA?9?$AAS?$AAE?$AA?$AA@ 1002a6f8     libucrt:lcidtoname_downlevel.obj
 0002:00005708       ??_C@_1M@DAGCADIM@?$AAa?$AAr?$AA?9?$AAO?$AAM?$AA?$AA@ 1002a708     libucrt:lcidtoname_downlevel.obj
 0002:00005714       ??_C@_1M@FODLMICG@?$AAe?$AAn?$AA?9?$AAJ?$AAM?$AA?$AA@ 1002a714     libucrt:lcidtoname_downlevel.obj
 0002:00005720       ??_C@_1M@DNMLCIHB@?$AAe?$AAs?$AA?9?$AAV?$AAE?$AA?$AA@ 1002a720     libucrt:lcidtoname_downlevel.obj
 0002:0000572c       ??_C@_1O@EOKHMKJK@?$AAs?$AAm?$AAs?$AA?9?$AAF?$AAI?$AA?$AA@ 1002a72c     libucrt:lcidtoname_downlevel.obj
 0002:0000573c       ??_C@_1M@CAFJMKOF@?$AAa?$AAr?$AA?9?$AAY?$AAE?$AA?$AA@ 1002a73c     libucrt:lcidtoname_downlevel.obj
 0002:00005748       ??_C@_1M@CBFHIJLI@?$AAe?$AAn?$AA?9?$AAC?$AAB?$AA?$AA@ 1002a748     libucrt:lcidtoname_downlevel.obj
 0002:00005754       ??_C@_1M@BGNFLDN@?$AAe?$AAs?$AA?9?$AAC?$AAO?$AA?$AA@ 1002a754     libucrt:lcidtoname_downlevel.obj
 0002:00005760       ??_C@_1O@JMPHMAMC@?$AAs?$AAm?$AAn?$AA?9?$AAF?$AAI?$AA?$AA@ 1002a760     libucrt:lcidtoname_downlevel.obj
 0002:00005770       ??_C@_1M@JLANABKE@?$AAa?$AAr?$AA?9?$AAS?$AAY?$AA?$AA@ 1002a770     libucrt:lcidtoname_downlevel.obj
 0002:0000577c       ??_C@_1M@HPKGCFGN@?$AAe?$AAn?$AA?9?$AAB?$AAZ?$AA?$AA@ 1002a77c     libucrt:lcidtoname_downlevel.obj
 0002:00005788       ??_C@_1M@OLJCMLGM@?$AAe?$AAs?$AA?9?$AAP?$AAE?$AA?$AA@ 1002a788     libucrt:lcidtoname_downlevel.obj
 0002:00005794       ??_C@_1M@MKKGFKLE@?$AAa?$AAr?$AA?9?$AAJ?$AAO?$AA?$AA@ 1002a794     libucrt:lcidtoname_downlevel.obj
 0002:000057a0       ??_C@_1M@EKPGLDNI@?$AAe?$AAn?$AA?9?$AAT?$AAT?$AA?$AA@ 1002a7a0     libucrt:lcidtoname_downlevel.obj
 0002:000057ac       ??_C@_1M@OONGHFHE@?$AAe?$AAs?$AA?9?$AAA?$AAR?$AA?$AA@ 1002a7ac     libucrt:lcidtoname_downlevel.obj
 0002:000057b8       ??_C@_1M@OOJFGBHE@?$AAa?$AAr?$AA?9?$AAL?$AAB?$AA?$AA@ 1002a7b8     libucrt:lcidtoname_downlevel.obj
 0002:000057c4       ??_C@_1M@GCEJHNEG@?$AAe?$AAn?$AA?9?$AAZ?$AAW?$AA?$AA@ 1002a7c4     libucrt:lcidtoname_downlevel.obj
 0002:000057d0       ??_C@_1M@JNOCAHJI@?$AAe?$AAs?$AA?9?$AAE?$AAC?$AA?$AA@ 1002a7d0     libucrt:lcidtoname_downlevel.obj
 0002:000057dc       ??_C@_1M@JEFHPGGB@?$AAa?$AAr?$AA?9?$AAK?$AAW?$AA?$AA@ 1002a7dc     libucrt:lcidtoname_downlevel.obj
 0002:000057e8       ??_C@_1M@MLKIBJOJ@?$AAe?$AAn?$AA?9?$AAP?$AAH?$AA?$AA@ 1002a7e8     libucrt:lcidtoname_downlevel.obj
 0002:000057f4       ??_C@_1M@BDNIPEND@?$AAe?$AAs?$AA?9?$AAC?$AAL?$AA?$AA@ 1002a7f4     libucrt:lcidtoname_downlevel.obj
 0002:00005800       ??_C@_1M@MPNMEKBD@?$AAa?$AAr?$AA?9?$AAA?$AAE?$AA?$AA@ 1002a800     libucrt:lcidtoname_downlevel.obj
 0002:0000580c       ??_C@_1M@KBJALCPI@?$AAe?$AAs?$AA?9?$AAU?$AAY?$AA?$AA@ 1002a80c     libucrt:lcidtoname_downlevel.obj
 0002:00005818       ??_C@_1M@LLCCOAGA@?$AAa?$AAr?$AA?9?$AAB?$AAH?$AA?$AA@ 1002a818     libucrt:lcidtoname_downlevel.obj
 0002:00005824       ??_C@_1M@PBFNCDEL@?$AAe?$AAs?$AA?9?$AAP?$AAY?$AA?$AA@ 1002a824     libucrt:lcidtoname_downlevel.obj
 0002:00005830       ??_C@_1M@EDGINPNP@?$AAa?$AAr?$AA?9?$AAQ?$AAA?$AA?$AA@ 1002a830     libucrt:lcidtoname_downlevel.obj
 0002:0000583c       ??_C@_1M@MKDBIIJI@?$AAe?$AAs?$AA?9?$AAB?$AAO?$AA?$AA@ 1002a83c     libucrt:lcidtoname_downlevel.obj
 0002:00005848       ??_C@_1M@CPKKEBLD@?$AAe?$AAs?$AA?9?$AAS?$AAV?$AA?$AA@ 1002a848     libucrt:lcidtoname_downlevel.obj
 0002:00005854       ??_C@_1M@NDBGMMJL@?$AAe?$AAs?$AA?9?$AAH?$AAN?$AA?$AA@ 1002a854     libucrt:lcidtoname_downlevel.obj
 0002:00005860       ??_C@_1M@JIJIBHDP@?$AAe?$AAs?$AA?9?$AAN?$AAI?$AA?$AA@ 1002a860     libucrt:lcidtoname_downlevel.obj
 0002:0000586c       ??_C@_1M@CGFMKEEK@?$AAe?$AAs?$AA?9?$AAP?$AAR?$AA?$AA@ 1002a86c     libucrt:lcidtoname_downlevel.obj
 0002:00005878       ??_C@_1O@ICJHKIIK@?$AAz?$AAh?$AA?9?$AAC?$AAH?$AAT?$AA?$AA@ 1002a878     libucrt:lcidtoname_downlevel.obj
 0002:00005888       ??_C@_15CLNEJCE@?$AAs?$AAr?$AA?$AA@ 1002a888     libucrt:lcidtoname_downlevel.obj
 0002:00005fb0       ??_C@_1M@KAHEKEIG@?$AAa?$AAf?$AA?9?$AAz?$AAa?$AA?$AA@ 1002afb0     libucrt:lcidtoname_downlevel.obj
 0002:00005fbc       ??_C@_1M@GIECOABL@?$AAa?$AAr?$AA?9?$AAa?$AAe?$AA?$AA@ 1002afbc     libucrt:lcidtoname_downlevel.obj
 0002:00005fc8       ??_C@_1M@BMLMEKGI@?$AAa?$AAr?$AA?9?$AAb?$AAh?$AA?$AA@ 1002afc8     libucrt:lcidtoname_downlevel.obj
 0002:00005fd4       ??_C@_1M@DAPFDGGB@?$AAa?$AAr?$AA?9?$AAd?$AAz?$AA?$AA@ 1002afd4     libucrt:lcidtoname_downlevel.obj
 0002:00005fe0       ??_C@_1M@FJNKGKIG@?$AAa?$AAr?$AA?9?$AAe?$AAg?$AA?$AA@ 1002afe0     libucrt:lcidtoname_downlevel.obj
 0002:00005fec       ??_C@_1M@FLGKKCLO@?$AAa?$AAr?$AA?9?$AAi?$AAq?$AA?$AA@ 1002afec     libucrt:lcidtoname_downlevel.obj
 0002:00005ff8       ??_C@_1M@GNDIPALM@?$AAa?$AAr?$AA?9?$AAj?$AAo?$AA?$AA@ 1002aff8     libucrt:lcidtoname_downlevel.obj
 0002:00006004       ??_C@_1M@DDMJFMGJ@?$AAa?$AAr?$AA?9?$AAk?$AAw?$AA?$AA@ 1002b004     libucrt:lcidtoname_downlevel.obj
 0002:00006010       ??_C@_1M@EJALMLHM@?$AAa?$AAr?$AA?9?$AAl?$AAb?$AA?$AA@ 1002b010     libucrt:lcidtoname_downlevel.obj
 0002:0000601c       ??_C@_1M@MOBDBLOC@?$AAa?$AAr?$AA?9?$AAl?$AAy?$AA?$AA@ 1002b01c     libucrt:lcidtoname_downlevel.obj
 0002:00006028       ??_C@_1M@JAOCLHDH@?$AAa?$AAr?$AA?9?$AAm?$AAa?$AA?$AA@ 1002b028     libucrt:lcidtoname_downlevel.obj
 0002:00006034       ??_C@_1M@JHPMKJIE@?$AAa?$AAr?$AA?9?$AAo?$AAm?$AA?$AA@ 1002b034     libucrt:lcidtoname_downlevel.obj
 0002:00006040       ??_C@_1M@OEPGHFNH@?$AAa?$AAr?$AA?9?$AAq?$AAa?$AA?$AA@ 1002b040     libucrt:lcidtoname_downlevel.obj
 0002:0000604c       ??_C@_1M@KJDONENM@?$AAa?$AAr?$AA?9?$AAs?$AAa?$AA?$AA@ 1002b04c     libucrt:lcidtoname_downlevel.obj
 0002:00006058       ??_C@_1M@DMJDKLKM@?$AAa?$AAr?$AA?9?$AAs?$AAy?$AA?$AA@ 1002b058     libucrt:lcidtoname_downlevel.obj
 0002:00006064       ??_C@_1M@OMFIPEDC@?$AAa?$AAr?$AA?9?$AAt?$AAn?$AA?$AA@ 1002b064     libucrt:lcidtoname_downlevel.obj
 0002:00006070       ??_C@_1M@IHMHGAON@?$AAa?$AAr?$AA?9?$AAy?$AAe?$AA?$AA@ 1002b070     libucrt:lcidtoname_downlevel.obj
 0002:0000607c       ??_C@_1BG@KDCPGJGB@?$AAa?$AAz?$AA?9?$AAa?$AAz?$AA?9?$AAc?$AAy?$AAr?$AAl?$AA?$AA@ 1002b07c     libucrt:lcidtoname_downlevel.obj
 0002:00006094       ??_C@_1BG@IBCKDDOE@?$AAa?$AAz?$AA?9?$AAa?$AAz?$AA?9?$AAl?$AAa?$AAt?$AAn?$AA?$AA@ 1002b094     libucrt:lcidtoname_downlevel.obj
 0002:000060ac       ??_C@_1M@EGPFDCPD@?$AAb?$AAe?$AA?9?$AAb?$AAy?$AA?$AA@ 1002b0ac     libucrt:lcidtoname_downlevel.obj
 0002:000060b8       ??_C@_1M@PCMGMCGC@?$AAb?$AAg?$AA?9?$AAb?$AAg?$AA?$AA@ 1002b0b8     libucrt:lcidtoname_downlevel.obj
 0002:000060c4       ??_C@_1M@BJBMFGOB@?$AAb?$AAn?$AA?9?$AAi?$AAn?$AA?$AA@ 1002b0c4     libucrt:lcidtoname_downlevel.obj
 0002:000060d0       ??_C@_1BG@EAKMMACD@?$AAb?$AAs?$AA?9?$AAb?$AAa?$AA?9?$AAl?$AAa?$AAt?$AAn?$AA?$AA@ 1002b0d0     libucrt:lcidtoname_downlevel.obj
 0002:000060e8       ??_C@_1M@KGADAODK@?$AAc?$AAa?$AA?9?$AAe?$AAs?$AA?$AA@ 1002b0e8     libucrt:lcidtoname_downlevel.obj
 0002:000060f4       ??_C@_1M@COAJPDHI@?$AAc?$AAs?$AA?9?$AAc?$AAz?$AA?$AA@ 1002b0f4     libucrt:lcidtoname_downlevel.obj
 0002:00006100       ??_C@_1M@DHBHFONH@?$AAc?$AAy?$AA?9?$AAg?$AAb?$AA?$AA@ 1002b100     libucrt:lcidtoname_downlevel.obj
 0002:0000610c       ??_C@_1M@IMGKELGA@?$AAd?$AAa?$AA?9?$AAd?$AAk?$AA?$AA@ 1002b10c     libucrt:lcidtoname_downlevel.obj
 0002:00006118       ??_C@_1M@NNDGDNGA@?$AAd?$AAe?$AA?9?$AAa?$AAt?$AA?$AA@ 1002b118     libucrt:lcidtoname_downlevel.obj
 0002:00006124       ??_C@_1M@IKDBHEEM@?$AAd?$AAe?$AA?9?$AAc?$AAh?$AA?$AA@ 1002b124     libucrt:lcidtoname_downlevel.obj
 0002:00006130       ??_C@_1M@GFFOJMCJ@?$AAd?$AAe?$AA?9?$AAd?$AAe?$AA?$AA@ 1002b130     libucrt:lcidtoname_downlevel.obj
 0002:0000613c       ??_C@_1M@MDNLKBPM@?$AAd?$AAe?$AA?9?$AAl?$AAi?$AA?$AA@ 1002b13c     libucrt:lcidtoname_downlevel.obj
 0002:00006148       ??_C@_1M@NJBEEJNL@?$AAd?$AAe?$AA?9?$AAl?$AAu?$AA?$AA@ 1002b148     libucrt:lcidtoname_downlevel.obj
 0002:00006154       ??_C@_1O@GNNELBAP@?$AAd?$AAi?$AAv?$AA?9?$AAm?$AAv?$AA?$AA@ 1002b154     libucrt:lcidtoname_downlevel.obj
 0002:00006164       ??_C@_1M@EJLEOGAE@?$AAe?$AAl?$AA?9?$AAg?$AAr?$AA?$AA@ 1002b164     libucrt:lcidtoname_downlevel.obj
 0002:00006170       ??_C@_1M@GMPONJN@?$AAe?$AAn?$AA?9?$AAa?$AAu?$AA?$AA@ 1002b170     libucrt:lcidtoname_downlevel.obj
 0002:0000617c       ??_C@_1M@NIDIIPGF@?$AAe?$AAn?$AA?9?$AAb?$AAz?$AA?$AA@ 1002b17c     libucrt:lcidtoname_downlevel.obj
 0002:00006188       ??_C@_1M@JEHMIMFO@?$AAe?$AAn?$AA?9?$AAc?$AAa?$AA?$AA@ 1002b188     libucrt:lcidtoname_downlevel.obj
 0002:00006194       ??_C@_1M@IGMJCDLA@?$AAe?$AAn?$AA?9?$AAc?$AAb?$AA?$AA@ 1002b194     libucrt:lcidtoname_downlevel.obj
 0002:000061a0       ??_C@_1M@BNFIGBKG@?$AAe?$AAn?$AA?9?$AAg?$AAb?$AA?$AA@ 1002b1a0     libucrt:lcidtoname_downlevel.obj
 0002:000061ac       ??_C@_1M@LKIFDIGP@?$AAe?$AAn?$AA?9?$AAi?$AAe?$AA?$AA@ 1002b1ac     libucrt:lcidtoname_downlevel.obj
 0002:000061b8       ??_C@_1M@PJKFGCCO@?$AAe?$AAn?$AA?9?$AAj?$AAm?$AA?$AA@ 1002b1b8     libucrt:lcidtoname_downlevel.obj
 0002:000061c4       ??_C@_1M@KPPKEPBO@?$AAe?$AAn?$AA?9?$AAn?$AAz?$AA?$AA@ 1002b1c4     libucrt:lcidtoname_downlevel.obj
 0002:000061d0       ??_C@_1M@GMDGLDOB@?$AAe?$AAn?$AA?9?$AAp?$AAh?$AA?$AA@ 1002b1d0     libucrt:lcidtoname_downlevel.obj
 0002:000061dc       ??_C@_1M@ONGIBJNA@?$AAe?$AAn?$AA?9?$AAt?$AAt?$AA?$AA@ 1002b1dc     libucrt:lcidtoname_downlevel.obj
 0002:000061e8       ??_C@_1M@LLODPCMM@?$AAe?$AAn?$AA?9?$AAu?$AAs?$AA?$AA@ 1002b1e8     libucrt:lcidtoname_downlevel.obj
 0002:000061f4       ??_C@_1M@LAKFNPAN@?$AAe?$AAn?$AA?9?$AAz?$AAa?$AA?$AA@ 1002b1f4     libucrt:lcidtoname_downlevel.obj
 0002:00006200       ??_C@_1M@MFNHNHEO@?$AAe?$AAn?$AA?9?$AAz?$AAw?$AA?$AA@ 1002b200     libucrt:lcidtoname_downlevel.obj
 0002:0000620c       ??_C@_1M@EJEINPHM@?$AAe?$AAs?$AA?9?$AAa?$AAr?$AA?$AA@ 1002b20c     libucrt:lcidtoname_downlevel.obj
 0002:00006218       ??_C@_1M@GNKPCCJA@?$AAe?$AAs?$AA?9?$AAb?$AAo?$AA?$AA@ 1002b218     libucrt:lcidtoname_downlevel.obj
 0002:00006224       ??_C@_1M@LEEGFONL@?$AAe?$AAs?$AA?9?$AAc?$AAl?$AA?$AA@ 1002b224     libucrt:lcidtoname_downlevel.obj
 0002:00006230       ??_C@_1M@KGPDPBDF@?$AAe?$AAs?$AA?9?$AAc?$AAo?$AA?$AA@ 1002b230     libucrt:lcidtoname_downlevel.obj
 0002:0000623c       ??_C@_1M@EIAHOHH@?$AAe?$AAs?$AA?9?$AAc?$AAr?$AA?$AA@ 1002b23c     libucrt:lcidtoname_downlevel.obj
 0002:00006248       ??_C@_1M@LLPGMBIN@?$AAe?$AAs?$AA?9?$AAd?$AAo?$AA?$AA@ 1002b248     libucrt:lcidtoname_downlevel.obj
 0002:00006254       ??_C@_1M@DKHMKNJA@?$AAe?$AAs?$AA?9?$AAe?$AAc?$AA?$AA@ 1002b254     libucrt:lcidtoname_downlevel.obj
 0002:00006260       ??_C@_1M@GKGFPKAP@?$AAe?$AAs?$AA?9?$AAe?$AAs?$AA?$AA@ 1002b260     libucrt:lcidtoname_downlevel.obj
 0002:0000626c       ??_C@_1M@LKHKGDLN@?$AAe?$AAs?$AA?9?$AAg?$AAt?$AA?$AA@ 1002b26c     libucrt:lcidtoname_downlevel.obj
 0002:00006278       ??_C@_1M@HEIIGGJD@?$AAe?$AAs?$AA?9?$AAh?$AAn?$AA?$AA@ 1002b278     libucrt:lcidtoname_downlevel.obj
 0002:00006284       ??_C@_1M@FBDHPPGD@?$AAe?$AAs?$AA?9?$AAm?$AAx?$AA?$AA@ 1002b284     libucrt:lcidtoname_downlevel.obj
 0002:00006290       ??_C@_1M@DPAGLNDH@?$AAe?$AAs?$AA?9?$AAn?$AAi?$AA?$AA@ 1002b290     libucrt:lcidtoname_downlevel.obj
 0002:0000629c       ??_C@_1M@MDGOPGDD@?$AAe?$AAs?$AA?9?$AAp?$AAa?$AA?$AA@ 1002b29c     libucrt:lcidtoname_downlevel.obj
 0002:000062a8       ??_C@_1M@EMAMGBGE@?$AAe?$AAs?$AA?9?$AAp?$AAe?$AA?$AA@ 1002b2a8     libucrt:lcidtoname_downlevel.obj
 0002:000062b4       ??_C@_1M@IBMCAOEC@?$AAe?$AAs?$AA?9?$AAp?$AAr?$AA?$AA@ 1002b2b4     libucrt:lcidtoname_downlevel.obj
 0002:000062c0       ??_C@_1M@FGMDIJED@?$AAe?$AAs?$AA?9?$AAp?$AAy?$AA?$AA@ 1002b2c0     libucrt:lcidtoname_downlevel.obj
 0002:000062cc       ??_C@_1M@IIDEOLLL@?$AAe?$AAs?$AA?9?$AAs?$AAv?$AA?$AA@ 1002b2cc     libucrt:lcidtoname_downlevel.obj
 0002:000062d8       ??_C@_1M@GAOBIPA@?$AAe?$AAs?$AA?9?$AAu?$AAy?$AA?$AA@ 1002b2d8     libucrt:lcidtoname_downlevel.obj
 0002:000062e4       ??_C@_1M@JKFFICHJ@?$AAe?$AAs?$AA?9?$AAv?$AAe?$AA?$AA@ 1002b2e4     libucrt:lcidtoname_downlevel.obj
 0002:000062f0       ??_C@_1M@PNMLOJDF@?$AAe?$AAt?$AA?9?$AAe?$AAe?$AA?$AA@ 1002b2f0     libucrt:lcidtoname_downlevel.obj
 0002:000062fc       ??_C@_1M@GHHLIKEI@?$AAe?$AAu?$AA?9?$AAe?$AAs?$AA?$AA@ 1002b2fc     libucrt:lcidtoname_downlevel.obj
 0002:00006308       ??_C@_1M@PBNONODE@?$AAf?$AAa?$AA?9?$AAi?$AAr?$AA?$AA@ 1002b308     libucrt:lcidtoname_downlevel.obj
 0002:00006314       ??_C@_1M@JEEHPMIL@?$AAf?$AAi?$AA?9?$AAf?$AAi?$AA?$AA@ 1002b314     libucrt:lcidtoname_downlevel.obj
 0002:00006320       ??_C@_1M@LMDCNDBA@?$AAf?$AAo?$AA?9?$AAf?$AAo?$AA?$AA@ 1002b320     libucrt:lcidtoname_downlevel.obj
 0002:0000632c       ??_C@_1M@JKEOHLDK@?$AAf?$AAr?$AA?9?$AAb?$AAe?$AA?$AA@ 1002b32c     libucrt:lcidtoname_downlevel.obj
 0002:00006338       ??_C@_1M@NOHADPMI@?$AAf?$AAr?$AA?9?$AAc?$AAa?$AA?$AA@ 1002b338     libucrt:lcidtoname_downlevel.obj
 0002:00006344       ??_C@_1M@KDHIHAEC@?$AAf?$AAr?$AA?9?$AAc?$AAh?$AA?$AA@ 1002b344     libucrt:lcidtoname_downlevel.obj
 0002:00006350       ??_C@_1M@MMBBFGAK@?$AAf?$AAr?$AA?9?$AAf?$AAr?$AA?$AA@ 1002b350     libucrt:lcidtoname_downlevel.obj
 0002:0000635c       ??_C@_1M@PAFNENNF@?$AAf?$AAr?$AA?9?$AAl?$AAu?$AA?$AA@ 1002b35c     libucrt:lcidtoname_downlevel.obj
 0002:00006368       ??_C@_1M@EOHDJGDD@?$AAf?$AAr?$AA?9?$AAm?$AAc?$AA?$AA@ 1002b368     libucrt:lcidtoname_downlevel.obj
 0002:00006374       ??_C@_1M@FAPLLOPF@?$AAg?$AAl?$AA?9?$AAe?$AAs?$AA?$AA@ 1002b374     libucrt:lcidtoname_downlevel.obj
 0002:00006380       ??_C@_1M@FOPBFLOO@?$AAg?$AAu?$AA?9?$AAi?$AAn?$AA?$AA@ 1002b380     libucrt:lcidtoname_downlevel.obj
 0002:0000638c       ??_C@_1M@KBMCINPM@?$AAh?$AAe?$AA?9?$AAi?$AAl?$AA?$AA@ 1002b38c     libucrt:lcidtoname_downlevel.obj
 0002:00006398       ??_C@_1M@BBPHKFPJ@?$AAh?$AAi?$AA?9?$AAi?$AAn?$AA?$AA@ 1002b398     libucrt:lcidtoname_downlevel.obj
 0002:000063a4       ??_C@_1M@PMBNDPHD@?$AAh?$AAr?$AA?9?$AAb?$AAa?$AA?$AA@ 1002b3a4     libucrt:lcidtoname_downlevel.obj
 0002:000063b0       ??_C@_1M@BPCKOEGE@?$AAh?$AAr?$AA?9?$AAh?$AAr?$AA?$AA@ 1002b3b0     libucrt:lcidtoname_downlevel.obj
 0002:000063bc       ??_C@_1M@GACBMHKE@?$AAh?$AAu?$AA?9?$AAh?$AAu?$AA?$AA@ 1002b3bc     libucrt:lcidtoname_downlevel.obj
 0002:000063c8       ??_C@_1M@MILPAJJC@?$AAh?$AAy?$AA?9?$AAa?$AAm?$AA?$AA@ 1002b3c8     libucrt:lcidtoname_downlevel.obj
 0002:000063d4       ??_C@_1M@BABBICEC@?$AAi?$AAd?$AA?9?$AAi?$AAd?$AA?$AA@ 1002b3d4     libucrt:lcidtoname_downlevel.obj
 0002:000063e0       ??_C@_1M@BIKNHHPF@?$AAi?$AAs?$AA?9?$AAi?$AAs?$AA?$AA@ 1002b3e0     libucrt:lcidtoname_downlevel.obj
 0002:000063ec       ??_C@_1M@NMPCJPHE@?$AAi?$AAt?$AA?9?$AAc?$AAh?$AA?$AA@ 1002b3ec     libucrt:lcidtoname_downlevel.obj
 0002:000063f8       ??_C@_1M@GHKGFEDF@?$AAi?$AAt?$AA?9?$AAi?$AAt?$AA?$AA@ 1002b3f8     libucrt:lcidtoname_downlevel.obj
 0002:00006404       ??_C@_1M@NIEJCJJA@?$AAj?$AAa?$AA?9?$AAj?$AAp?$AA?$AA@ 1002b404     libucrt:lcidtoname_downlevel.obj
 0002:00006410       ??_C@_1M@JILFNBIM@?$AAk?$AAa?$AA?9?$AAg?$AAe?$AA?$AA@ 1002b410     libucrt:lcidtoname_downlevel.obj
 0002:0000641c       ??_C@_1M@PACPMGPH@?$AAk?$AAk?$AA?9?$AAk?$AAz?$AA?$AA@ 1002b41c     libucrt:lcidtoname_downlevel.obj
 0002:00006428       ??_C@_1M@IELFGMHA@?$AAk?$AAn?$AA?9?$AAi?$AAn?$AA?$AA@ 1002b428     libucrt:lcidtoname_downlevel.obj
 0002:00006434       ??_C@_1O@IBBJHCH@?$AAk?$AAo?$AAk?$AA?9?$AAi?$AAn?$AA?$AA@ 1002b434     libucrt:lcidtoname_downlevel.obj
 0002:00006444       ??_C@_1M@DMHAEOGC@?$AAk?$AAo?$AA?9?$AAk?$AAr?$AA?$AA@ 1002b444     libucrt:lcidtoname_downlevel.obj
 0002:00006450       ??_C@_1M@HBAHBIGA@?$AAk?$AAy?$AA?9?$AAk?$AAg?$AA?$AA@ 1002b450     libucrt:lcidtoname_downlevel.obj
 0002:0000645c       ??_C@_1M@KPMILCJG@?$AAl?$AAt?$AA?9?$AAl?$AAt?$AA?$AA@ 1002b45c     libucrt:lcidtoname_downlevel.obj
 0002:00006468       ??_C@_1M@BDEKKCA@?$AAl?$AAv?$AA?9?$AAl?$AAv?$AA?$AA@ 1002b468     libucrt:lcidtoname_downlevel.obj
 0002:00006474       ??_C@_1M@ELCKCCJJ@?$AAm?$AAi?$AA?9?$AAn?$AAz?$AA?$AA@ 1002b474     libucrt:lcidtoname_downlevel.obj
 0002:00006480       ??_C@_1M@CBOOLAPA@?$AAm?$AAk?$AA?9?$AAm?$AAk?$AA?$AA@ 1002b480     libucrt:lcidtoname_downlevel.obj
 0002:0000648c       ??_C@_1M@GPHNBJKN@?$AAm?$AAl?$AA?9?$AAi?$AAn?$AA?$AA@ 1002b48c     libucrt:lcidtoname_downlevel.obj
 0002:00006498       ??_C@_1M@PABJILIG@?$AAm?$AAn?$AA?9?$AAm?$AAn?$AA?$AA@ 1002b498     libucrt:lcidtoname_downlevel.obj
 0002:000064a4       ??_C@_1M@FGBKKIPG@?$AAm?$AAr?$AA?9?$AAi?$AAn?$AA?$AA@ 1002b4a4     libucrt:lcidtoname_downlevel.obj
 0002:000064b0       ??_C@_1M@NDBPDDAL@?$AAm?$AAs?$AA?9?$AAb?$AAn?$AA?$AA@ 1002b4b0     libucrt:lcidtoname_downlevel.obj
 0002:000064bc       ??_C@_1M@OPIHOOPI@?$AAm?$AAs?$AA?9?$AAm?$AAy?$AA?$AA@ 1002b4bc     libucrt:lcidtoname_downlevel.obj
 0002:000064c8       ??_C@_1M@PPDBCNFM@?$AAm?$AAt?$AA?9?$AAm?$AAt?$AA?$AA@ 1002b4c8     libucrt:lcidtoname_downlevel.obj
 0002:000064d4       ??_C@_1M@KDJDKMDD@?$AAn?$AAb?$AA?9?$AAn?$AAo?$AA?$AA@ 1002b4d4     libucrt:lcidtoname_downlevel.obj
 0002:000064e0       ??_C@_1M@KFCFLMJP@?$AAn?$AAl?$AA?9?$AAb?$AAe?$AA?$AA@ 1002b4e0     libucrt:lcidtoname_downlevel.obj
 0002:000064ec       ??_C@_1M@KPOPDDGO@?$AAn?$AAl?$AA?9?$AAn?$AAl?$AA?$AA@ 1002b4ec     libucrt:lcidtoname_downlevel.obj
 0002:000064f8       ??_C@_1M@LJKPEMLN@?$AAn?$AAn?$AA?9?$AAn?$AAo?$AA?$AA@ 1002b4f8     libucrt:lcidtoname_downlevel.obj
 0002:00006504       ??_C@_1M@BDGHHBFL@?$AAn?$AAs?$AA?9?$AAz?$AAa?$AA?$AA@ 1002b504     libucrt:lcidtoname_downlevel.obj
 0002:00006510       ??_C@_1M@IDEHOAP@?$AAp?$AAa?$AA?9?$AAi?$AAn?$AA?$AA@ 1002b510     libucrt:lcidtoname_downlevel.obj
 0002:0000651c       ??_C@_1M@HDBKGOGH@?$AAp?$AAl?$AA?9?$AAp?$AAl?$AA?$AA@ 1002b51c     libucrt:lcidtoname_downlevel.obj
 0002:00006528       ??_C@_1M@LJLLCMEH@?$AAp?$AAt?$AA?9?$AAb?$AAr?$AA?$AA@ 1002b528     libucrt:lcidtoname_downlevel.obj
 0002:00006534       ??_C@_1M@NCMONAAL@?$AAp?$AAt?$AA?9?$AAp?$AAt?$AA?$AA@ 1002b534     libucrt:lcidtoname_downlevel.obj
 0002:00006540       ??_C@_1O@EAKMAJDN@?$AAq?$AAu?$AAz?$AA?9?$AAb?$AAo?$AA?$AA@ 1002b540     libucrt:lcidtoname_downlevel.obj
 0002:00006550       ??_C@_1O@BHHPIGDN@?$AAq?$AAu?$AAz?$AA?9?$AAe?$AAc?$AA?$AA@ 1002b550     libucrt:lcidtoname_downlevel.obj
 0002:00006560       ??_C@_1O@GBAPEKMJ@?$AAq?$AAu?$AAz?$AA?9?$AAp?$AAe?$AA?$AA@ 1002b560     libucrt:lcidtoname_downlevel.obj
 0002:00006570       ??_C@_1M@CLGLEFBO@?$AAr?$AAo?$AA?9?$AAr?$AAo?$AA?$AA@ 1002b570     libucrt:lcidtoname_downlevel.obj
 0002:0000657c       ??_C@_1M@CEEDODME@?$AAr?$AAu?$AA?9?$AAr?$AAu?$AA?$AA@ 1002b57c     libucrt:lcidtoname_downlevel.obj
 0002:00006588       ??_C@_1M@HPKKKMPP@?$AAs?$AAa?$AA?9?$AAi?$AAn?$AA?$AA@ 1002b588     libucrt:lcidtoname_downlevel.obj
 0002:00006594       ??_C@_1M@BKMAIGOJ@?$AAs?$AAe?$AA?9?$AAf?$AAi?$AA?$AA@ 1002b594     libucrt:lcidtoname_downlevel.obj
 0002:000065a0       ??_C@_1M@NDPIFLFI@?$AAs?$AAe?$AA?9?$AAn?$AAo?$AA?$AA@ 1002b5a0     libucrt:lcidtoname_downlevel.obj
 0002:000065ac       ??_C@_1M@DANKKHJ@?$AAs?$AAe?$AA?9?$AAs?$AAe?$AA?$AA@ 1002b5ac     libucrt:lcidtoname_downlevel.obj
 0002:000065b8       ??_C@_1M@PNBLONPJ@?$AAs?$AAk?$AA?9?$AAs?$AAk?$AA?$AA@ 1002b5b8     libucrt:lcidtoname_downlevel.obj
 0002:000065c4       ??_C@_1M@LFMODOAL@?$AAs?$AAl?$AA?9?$AAs?$AAi?$AA?$AA@ 1002b5c4     libucrt:lcidtoname_downlevel.obj
 0002:000065d0       ??_C@_1O@DFKOMPG@?$AAs?$AAm?$AAa?$AA?9?$AAn?$AAo?$AA?$AA@ 1002b5d0     libucrt:lcidtoname_downlevel.obj
 0002:000065e0       ??_C@_1O@NDKPBNNH@?$AAs?$AAm?$AAa?$AA?9?$AAs?$AAe?$AA?$AA@ 1002b5e0     libucrt:lcidtoname_downlevel.obj
 0002:000065f0       ??_C@_1O@PLLKBHAB@?$AAs?$AAm?$AAj?$AA?9?$AAn?$AAo?$AA?$AA@ 1002b5f0     libucrt:lcidtoname_downlevel.obj
 0002:00006600       ??_C@_1O@CLEPOGCA@?$AAs?$AAm?$AAj?$AA?9?$AAs?$AAe?$AA?$AA@ 1002b600     libucrt:lcidtoname_downlevel.obj
 0002:00006610       ??_C@_1O@DLGJGKMK@?$AAs?$AAm?$AAn?$AA?9?$AAf?$AAi?$AA?$AA@ 1002b610     libucrt:lcidtoname_downlevel.obj
 0002:00006620       ??_C@_1O@OJDJGAJC@?$AAs?$AAm?$AAs?$AA?9?$AAf?$AAi?$AA?$AA@ 1002b620     libucrt:lcidtoname_downlevel.obj
 0002:00006630       ??_C@_1M@BOFOGHPB@?$AAs?$AAq?$AA?9?$AAa?$AAl?$AA?$AA@ 1002b630     libucrt:lcidtoname_downlevel.obj
 0002:0000663c       ??_C@_1BG@LJBBIPGB@?$AAs?$AAr?$AA?9?$AAb?$AAa?$AA?9?$AAc?$AAy?$AAr?$AAl?$AA?$AA@ 1002b63c     libucrt:lcidtoname_downlevel.obj
 0002:00006654       ??_C@_1BG@JLBENFOE@?$AAs?$AAr?$AA?9?$AAb?$AAa?$AA?9?$AAl?$AAa?$AAt?$AAn?$AA?$AA@ 1002b654     libucrt:lcidtoname_downlevel.obj
 0002:0000666c       ??_C@_1BG@KODPNHE@?$AAs?$AAr?$AA?9?$AAs?$AAp?$AA?9?$AAc?$AAy?$AAr?$AAl?$AA?$AA@ 1002b66c     libucrt:lcidtoname_downlevel.obj
 0002:00006684       ??_C@_1BG@CIOGKHPB@?$AAs?$AAr?$AA?9?$AAs?$AAp?$AA?9?$AAl?$AAa?$AAt?$AAn?$AA?$AA@ 1002b684     libucrt:lcidtoname_downlevel.obj
 0002:0000669c       ??_C@_1M@NGFJLMAC@?$AAs?$AAv?$AA?9?$AAf?$AAi?$AA?$AA@ 1002b69c     libucrt:lcidtoname_downlevel.obj
 0002:000066a8       ??_C@_1M@MPJEJAJC@?$AAs?$AAv?$AA?9?$AAs?$AAe?$AA?$AA@ 1002b6a8     libucrt:lcidtoname_downlevel.obj
 0002:000066b4       ??_C@_1M@MPNDHLFK@?$AAs?$AAw?$AA?9?$AAk?$AAe?$AA?$AA@ 1002b6b4     libucrt:lcidtoname_downlevel.obj
 0002:000066c0       ??_C@_1O@KOHBJJI@?$AAs?$AAy?$AAr?$AA?9?$AAs?$AAy?$AA?$AA@ 1002b6c0     libucrt:lcidtoname_downlevel.obj
 0002:000066d0       ??_C@_1M@LDCEFHA@?$AAt?$AAa?$AA?9?$AAi?$AAn?$AA?$AA@ 1002b6d0     libucrt:lcidtoname_downlevel.obj
 0002:000066dc       ??_C@_1M@CNJOFAK@?$AAt?$AAe?$AA?9?$AAi?$AAn?$AA?$AA@ 1002b6dc     libucrt:lcidtoname_downlevel.obj
 0002:000066e8       ??_C@_1M@GNAECACD@?$AAt?$AAh?$AA?9?$AAt?$AAh?$AA?$AA@ 1002b6e8     libucrt:lcidtoname_downlevel.obj
 0002:000066f4       ??_C@_1M@CHBIHOJO@?$AAt?$AAn?$AA?9?$AAz?$AAa?$AA?$AA@ 1002b6f4     libucrt:lcidtoname_downlevel.obj
 0002:00006700       ??_C@_1M@GCCMIGPJ@?$AAt?$AAr?$AA?9?$AAt?$AAr?$AA?$AA@ 1002b700     libucrt:lcidtoname_downlevel.obj
 0002:0000670c       ??_C@_1M@CELMCNBK@?$AAt?$AAt?$AA?9?$AAr?$AAu?$AA?$AA@ 1002b70c     libucrt:lcidtoname_downlevel.obj
 0002:00006718       ??_C@_1M@KLMCELGA@?$AAu?$AAk?$AA?9?$AAu?$AAa?$AA?$AA@ 1002b718     libucrt:lcidtoname_downlevel.obj
 0002:00006724       ??_C@_1M@EPAJJAJF@?$AAu?$AAr?$AA?9?$AAp?$AAk?$AA?$AA@ 1002b724     libucrt:lcidtoname_downlevel.obj
 0002:00006730       ??_C@_1BG@GEGPMCDJ@?$AAu?$AAz?$AA?9?$AAu?$AAz?$AA?9?$AAc?$AAy?$AAr?$AAl?$AA?$AA@ 1002b730     libucrt:lcidtoname_downlevel.obj
 0002:00006748       ??_C@_1BG@EGGKJILM@?$AAu?$AAz?$AA?9?$AAu?$AAz?$AA?9?$AAl?$AAa?$AAt?$AAn?$AA?$AA@ 1002b748     libucrt:lcidtoname_downlevel.obj
 0002:00006760       ??_C@_1M@GFOCLFF@?$AAv?$AAi?$AA?9?$AAv?$AAn?$AA?$AA@ 1002b760     libucrt:lcidtoname_downlevel.obj
 0002:0000676c       ??_C@_1M@CPAMEDFI@?$AAx?$AAh?$AA?9?$AAz?$AAa?$AA?$AA@ 1002b76c     libucrt:lcidtoname_downlevel.obj
 0002:00006778       ??_C@_1O@EBKIFIGN@?$AAz?$AAh?$AA?9?$AAc?$AAh?$AAs?$AA?$AA@ 1002b778     libucrt:lcidtoname_downlevel.obj
 0002:00006788       ??_C@_1O@NMHPGANE@?$AAz?$AAh?$AA?9?$AAc?$AAh?$AAt?$AA?$AA@ 1002b788     libucrt:lcidtoname_downlevel.obj
 0002:00006798       ??_C@_1M@LPINJOMC@?$AAz?$AAh?$AA?9?$AAc?$AAn?$AA?$AA@ 1002b798     libucrt:lcidtoname_downlevel.obj
 0002:000067a4       ??_C@_1M@OCJEJODD@?$AAz?$AAh?$AA?9?$AAh?$AAk?$AA?$AA@ 1002b7a4     libucrt:lcidtoname_downlevel.obj
 0002:000067b0       ??_C@_1M@DNDLJINH@?$AAz?$AAh?$AA?9?$AAm?$AAo?$AA?$AA@ 1002b7b0     libucrt:lcidtoname_downlevel.obj
 0002:000067bc       ??_C@_1M@MBFDNDND@?$AAz?$AAh?$AA?9?$AAs?$AAg?$AA?$AA@ 1002b7bc     libucrt:lcidtoname_downlevel.obj
 0002:000067c8       ??_C@_1M@IMEPLEPE@?$AAz?$AAh?$AA?9?$AAt?$AAw?$AA?$AA@ 1002b7c8     libucrt:lcidtoname_downlevel.obj
 0002:000067d4       ??_C@_1M@BBGHNHJP@?$AAz?$AAu?$AA?9?$AAz?$AAa?$AA?$AA@ 1002b7d4     libucrt:lcidtoname_downlevel.obj
 0002:00006940       __infinity                 1002b940     libucrt:87tran.obj
 0002:0000694a       __minfinity                1002b94a     libucrt:87tran.obj
 0002:00006954       __logemax                  1002b954     libucrt:87tran.obj
 0002:0000697a       __OP_EXPjmptab             1002b97a     libucrt:87tran.obj
 0002:000069a0       __indefinite               1002b9a0     libucrt:87disp.obj
 0002:000069aa       __piby2                    1002b9aa     libucrt:87disp.obj
 0002:000069b4       __piby4                    1002b9b4     libucrt:87disp.obj
 0002:000069e8       __DEFAULT_CW_in_mem        1002b9e8     libucrt:common.obj
 0002:000069ea       __pi_by_2_to_61            1002b9ea     libucrt:common.obj
 0002:00006a24       ??_C@_03MGHMBJCF@log?$AA@  1002ba24     libucrt:libm_error.obj
 0002:00006a28       ??_C@_05HGHHAHAP@log10?$AA@ 1002ba28     libucrt:libm_error.obj
 0002:00006a30       ??_C@_03KHJOGHMM@exp?$AA@  1002ba30     libucrt:libm_error.obj
 0002:00006a34       ??_C@_03JGHBODFD@pow?$AA@  1002ba34     libucrt:libm_error.obj
 0002:00006a38       ??_C@_04FIHNOPOL@asin?$AA@ 1002ba38     libucrt:libm_error.obj
 0002:00006a40       ??_C@_04PDIFKINK@acos?$AA@ 1002ba40     libucrt:libm_error.obj
 0002:00006a48       ??_C@_04EIAKFFMI@sqrt?$AA@ 1002ba48     libucrt:libm_error.obj
 0002:00006a50       __real@3ff0000000000000    1002ba50     libucrt:libm_error.obj
 0002:00006a70       ___acrt_log10_table_t      1002ba70     libucrt:log10_tables.obj
 0002:00006e80       ___acrt_log10_table_cb     1002be80     libucrt:log10_tables.obj
 0002:00007290       __real@3fe0000000000000    1002c290     libucrt:powhlp.obj
 0002:00007298       ??_C@_04FJHINJAO@tanh?$AA@ 1002c298     libucrt:fpexcept.obj
 0002:000072a0       ??_C@_04MLLJIGOK@atan?$AA@ 1002c2a0     libucrt:fpexcept.obj
 0002:000072a8       ??_C@_05KNGEOGJB@atan2?$AA@ 1002c2a8     libucrt:fpexcept.obj
 0002:000072b0       ??_C@_03BLEJJJBH@sin?$AA@  1002c2b0     libucrt:fpexcept.obj
 0002:000072b4       ??_C@_03LALBNOCG@cos?$AA@  1002c2b4     libucrt:fpexcept.obj
 0002:000072b8       ??_C@_03IIINPABG@tan?$AA@  1002c2b8     libucrt:fpexcept.obj
 0002:000072bc       ??_C@_04GFPJNGEK@ceil?$AA@ 1002c2bc     libucrt:fpexcept.obj
 0002:000072c4       ??_C@_05PBJFFIGL@floor?$AA@ 1002c2c4     libucrt:fpexcept.obj
 0002:000072cc       ??_C@_04ODHECPBC@fabs?$AA@ 1002c2cc     libucrt:fpexcept.obj
 0002:000072d4       ??_C@_04EHEDPDJG@modf?$AA@ 1002c2d4     libucrt:fpexcept.obj
 0002:000072dc       ??_C@_05CEJMAHNP@ldexp?$AA@ 1002c2dc     libucrt:fpexcept.obj
 0002:000072e4       ??_C@_05KBKMEMPO@_cabs?$AA@ 1002c2e4     libucrt:fpexcept.obj
 0002:000072ec       ??_C@_06MEIMCGCF@_hypot?$AA@ 1002c2ec     libucrt:fpexcept.obj
 0002:000072f4       ??_C@_04KEPJIHGP@fmod?$AA@ 1002c2f4     libucrt:fpexcept.obj
 0002:000072fc       ??_C@_05GKKHEGJL@frexp?$AA@ 1002c2fc     libucrt:fpexcept.obj
 0002:00007304       ??_C@_03MJLDFKDL@_y0?$AA@  1002c304     libucrt:fpexcept.obj
 0002:00007308       ??_C@_03NAKIGLHK@_y1?$AA@  1002c308     libucrt:fpexcept.obj
 0002:0000730c       ??_C@_03ONILCKOB@_yn?$AA@  1002c30c     libucrt:fpexcept.obj
 0002:00007310       ??_C@_05JGDBENOH@_logb?$AA@ 1002c310     libucrt:fpexcept.obj
 0002:00007318       ??_C@_0L@KDOEJCKC@_nextafter?$AA@ 1002c318     libucrt:fpexcept.obj
 0002:00007410       ??_C@_04COOMCNPB@sinh?$AA@ 1002c410     libucrt:fpexcept.obj
 0002:00007418       ??_C@_04HPJJNFIM@cosh?$AA@ 1002c418     libucrt:fpexcept.obj
 0002:00007420       __d_inf                    1002c420     libucrt:util.obj
 0002:00007428       __d_max                    1002c428     libucrt:util.obj
 0002:00007430       __d_mzero                  1002c430     libucrt:util.obj
 0002:00007438       ??_C@_1BA@BALFACEM@?$AAC?$AAO?$AAN?$AAO?$AAU?$AAT?$AA$?$AA?$AA@ 1002c438     libucrt:initcon.obj
 0002:000074a8       __load_config_used         1002c4a8     LIBCMT:loadcfg.obj
 0002:00007548       ??_R4CImgLoader@@6B@       1002c548     ImgCache.obj
 0002:0000755c       ??_R3CImgLoader@@8         1002c55c     ImgCache.obj
 0002:0000756c       ??_R2CImgLoader@@8         1002c56c     ImgCache.obj
 0002:00007578       ??_R1A@?0A@EA@CImgLoader@@8 1002c578     ImgCache.obj
 0002:00007594       ??_R1A@?0A@EA@?$CQueueProcessor@PAUIMAGE_CACHE_INFO@@@@8 1002c594     ImgCache.obj
 0002:000075b0       ??_R3?$CQueueProcessor@PAUIMAGE_CACHE_INFO@@@@8 1002c5b0     ImgCache.obj
 0002:000075c0       ??_R2?$CQueueProcessor@PAUIMAGE_CACHE_INFO@@@@8 1002c5c0     ImgCache.obj
 0002:000075c8       ??_R4?$CQueueProcessor@PAUIMAGE_CACHE_INFO@@@@6B@ 1002c5c8     ImgCache.obj
 0002:000075dc       ??_R4exception@stdext@@6B@ 1002c5dc     common-kernel32:MProcess.obj
 0002:000075f0       ??_R3exception@stdext@@8   1002c5f0     common-kernel32:MProcess.obj
 0002:00007600       ??_R2exception@stdext@@8   1002c600     common-kernel32:MProcess.obj
 0002:00007608       ??_R1A@?0A@EA@exception@stdext@@8 1002c608     common-kernel32:MProcess.obj
 0002:00007624       ??_R4bad_alloc@stdext@@6B@ 1002c624     common-kernel32:MProcess.obj
 0002:00007638       ??_R3bad_alloc@stdext@@8   1002c638     common-kernel32:MProcess.obj
 0002:00007648       ??_R2bad_alloc@stdext@@8   1002c648     common-kernel32:MProcess.obj
 0002:00007654       ??_R1A@?0A@EA@bad_alloc@stdext@@8 1002c654     common-kernel32:MProcess.obj
 0002:00007670       ??_R4MToolHelpProcess@@6B@ 1002c670     common-kernel32:MProcess.obj
 0002:00007684       ??_R3MToolHelpProcess@@8   1002c684     common-kernel32:MProcess.obj
 0002:00007694       ??_R2MToolHelpProcess@@8   1002c694     common-kernel32:MProcess.obj
 0002:000076a0       ??_R1A@?0A@EA@MToolHelpProcess@@8 1002c6a0     common-kernel32:MProcess.obj
 0002:000076bc       ??_R1A@?0A@EA@?$MToolHelp@UtagPROCESSENTRY32W@@$1?Process32FirstW@@YGHPAXPAU1@@Z$1?Process32NextW@@YGH01@Z@@8 1002c6bc     common-kernel32:MProcess.obj
 0002:000076d8       ??_R3?$MToolHelp@UtagPROCESSENTRY32W@@$1?Process32FirstW@@YGHPAXPAU1@@Z$1?Process32NextW@@YGH01@Z@@8 1002c6d8     common-kernel32:MProcess.obj
 0002:000076e8       ??_R2?$MToolHelp@UtagPROCESSENTRY32W@@$1?Process32FirstW@@YGHPAXPAU1@@Z$1?Process32NextW@@YGH01@Z@@8 1002c6e8     common-kernel32:MProcess.obj
 0002:000076f0       ??_R4?$MToolHelp@UtagPROCESSENTRY32W@@$1?Process32FirstW@@YGHPAXPAU1@@Z$1?Process32NextW@@YGH01@Z@@6B@ 1002c6f0     common-kernel32:MProcess.obj
 0002:00007704       ??_R3?$_Func_base@_NABUtagPROCESSENTRY32W@@@std@@8 1002c704     common-kernel32:MProcess.obj
 0002:00007714       ??_R2?$_Func_base@_NABUtagPROCESSENTRY32W@@@std@@8 1002c714     common-kernel32:MProcess.obj
 0002:0000771c       ??_R1A@?0A@EA@?$_Func_base@_NABUtagPROCESSENTRY32W@@@std@@8 1002c71c     common-kernel32:MProcess.obj
 0002:00007738       ??_R4?$_Func_impl_no_alloc@V<lambda_9e7323793ed24b1a5fadb4d27ba29021>@@_NABUtagPROCESSENTRY32W@@@std@@6B@ 1002c738     common-kernel32:MProcess.obj
 0002:0000774c       ??_R3?$_Func_impl_no_alloc@V<lambda_9e7323793ed24b1a5fadb4d27ba29021>@@_NABUtagPROCESSENTRY32W@@@std@@8 1002c74c     common-kernel32:MProcess.obj
 0002:0000775c       ??_R2?$_Func_impl_no_alloc@V<lambda_9e7323793ed24b1a5fadb4d27ba29021>@@_NABUtagPROCESSENTRY32W@@@std@@8 1002c75c     common-kernel32:MProcess.obj
 0002:00007768       ??_R1A@?0A@EA@?$_Func_impl_no_alloc@V<lambda_9e7323793ed24b1a5fadb4d27ba29021>@@_NABUtagPROCESSENTRY32W@@@std@@8 1002c768     common-kernel32:MProcess.obj
 0002:00007784       ??_R3?$_Func_base@XPAX@std@@8 1002c784     common-kernel32:WObjects.obj
 0002:00007794       ??_R2?$_Func_base@XPAX@std@@8 1002c794     common-kernel32:WObjects.obj
 0002:0000779c       ??_R1A@?0A@EA@?$_Func_base@XPAX@std@@8 1002c79c     common-kernel32:WObjects.obj
 0002:000077b8       ??_R4?$_Func_impl_no_alloc@P6GHPAX@ZXPAX@std@@6B@ 1002c7b8     common-kernel32:WObjects.obj
 0002:000077cc       ??_R3?$_Func_impl_no_alloc@P6GHPAX@ZXPAX@std@@8 1002c7cc     common-kernel32:WObjects.obj
 0002:000077dc       ??_R2?$_Func_impl_no_alloc@P6GHPAX@ZXPAX@std@@8 1002c7dc     common-kernel32:WObjects.obj
 0002:000077e8       ??_R1A@?0A@EA@?$_Func_impl_no_alloc@P6GHPAX@ZXPAX@std@@8 1002c7e8     common-kernel32:WObjects.obj
 0002:00007804       ??_R4exception@std@@6B@    1002c804     libcpmt:xthrow.obj
 0002:00007818       ??_R3exception@std@@8      1002c818     libcpmt:xthrow.obj
 0002:00007828       ??_R2exception@std@@8      1002c828     libcpmt:xthrow.obj
 0002:00007830       ??_R1A@?0A@EA@exception@std@@8 1002c830     libcpmt:xthrow.obj
 0002:0000784c       ??_R4logic_error@std@@6B@  1002c84c     libcpmt:xthrow.obj
 0002:00007860       ??_R3logic_error@std@@8    1002c860     libcpmt:xthrow.obj
 0002:00007870       ??_R2logic_error@std@@8    1002c870     libcpmt:xthrow.obj
 0002:0000787c       ??_R1A@?0A@EA@logic_error@std@@8 1002c87c     libcpmt:xthrow.obj
 0002:00007898       ??_R4length_error@std@@6B@ 1002c898     libcpmt:xthrow.obj
 0002:000078ac       ??_R3length_error@std@@8   1002c8ac     libcpmt:xthrow.obj
 0002:000078bc       ??_R2length_error@std@@8   1002c8bc     libcpmt:xthrow.obj
 0002:000078cc       ??_R1A@?0A@EA@length_error@std@@8 1002c8cc     libcpmt:xthrow.obj
 0002:000078e8       ??_R4bad_function_call@std@@6B@ 1002c8e8     libcpmt:xthrow.obj
 0002:000078fc       ??_R3bad_function_call@std@@8 1002c8fc     libcpmt:xthrow.obj
 0002:0000790c       ??_R2bad_function_call@std@@8 1002c90c     libcpmt:xthrow.obj
 0002:00007918       ??_R1A@?0A@EA@bad_function_call@std@@8 1002c918     libcpmt:xthrow.obj
 0002:00007934       ??_R4type_info@@6B@        1002c934     LIBCMT:std_type_info_static.obj
 0002:00007948       ??_R3type_info@@8          1002c948     LIBCMT:std_type_info_static.obj
 0002:00007958       ??_R2type_info@@8          1002c958     LIBCMT:std_type_info_static.obj
 0002:00007960       ??_R1A@?0A@EA@type_info@@8 1002c960     LIBCMT:std_type_info_static.obj
 0002:0000797c       ??_R4bad_exception@std@@6B@ 1002c97c     libvcruntime:frame.obj
 0002:00007990       ??_R3bad_exception@std@@8  1002c990     libvcruntime:frame.obj
 0002:000079a0       ??_R2bad_exception@std@@8  1002c9a0     libvcruntime:frame.obj
 0002:000079ac       ??_R1A@?0A@EA@bad_exception@std@@8 1002c9ac     libvcruntime:frame.obj
 0002:000079d0       ___safe_se_handler_table   1002c9d0     <linker-defined>
 0002:00007d28       ___rtc_iaa                 1002cd28     LIBCMT:initsect.obj
 0002:00007d2c       ___rtc_izz                 1002cd2c     LIBCMT:initsect.obj
 0002:00007d30       ___rtc_taa                 1002cd30     LIBCMT:initsect.obj
 0002:00007d34       ___rtc_tzz                 1002cd34     LIBCMT:initsect.obj
 0002:00007f80       __TI2?AVbad_alloc@stdext@@ 1002cf80     common-kernel32:MProcess.obj
 0002:00007f90       __CTA2?AVbad_alloc@stdext@@ 1002cf90     common-kernel32:MProcess.obj
 0002:00007f9c       __CT??_R0?AVbad_alloc@stdext@@@8??0bad_alloc@stdext@@QAE@ABV01@@Z8 1002cf9c     common-kernel32:MProcess.obj
 0002:00007fb8       __CT??_R0?AVexception@stdext@@@8??0exception@stdext@@QAE@ABV01@@Z8 1002cfb8     common-kernel32:MProcess.obj
 0002:00008040       __CT??_R0?AVexception@std@@@8??0exception@std@@QAE@ABV01@@Z12 1002d040     libcpmt:xthrow.obj
 0002:0000805c       __CT??_R0?AVlogic_error@std@@@8??0logic_error@std@@QAE@ABV01@@Z12 1002d05c     libcpmt:xthrow.obj
 0002:00008078       __TI3?AVlength_error@std@@ 1002d078     libcpmt:xthrow.obj
 0002:00008088       __CTA3?AVlength_error@std@@ 1002d088     libcpmt:xthrow.obj
 0002:00008098       __CT??_R0?AVlength_error@std@@@8??0length_error@std@@QAE@ABV01@@Z12 1002d098     libcpmt:xthrow.obj
 0002:000080b4       __TI2?AVbad_function_call@std@@ 1002d0b4     libcpmt:xthrow.obj
 0002:000080c4       __CTA2?AVbad_function_call@std@@ 1002d0c4     libcpmt:xthrow.obj
 0002:000080d0       __CT??_R0?AVbad_function_call@std@@@8??0bad_function_call@std@@QAE@ABV01@@Z12 1002d0d0     libcpmt:xthrow.obj
 0002:00008254       __TI2?AVbad_exception@std@@ 1002d254     libvcruntime:frame.obj
 0002:00008264       __CTA2?AVbad_exception@std@@ 1002d264     libvcruntime:frame.obj
 0002:00008270       __CT??_R0?AVbad_exception@std@@@8??0bad_exception@std@@QAE@ABV01@@Z12 1002d270     libvcruntime:frame.obj
 0002:00008708       __IMPORT_DESCRIPTOR_VERSION 1002d708     version:VERSION.dll
 0002:0000871c       __IMPORT_DESCRIPTOR_KERNEL32 1002d71c     kernel32:KERNEL32.dll
 0002:00008730       __IMPORT_DESCRIPTOR_USER32 1002d730     user32:USER32.dll
 0002:00008744       __IMPORT_DESCRIPTOR_GDI32  1002d744     gdi32:GDI32.dll
 0002:00008758       __IMPORT_DESCRIPTOR_ADVAPI32 1002d758     advapi32:ADVAPI32.dll
 0002:0000876c       __IMPORT_DESCRIPTOR_SHELL32 1002d76c     shell32:SHELL32.dll
 0002:00008780       __IMPORT_DESCRIPTOR_ole32  1002d780     ole32:ole32.dll
 0002:00008794       __NULL_IMPORT_DESCRIPTOR   1002d794     version:VERSION.dll
 0003:00000000       ?gbPreloadByDefault@@3HA   1002f000     ConEmuTh.obj
 0003:00000004       ?Far3Func@@3PAUExportFunc@@A 1002f004     ConEmuTh.obj
 0003:00000028       ?StdPalette@?1??GetStdPalette@Far3Color@@SAPBKXZ@4PAKA 1002f028     ConEmuTh1900.obj
 0003:00000068       ?guid_ConEmuTh@@3U_GUID@@A 1002f068     ConEmuTh2800.obj
 0003:00000078       ?guid_ConEmuThPluginMenu@@3U_GUID@@A 1002f078     ConEmuTh2800.obj
 0003:00000088       ?g_TerminatedThreadIdx@@3JA 1002f088     common-kernel32:WThreads.obj
 0003:00000090       ___security_cookie_complement 1002f090     LIBCMT:gs_cookie.obj
 0003:00000094       ___security_cookie         1002f094     LIBCMT:gs_cookie.obj
 0003:000000a0       ___scrt_native_dllmain_reason 1002f0a0     LIBCMT:utility.obj
 0003:000000a4       ___isa_enabled             1002f0a4     LIBCMT:cpu_disp.obj
 0003:000000c0       __NLG_Destination          1002f0c0     libvcruntime:exsup.obj
 0003:000000d8       ___abort_behavior          1002f0d8     libucrt:abort.obj
 0003:000000e8       __iob                      1002f0e8     libucrt:_file.obj
 0003:00000190       ___acrt_initial_locale_data 1002f190     libucrt:nlsdata.obj
 0003:00000248       ___acrt_initial_locale_pointers 1002f248     libucrt:nlsdata.obj
 0003:00000250       ___acrt_wide_c_locale_string 1002f250     libucrt:nlsdata.obj
 0003:00000254       __pwctype                  1002f254     libucrt:ctype.obj
 0003:00000350       __mbctype                  1002f350     libucrt:mbctype.obj
 0003:00000458       __mbcasemap                1002f458     libucrt:mbctype.obj
 0003:00000558       ___acrt_initial_multibyte_data 1002f558     libucrt:mbctype.obj
 0003:00000778       ___acrt_current_multibyte_data 1002f778     libucrt:mbctype.obj
 0003:0000077c       ___globallocalestatus      1002f77c     libucrt:glstatus.obj
 0003:00000780       ___acrt_lconv_static_decimal 1002f780     libucrt:localeconv.obj
 0003:00000784       ___acrt_lconv_static_W_decimal 1002f784     libucrt:localeconv.obj
 0003:00000788       ___acrt_lconv_c            1002f788     libucrt:localeconv.obj
 0003:000007e0       ___dcrt_lowio_console_output_handle 1002f7e0     libucrt:initcon.obj
 0003:000007f0       __fltused                  1002f7f0     LIBCMT:fltused.obj
 0003:000007f8       ??_R0?AVCImgLoader@@@8     1002f7f8     ImgCache.obj
 0003:00000814       ??_R0?AV?$CQueueProcessor@PAUIMAGE_CACHE_INFO@@@@@8 1002f814     ImgCache.obj
 0003:0000084c       ??_R0?AVbad_alloc@stdext@@@8 1002f84c     common-kernel32:MProcess.obj
 0003:0000086c       ??_R0?AVexception@stdext@@@8 1002f86c     common-kernel32:MProcess.obj
 0003:0000088c       ??_R0?AV<lambda_9e7323793ed24b1a5fadb4d27ba29021>@@@8 1002f88c     common-kernel32:MProcess.obj
 0003:000008c4       ??_R0?AVMToolHelpProcess@@@8 1002f8c4     common-kernel32:MProcess.obj
 0003:000008e8       ??_R0?AV?$MToolHelp@UtagPROCESSENTRY32W@@$1?Process32FirstW@@YGHPAXPAU1@@Z$1?Process32NextW@@YGH01@Z@@@8 1002f8e8     common-kernel32:MProcess.obj
 0003:00000954       ??_R0?AV?$_Func_base@_NABUtagPROCESSENTRY32W@@@std@@@8 1002f954     common-kernel32:MProcess.obj
 0003:00000990       ??_R0?AV?$_Func_impl_no_alloc@V<lambda_9e7323793ed24b1a5fadb4d27ba29021>@@_NABUtagPROCESSENTRY32W@@@std@@@8 1002f990     common-kernel32:MProcess.obj
 0003:00000a00       ??_R0P6GHPAX@Z@8           1002fa00     common-kernel32:WObjects.obj
 0003:00000a14       ??_R0?AV?$_Func_base@XPAX@std@@@8 1002fa14     common-kernel32:WObjects.obj
 0003:00000a38       ??_R0?AV?$_Func_impl_no_alloc@P6GHPAX@ZXPAX@std@@@8 1002fa38     common-kernel32:WObjects.obj
 0003:00000a70       ??_R0?AVexception@std@@@8  1002fa70     libcpmt:xthrow.obj
 0003:00000a8c       ??_R0?AVlogic_error@std@@@8 1002fa8c     libcpmt:xthrow.obj
 0003:00000aac       ??_R0?AVlength_error@std@@@8 1002faac     libcpmt:xthrow.obj
 0003:00000acc       ??_R0?AVbad_function_call@std@@@8 1002facc     libcpmt:xthrow.obj
 0003:00000af0       ??_R0?AVtype_info@@@8      1002faf0     LIBCMT:std_type_info_static.obj
 0003:00000b08       ??_R0?AVbad_exception@std@@@8 1002fb08     libvcruntime:frame.obj
 0003:00000b28       ?gpImgCache@@3PAVCImgCache@@A 1002fb28     ConEmuTh.obj
 0003:00000b2c       ?ghConEmuRoot@@3PAUHWND__@@A 1002fb2c     ConEmuTh.obj
 0003:00000b30       ?gThSet@@3UPanelViewSetMapping@@A 1002fb30     ConEmuTh.obj
 0003:00000d48       ?gThPal@@3UCESERVER_PALETTE@@A 1002fd48     ConEmuTh.obj
 0003:00000dc8       ?ghConEmuWnd@@3PAUHWND__@@A 1002fdc8     ConEmuTh.obj
 0003:00000dcc       ?ghPluginModule@@3PAUHINSTANCE__@@A 1002fdcc     ConEmuTh.obj
 0003:00000dd0       ?gnSelfPID@@3KA            1002fdd0     ConEmuTh.obj
 0003:00000dd4       ?gnMainThreadId@@3KA       1002fdd4     ConEmuTh.obj
 0003:00000dd8       ?gFarVersion@@3UFarVersion@@A 1002fdd8     ConEmuTh.obj
 0003:00000de4       ?ghDisplayThread@@3PAXA    1002fde4     ConEmuTh.obj
 0003:00000de8       ?pviLeft@@3UCeFullPanelInfo@@A 1002fde8     ConEmuTh.obj
 0003:00001050       ?pviRight@@3UCeFullPanelInfo@@A 10030050     ConEmuTh.obj
 0003:000012b8       ?gnDisplayThreadId@@3KA    100302b8     ConEmuTh.obj
 0003:000012bc       ?gnWaitForKeySeqTick@@3KA  100302bc     ConEmuTh.obj
 0003:000012c0       ?gFarPanelSettings@@3UCEFarPanelSettings@@A 100302c0     ConEmuTh.obj
 0003:000012c4       ?gFarInterfaceSettings@@3UCEFarInterfaceSettings@@A 100302c4     ConEmuTh.obj
 0003:000012c8       ?gsFolder@@3PA_WA          100302c8     ConEmuTh.obj
 0003:00001348       ?gsSymLink@@3PA_WA         10030348     ConEmuTh.obj
 0003:000013c8       ?gsJunction@@3PA_WA        100303c8     ConEmuTh.obj
 0003:00001448       ?gsTitleThumbs@@3PA_WA     10030448     ConEmuTh.obj
 0003:000014c8       ?gsTitleTiles@@3PA_WA      100304c8     ConEmuTh.obj
 0003:00001548       ?gbFarPanelsReady@@3_NA    10030548     ConEmuTh.obj
 0003:00001549       ?gbSynchoRedrawPanelRequested@@3_NA 10030549     ConEmuTh.obj
 0003:0000154a       ?gbFadeColors@@3_NA        1003054a     ConEmuTh.obj
 0003:0000154b       ?gbConsoleChangesSyncho@@3_NA 1003054b     ConEmuTh.obj
 0003:0000154c       ?gpRgnDetect@@3PAVCRgnDetect@@A 1003054c     ConEmuTh.obj
 0003:00001550       ?gFarInfo@@3UCEFAR_INFO_MAPPING@@A 10030550     ConEmuTh.obj
 0003:00021888       ?gnRgnDetectFlags@@3KA     10050888     ConEmuTh.obj
 0003:0002188c       ?gpLastSynchroArg@@3PAUConEmuThSynchroArg@@A 1005088c     ConEmuTh.obj
 0003:00021890       ?gfRegisterPanelView@@3P6GHPAUPanelViewInit@@@ZA 10050890     ConEmuTh.obj
 0003:00021894       ?gfGetFarHWND2@@3P6GPAUHWND__@@H@ZA 10050894     ConEmuTh.obj
 0003:00021898       ?gdwModes@@3PAKA           10050898     ConEmuTh.obj
 0003:000218a0       ?TerminalMode@@3HA         100508a0     ConEmuTh.obj
 0003:000218a4       ?gnMainThreadIdInitial@@3KA 100508a4     ConEmuTh.obj
 0003:000218a8       ?gcrCurColors@@3V?$array@K$0BA@@std@@A 100508a8     ConEmuTh.obj
 0003:000218e8       ?gsHardLink@@3PA_WA        100508e8     ConEmuTh.obj
 0003:00021968       ?wScanCodeUp@@3GA          10050968     ConEmuTh.obj
 0003:0002196c       ?wScanCodeDown@@3GA        1005096c     ConEmuTh.obj
 0003:00021970       ?gnConsoleChanges@@3KA     10050970     ConEmuTh.obj
 0003:00021974       ?gpDbgDlg@@3PAV?$MFileMapping@Utag_DetectedDialog@@@@A 10050974     ConEmuTh.obj
 0003:00021978       ?gbInfoW_OK@@3HA           10050978     ConEmuTh.obj
 0003:00021980       ?_OptionsStorage@?1??__local_stdio_printf_options@@9@4_KA 10050980     ConEmuTh.obj
 0003:0002198c       ?InfoW1900@@3PAUPluginStartupInfo@@A 1005098c     ConEmuTh1900.obj
 0003:00021990       ?FSFW1900@@3PAUFarStandardFunctions@@A 10050990     ConEmuTh1900.obj
 0003:00021994       ?LastColor@?1??Color2FgIndex@Far3Color@@SAXKAAGPBK@Z@4KA 10050994     ConEmuTh1900.obj
 0003:00021998       ?LastIndex@?1??Color2FgIndex@Far3Color@@SAXKAAGPBK@Z@4HA 10050998     ConEmuTh1900.obj
 0003:0002199c       ?LastColor@?1??Color2BgIndex@Far3Color@@SAXKHAAGPBK@Z@4KA 1005099c     ConEmuTh1900.obj
 0003:000219a0       ?LastIndex@?1??Color2BgIndex@Far3Color@@SAXKHAAGPBK@Z@4HA 100509a0     ConEmuTh1900.obj
 0003:00021ba8       ?InfoW2800@@3PAUPluginStartupInfo@@A 10050ba8     ConEmuTh2800.obj
 0003:00021bac       ?FSFW2800@@3PAUFarStandardFunctions@@A 10050bac     ConEmuTh2800.obj
 0003:00021db8       ?InfoW995@@3PAUPluginStartupInfo@@A 10050db8     ConEmuTh995.obj
 0003:00021dbc       ?FSFW995@@3PAUFarStandardFunctions@@A 10050dbc     ConEmuTh995.obj
 0003:00021fc8       ?InfoA@@3PAUPluginStartupInfo@@A 10050fc8     ConEmuThA.obj
 0003:00021fcc       ?FSFA@@3PAUFarStandardFunctions@@A 10050fcc     ConEmuThA.obj
 0003:000220d8       ?gbCancelAll@@3HA          100510d8     Display.obj
 0003:000220dc       ?gnCreateViewError@@3HA    100510dc     Display.obj
 0003:000220e0       ?gnWin32Error@@3KA         100510e0     Display.obj
 0003:000220e4       ?ghCreateEvent@@3PAXA      100510e4     Display.obj
 0003:000220e8       ?gnConEmuFadeMsg@@3IA      100510e8     Display.obj
 0003:000220ec       ?gnConEmuSettingsMsg@@3IA  100510ec     Display.obj
 0003:000220f0       ?gnMapCoordMsg@@3IA        100510f0     Display.obj
 0003:000220f8       ?ghUpIcon@@3PAUHICON__@@A  100510f8     ImgCache.obj
 0003:000220fc       ?g_LastDeletePtr@@3PAXA    100510fc     common-kernel32:Memory.obj
 0003:00022100       ?ghHeap@?A0x8f3601b8@@3PAXA 10051100     common-kernel32:Memory.obj
 0003:0002210c       ?gbInCommonShutdown@@3HA   1005110c     common-kernel32:Common.obj
 0003:00022110       ?gNullDesc@@3PAVMNullDesc@@A 10051110     common-kernel32:MSecurity.obj
 0003:00022114       ?gpLocalSecurity@@3PAU_SECURITY_ATTRIBUTES@@A 10051114     common-kernel32:ConEmuCheck.obj
 0003:00022118       ?ghWorkingModule@@3UHANDLE2@@A 10051118     common-kernel32:ConEmuCheck.obj
 0003:00022120       ?gfGetRealConsoleWindow@@3P6GPAUHWND__@@XZA 10051120     common-kernel32:ConEmuCheck.obj
 0003:0002216c       ?hkFunc@@3UHkFunc@@A       1005116c     common-kernel32:HkFunc.obj
 0003:00022170       ?g_ThreadsIdx@@3JA         10051170     common-kernel32:WThreads.obj
 0003:00029978       ?gfnSearchAppPaths@@3P6A_NPB_WAAUCEStr@@_NPAVCEnvRestorer@@@ZA 10058978     common-kernel32:WObjects.obj
 0003:00029cb0       ?__type_info_root_node@@3U__type_info_node@@A 10058cb0     LIBCMT:tncleanup.obj
 0003:00029cb8       ?_OptionsStorage@?1??__local_stdio_scanf_options@@9@4_KA 10058cb8     LIBCMT:default_local_stdio_options.obj
 0003:00029cc0       ___scrt_current_native_startup_state 10058cc0     LIBCMT:utility.obj
 0003:00029cc4       ___scrt_native_startup_lock 10058cc4     LIBCMT:utility.obj
 0003:00029ce4       ___scrt_debugger_hook_flag 10058ce4     LIBCMT:utility_desktop.obj
 0003:00029ce8       ___isa_available           10058ce8     LIBCMT:cpu_disp.obj
 0003:00029cec       ___favor                   10058cec     LIBCMT:cpu_disp.obj
 0003:00029d18       ?pArgList@UnDecorator@@0PAVReplicator@@A 10058d18     libvcruntime:undname.obj
 0003:00029d1c       ?pZNameList@UnDecorator@@0PAVReplicator@@A 10058d1c     libvcruntime:undname.obj
 0003:00029d20       ?pTemplateArgList@UnDecorator@@0PAVReplicator@@A 10058d20     libvcruntime:undname.obj
 0003:00029d24       ?gName@UnDecorator@@0PBDB  10058d24     libvcruntime:undname.obj
 0003:00029d28       ?name@UnDecorator@@0PBDB   10058d28     libvcruntime:undname.obj
 0003:00029d2c       ?disableFlags@UnDecorator@@0KA 10058d2c     libvcruntime:undname.obj
 0003:00029d30       ?fExplicitTemplateParams@UnDecorator@@0_NA 10058d30     libvcruntime:undname.obj
 0003:00029d31       ?fGetTemplateArgumentList@UnDecorator@@0_NA 10058d31     libvcruntime:undname.obj
 0003:00029d34       ?m_pGetParameter@UnDecorator@@0P6APADJ@ZA 10058d34     libvcruntime:undname.obj
 0003:00029d38       ?m_CHPENameOffset@UnDecorator@@0KA 10058d38     libvcruntime:undname.obj
 0003:00029d3c       ?m_recursionLevel@UnDecorator@@0KA 10058d3c     libvcruntime:undname.obj
 0003:00029d90       ___pPurecall               10058d90     libvcruntime:purevirt_data.obj
 0003:00029d94       ?__WinRTOutOfMemoryExceptionCallback@@3P6GPAXXZA 10058d94     libvcruntime:ehhelpers.obj
 0003:00029eb0       __environ_table            10058eb0     libucrt:environment_initialization.obj
 0003:00029eb4       __wenviron_table           10058eb4     libucrt:environment_initialization.obj
 0003:00029eb8       ___dcrt_initial_wide_environment 10058eb8     libucrt:environment_initialization.obj
 0003:00029ebc       ___dcrt_initial_narrow_environment 10058ebc     libucrt:environment_initialization.obj
 0003:00029ec0       ___acrt_atexit_table       10058ec0     libucrt:onexit.obj
 0003:00029ecc       ___acrt_at_quick_exit_table 10058ecc     libucrt:onexit.obj
 0003:00029ed8       __nstream                  10058ed8     libucrt:_file.obj
 0003:00029edc       ___piob                    10058edc     libucrt:_file.obj
 0003:00029ee4       ___acrt_stdout_buffer      10058ee4     libucrt:_sftbuf.obj
 0003:00029ee8       ___acrt_stderr_buffer      10058ee8     libucrt:_sftbuf.obj
 0003:00029eec       ___acrt_locale_changed_data 10058eec     libucrt:wsetlocale.obj
 0003:00029ef0       ___acrt_current_locale_data 10058ef0     libucrt:nlsdata.obj
 0003:00029ef8       ___pioinfo                 10058ef8     libucrt:ioinit.obj
 0003:0002a0f8       __nhandle                  100590f8     libucrt:ioinit.obj
 0003:0002a314       ___mblocalename            10059314     libucrt:mbctype.obj
 0003:0002a318       ___mbcodepage              10059318     libucrt:mbctype.obj
 0003:0002a31c       ___ismbcodepage            1005931c     libucrt:mbctype.obj
 0003:0002a320       ___mbulinfo                10059320     libucrt:mbctype.obj
 0003:0002a334       ___argc                    10059334     libucrt:argv_data.obj
 0003:0002a338       ___argv                    10059338     libucrt:argv_data.obj
 0003:0002a33c       ___wargv                   1005933c     libucrt:argv_data.obj
 0003:0002a340       __acmdln                   10059340     libucrt:argv_data.obj
 0003:0002a344       __wcmdln                   10059344     libucrt:argv_data.obj
 0003:0002a348       __pgmptr                   10059348     libucrt:argv_data.obj
 0003:0002a34c       ___acrt_heap               1005934c     libucrt:heap_handle.obj
 0003:0002a36c       ___acrt_lconv_static_null  1005936c     libucrt:localeconv.obj
 0003:0002a370       ___acrt_lconv_static_W_null 10059370     libucrt:localeconv.obj
 0003:0002a378       ___fastflag                10059378     libucrt:fp_flags.obj
 0003:0002a380       ___scrt_ucrt_dll_is_in_use 10059380     <common>
 0003:0002a384       ___dyn_tls_init_callback   10059384     <common>
 0003:0002a388       __pmatherr                 10059388     <common>
 0003:0002a38c       ___use_sse2_mathfcns       1005938c     <common>

 entry point at        0001:000115fd

 Static symbols

 0000:fffa1000       .debug$S                   10000000     user32:USER32.dll
 0000:fffa1000       .debug$S                   10000000     kernel32:KERNEL32.dll
 0000:fffa1000       .debug$S                   10000000     kernel32:KERNEL32.dll
 0000:fffa1000       .debug$S                   10000000     kernel32:KERNEL32.dll
 0000:fffa1000       .debug$S                   10000000     user32:USER32.dll
 0000:fffa1000       .debug$S                   10000000     user32:USER32.dll
 0000:fffa1000       .debug$S                   10000000     user32:USER32.dll
 0000:fffa1000       .debug$S                   10000000     user32:USER32.dll
 0000:fffa1000       .debug$S                   10000000     user32:USER32.dll
 0000:fffa1000       .debug$S                   10000000     user32:USER32.dll
 0000:fffa1000       .debug$S                   10000000     user32:USER32.dll
 0000:fffa1000       .debug$S                   10000000     user32:USER32.dll
 0000:fffa1000       .debug$S                   10000000     user32:USER32.dll
 0000:fffa1000       .debug$S                   10000000     user32:USER32.dll
 0000:fffa1000       .debug$S                   10000000     user32:USER32.dll
 0000:fffa1000       .debug$S                   10000000     user32:USER32.dll
 0000:fffa1000       .debug$S                   10000000     user32:USER32.dll
 0000:fffa1000       .debug$S                   10000000     user32:USER32.dll
 0000:fffa1000       .debug$S                   10000000     user32:USER32.dll
 0000:fffa1000       .debug$S                   10000000     gdi32:GDI32.dll
 0000:fffa1000       .debug$S                   10000000     gdi32:GDI32.dll
 0000:fffa1000       .debug$S                   10000000     ConEmuTh.exp
 0000:fffa1000       .debug$S                   10000000     gdi32:GDI32.dll
 0000:fffa1000       .debug$S                   10000000     gdi32:GDI32.dll
 0000:fffa1000       .debug$S                   10000000     gdi32:GDI32.dll
 0000:fffa1000       .debug$S                   10000000     gdi32:GDI32.dll
 0000:fffa1000       .debug$S                   10000000     gdi32:GDI32.dll
 0000:fffa1000       .debug$S                   10000000     gdi32:GDI32.dll
 0000:fffa1000       .debug$S                   10000000     gdi32:GDI32.dll
 0000:fffa1000       .debug$S                   10000000     gdi32:GDI32.dll
 0000:fffa1000       .debug$S                   10000000     gdi32:GDI32.dll
 0000:fffa1000       .debug$S                   10000000     gdi32:GDI32.dll
 0000:fffa1000       .debug$S                   10000000     advapi32:ADVAPI32.dll
 0000:fffa1000       .debug$S                   10000000     advapi32:ADVAPI32.dll
 0000:fffa1000       .debug$S                   10000000     advapi32:ADVAPI32.dll
 0000:fffa1000       .debug$S                   10000000     advapi32:ADVAPI32.dll
 0000:fffa1000       .debug$S                   10000000     advapi32:ADVAPI32.dll
 0000:fffa1000       .debug$S                   10000000     advapi32:ADVAPI32.dll
 0000:fffa1000       .debug$S                   10000000     advapi32:ADVAPI32.dll
 0000:fffa1000       .debug$S                   10000000     advapi32:ADVAPI32.dll
 0000:fffa1000       .debug$S                   10000000     advapi32:ADVAPI32.dll
 0000:fffa1000       .debug$S                   10000000     advapi32:ADVAPI32.dll
 0000:fffa1000       .debug$S                   10000000     user32:USER32.dll
 0000:fffa1000       .debug$S                   10000000     user32:USER32.dll
 0000:fffa1000       .debug$S                   10000000     user32:USER32.dll
 0000:fffa1000       .debug$S                   10000000     user32:USER32.dll
 0000:fffa1000       .debug$S                   10000000     user32:USER32.dll
 0000:fffa1000       .debug$S                   10000000     user32:USER32.dll
 0000:fffa1000       .debug$S                   10000000     user32:USER32.dll
 0000:fffa1000       .debug$S                   10000000     user32:USER32.dll
 0000:fffa1000       .debug$S                   10000000     kernel32:KERNEL32.dll
 0000:fffa1000       .debug$S                   10000000     kernel32:KERNEL32.dll
 0000:fffa1000       .debug$S                   10000000     kernel32:KERNEL32.dll
 0000:fffa1000       .debug$S                   10000000     kernel32:KERNEL32.dll
 0000:fffa1000       .debug$S                   10000000     kernel32:KERNEL32.dll
 0000:fffa1000       .debug$S                   10000000     kernel32:KERNEL32.dll
 0000:fffa1000       .debug$S                   10000000     kernel32:KERNEL32.dll
 0000:fffa1000       .debug$S                   10000000     kernel32:KERNEL32.dll
 0000:fffa1000       .debug$S                   10000000     kernel32:KERNEL32.dll
 0000:fffa1000       .debug$S                   10000000     kernel32:KERNEL32.dll
 0000:fffa1000       .debug$S                   10000000     kernel32:KERNEL32.dll
 0000:fffa1000       .debug$S                   10000000     kernel32:KERNEL32.dll
 0000:fffa1000       .debug$S                   10000000     kernel32:KERNEL32.dll
 0000:fffa1000       .debug$S                   10000000     kernel32:KERNEL32.dll
 0000:fffa1000       .debug$S                   10000000     kernel32:KERNEL32.dll
 0000:fffa1000       .debug$S                   10000000     kernel32:KERNEL32.dll
 0000:fffa1000       .debug$S                   10000000     kernel32:KERNEL32.dll
 0000:fffa1000       .debug$S                   10000000     kernel32:KERNEL32.dll
 0000:fffa1000       .debug$S                   10000000     kernel32:KERNEL32.dll
 0000:fffa1000       .debug$S                   10000000     kernel32:KERNEL32.dll
 0000:fffa1000       .debug$S                   10000000     kernel32:KERNEL32.dll
 0000:fffa1000       .debug$S                   10000000     kernel32:KERNEL32.dll
 0000:fffa1000       .debug$S                   10000000     kernel32:KERNEL32.dll
 0000:fffa1000       .debug$S                   10000000     kernel32:KERNEL32.dll
 0000:fffa1000       .debug$S                   10000000     kernel32:KERNEL32.dll
 0000:fffa1000       .debug$S                   10000000     kernel32:KERNEL32.dll
 0000:fffa1000       .debug$S                   10000000     kernel32:KERNEL32.dll
 0000:fffa1000       .debug$S                   10000000     kernel32:KERNEL32.dll
 0000:fffa1000       .debug$S                   10000000     kernel32:KERNEL32.dll
 0000:fffa1000       .debug$S                   10000000     kernel32:KERNEL32.dll
 0000:fffa1000       .debug$S                   10000000     kernel32:KERNEL32.dll
 0000:fffa1000       .debug$S                   10000000     kernel32:KERNEL32.dll
 0000:fffa1000       .debug$S                   10000000     kernel32:KERNEL32.dll
 0000:fffa1000       .debug$S                   10000000     kernel32:KERNEL32.dll
 0000:fffa1000       .debug$S                   10000000     kernel32:KERNEL32.dll
 0000:fffa1000       .debug$S                   10000000     kernel32:KERNEL32.dll
 0000:fffa1000       .debug$S                   10000000     kernel32:KERNEL32.dll
 0000:fffa1000       .debug$S                   10000000     kernel32:KERNEL32.dll
 0000:fffa1000       .debug$S                   10000000     kernel32:KERNEL32.dll
 0000:fffa1000       .debug$S                   10000000     kernel32:KERNEL32.dll
 0000:fffa1000       .debug$S                   10000000     kernel32:KERNEL32.dll
 0000:fffa1000       .debug$S                   10000000     kernel32:KERNEL32.dll
 0000:fffa1000       .debug$S                   10000000     kernel32:KERNEL32.dll
 0000:fffa1000       .debug$S                   10000000     kernel32:KERNEL32.dll
 0000:fffa1000       .debug$S                   10000000     kernel32:KERNEL32.dll
 0000:fffa1000       .debug$S                   10000000     kernel32:KERNEL32.dll
 0000:fffa1000       .debug$S                   10000000     kernel32:KERNEL32.dll
 0000:fffa1000       .debug$S                   10000000     kernel32:KERNEL32.dll
 0000:fffa1000       .debug$S                   10000000     kernel32:KERNEL32.dll
 0000:fffa1000       .debug$S                   10000000     kernel32:KERNEL32.dll
 0000:fffa1000       .debug$S                   10000000     kernel32:KERNEL32.dll
 0000:fffa1000       .debug$S                   10000000     kernel32:KERNEL32.dll
 0000:fffa1000       .debug$S                   10000000     kernel32:KERNEL32.dll
 0000:fffa1000       .debug$S                   10000000     kernel32:KERNEL32.dll
 0000:fffa1000       .debug$S                   10000000     kernel32:KERNEL32.dll
 0000:fffa1000       .debug$S                   10000000     kernel32:KERNEL32.dll
 0000:fffa1000       .debug$S                   10000000     kernel32:KERNEL32.dll
 0000:fffa1000       .debug$S                   10000000     kernel32:KERNEL32.dll
 0000:fffa1000       .debug$S                   10000000     kernel32:KERNEL32.dll
 0000:fffa1000       .debug$S                   10000000     kernel32:KERNEL32.dll
 0000:fffa1000       .debug$S                   10000000     kernel32:KERNEL32.dll
 0000:fffa1000       .debug$S                   10000000     kernel32:KERNEL32.dll
 0000:fffa1000       .debug$S                   10000000     kernel32:KERNEL32.dll
 0000:fffa1000       .debug$S                   10000000     kernel32:KERNEL32.dll
 0000:fffa1000       .debug$S                   10000000     kernel32:KERNEL32.dll
 0000:fffa1000       .debug$S                   10000000     kernel32:KERNEL32.dll
 0000:fffa1000       .debug$S                   10000000     kernel32:KERNEL32.dll
 0000:fffa1000       .debug$S                   10000000     kernel32:KERNEL32.dll
 0000:fffa1000       .debug$S                   10000000     kernel32:KERNEL32.dll
 0000:fffa1000       .debug$S                   10000000     kernel32:KERNEL32.dll
 0000:fffa1000       .debug$S                   10000000     kernel32:KERNEL32.dll
 0000:fffa1000       .debug$S                   10000000     kernel32:KERNEL32.dll
 0000:fffa1000       .debug$S                   10000000     kernel32:KERNEL32.dll
 0000:fffa1000       .debug$S                   10000000     kernel32:KERNEL32.dll
 0000:fffa1000       .debug$S                   10000000     kernel32:KERNEL32.dll
 0000:fffa1000       .debug$S                   10000000     kernel32:KERNEL32.dll
 0000:fffa1000       .debug$S                   10000000     kernel32:KERNEL32.dll
 0000:fffa1000       .debug$S                   10000000     kernel32:KERNEL32.dll
 0000:fffa1000       .debug$S                   10000000     kernel32:KERNEL32.dll
 0000:fffa1000       .debug$S                   10000000     kernel32:KERNEL32.dll
 0000:fffa1000       .debug$S                   10000000     kernel32:KERNEL32.dll
 0000:fffa1000       .debug$S                   10000000     kernel32:KERNEL32.dll
 0000:fffa1000       .debug$S                   10000000     kernel32:KERNEL32.dll
 0000:fffa1000       .debug$S                   10000000     kernel32:KERNEL32.dll
 0000:fffa1000       .debug$S                   10000000     kernel32:KERNEL32.dll
 0000:fffa1000       .debug$S                   10000000     kernel32:KERNEL32.dll
 0000:fffa1000       .debug$S                   10000000     kernel32:KERNEL32.dll
 0000:fffa1000       .debug$S                   10000000     kernel32:KERNEL32.dll
 0000:fffa1000       .debug$S                   10000000     kernel32:KERNEL32.dll
 0000:fffa1000       .debug$S                   10000000     kernel32:KERNEL32.dll
 0000:fffa1000       .debug$S                   10000000     kernel32:KERNEL32.dll
 0000:fffa1000       .debug$S                   10000000     kernel32:KERNEL32.dll
 0000:fffa1000       .debug$S                   10000000     kernel32:KERNEL32.dll
 0000:fffa1000       .debug$S                   10000000     kernel32:KERNEL32.dll
 0000:fffa1000       .debug$S                   10000000     kernel32:KERNEL32.dll
 0000:fffa1000       .debug$S                   10000000     kernel32:KERNEL32.dll
 0000:fffa1000       .debug$S                   10000000     kernel32:KERNEL32.dll
 0000:fffa1000       .debug$S                   10000000     kernel32:KERNEL32.dll
 0000:fffa1000       .debug$S                   10000000     kernel32:KERNEL32.dll
 0000:fffa1000       .debug$S                   10000000     kernel32:KERNEL32.dll
 0000:fffa1000       .debug$S                   10000000     kernel32:KERNEL32.dll
 0000:fffa1000       .debug$S                   10000000     kernel32:KERNEL32.dll
 0000:fffa1000       .debug$S                   10000000     kernel32:KERNEL32.dll
 0000:fffa1000       .debug$S                   10000000     kernel32:KERNEL32.dll
 0000:fffa1000       .debug$S                   10000000     kernel32:KERNEL32.dll
 0000:fffa1000       .debug$S                   10000000     kernel32:KERNEL32.dll
 0000:fffa1000       .debug$S                   10000000     kernel32:KERNEL32.dll
 0000:fffa1000       .debug$S                   10000000     gdi32:GDI32.dll
 0000:fffa1000       .debug$S                   10000000     gdi32:GDI32.dll
 0000:fffa1000       .debug$S                   10000000     gdi32:GDI32.dll
 0000:fffa1000       .debug$S                   10000000     gdi32:GDI32.dll
 0000:fffa1000       .debug$S                   10000000     gdi32:GDI32.dll
 0000:fffa1000       .debug$S                   10000000     kernel32:KERNEL32.dll
 0000:fffa1000       .debug$S                   10000000     gdi32:GDI32.dll
 0000:fffa1000       .debug$S                   10000000     gdi32:GDI32.dll
 0000:fffa1000       .debug$S                   10000000     gdi32:GDI32.dll
 0000:fffa1000       .debug$S                   10000000     gdi32:GDI32.dll
 0000:fffa1000       .debug$S                   10000000     user32:USER32.dll
 0000:fffa1000       .debug$S                   10000000     advapi32:ADVAPI32.dll
 0000:fffa1000       .debug$S                   10000000     advapi32:ADVAPI32.dll
 0000:fffa1000       .debug$S                   10000000     advapi32:ADVAPI32.dll
 0000:fffa1000       .debug$S                   10000000     advapi32:ADVAPI32.dll
 0000:fffa1000       .debug$S                   10000000     advapi32:ADVAPI32.dll
 0000:fffa1000       .debug$S                   10000000     user32:USER32.dll
 0000:fffa1000       .debug$S                   10000000     shell32:SHELL32.dll
 0000:fffa1000       .debug$S                   10000000     user32:USER32.dll
 0000:fffa1000       .debug$S                   10000000     ole32:ole32.dll
 0000:fffa1000       .debug$S                   10000000     ole32:ole32.dll
 0000:fffa1000       .debug$S                   10000000     user32:USER32.dll
 0000:fffa1000       .debug$S                   10000000     user32:USER32.dll
 0000:fffa1000       .debug$S                   10000000     user32:USER32.dll
 0000:fffa1000       .debug$S                   10000000     user32:USER32.dll
 0000:fffa1000       .debug$S                   10000000     user32:USER32.dll
 0000:fffa1000       .debug$S                   10000000     user32:USER32.dll
 0000:fffa1000       .debug$S                   10000000     user32:USER32.dll
 0000:fffa1000       .debug$S                   10000000     user32:USER32.dll
 0000:fffa1000       .debug$S                   10000000     user32:USER32.dll
 0000:fffa1000       .debug$S                   10000000     user32:USER32.dll
 0000:fffa1000       .debug$S                   10000000     user32:USER32.dll
 0000:fffa1000       .debug$S                   10000000     user32:USER32.dll
 0000:fffa1000       .debug$S                   10000000     user32:USER32.dll
 0000:fffa1000       .debug$S                   10000000     user32:USER32.dll
 0000:fffa1000       .debug$S                   10000000     user32:USER32.dll
 0000:fffa1000       .debug$S                   10000000     user32:USER32.dll
 0000:fffa1000       .debug$S                   10000000     user32:USER32.dll
 0000:fffa1000       .debug$S                   10000000     user32:USER32.dll
 0000:fffa1000       .debug$S                   10000000     user32:USER32.dll
 0000:fffa1000       .debug$S                   10000000     kernel32:KERNEL32.dll
 0000:fffa1000       .debug$S                   10000000     kernel32:KERNEL32.dll
 0000:fffa1000       .debug$S                   10000000     kernel32:KERNEL32.dll
 0000:fffa1000       .debug$S                   10000000     kernel32:KERNEL32.dll
 0000:fffa1000       .debug$S                   10000000     kernel32:KERNEL32.dll
 0000:fffa1000       .debug$S                   10000000     kernel32:KERNEL32.dll
 0000:fffa1000       .debug$S                   10000000     kernel32:KERNEL32.dll
 0000:fffa1000       .debug$S                   10000000     kernel32:KERNEL32.dll
 0000:fffa1000       .debug$S                   10000000     kernel32:KERNEL32.dll
 0000:fffa1000       .debug$S                   10000000     kernel32:KERNEL32.dll
 0000:fffa1000       .debug$S                   10000000     kernel32:KERNEL32.dll
 0000:fffa1000       .debug$S                   10000000     kernel32:KERNEL32.dll
 0000:fffa1000       .debug$S                   10000000     kernel32:KERNEL32.dll
 0000:fffa1000       .debug$S                   10000000     kernel32:KERNEL32.dll
 0000:fffa1000       .debug$S                   10000000     kernel32:KERNEL32.dll
 0000:fffa1000       .debug$S                   10000000     kernel32:KERNEL32.dll
 0000:fffa1000       .debug$S                   10000000     kernel32:KERNEL32.dll
 0000:fffa1000       .debug$S                   10000000     kernel32:KERNEL32.dll
 0000:fffa1000       .debug$S                   10000000     kernel32:KERNEL32.dll
 0000:fffa1000       .debug$S                   10000000     kernel32:KERNEL32.dll
 0000:fffa1000       .debug$S                   10000000     kernel32:KERNEL32.dll
 0000:fffa1000       .debug$S                   10000000     kernel32:KERNEL32.dll
 0000:fffa1000       .debug$S                   10000000     kernel32:KERNEL32.dll
 0000:fffa1000       .debug$S                   10000000     kernel32:KERNEL32.dll
 0000:fffa1000       .debug$S                   10000000     kernel32:KERNEL32.dll
 0000:fffa1000       .debug$S                   10000000     kernel32:KERNEL32.dll
 0000:fffa1000       .debug$S                   10000000     kernel32:KERNEL32.dll
 0000:fffa1000       .debug$S                   10000000     kernel32:KERNEL32.dll
 0000:fffa1000       .debug$S                   10000000     kernel32:KERNEL32.dll
 0000:fffa1000       .debug$S                   10000000     version:VERSION.dll
 0000:fffa1000       .debug$S                   10000000     kernel32:KERNEL32.dll
 0000:fffa1000       .debug$S                   10000000     version:VERSION.dll
 0000:fffa1000       .debug$S                   10000000     kernel32:KERNEL32.dll
 0000:fffa1000       .debug$S                   10000000     version:VERSION.dll
 0000:fffa1000       .debug$S                   10000000     kernel32:KERNEL32.dll
 0000:fffa1000       .debug$S                   10000000     kernel32:KERNEL32.dll
 0000:fffa1000       .debug$S                   10000000     kernel32:KERNEL32.dll
 0000:fffa1000       .debug$S                   10000000     kernel32:KERNEL32.dll
 0000:fffa1000       .debug$S                   10000000     kernel32:KERNEL32.dll
 0000:fffa1000       .debug$S                   10000000     kernel32:KERNEL32.dll
 0000:fffa1000       .debug$S                   10000000     kernel32:KERNEL32.dll
 0000:fffa1000       .debug$S                   10000000     kernel32:KERNEL32.dll
 0000:fffa1000       .debug$S                   10000000     kernel32:KERNEL32.dll
 0000:fffa1000       .debug$S                   10000000     kernel32:KERNEL32.dll
 0000:fffa1000       .debug$S                   10000000     kernel32:KERNEL32.dll
 0000:fffa1000       .debug$S                   10000000     kernel32:KERNEL32.dll
 0000:fffa1000       .debug$S                   10000000     kernel32:KERNEL32.dll
 0000:fffa1000       .debug$S                   10000000     kernel32:KERNEL32.dll
 0001:0000016e       ?ChangeExports@@YA_NPBUExportFunc@@PAUHINSTANCE__@@@Z 1000116e f   ConEmuTh.obj
 0001:00001024       ?LoadFarVersion@@YA_NAAUFarVersion@@AAY0CAA@_W@Z 10002024 f   ConEmuTh.obj
 0001:000010b4       ?LoadFarVersion@@YA_NPB_WAAUFarVersion@@AAY0CAA@_W@Z 100020b4 f   ConEmuTh.obj
 0001:00001138       ?LoadModuleVersion@@YA_NPB_WAAUtagVS_FIXEDFILEINFO@@PA_WI@Z 10002138 f   ConEmuTh.obj
 0001:000026fc       ?StringCopyWorkerW@@YGJPA_WIPAIPB_WI@Z 100036fc f   ConEmuTh.obj
 0001:00002761       ?StringLengthWorkerW@@YGJPB_WIPAI@Z 10003761 f   ConEmuTh.obj
 0001:000027a8       ?StringValidateDestAndLengthW@@YGJPB_WIPAII@Z 100037a8 f   ConEmuTh.obj
 0001:00002977       _memmove_s                 10003977 f   ConEmuTh.obj
 0001:00002d3f       ?GetFarSetting@@YAHPAXIPB_W@Z 10003d3f f   ConEmuTh1900.obj
 0001:00002e35       ?LoadFarSettingsW1900@@YAXPAUCEFarInterfaceSettings@@PAUCEFarPanelSettings@@@Z 10003e35 f   ConEmuTh1900.obj
 0001:00003d66       ?GetFarSetting@@YAHPAXIPB_W@Z 10004d66 f   ConEmuTh2800.obj
 0001:00003e57       ?LoadFarSettingsW2800@@YAXPAUCEFarInterfaceSettings@@PAUCEFarPanelSettings@@@Z 10004e57 f   ConEmuTh2800.obj
 0001:00004fba       ?LoadFarSettingsW995@@YAXPAUCEFarInterfaceSettings@@PAUCEFarPanelSettings@@@Z 10005fba f   ConEmuTh995.obj
 0001:00005a1b       ?LoadFarSettingsA@@YAXPAUCEFarInterfaceSettings@@PAUCEFarPanelSettings@@@Z 10006a1b f   ConEmuThA.obj
 0001:0000b0b0       ?HeapDeinitializeImpl@@YAXXZ 1000c0b0 f   common-kernel32:Memory.obj
 0001:0000dabe       ??$ExpandEnvStr@UCEStr@@_W@?A0xbc859b36@@YA?AUCEStr@@PB_W_WP6GK0PA_WK@Z@Z 1000eabe f   common-kernel32:EnvVar.obj
 0001:0000dc04       ??$GetEnvVar@UCEStr@@_W@?A0xbc859b36@@YA?AUCEStr@@PB_WP6GK0PA_WK@Z@Z 1000ec04 f   common-kernel32:EnvVar.obj
 0001:000111b0       $$000000                   100121b0     LIBCMT:sehprolg4.obj
 0001:00011210       $$000000                   10012210     LIBCMT:lldiv.obj
 0001:000112dd       ?dllmain_crt_dispatch@@YGHQAUHINSTANCE__@@KQAX@Z 100122dd f   LIBCMT:dll_dllmain.obj
 0001:00011330       ?dllmain_crt_process_attach@@YAHQAUHINSTANCE__@@QAX@Z 10012330 f   LIBCMT:dll_dllmain.obj
 0001:0001143a       ?dllmain_crt_process_detach@@YAH_N@Z 1001243a f   LIBCMT:dll_dllmain.obj
 0001:000114cc       ?dllmain_dispatch@@YAHQAUHINSTANCE__@@KQAX@Z 100124cc f   LIBCMT:dll_dllmain.obj
 0001:000115d2       ?dllmain_raw@@YGHQAUHINSTANCE__@@KQAX@Z 100125d2 f   LIBCMT:dll_dllmain.obj
 0001:00011620       $$000000                   10012620     LIBCMT:chkstk.obj
 0001:0001176e       ___get_entropy             1001276e f   LIBCMT:gs_support.obj
 0001:00011841       ?find_pe_section@@YAPAU_IMAGE_SECTION_HEADER@@QAEI@Z 10012841 f   LIBCMT:utility.obj
 0001:000122b0       _ValidateLocalCookies      100132b0 f   libvcruntime:chandler4.obj
 0001:0001336b       $LN1285                    1001436b     libvcruntime:memcmp.obj
 0001:000133f0       $$000000                   100143f0     libvcruntime:memmove.obj
 0001:00013654       TrailingUpVec              10014654     libvcruntime:memmove.obj
 0001:00013700       TrailingDownVec            10014700     libvcruntime:memmove.obj
 0001:00013970       $$000000                   10014970     libvcruntime:memset.obj
 0001:00013c00       $$000000                   10014c00     libvcruntime:strchr.obj
 0001:00013d30       $$000000                   10014d30     libvcruntime:strrchr.obj
 0001:00013e70       $$000000                   10014e70     libvcruntime:memchr.obj
 0001:000141a4       ??$BuildCatchObjectHelperInternal@$$CBU_s_HandlerType@@@@YAHPAUEHExceptionRecord@@PAXPBU_s_HandlerType@@PBU_s_CatchableType@@@Z 100151a4 f   libvcruntime:frame.obj
 0001:000142e3       ??$BuildCatchObjectInternal@$$CBU_s_HandlerType@@@@YAXPAUEHExceptionRecord@@PAXPBU_s_HandlerType@@PBU_s_CatchableType@@@Z 100152e3 f   libvcruntime:frame.obj
 0001:0001437c       ??$CatchIt@V__FrameHandler3@@@@YAXPAUEHExceptionRecord@@PAUEHRegistrationNode@@PAU_CONTEXT@@PAXPBU_s_FuncInfo@@PBU_s_HandlerType@@PBU_s_CatchableType@@PBU_s_TryBlockMapEntry@@H1E@Z 1001537c f   libvcruntime:frame.obj
 0001:000143fc       ??$FindHandler@V__FrameHandler3@@@@YAXPAUEHExceptionRecord@@PAUEHRegistrationNode@@PAU_CONTEXT@@PAXPBU_s_FuncInfo@@EH1@Z 100153fc f   libvcruntime:frame.obj
 0001:0001478a       ??$FindHandlerForForeignException@V__FrameHandler3@@@@YAXPAUEHExceptionRecord@@PAUEHRegistrationNode@@PAU_CONTEXT@@PAXPBU_s_FuncInfo@@HH1@Z 1001578a f   libvcruntime:frame.obj
 0001:00014a7d       ?CallCatchBlock@@YAPAXPAUEHExceptionRecord@@PAUEHRegistrationNode@@PAU_CONTEXT@@PBU_s_FuncInfo@@PAXHK@Z 10015a7d f   libvcruntime:frame.obj
 0001:00014c41       ?CallUnexpected@@YAXPBU_s_ESTypeList@@@Z 10015c41 f   libvcruntime:frame.obj
 0001:00014c61       __catch$?CallUnexpected@@YAXPBU_s_ESTypeList@@@Z$0 10015c61 f   libvcruntime:frame.obj
 0001:00014c7b       ?ExFilterRethrow@@YAHPAU_EXCEPTION_POINTERS@@@Z 10015c7b f   libvcruntime:frame.obj
 0001:00014dc5       ?IsInExceptionSpec@@YAEPAUEHExceptionRecord@@PBU_s_ESTypeList@@@Z 10015dc5 f   libvcruntime:frame.obj
 0001:00014e90       $$000000                   10015e90     libvcruntime:lowhelpr.obj
 0001:00014f40       $$000000                   10015f40     libvcruntime:exsup4.obj
 0001:00014fd0       __unwind_handler4          10015fd0 f   libvcruntime:exsup4.obj
 0001:0001512f       ?try_get_first_available_module@@YAPAUHINSTANCE__@@QBW4module_id@?A0xbf9eb92d@@0@Z 1001612f f   libvcruntime:winapi_downlevel.obj
 0001:000151f3       ?try_get_function@@YAPAXW4function_id@?A0xbf9eb92d@@QBDQBW4module_id@2@2@Z 100161f3 f   libvcruntime:winapi_downlevel.obj
 0001:00015590       $$000000                   10016590     libvcruntime:exsup.obj
 0001:000155b1       __unwind_handler           100165b1 f   libvcruntime:exsup.obj
 0001:000156d0       $$000000                   100166d0     libvcruntime:memcpy.obj
 0001:00015934       TrailingUpVec              10016934     libvcruntime:memcpy.obj
 0001:000159e0       TrailingDownVec            100169e0     libvcruntime:memcpy.obj
 0001:00015f0e       ??$common_vsprintf@Vstandard_base@__crt_stdio_output@@D@@YAH_KQADIQBDQAU__crt_locale_pointers@@1@Z 10016f0e f   libucrt:output.obj
 0001:0001608a       ??$common_vsprintf@Vstandard_base@__crt_stdio_output@@_W@@YAH_KQA_WIQB_WQAU__crt_locale_pointers@@QAD@Z 1001708a f   libucrt:output.obj
 0001:000169b9       $LN54                      100179b9     libucrt:output.obj
 0001:00016ad9       $LN54                      10017ad9     libucrt:output.obj
 0001:0001749c       $LN19                      1001849c     libucrt:output.obj
 0001:00018d02       ?atexit_exception_filter@@YAHK@Z 10019d02 f   libucrt:exit.obj
 0001:00018d15       ?common_exit@@YAXHW4_crt_exit_cleanup_mode@@W4_crt_exit_return_mode@@@Z 10019d15 f   libucrt:exit.obj
 0001:00018e2e       ?exit_or_terminate_process@@YAXI@Z 10019e2e f   libucrt:exit.obj
 0001:00018e6f       ?is_managed_app@@YA_NXZ    10019e6f f   libucrt:exit.obj
 0001:00018eb3       ?try_cor_exit_process@@YAXI@Z 10019eb3 f   libucrt:exit.obj
 0001:00018f57       ??$common_configure_argv@D@@YAHW4_crt_argv_mode@@@Z 10019f57 f   libucrt:argv_parsing.obj
 0001:0001907b       ??$parse_command_line@D@@YAXPADPAPAD0PAI2@Z 1001a07b f   libucrt:argv_parsing.obj
 0001:00019250       ??$common_initialize_environment_nolock@D@@YAHXZ 1001a250 f   libucrt:environment_initialization.obj
 0001:000192a9       ??$create_environment@D@@YAQAPADQAD@Z 1001a2a9 f   libucrt:environment_initialization.obj
 0001:0001937a       ??$free_environment@_W@@YAXQAPA_W@Z 1001a37a f   libucrt:environment_initialization.obj
 0001:0001937a       ??$free_environment@D@@YAXQAPAD@Z 1001a37a f   libucrt:environment_initialization.obj
 0001:000193e9       ??$uninitialize_environment_internal@D@@YAXAAPAPAD@Z 1001a3e9 f   libucrt:environment_initialization.obj
 0001:00019404       ??$uninitialize_environment_internal@_W@@YAXAAPAPA_W@Z 1001a404 f   libucrt:environment_initialization.obj
 0001:000194d4       ??R<lambda_275893d493268fdec8709772e3fcec0e>@@QBEHXZ 1001a4d4 f   libucrt:onexit.obj
 0001:0001964e       _initialize_global_variables 1001a64e f   libucrt:initialization.obj
 0001:00019660       _initialize_c              1001a660 f   libucrt:initialization.obj
 0001:0001967a       _initialize_environment    1001a67a f   libucrt:initialization.obj
 0001:0001967a       _uninitialize_global_state_isolation 1001a67a f   libucrt:initialization.obj
 0001:0001967a       _uninitialize_c            1001a67a f   libucrt:initialization.obj
 0001:0001967a       _report_memory_leaks       1001a67a f   libucrt:initialization.obj
 0001:0001967a       _initialize_global_state_isolation 1001a67a f   libucrt:initialization.obj
 0001:0001967d       _uninitialize_environment  1001a67d f   libucrt:initialization.obj
 0001:00019685       _initialize_pointers       1001a685 f   libucrt:initialization.obj
 0001:000196c2       _uninitialize_vcruntime    1001a6c2 f   libucrt:initialization.obj
 0001:000196cb       _uninitialize_allocated_memory 1001a6cb f   libucrt:initialization.obj
 0001:00019880       $$000000                   1001a880     libucrt:strncmp.obj
 0001:00019adc       ?construct_ptd@@YAXQAU__acrt_ptd@@QAPAU__crt_locale_data@@@Z 1001aadc f   libucrt:per_thread_data.obj
 0001:00019b55       ?destroy_fls@@YGXPAX@Z     1001ab55 f   libucrt:per_thread_data.obj
 0001:00019b76       ?destroy_ptd@@YAXQAU__acrt_ptd@@@Z 1001ab76 f   libucrt:per_thread_data.obj
 0001:00019c1f       ?replace_current_thread_locale_nolock@@YAXQAU__acrt_ptd@@QAU__crt_locale_data@@@Z 1001ac1f f   libucrt:per_thread_data.obj
 0001:00019e4a       ??$common_tox_l@$1?internal_isupper_l@@YA_NHQAU__crt_locale_pointers@@@Z$1?internal_map_lower@@YAHH0@Z@@YAHHKQAU__crt_locale_pointers@@@Z 1001ae4a f   libucrt:tolower_toupper.obj
 0001:00019f94       ?internal_isupper_l@@YA_NHQAU__crt_locale_pointers@@@Z 1001af94 f   libucrt:tolower_toupper.obj
 0001:0001a697       ?fp_format_a@@YAHQBNPADIQADIH_NIQAU__crt_locale_pointers@@@Z 1001b697 f   libucrt:cvt.obj
 0001:0001a99a       ?fp_format_e@@YAHQBNQADI1IH_NIQAU__crt_locale_pointers@@@Z 1001b99a f   libucrt:cvt.obj
 0001:0001aa35       ?fp_format_e_internal@@YAHQADIH_NIQAU_strflt@@1QAU__crt_locale_pointers@@@Z 1001ba35 f   libucrt:cvt.obj
 0001:0001ab80       ?fp_format_f@@YAHQBNQADI1IHQAU__crt_locale_pointers@@@Z 1001bb80 f   libucrt:cvt.obj
 0001:0001ac0d       ?fp_format_f_internal@@YAHQADIHQAU_strflt@@_NQAU__crt_locale_pointers@@@Z 1001bc0d f   libucrt:cvt.obj
 0001:0001ace4       ?fp_format_g@@YAHQBNQADI1IH_NIQAU__crt_locale_pointers@@@Z 1001bce4 f   libucrt:cvt.obj
 0001:0001adac       ?fp_format_nan_or_infinity@@YAHW4__acrt_fp_class@@_NPADI1@Z 1001bdac f   libucrt:cvt.obj
 0001:0001aea4       ?shift_bytes@@YAXQADI0H@Z  1001bea4 f   libucrt:cvt.obj
 0001:0001b1f6       ?initialize_inherited_file_handles_nolock@@YAXXZ 1001c1f6 f   libucrt:ioinit.obj
 0001:0001b2ac       ?initialize_stdio_handles_nolock@@YAXXZ 1001c2ac f   libucrt:ioinit.obj
 0001:0001b5db       ?try_get_function@@YAPAXW4function_id@?A0x352e5c4b@@QBDQBW4module_id@2@2@Z 1001c5db f   libucrt:winapi_thunks.obj
 0001:0001b677       ?try_get_module@@YAPAUHINSTANCE__@@W4module_id@?A0x352e5c4b@@@Z 1001c677 f   libucrt:winapi_thunks.obj
 0001:0001bad3       ?<helper_func_cdecl>@<lambda_62bb7ecb46d0a77b591a051c43eb5ad1>@@CAHPBX0@Z 1001cad3 f   libucrt:argv_wildcards.obj
 0001:0001baeb       ??$common_expand_argv_wildcards@D@@YAHQAPADQAPAPAD@Z 1001caeb f   libucrt:argv_wildcards.obj
 0001:0001bc7b       ??$copy_and_add_argument_to_buffer@D@@YAHQBD0IAAV?$argument_list@D@?A0xb0e4b824@@@Z 1001cc7b f   libucrt:argv_wildcards.obj
 0001:0001bd11       ??$expand_argument_wildcards@D@@YAHQAD0AAV?$argument_list@D@?A0xb0e4b824@@@Z 1001cd11 f   libucrt:argv_wildcards.obj
 0001:0001bfee       ??R<lambda_ad1ced32f4ac17aa236e5ef05d6b3b7c>@@QBEXXZ 1001cfee f   libucrt:mbctype.obj
 0001:0001c0b2       ?CPtoLocaleName@@YAPB_WH@Z 1001d0b2 f   libucrt:mbctype.obj
 0001:0001c0f0       ?getSystemCP@@YAHH@Z       1001d0f0 f   libucrt:mbctype.obj
 0001:0001c163       ?setSBCS@@YAXPAU__crt_multibyte_data@@@Z 1001d163 f   libucrt:mbctype.obj
 0001:0001c1c8       ?setSBUpLow@@YAXPAU__crt_multibyte_data@@@Z 1001d1c8 f   libucrt:mbctype.obj
 0001:0001c35c       ?setmbcp_internal@@YAHH_N@Z 1001d35c f   libucrt:mbctype.obj
 0001:0001c70e       _memcpy_s                  1001d70e f   libucrt:mbctype.obj
 0001:0001c70e       _memcpy_s                  1001d70e f   libucrt:cfout.obj
 0001:0001c78f       ?x_ismbbtype_l@@YAHPAU__crt_locale_pointers@@IHH@Z 1001d78f f   libucrt:ismbbyte.obj
 0001:0001c819       ?find_end_of_double_null_terminated_sequence@@YAPB_WQB_W@Z 1001d819 f   libucrt:get_environment_from_os.obj
 0001:0001cb62       ?get_global_action_nolock@@YAPAP6AXH@ZH@Z 1001db62 f   libucrt:signal.obj
 0001:0001cba4       ?siglookup@@YAPAU__crt_signal_action_t@@HQAU1@@Z 1001dba4 f   libucrt:signal.obj
 0001:0001d26f       ?__acrt_LCMapStringA_stat@@YAHPAU__crt_locale_pointers@@PB_WKPBDHPADHHH@Z 1001e26f f   libucrt:lcmapstringa.obj
 0001:0001ef90       _common_flush_all          1001ff90 f   libucrt:fflush.obj
 0001:0001f263       ?free_crt_array_internal@@YAXQAPBXI@Z 10020263 f   libucrt:inittime.obj
 0001:0001f728       ?GetTableIndexFromLocaleName@@YAHPB_W@Z 10020728 f   libucrt:lcidtoname_downlevel.obj
 0001:0001f810       ?shortsort@@YAXPAD0IP6AHPBX1@Z@Z 10020810 f   libucrt:qsort.obj
 0001:0001f8b0       ?swap@@YAXPAD0I@Z          100208b0 f   libucrt:qsort.obj
 0001:0001fc8a       ??$common_tcsncpy_s@D@@YAHQADIQBDI@Z 10020c8a f   libucrt:strncpy_s.obj
 0001:0001fd50       $$000000                   10020d50     libucrt:strpbrk.obj
 0001:0001fe34       ?initialize_multibyte@@YAHXZ 10020e34 f   libucrt:multibyte_initializer.obj
 0001:0001ffb0       $$000000                   10020fb0     libucrt:log10.obj
 0001:00020100       $$000000                   10021100     libucrt:ceil_pentium4.obj
 0001:0002021d       ?write_double_translated_ansi_nolock@@YA?AUwrite_result@?A0x47fa6670@@HQBDI@Z 1002121d f   libucrt:write.obj
 0001:000203d0       ?write_double_translated_unicode_nolock@@YA?AUwrite_result@?A0x47fa6670@@QBDI@Z 100213d0 f   libucrt:write.obj
 0001:0002043d       ?write_requires_double_translation_nolock@@YA_NH@Z 1002143d f   libucrt:write.obj
 0001:000204b3       ?write_text_ansi_nolock@@YA?AUwrite_result@?A0x47fa6670@@HQBDI@Z 100214b3 f   libucrt:write.obj
 0001:00020592       ?write_text_utf16le_nolock@@YA?AUwrite_result@?A0x47fa6670@@HQBDI@Z 10021592 f   libucrt:write.obj
 0001:00020680       ?write_text_utf8_nolock@@YA?AUwrite_result@?A0x47fa6670@@HQBDI@Z 10021680 f   libucrt:write.obj
 0001:00020aa4       ??$common_lseek_nolock@_J@@YA_JH_JH@Z 10021aa4 f   libucrt:lseek.obj
 0001:00020d68       ___get_abstract_control_sse2 10021d68 f   libucrt:_fenvutils.obj
 0001:00020de5       ___get_abstract_control_x87 10021de5 f   libucrt:_fenvutils.obj
 0001:00020e58       ___get_machine_control     10021e58 f   libucrt:_fenvutils.obj
 0001:00020ec9       ___get_machine_control_sse2 10021ec9 f   libucrt:_fenvutils.obj
 0001:00020f49       ___get_machine_status_sse2 10021f49 f   libucrt:_fenvutils.obj
 0001:00020faa       ___get_machine_status_x87  10021faa f   libucrt:_fenvutils.obj
 0001:000212f0       $$000000                   100222f0     libucrt:log10_pentium4.obj
 0001:00021580       $$000000                   10022580     libucrt:87tran.obj
 0001:00021780       $$000000                   10022780     libucrt:87disp.obj
 0001:00021980       $$000000                   10022980     libucrt:common.obj
 0001:00021b10       $$000000                   10022b10     libucrt:genexcep.obj
 0001:00022080       $$000000                   10023080     libucrt:_strnicm.obj
 0001:00022eb0       $$000000                   10023eb0     LIBCMT:ulldvrm.obj
 0001:00022f50       $$000000                   10023f50     LIBCMT:llmul.obj
 0001:00022f90       $$000000                   10023f90     LIBCMT:sehprolg4gs.obj
 0001:00022ff0       $$000000                   10023ff0     LIBCMT:lldvrm.obj
 0001:000230d0       $$000000                   100240d0     LIBCMT:ullshr.obj
 0001:000230f0       $$000000                   100240f0     LIBCMT:alloca16.obj
 0001:00023120       $$000000                   10024120     LIBCMT:llshl.obj
 0001:00023140       $$000000                   10024140     LIBCMT:ftol2.obj
 0001:000231f5       __unwindfunclet$?CheckVarsInitialized@@YAXXZ$0 100241f5 f   ConEmuTh.obj
 0001:00023205       __unwindfunclet$?CheckVarsInitialized@@YAXXZ$1 10024205 f   ConEmuTh.obj
 0001:00023215       __unwindfunclet$?CheckVarsInitialized@@YAXXZ$2 10024215 f   ConEmuTh.obj
 0001:00023225       __ehhandler$?CheckVarsInitialized@@YAXXZ 10024225 f   ConEmuTh.obj
 0001:00023240       __unwindfunclet$?LoadThSet@@YAHK@Z$0 10024240 f   ConEmuTh.obj
 0001:0002324b       __ehhandler$?LoadThSet@@YAHK@Z 1002424b f   ConEmuTh.obj
 0001:00023273       __unwindfunclet$?StartPlugin@@YAXH@Z$0 10024273 f   ConEmuTh.obj
 0001:00023283       __ehhandler$?StartPlugin@@YAXH@Z 10024283 f   ConEmuTh.obj
 0001:0002329e       __unwindfunclet$?Paint@CeFullPanelInfo@@QAEXPAUHWND__@@AAUtagPAINTSTRUCT@@AAUtagRECT@@@Z$0 1002429e f   Display.obj
 0001:000232a9       __ehhandler$?Paint@CeFullPanelInfo@@QAEXPAUHWND__@@AAUtagPAINTSTRUCT@@AAUtagRECT@@@Z 100242a9 f   Display.obj
 0001:000232d1       __unwindfunclet$?ReallocItems@CeFullPanelInfo@@QAEHH@Z$0 100242d1 f   Display.obj
 0001:000232d9       __ehhandler$?ReallocItems@CeFullPanelInfo@@QAEHH@Z 100242d9 f   Display.obj
 0001:000232f4       __unwindfunclet$??0?$CQueueProcessor@PAUIMAGE_CACHE_INFO@@@@QAE@XZ$0 100242f4 f   ImgCache.obj
 0001:00023301       __ehhandler$??0?$CQueueProcessor@PAUIMAGE_CACHE_INFO@@@@QAE@XZ 10024301 f   ImgCache.obj
 0001:0002331c       __ehhandler$??1CImgCache@@QAE@XZ 1002431c f   ImgCache.obj
 0001:0002331c       __ehhandler$??1?$CQueueProcessor@PAUIMAGE_CACHE_INFO@@@@UAE@XZ 1002431c f   ImgCache.obj
 0001:00023337       __unwindfunclet$?FindInCache@CImgCache@@IAEHPAUCePluginPanelItem@@PAHI@Z$0 10024337 f   ImgCache.obj
 0001:0002333f       __ehhandler$?FindInCache@CImgCache@@IAEHPAUCePluginPanelItem@@PAHI@Z 1002433f f   ImgCache.obj
 0001:0002335a       __unwindfunclet$?FindOrCreate@?$CQueueProcessor@PAUIMAGE_CACHE_INFO@@@@AAEPAUProcessingItem@1@ABQAUIMAGE_CACHE_INFO@@J_NW4ProcessingPriority@@@Z$0 1002435a f   ImgCache.obj
 0001:00023362       __ehhandler$?FindOrCreate@?$CQueueProcessor@PAUIMAGE_CACHE_INFO@@@@AAEPAUProcessingItem@1@ABQAUIMAGE_CACHE_INFO@@J_NW4ProcessingPriority@@@Z 10024362 f   ImgCache.obj
 0001:0002337d       __unwindfunclet$?ProcessingStep@?$CQueueProcessor@PAUIMAGE_CACHE_INFO@@@@IAE_NXZ$0 1002437d f   ImgCache.obj
 0001:00023385       __ehhandler$?ProcessingStep@?$CQueueProcessor@PAUIMAGE_CACHE_INFO@@@@IAE_NXZ 10024385 f   ImgCache.obj
 0001:000233a0       __unwindfunclet$?RequestItem@CImgCache@@QAEHPAUCePluginPanelItem@@I@Z$0 100243a0 f   ImgCache.obj
 0001:000233ad       __ehhandler$?RequestItem@CImgCache@@QAEHPAUCePluginPanelItem@@I@Z 100243ad f   ImgCache.obj
 0001:000233c8       __ehhandler$??1CRgnDetect@@QAE@XZ 100243c8 f   common-user32:RgnDetect.obj
 0001:000233e3       __unwindfunclet$?SearchAppPaths@@YA_NPB_WAAUCEStr@@_NPAVCEnvRestorer@@@Z$0 100243e3 f   common-user32:WFiles.obj
 0001:000233ee       __unwindfunclet$?SearchAppPaths@@YA_NPB_WAAUCEStr@@_NPAVCEnvRestorer@@@Z$1 100243ee f   common-user32:WFiles.obj
 0001:000233f9       __unwindfunclet$?SearchAppPaths@@YA_NPB_WAAUCEStr@@_NPAVCEnvRestorer@@@Z$3 100243f9 f   common-user32:WFiles.obj
 0001:00023404       __unwindfunclet$?SearchAppPaths@@YA_NPB_WAAUCEStr@@_NPAVCEnvRestorer@@@Z$4 10024404 f   common-user32:WFiles.obj
 0001:0002340f       __unwindfunclet$?SearchAppPaths@@YA_NPB_WAAUCEStr@@_NPAVCEnvRestorer@@@Z$5 1002440f f   common-user32:WFiles.obj
 0001:0002341a       __ehhandler$?SearchAppPaths@@YA_NPB_WAAUCEStr@@_NPAVCEnvRestorer@@@Z 1002441a f   common-user32:WFiles.obj
 0001:00023442       __ehhandler$?CallUnexpected@@YAXPBU_s_ESTypeList@@@Z 10024442 f   libvcruntime:frame.obj
 0002:00000fa0       ?gsDisplayClassName@@3QB_WB 10025fa0     Display.obj
 0002:000015ba       ?ignore@std@@3U_Ignore@1@B 100265ba     common-kernel32:WObjects.obj
 0002:00001680       ?ILLEGAL_CHARACTERS@?A0x78984006@@3QB_WB 10026680     common-kernel32:CmdLine.obj
 0002:0000168c       ?SPECIAL_CMD_CHARACTERS@?A0x78984006@@3QB_WB 1002668c     common-kernel32:CmdLine.obj
 0002:00001698       ?REDIRECTION_CMD_CHARACTERS@?A0x78984006@@3QB_WB 10026698     common-kernel32:CmdLine.obj
 0002:000016a8       ?CMD_INTERNAL_COMMANDS@?A0x78984006@@3QBQB_WB 100266a8     common-kernel32:CmdLine.obj
 0002:00001d88       ?ignore@std@@3U_Ignore@1@B 10026d88     common-user32:WRegistry.obj
 0002:00001df0       _GS_ExceptionPointers      10026df0     LIBCMT:gs_report.obj
 0002:00001df8       ?ExceptionTemplate@?1??_CxxThrowException@@9@8@4UEHExceptionRecord@@B 10026df8     libvcruntime:throw.obj
 0002:00001e38       ?tokenTable@@3QBQBDB       10026e38     libvcruntime:undname.obj
 0002:00001e78       ?nameTable@@3QBQBDB        10026e78     libvcruntime:undname.obj
 0002:00001fc0       ?rttiTable@@3QBQBDB        10026fc0     libvcruntime:undname.obj
 0002:000025d0       ?module_names@?A0xbf9eb92d@@3QBQB_WB 100275d0     libvcruntime:winapi_downlevel.obj
 0002:00002688       ?candidate_modules@?1??try_get_FlsAlloc@@YAP6GKP6GXPAX@Z@ZXZ@4QBW4module_id@?A0xbf9eb92d@@B 10027688     libvcruntime:winapi_downlevel.obj
 0002:0000269c       ?candidate_modules@?1??try_get_FlsFree@@YAP6GHK@ZXZ@4QBW4module_id@?A0xbf9eb92d@@B 1002769c     libvcruntime:winapi_downlevel.obj
 0002:000026ac       ?candidate_modules@?1??try_get_FlsGetValue@@YAP6GPAXK@ZXZ@4QBW4module_id@?A0xbf9eb92d@@B 100276ac     libvcruntime:winapi_downlevel.obj
 0002:000026c0       ?candidate_modules@?1??try_get_FlsSetValue@@YAP6GHKPAX@ZXZ@4QBW4module_id@?A0xbf9eb92d@@B 100276c0     libvcruntime:winapi_downlevel.obj
 0002:000026d4       ?candidate_modules@?1??try_get_InitializeCriticalSectionEx@@YAP6GHPAU_RTL_CRITICAL_SECTION@@KK@ZXZ@4QBW4module_id@?A0xbf9eb92d@@B 100276d4     libvcruntime:winapi_downlevel.obj
 0002:00002700       _errtable                  10027700     libucrt:errno.obj
 0002:000029a8       ___acrt_initializers       100279a8     libucrt:initialization.obj
 0002:00003738       _module_names              10028738     libucrt:winapi_thunks.obj
 0002:00003c80       ?candidate_modules@?1??try_get_FlsAlloc@@YAP6GKP6GXPAX@Z@ZXZ@4QBW4module_id@?A0x352e5c4b@@B 10028c80     libucrt:winapi_thunks.obj
 0002:00003c94       ?candidate_modules@?1??try_get_FlsFree@@YAP6GHK@ZXZ@4QBW4module_id@?A0x352e5c4b@@B 10028c94     libucrt:winapi_thunks.obj
 0002:00003ca4       ?candidate_modules@?1??try_get_FlsGetValue@@YAP6GPAXK@ZXZ@4QBW4module_id@?A0x352e5c4b@@B 10028ca4     libucrt:winapi_thunks.obj
 0002:00003cb8       ?candidate_modules@?1??try_get_FlsSetValue@@YAP6GHKPAX@ZXZ@4QBW4module_id@?A0x352e5c4b@@B 10028cb8     libucrt:winapi_thunks.obj
 0002:00003ccc       ?candidate_modules@?1??try_get_GetCurrentPackageId@@YAP6GJPAIPAE@ZXZ@4QBW4module_id@?A0x352e5c4b@@B 10028ccc     libucrt:winapi_thunks.obj
 0002:00003ce8       ?candidate_modules@?1??try_get_InitializeCriticalSectionEx@@YAP6GHPAU_RTL_CRITICAL_SECTION@@KK@ZXZ@4QBW4module_id@?A0x352e5c4b@@B 10028ce8     libucrt:winapi_thunks.obj
 0002:00003d0c       ?candidate_modules@?1??try_get_LCMapStringEx@@YAP6GHPB_WK0HPA_WHPAU_nlsversioninfo@@PAXJ@ZXZ@4QBW4module_id@?A0x352e5c4b@@B 10028d0c     libucrt:winapi_thunks.obj
 0002:00003d24       ?candidate_modules@?1??try_get_LocaleNameToLCID@@YAP6GKPB_WK@ZXZ@4QBW4module_id@?A0x352e5c4b@@B 10028d24     libucrt:winapi_thunks.obj
 0002:00003d40       __mb_locale_names          10028d40     libucrt:mbctype.obj
 0002:00004770       _LcidToLocaleNameTable     10029770     libucrt:lcidtoname_downlevel.obj
 0002:00005890       _LocaleNameToIndexTable    1002a890     libucrt:lcidtoname_downlevel.obj
 0002:000067e0       LOG_name                   1002b7e0     libucrt:log10.obj
 0002:000067f0       _One                       1002b7f0     libucrt:ceil_pentium4.obj
 0002:00006800       _Bns                       1002b800     libucrt:ceil_pentium4.obj
 0002:00006810       _Zero                      1002b810     libucrt:ceil_pentium4.obj
 0002:00006820       _S                         1002b820     libucrt:ceil_pentium4.obj
 0002:00006830       _NegZero                   1002b830     libucrt:ceil_pentium4.obj
 0002:00006840       emask                      1002b840     libucrt:log10_pentium4.obj
 0002:00006850       CC                         1002b850     libucrt:log10_pentium4.obj
 0002:00006860       Magic                      1002b860     libucrt:log10_pentium4.obj
 0002:00006870       hi_mask                    1002b870     libucrt:log10_pentium4.obj
 0002:00006880       LOG10_2                    1002b880     libucrt:log10_pentium4.obj
 0002:00006890       place_L                    1002b890     libucrt:log10_pentium4.obj
 0002:000068b0       One                        1002b8b0     libucrt:log10_pentium4.obj
 0002:000068c0       Zero                       1002b8c0     libucrt:log10_pentium4.obj
 0002:000068d0       Two52                      1002b8d0     libucrt:log10_pentium4.obj
 0002:000068e0       Infs                       1002b8e0     libucrt:log10_pentium4.obj
 0002:000068f0       NaN                        1002b8f0     libucrt:log10_pentium4.obj
 0002:00006900       coeff                      1002b900     libucrt:log10_pentium4.obj
 0002:0000695e       _log2max                   1002b95e     libucrt:87tran.obj
 0002:00006968       _smallarg                  1002b968     libucrt:87tran.obj
 0002:00006972       _half                      1002b972     libucrt:87tran.obj
 0002:000069be       One                        1002b9be     libucrt:87disp.obj
 0002:000069c6       Three                      1002b9c6     libucrt:87disp.obj
 0002:000069ce       XAMtoTagTab                1002b9ce     libucrt:87disp.obj
 0002:000069e0       One                        1002b9e0     libucrt:common.obj
 0002:000069f4       DblMax                     1002b9f4     libucrt:common.obj
 0002:000069fc       DblMin                     1002b9fc     libucrt:common.obj
 0002:00006a04       IeeeAdjO                   1002ba04     libucrt:common.obj
 0002:00006a0c       IeeeAdjU                   1002ba0c     libucrt:common.obj
 0002:00006a14       _infinity                  1002ba14     libucrt:common.obj
 0002:00006a1c       _zero                      1002ba1c     libucrt:common.obj
 0002:00006a58       _over                      1002ba58     libucrt:fpctrl.obj
 0002:00006a64       _under                     1002ba64     libucrt:fpctrl.obj
 0002:00007328       ?_names@?1??_get_fname@@9@9 1002c328     libucrt:fpexcept.obj
 0002:00007d38       __unwindtable$?LoadThSet@@YAHK@Z 1002cd38     ConEmuTh.obj
 0002:00007d40       __ehfuncinfo$?LoadThSet@@YAHK@Z 1002cd40     ConEmuTh.obj
 0002:00007d64       __unwindtable$?StartPlugin@@YAXH@Z 1002cd64     ConEmuTh.obj
 0002:00007d6c       __ehfuncinfo$?StartPlugin@@YAXH@Z 1002cd6c     ConEmuTh.obj
 0002:00007d90       __unwindtable$?CheckVarsInitialized@@YAXXZ 1002cd90     ConEmuTh.obj
 0002:00007da8       __ehfuncinfo$?CheckVarsInitialized@@YAXXZ 1002cda8     ConEmuTh.obj
 0002:00007dd0       __sehtable$?SetFrom@?$MFileMapping@Utag_DetectedDialog@@@@QAE_NPBUtag_DetectedDialog@@H@Z 1002cdd0     ConEmuTh.obj
 0002:00007df0       __sehtable$?GetTo@?$MFileMapping@UPanelViewSetMapping@@@@QAE_NPAUPanelViewSetMapping@@H@Z 1002cdf0     ConEmuTh.obj
 0002:00007e0c       __unwindtable$?ReallocItems@CeFullPanelInfo@@QAEHH@Z 1002ce0c     Display.obj
 0002:00007e14       __ehfuncinfo$?ReallocItems@CeFullPanelInfo@@QAEHH@Z 1002ce14     Display.obj
 0002:00007e38       __unwindtable$?Paint@CeFullPanelInfo@@QAEXPAUHWND__@@AAUtagPAINTSTRUCT@@AAUtagRECT@@@Z 1002ce38     Display.obj
 0002:00007e40       __ehfuncinfo$?Paint@CeFullPanelInfo@@QAEXPAUHWND__@@AAUtagPAINTSTRUCT@@AAUtagRECT@@@Z 1002ce40     Display.obj
 0002:00007e64       __unwindtable$?FindInCache@CImgCache@@IAEHPAUCePluginPanelItem@@PAHI@Z 1002ce64     ImgCache.obj
 0002:00007e6c       __ehfuncinfo$?FindInCache@CImgCache@@IAEHPAUCePluginPanelItem@@PAHI@Z 1002ce6c     ImgCache.obj
 0002:00007e90       __ehfuncinfo$??1?$CQueueProcessor@PAUIMAGE_CACHE_INFO@@@@UAE@XZ 1002ce90     ImgCache.obj
 0002:00007e90       __ehfuncinfo$??1CImgCache@@QAE@XZ 1002ce90     ImgCache.obj
 0002:00007e90       __ehfuncinfo$??1CRgnDetect@@QAE@XZ 1002ce90     common-user32:RgnDetect.obj
 0002:00007eb4       __unwindtable$?RequestItem@CImgCache@@QAEHPAUCePluginPanelItem@@I@Z 1002ceb4     ImgCache.obj
 0002:00007ebc       __ehfuncinfo$?RequestItem@CImgCache@@QAEHPAUCePluginPanelItem@@I@Z 1002cebc     ImgCache.obj
 0002:00007ee0       __unwindtable$?FindOrCreate@?$CQueueProcessor@PAUIMAGE_CACHE_INFO@@@@AAEPAUProcessingItem@1@ABQAUIMAGE_CACHE_INFO@@J_NW4ProcessingPriority@@@Z 1002cee0     ImgCache.obj
 0002:00007ee8       __ehfuncinfo$?FindOrCreate@?$CQueueProcessor@PAUIMAGE_CACHE_INFO@@@@AAEPAUProcessingItem@1@ABQAUIMAGE_CACHE_INFO@@J_NW4ProcessingPriority@@@Z 1002cee8     ImgCache.obj
 0002:00007f0c       __unwindtable$??0?$CQueueProcessor@PAUIMAGE_CACHE_INFO@@@@QAE@XZ 1002cf0c     ImgCache.obj
 0002:00007f14       __ehfuncinfo$??0?$CQueueProcessor@PAUIMAGE_CACHE_INFO@@@@QAE@XZ 1002cf14     ImgCache.obj
 0002:00007f38       __sehtable$?ProcessItem@?$CQueueProcessor@PAUIMAGE_CACHE_INFO@@@@IAEJPAUProcessingItem@1@@Z 1002cf38     ImgCache.obj
 0002:00007f54       __unwindtable$?ProcessingStep@?$CQueueProcessor@PAUIMAGE_CACHE_INFO@@@@IAE_NXZ 1002cf54     ImgCache.obj
 0002:00007f5c       __ehfuncinfo$?ProcessingStep@?$CQueueProcessor@PAUIMAGE_CACHE_INFO@@@@IAE_NXZ 1002cf5c     ImgCache.obj
 0002:00007fd8       __sehtable$?SetThreadName@@YAXKPAD@Z 1002cfd8     common-kernel32:WThreads.obj
 0002:00007ff4       __ehfuncinfo$?SearchAppPaths@@YA_NPB_WAAUCEStr@@_NPAVCEnvRestorer@@@Z 1002cff4     common-user32:WFiles.obj
 0002:00008018       __unwindtable$?SearchAppPaths@@YA_NPB_WAAUCEStr@@_NPAVCEnvRestorer@@@Z 1002d018     common-user32:WFiles.obj
 0002:000080f0       __sehtable$?dllmain_crt_process_attach@@YAHQAUHINSTANCE__@@QAX@Z 1002d0f0     LIBCMT:dll_dllmain.obj
 0002:00008110       __sehtable$?dllmain_crt_process_detach@@YAH_N@Z 1002d110     LIBCMT:dll_dllmain.obj
 0002:00008130       __sehtable$?dllmain_dispatch@@YAHQAUHINSTANCE__@@KQAX@Z 1002d130     LIBCMT:dll_dllmain.obj
 0002:00008150       __sehtable$___scrt_is_nonwritable_in_current_image 1002d150     LIBCMT:utility.obj
 0002:00008170       __sehtable$?FrameUnwindToState@__FrameHandler3@@SAXPAUEHRegistrationNode@@PAXPBU_s_FuncInfo@@H@Z 1002d170     libvcruntime:frame.obj
 0002:00008198       __sehtable$?CallCatchBlock@@YAPAXPAUEHExceptionRecord@@PAUEHRegistrationNode@@PAU_CONTEXT@@PBU_s_FuncInfo@@PAXHK@Z 1002d198     libvcruntime:frame.obj
 0002:000081c0       __catchsym$?CallUnexpected@@YAXPBU_s_ESTypeList@@@Z$2 1002d1c0     libvcruntime:frame.obj
 0002:000081d0       __unwindtable$?CallUnexpected@@YAXPBU_s_ESTypeList@@@Z 1002d1d0     libvcruntime:frame.obj
 0002:000081e0       __tryblocktable$?CallUnexpected@@YAXPBU_s_ESTypeList@@@Z 1002d1e0     libvcruntime:frame.obj
 0002:000081f4       __ehfuncinfo$?CallUnexpected@@YAXPBU_s_ESTypeList@@@Z 1002d1f4     libvcruntime:frame.obj
 0002:00008218       __sehtable$??$BuildCatchObjectHelperInternal@$$CBU_s_HandlerType@@@@YAHPAUEHExceptionRecord@@PAXPBU_s_HandlerType@@PBU_s_CatchableType@@@Z 1002d218     libvcruntime:frame.obj
 0002:00008238       __sehtable$??$BuildCatchObjectInternal@$$CBU_s_HandlerType@@@@YAXPAUEHExceptionRecord@@PAXPBU_s_HandlerType@@PBU_s_CatchableType@@@Z 1002d238     libvcruntime:frame.obj
 0002:00008290       __sehtable$___DestructExceptionObject 1002d290     libvcruntime:ehhelpers.obj
 0002:000082b0       __sehtable$?common_exit@@YAXHW4_crt_exit_cleanup_mode@@W4_crt_exit_return_mode@@@Z 1002d2b0     libucrt:exit.obj
 0002:000082d8       __sehtable$??$?RV<lambda_995298e7d72eb4c2aab26c0585b3abe5>@@AAV<lambda_275893d493268fdec8709772e3fcec0e>@@V<lambda_293819299cbf9a7022e18b56a874bb5c>@@@?$__crt_seh_guarded_call@H@@QAEH$$QAV<lambda_995298e7d72eb4c2aab26c0585b3abe5>@@AAV<lambda_275893d493268fdec8709772e3fcec0e>@@$$QAV<lambda_293819299cbf9a7022e18b56a874bb5c>@@@Z 1002d2d8     libucrt:onexit.obj
 0002:000082f8       __sehtable$_terminate      1002d2f8     libucrt:terminate.obj
 0002:00008318       __sehtable$??$?RV<lambda_9df27f884b057bc3edfc946cb5b7cf47>@@AAV<lambda_e69574bed617af4e071282c136b37893>@@V<lambda_cc0d902bcbbeb830f749456577db4721>@@@?$__crt_seh_guarded_call@X@@QAEX$$QAV<lambda_9df27f884b057bc3edfc946cb5b7cf47>@@AAV<lambda_e69574bed617af4e071282c136b37893>@@$$QAV<lambda_cc0d902bcbbeb830f749456577db4721>@@@Z 1002d318     libucrt:per_thread_data.obj
 0002:00008338       __sehtable$??$?RV<lambda_3518db117f0e7cdb002338c5d3c47b6c>@@AAV<lambda_b2ea41f6bbb362cd97d94c6828d90b61>@@V<lambda_abdedf541bb04549bc734292b4a045d4>@@@?$__crt_seh_guarded_call@X@@QAEX$$QAV<lambda_3518db117f0e7cdb002338c5d3c47b6c>@@AAV<lambda_b2ea41f6bbb362cd97d94c6828d90b61>@@$$QAV<lambda_abdedf541bb04549bc734292b4a045d4>@@@Z 1002d338     libucrt:per_thread_data.obj
 0002:00008358       __sehtable$??$?RV<lambda_51b6e8b1eb166f2a3faf91f424b38130>@@AAV<lambda_6250bd4b2a391816dd638c3bf72b0bcb>@@V<lambda_0b5a4a3e68152e1d9b943535f5f47bed>@@@?$__crt_seh_guarded_call@X@@QAEX$$QAV<lambda_51b6e8b1eb166f2a3faf91f424b38130>@@AAV<lambda_6250bd4b2a391816dd638c3bf72b0bcb>@@$$QAV<lambda_0b5a4a3e68152e1d9b943535f5f47bed>@@@Z 1002d358     libucrt:per_thread_data.obj
 0002:00008378       __sehtable$??$?RV<lambda_5b71d36f03204c0beab531769a5b5694>@@AAV<lambda_be2b3da3f62db62e9dad5dc70221a656>@@V<lambda_8f9ce462984622f9bf76b59e2aaaf805>@@@?$__crt_seh_guarded_call@X@@QAEX$$QAV<lambda_5b71d36f03204c0beab531769a5b5694>@@AAV<lambda_be2b3da3f62db62e9dad5dc70221a656>@@$$QAV<lambda_8f9ce462984622f9bf76b59e2aaaf805>@@@Z 1002d378     libucrt:per_thread_data.obj
 0002:00008398       __sehtable$___acrt_uninitialize_locale 1002d398     libucrt:wsetlocale.obj
 0002:000083b8       __sehtable$___acrt_initialize_lowio 1002d3b8     libucrt:ioinit.obj
 0002:000083d8       __sehtable$___acrt_update_thread_multibyte_data 1002d3d8     libucrt:mbctype.obj
 0002:000083f8       __sehtable$??$?RV<lambda_978dc153c237d78434369da87b74ff60>@@AAV<lambda_ad1ced32f4ac17aa236e5ef05d6b3b7c>@@V<lambda_4a8533e2866a575feecb8298ce776b0d>@@@?$__crt_seh_guarded_call@X@@QAEX$$QAV<lambda_978dc153c237d78434369da87b74ff60>@@AAV<lambda_ad1ced32f4ac17aa236e5ef05d6b3b7c>@@$$QAV<lambda_4a8533e2866a575feecb8298ce776b0d>@@@Z 1002d3f8     libucrt:mbctype.obj
 0002:00008418       __sehtable$__query_new_handler 1002d418     libucrt:new_handler.obj
 0002:00008438       __sehtable$_raise          1002d438     libucrt:signal.obj
 0002:00008458       __sehtable$??$?RV<lambda_a048d3beccc847880fc8490e18b82769>@@AAV<lambda_ec61778202f4f5fc7e7711acc23c3bca>@@V<lambda_f7496a158712204296dd6628a163878e>@@@?$__crt_seh_guarded_call@P6AXH@Z@@QAEP6AXH@Z$$QAV<lambda_a048d3beccc847880fc8490e18b82769>@@AAV<lambda_ec61778202f4f5fc7e7711acc23c3bca>@@$$QAV<lambda_f7496a158712204296dd6628a163878e>@@@Z 1002d458     libucrt:signal.obj
 0002:00008478       __sehtable$___acrt_update_thread_locale_data 1002d478     libucrt:locale_refcounting.obj
 0002:00008498       __sehtable$__fcloseall     1002d498     libucrt:closeall.obj
 0002:000084b8       __sehtable$_common_flush_all 1002d4b8     libucrt:fflush.obj
 0002:000084e0       __sehtable$___acrt_lowio_ensure_fh_exists 1002d4e0     libucrt:osfinfo.obj
 0002:00008500       __sehtable$__write         1002d500     libucrt:write.obj
 0002:00008520       __sehtable$_fclose         1002d520     libucrt:fclose.obj
 0002:00008540       __sehtable$??$?RV<lambda_61cee617f5178ae960314fd4d05640a0>@@AAV<lambda_6978c1fb23f02e42e1d9e99668cc68aa>@@V<lambda_9cd88cf8ad10232537feb2133f08c833>@@@?$__crt_seh_guarded_call@H@@QAEH$$QAV<lambda_61cee617f5178ae960314fd4d05640a0>@@AAV<lambda_6978c1fb23f02e42e1d9e99668cc68aa>@@$$QAV<lambda_9cd88cf8ad10232537feb2133f08c833>@@@Z 1002d540     libucrt:commit.obj
 0002:00008560       __sehtable$??$?RV<lambda_123407a5e2ac06da108355a851863b7a>@@AAV<lambda_2fe9b910cf3cbf4a0ab98a02ba45b3ec>@@V<lambda_ae55bdf541ad94d75914d381c370e64d>@@@?$__crt_seh_guarded_call@H@@QAEH$$QAV<lambda_123407a5e2ac06da108355a851863b7a>@@AAV<lambda_2fe9b910cf3cbf4a0ab98a02ba45b3ec>@@$$QAV<lambda_ae55bdf541ad94d75914d381c370e64d>@@@Z 1002d560     libucrt:close.obj
 0002:00008580       __sehtable$__IsNonwritableInCurrentImage 1002d580     LIBCMT:pesect.obj
 0002:000085a0       .edata                     1002d5a0     ConEmuTh.exp
 0002:000085c8       rgpv                       1002d5c8     ConEmuTh.exp
 0002:000085fc       rgszName                   1002d5fc     ConEmuTh.exp
 0002:00008630       rgwOrd                     1002d630     ConEmuTh.exp
 0002:0000864a       szName                     1002d64a     ConEmuTh.exp
 0002:00008657       $N00001                    1002d657     ConEmuTh.exp
 0002:00008666       $N00002                    1002d666     ConEmuTh.exp
 0002:0000866c       $N00003                    1002d66c     ConEmuTh.exp
 0002:00008674       $N00004                    1002d674     ConEmuTh.exp
 0002:0000867d       $N00005                    1002d67d     ConEmuTh.exp
 0002:0000868c       $N00006                    1002d68c     ConEmuTh.exp
 0002:0000869d       $N00007                    1002d69d     ConEmuTh.exp
 0002:000086af       $N00008                    1002d6af     ConEmuTh.exp
 0002:000086bd       $N00009                    1002d6bd     ConEmuTh.exp
 0002:000086c8       $N00010                    1002d6c8     ConEmuTh.exp
 0002:000086d4       $N00011                    1002d6d4     ConEmuTh.exp
 0002:000086e9       $N00012                    1002d6e9     ConEmuTh.exp
 0002:000086f8       $N00013                    1002d6f8     ConEmuTh.exp
 0002:00008b12       .idata$6                   1002db12     version:VERSION.dll
 0002:00008e60       .idata$6                   1002de60     kernel32:KERNEL32.dll
 0002:000090de       .idata$6                   1002e0de     user32:USER32.dll
 0002:00009230       .idata$6                   1002e230     gdi32:GDI32.dll
 0002:00009290       .idata$6                   1002e290     advapi32:ADVAPI32.dll
 0002:000092b0       .idata$6                   1002e2b0     shell32:SHELL32.dll
 0002:000092e0       .idata$6                   1002e2e0     ole32:ole32.dll
 0003:000000b0       ?__vcrt_flsindex@@3KA      1002f0b0     libvcruntime:per_thread_data.obj
 0003:000000d0       _errno_no_memory           1002f0d0     libucrt:errno.obj
 0003:000000d4       _doserrno_no_memory        1002f0d4     libucrt:errno.obj
 0003:000000e0       ___acrt_flsindex           1002f0e0     libucrt:per_thread_data.obj
 0003:00000258       ___rgctypeflag             1002f258     libucrt:mbctype.obj
 0003:00000260       ___rgcode_page_info        1002f260     libucrt:mbctype.obj
 0003:00021988       ?sbInClearing@?1??ProcessConsoleInput@@YAHHPAU_INPUT_RECORD@@KPAK@Z@4_NA 10050988     ConEmuTh.obj
 0003:000219a4       ?szMenu@?1??GetPluginInfoW1900@@YAXPAX@Z@4PAPA_WA 100509a4     ConEmuTh1900.obj
 0003:000219a8       ?szMenu1@?1??GetPluginInfoW1900@@YAXPAX@Z@4PA_WA 100509a8     ConEmuTh1900.obj
 0003:00021bb0       ?szMenu@?1??GetPluginInfoW2800@@YAXPAX@Z@4PAPA_WA 10050bb0     ConEmuTh2800.obj
 0003:00021bb8       ?szMenu1@?1??GetPluginInfoW2800@@YAXPAX@Z@4PA_WA 10050bb8     ConEmuTh2800.obj
 0003:00021dc0       ?gszRootKeyW995@@3PA_WA    10050dc0     ConEmuTh995.obj
 0003:00021dc4       ?szMenu@?1??GetPluginInfoW995@@YAXPAX@Z@4PAPA_WA 10050dc4     ConEmuTh995.obj
 0003:00021dc8       ?szMenu1@?1??GetPluginInfoW995@@YAXPAX@Z@4PA_WA 10050dc8     ConEmuTh995.obj
 0003:00021fd0       ?gszRootKeyA@@3PA_WA       10050fd0     ConEmuThA.obj
 0003:00021fd4       ?szMenu@?1??GetPluginInfo@@9@4@4PAPADA 10050fd4     ConEmuThA.obj
 0003:00021fd8       ?szMenu1@?1??GetPluginInfo@@9@4@4PADA 10050fd8     ConEmuThA.obj
 0003:000220f4       ?hClass@@3GA               100510f4     Display.obj
 0003:00022104       ?gHeapInit@?A0x8f3601b8@@3U?$atomic@H@std@@A 10051104     common-kernel32:Memory.obj
 0003:00022108       ?gHeapCounter@?A0x8f3601b8@@3U?$atomic@H@std@@A 10051108     common-kernel32:Memory.obj
 0003:00022128       ?szFile@?1??ModuleName@@YAPB_WPB_W@Z@4PA_WA 10051128     common-kernel32:ConEmuCheck.obj
 0003:00022168       ?terminalMode@?1??isTerminalMode@@YA_NXZ@4_NA 10051168     common-kernel32:MProcess.obj
 0003:00022169       ?terminalChecked@?1??isTerminalMode@@YA_NXZ@4_NA 10051169     common-kernel32:MProcess.obj
 0003:00022174       ?gh_UnknownTerminatedThread@@3PAXA 10051174     common-kernel32:WThreads.obj
 0003:00022178       ?g_Threads@@3PAUConEmuThreadInfo@@A 10051178     common-kernel32:WThreads.obj
 0003:0002997c       ?rtlVerifyVersionInfo@?1??_VerifyVersionInfo@@YA_NPAU_OSVERSIONINFOEXW@@K_K@Z@4P6GH0K1@ZA 1005897c     common-kernel32:WObjects.obj
 0003:00029980       ?hasRtl@?1??_VerifyVersionInfo@@YA_NPAU_OSVERSIONINFOEXW@@K_K@Z@4HA 10058980     common-kernel32:WObjects.obj
 0003:00029984       ?ibIsWin7@?1??IsWin7@@YA_NXZ@4HA 10058984     common-kernel32:WObjects.obj
 0003:00029988       ?is64bitOs@?1??IsWindows64@@YA_NXZ@4_NA 10058988     common-kernel32:WObjects.obj
 0003:00029989       ?isOsChecked@?1??IsWindows64@@YA_NXZ@4_NA 10058989     common-kernel32:WObjects.obj
 0003:0002998a       ?gbInTransparentAssert@@3_NA 1005898a     common-user32:RgnDetect.obj
 0003:0002998c       ?__proc_attached@@3HA      1005898c     LIBCMT:dll_dllmain.obj
 0003:00029990       _GS_ExceptionRecord        10058990     LIBCMT:gs_report.obj
 0003:000299e0       _GS_ContextRecord          100589e0     LIBCMT:gs_report.obj
 0003:00029cc8       ?is_initialized_as_dll@@3_NA 10058cc8     LIBCMT:utility.obj
 0003:00029cc9       ?module_local_atexit_table_initialized@@3_NA 10058cc9     LIBCMT:utility.obj
 0003:00029ccc       ?module_local_atexit_table@@3U_onexit_table_t@@A 10058ccc     LIBCMT:utility.obj
 0003:00029cd8       ?module_local_at_quick_exit_table@@3U_onexit_table_t@@A 10058cd8     LIBCMT:utility.obj
 0003:00029cf0       ?__vcrt_startup_thread_ptd@@3U__vcrt_ptd@@A 10058cf0     libvcruntime:per_thread_data.obj
 0003:00029d40       ?heap@@3V_HeapManager@@A   10058d40     libvcruntime:undname.obj
 0003:00029d54       ___vcrt_lock_table         10058d54     libvcruntime:locks.obj
 0003:00029d6c       ___vcrt_locks_initialized  10058d6c     libvcruntime:locks.obj
 0003:00029d70       ?module_handles@@3PAPAUHINSTANCE__@@A 10058d70     libvcruntime:winapi_downlevel.obj
 0003:00029d7c       ?encoded_function_pointers@@3PAPAXA 10058d7c     libvcruntime:winapi_downlevel.obj
 0003:00029d98       ___acrt_invalid_parameter_handler 10058d98     libucrt:invalid_parameter.obj
 0003:00029d9c       _c_termination_complete    10058d9c     libucrt:exit.obj
 0003:00029da0       _thread_local_exit_callback_func 10058da0     libucrt:exit.obj
 0003:00029da4       ?c_exit_complete@?5??common_exit@@YAXHW4_crt_exit_cleanup_mode@@W4_crt_exit_return_mode@@@Z@4_NA 10058da4     libucrt:exit.obj
 0003:00029da8       ?program_name@?5???$common_configure_argv@D@@YAHW4_crt_argv_mode@@@Z@4PADA 10058da8     libucrt:argv_parsing.obj
 0003:00029ee0       _enable_percent_n          10058ee0     libucrt:printf_count_output.obj
 0003:0002a100       ___acrt_lock_table         10059100     libucrt:locks.obj
 0003:0002a238       ___acrt_locks_initialized  10059238     libucrt:locks.obj
 0003:0002a240       _module_handles            10059240     libucrt:winapi_thunks.obj
 0003:0002a290       _encoded_function_pointers 10059290     libucrt:winapi_thunks.obj
 0003:0002a310       ?state_cache@?1??__acrt_is_packaged_app@@9@4JA 10059310     libucrt:winapi_thunks.obj
 0003:0002a32c       _fSystemSet                1005932c     libucrt:mbctype.obj
 0003:0002a330       ?initialized@?1??__acrt_initialize_multibyte@@9@4_NA 10059330     libucrt:mbctype.obj
 0003:0002a350       ___acrt_new_handler        10059350     libucrt:new_handler.obj
 0003:0002a354       _ctrlc_action              10059354     libucrt:signal.obj
 0003:0002a358       _ctrlbreak_action          10059358     libucrt:signal.obj
 0003:0002a35c       _abort_action              1005935c     libucrt:signal.obj
 0003:0002a360       _term_action               10059360     libucrt:signal.obj
 0003:0002a364       _user_matherr              10059364     libucrt:matherr.obj
 0003:0002a368       ___acrt_global_new_mode    10059368     libucrt:new_mode.obj
 0003:0002a374       ___acrt_app_type           10059374     libucrt:report_runtime_error.obj
 0003:0002a37c       __pmatherr_set             1005937c     libucrt:libm_error.obj
 0004:00000130       $R000000                   1005a130     ConEmuTh.res
 0004:00000448       $R000318                   1005a448     ConEmuTh.res
 0004:000014f0       $R0013C0                   1005b4f0     ConEmuTh.res
 0004:00001508       $R0013D8                   1005b508     ConEmuTh.res
